(dp0
I0
(lp1
(S'ill'
p2
S'worse'
p3
tp4
asI1
(lp5
(S'mean'
p6
S'meaner'
p7
tp8
asI2
(lp9
(S'brave'
p10
S'braver'
p11
tp12
asI3
(lp13
(S'loose'
p14
S'looser'
p15
tp16
asI4
(lp17
(S'happier'
p18
S'happiest'
p19
tp20
asI5
(lp21
(S'ill'
p22
S'worst'
p23
tp24
asI6
(lp25
(S'smooth'
p26
S'smoother'
p27
tp28
asI7
(lp29
(S'full'
p30
S'fuller'
p31
tp32
asI8
(lp33
(S'swift'
p34
S'swifter'
p35
tp36
asI9
(lp37
(S'soon'
p38
S'sooner'
p39
tp40
asI10
(lp41
(S'earlier'
p42
S'earliest'
p43
tp44
asI11
(lp45
(S'some'
p46
S'most'
p47
tp48
asI12
(lp49
(S'further'
p50
S'furthest'
p51
tp52
asI13
(lp53
(S'up'
p54
S'upper'
p55
tp56
asI14
(lp57
(S'sick'
p58
S'sicker'
p59
tp60
asI15
(lp61
(S'far'
p62
g51
tp63
asI16
(lp64
(S'tight'
p65
S'tighter'
p66
tp67
asI17
(lp68
(S'sharp'
p69
S'sharper'
p70
tp71
asI18
(lp72
(S'fine'
p73
S'finer'
p74
tp75
asI19
(lp76
(S'fine'
p77
S'finest'
p78
tp79
asI20
(lp80
(S'larger'
p81
S'largest'
p82
tp83
asI21
(lp84
(S'well'
p85
S'best'
p86
tp87
asI22
(lp88
(S'deep'
p89
S'deepest'
p90
tp91
asI23
(lp92
(S'clean'
p93
S'cleaner'
p94
tp95
asI24
(lp96
(S'mild'
p97
S'milder'
p98
tp99
asI25
(lp100
(S'east'
p101
S'easier'
p102
tp103
asI26
(lp104
(S'late'
p105
S'latest'
p106
tp107
asI27
(lp108
(S'wet'
p109
S'wetter'
p110
tp111
asI28
(lp112
(S'sweet'
p113
S'sweeter'
p114
tp115
asI29
(lp116
(S'steep'
p117
S'steeper'
p118
tp119
asI30
(lp120
(S'large'
p121
S'largest'
p122
tp123
asI31
(lp124
(S'finer'
p125
S'finest'
p126
tp127
asI32
(lp128
(S'near'
p129
S'nearest'
p130
tp131
asI33
(lp132
(S'east'
p133
S'easiest'
p134
tp135
as.