(dp0
I0
(lp1
(S'formidable'
p2
S'daunting'
p3
tp4
asI1
(lp5
(S'celebrated'
p6
S'noteworthy'
p7
tp8
asI2
(lp9
(S'costly'
p10
S'excessive'
p11
tp12
asI3
(lp13
(S'exceptional'
p14
S'perfect'
p15
tp16
asI4
(lp17
(S'indigent'
p18
S'bankrupt'
p19
tp20
asI5
(lp21
(S'comprehensive'
p22
S'universal'
p23
tp24
asI6
(lp25
(S'awful'
p26
S'shitty'
p27
tp28
asI7
(lp29
(S'adequate'
p30
S'fine'
p31
tp32
asI8
(lp33
(S'immense'
p34
S'colossal'
p35
tp36
asI9
(lp37
(S'formidable'
p38
g35
tp39
asI10
(lp40
(S'commonplace'
p41
g23
tp42
asI11
(lp43
(S'uncomfortable'
p44
S'embarrassed'
p45
tp46
asI12
(lp47
(S'hardworking'
p48
S'tenacious'
p49
tp50
asI13
(lp51
(S'intact'
p52
S'sturdy'
p53
tp54
asI14
(lp55
(S'stringent'
p56
S'severe'
p57
tp58
asI15
(lp59
(g35
S'tremendous'
p60
tp61
asI16
(lp62
(S'bad'
p63
S'horrific'
p64
tp65
asI17
(lp66
(S'admirable'
p67
S'upstanding'
p68
tp69
asI18
(lp70
(S'general'
p71
S'diverse'
p72
tp73
asI19
(lp74
(S'broad'
p75
g72
tp76
asI20
(lp77
(S'excessive'
p78
S'huge'
p79
tp80
asI21
(lp81
(g38
g34
tp82
asI22
(lp83
(S'plenty'
p84
S'vast'
p85
tp86
asI23
(lp87
(S'cute'
p88
S'breathtaking'
p89
tp90
asI24
(lp91
(S'better'
p92
S'remarkable'
p93
tp94
asI25
(lp95
(S'global'
p96
g23
tp97
asI26
(lp98
(S'tough'
p99
g3
tp100
asI27
(lp101
(g93
g15
tp102
asI28
(lp103
(S'fine'
p104
S'satisfactory'
p105
tp106
asI29
(lp107
(g99
g2
tp108
asI30
(lp109
(S'improper'
p110
S'incorrect'
p111
tp112
asI31
(lp113
(S'delighted'
p114
S'overwhelmed'
p115
tp116
asI32
(lp117
(S'general'
p118
g22
tp119
asI33
(lp120
(g38
S'overwhelming'
p121
tp122
asI34
(lp123
(g35
g121
tp124
asI35
(lp125
(g34
g121
tp126
asI36
(lp127
(g111
S'unsatisfactory'
p128
tp129
asI37
(lp130
(S'scarce'
p131
S'inadequate'
p132
tp133
asI38
(lp134
(g34
g60
tp135
asI39
(lp136
(S'appropriate'
p137
S'faultless'
p138
tp139
asI40
(lp140
(S'sizeable'
p141
g38
tp142
asI41
(lp143
(g141
g35
tp144
asI42
(lp145
(S'remarkable'
p146
S'spectacular'
p147
tp148
asI43
(lp149
(S'low'
p150
S'limited'
p151
tp152
asI44
(lp153
(g41
g96
tp154
asI45
(lp155
(S'fitting'
p156
g30
tp157
asI46
(lp158
(S'spectacular'
p159
S'breathtaking'
p160
tp161
asI47
(lp162
(g71
g75
tp163
asI48
(lp164
(S'tremendous'
p165
S'immense'
p166
tp167
asI49
(lp168
(S'limited'
p169
S'scant'
p170
tp171
asI50
(lp172
(g85
S'abundant'
p173
tp174
asI51
(lp175
(g132
S'unacceptable'
p176
tp177
asI52
(lp178
(S'pleased'
p179
g115
tp180
asI53
(lp181
(S'major'
p182
S'staggering'
p183
tp184
asI54
(lp185
(g84
g173
tp186
asI55
(lp187
(S'staggering'
p188
S'tremendous'
p189
tp190
asI56
(lp191
(S'few'
p192
S'little'
p193
tp194
asI57
(lp195
(g141
g121
tp196
asI58
(lp197
(g110
g128
tp198
asI59
(lp199
(g131
g176
tp200
asI60
(lp201
(g22
g96
tp202
asI61
(lp203
(S'fine'
p204
S'adequate'
p205
tp206
asI62
(lp207
(g41
g22
tp208
asI63
(lp209
(g141
g34
tp210
asI64
(lp211
(S'minute'
p212
S'miniscule'
p213
tp214
asI65
(lp215
(g92
g14
tp216
asI66
(lp217
(S'okay'
p218
g138
tp219
as.