(dp0
I0
(lp1
(S'chilly'
p2
S'hostile'
p3
tp4
asI1
(lp5
(S'minuscule'
p6
S'micro'
p7
tp8
asI2
(lp9
(S'deceptive'
p10
S'fraudulent'
p11
tp12
asI3
(lp13
(S'critical'
p14
S'negative'
p15
tp16
asI4
(lp17
(S'uncommon'
p18
S'extraordinary'
p19
tp20
asI5
(lp21
(S'skinny'
p22
S'skeletal'
p23
tp24
asI6
(lp25
(S'comprehensive'
p26
S'universal'
p27
tp28
asI7
(lp29
(S'smaller'
p30
g6
tp31
asI8
(lp32
(S'overheated'
p33
S'sultry'
p34
tp35
asI9
(lp36
(S'interesting'
p37
S'thrilling'
p38
tp39
asI10
(lp40
(S'first'
p41
S'third'
p42
tp43
asI11
(lp44
(S'sugary'
p45
S'syrupy'
p46
tp47
asI12
(lp48
(S'soft'
p49
S'silent'
p50
tp51
asI13
(lp52
(S'wide'
p53
S'full'
p54
tp55
asI14
(lp56
(S'slim'
p57
g23
tp58
asI15
(lp59
(S'midget'
p60
S'minute'
p61
tp62
asI16
(lp63
(S'triple'
p64
S'treble'
p65
tp66
asI17
(lp67
(S'second'
p68
S'eighth'
p69
tp70
asI18
(lp71
(g60
g6
tp72
asI19
(lp73
(S'thick'
p74
S'dense'
p75
tp76
asI20
(lp77
(S'immaculate'
p78
S'spotless'
p79
tp80
asI21
(lp81
(S'fifth'
p82
S'seventh'
p83
tp84
asI22
(lp85
(g22
S'gaunt'
p86
tp87
asI23
(lp88
(S'lovely'
p89
S'attractive'
p90
tp91
asI24
(lp92
(S'fourth'
p93
g83
tp94
asI25
(lp95
(S'sick'
p96
S'disabled'
p97
tp98
asI26
(lp99
(S'frigid'
p100
S'frozen'
p101
tp102
asI27
(lp103
(S'reasonable'
p104
S'valid'
p105
tp106
asI28
(lp107
(g61
g7
tp108
asI29
(lp109
(g41
g69
tp110
asI30
(lp111
(S'terrible'
p112
S'violent'
p113
tp114
asI31
(lp115
(g82
g69
tp116
asI32
(lp117
(S'negligent'
p118
S'careless'
p119
tp120
asI33
(lp121
(g86
g23
tp122
asI34
(lp123
(S'general'
p124
S'complete'
p125
tp126
asI35
(lp127
(S'dual'
p128
g65
tp129
asI36
(lp130
(S'chilly'
p131
S'icy'
p132
tp133
asI37
(lp134
(g68
g93
tp135
asI38
(lp136
(g68
g83
tp137
asI39
(lp138
(S'painful'
p139
S'hopeless'
p140
tp141
asI40
(lp142
(S'sixth'
p143
g69
tp144
asI41
(lp145
(S'gloomy'
p146
S'black'
p147
tp148
asI42
(lp149
(S'intriguing'
p150
S'amusing'
p151
tp152
asI43
(lp153
(g60
S'microscopic'
p154
tp155
asI44
(lp156
(g93
g143
tp157
asI45
(lp158
(S'lean'
p159
g57
tp160
asI46
(lp161
(S'cracked'
p162
S'crushed'
p163
tp164
asI47
(lp165
(S'entertaining'
p166
S'fascinating'
p167
tp168
asI48
(lp169
(S'imperceptible'
p170
S'inaudible'
p171
tp172
asI49
(lp173
(S'doubled'
p174
g128
tp175
asI50
(lp176
(g159
S'thin'
p177
tp178
asI51
(lp179
(S'content'
p180
S'euphoric'
p181
tp182
asI52
(lp183
(g131
g101
tp184
asI53
(lp185
(g30
g61
tp186
asI54
(lp187
(S'unstable'
p188
S'insane'
p189
tp190
asI55
(lp191
(S'near'
p192
S'intimate'
p193
tp194
asI56
(lp195
(S'affordable'
p196
S'inexpensive'
p197
tp198
asI57
(lp199
(S'many'
p200
S'galore'
p201
tp202
asI58
(lp203
(S'moving'
p204
g38
tp205
asI59
(lp206
(g125
g27
tp207
asI60
(lp208
(g68
g143
tp209
asI61
(lp210
(S'cool'
p211
S'unfriendly'
p212
tp213
asI62
(lp214
(S'strong'
p215
g112
tp216
asI63
(lp217
(S'solemn'
p218
S'grave'
p219
tp220
asI64
(lp221
(S'dim'
p222
g147
tp223
asI65
(lp224
(g174
S'quadruple'
p225
tp226
asI66
(lp227
(g60
g7
tp228
asI67
(lp229
(S'mediocre'
p230
S'cheap'
p231
tp232
asI68
(lp233
(g96
S'impaired'
p234
tp235
asI69
(lp236
(S'smooth'
p237
S'painless'
p238
tp239
asI70
(lp240
(S'frightening'
p241
S'sinister'
p242
tp243
asI71
(lp244
(S'broad'
p245
S'general'
p246
tp247
asI72
(lp248
(S'immoral'
p249
S'sinful'
p250
tp251
asI73
(lp252
(S'like'
p253
S'equal'
p254
tp255
asI74
(lp256
(S'bleak'
p257
S'desperate'
p258
tp259
asI75
(lp260
(S'sexy'
p261
S'seductive'
p262
tp263
asI76
(lp264
(S'further'
p265
S'removed'
p266
tp267
asI77
(lp268
(S'chubby'
p269
S'obese'
p270
tp271
asI78
(lp272
(S'some'
p273
S'numerous'
p274
tp275
asI79
(lp276
(g159
g23
tp277
asI80
(lp278
(g150
g166
tp279
asI81
(lp280
(S'hot'
p281
g33
tp282
asI82
(lp283
(S'impractical'
p284
S'unrealistic'
p285
tp286
asI83
(lp287
(g230
S'worst'
p288
tp289
asI84
(lp290
(g33
S'stifling'
p291
tp292
asI85
(lp293
(S'farther'
p294
g266
tp295
asI86
(lp296
(S'available'
p297
S'visible'
p298
tp299
asI87
(lp300
(g273
g201
tp301
asI88
(lp302
(g281
g34
tp303
asI89
(lp304
(S'intense'
p305
g112
tp306
asI90
(lp307
(S'sufficient'
p308
g53
tp309
asI91
(lp310
(g42
g83
tp311
asI92
(lp312
(S'real'
p313
g218
tp314
asI93
(lp315
(S'stuffed'
p316
S'overflowing'
p317
tp318
asI94
(lp319
(g2
g212
tp320
asI95
(lp321
(S'tiny'
p322
g7
tp323
asI96
(lp324
(g281
g291
tp325
asI97
(lp326
(S'overweight'
p327
g269
tp328
asI98
(lp329
(S'ill'
p330
g234
tp331
asI99
(lp332
(g131
g100
tp333
asI100
(lp334
(S'terrifying'
p335
g242
tp336
asI101
(lp337
(S'known'
p338
S'legendary'
p339
tp340
asI102
(lp341
(S'low'
p342
S'subdued'
p343
tp344
asI103
(lp345
(g42
g143
tp346
asI104
(lp347
(S'statewide'
p348
S'worldwide'
p349
tp350
asI105
(lp351
(S'risky'
p352
S'suicidal'
p353
tp354
asI106
(lp355
(S'overwhelming'
p356
g113
tp357
asI107
(lp358
(S'close'
p359
S'snug'
p360
tp361
asI108
(lp362
(S'nearby'
p363
S'adjacent'
p364
tp365
asI109
(lp366
(S'alright'
p367
S'acceptable'
p368
tp369
asI110
(lp370
(S'shut'
p371
S'sealed'
p372
tp373
asI111
(lp374
(g41
g93
tp375
asI112
(lp376
(g124
g26
tp377
asI113
(lp378
(g151
g167
tp379
asI114
(lp380
(S'high'
p381
S'soaring'
p382
tp383
asI115
(lp384
(S'unusual'
p385
g19
tp386
asI116
(lp387
(S'okay'
p388
g368
tp389
asI117
(lp390
(S'personal'
p391
S'secret'
p392
tp393
asI118
(lp394
(S'funny'
p395
S'eerie'
p396
tp397
asI119
(lp398
(g128
g225
tp399
asI120
(lp400
(g42
g69
tp401
asI121
(lp402
(g238
S'effortless'
p403
tp404
asI122
(lp405
(g274
g201
tp406
asI123
(lp407
(g112
g356
tp408
asI124
(lp409
(g154
g7
tp410
asI125
(lp411
(g170
S'silent'
p412
tp413
asI126
(lp414
(g61
g154
tp415
asI127
(lp416
(S'ignored'
p417
S'forgotten'
p418
tp419
asI128
(lp420
(S'double'
p421
g128
tp422
asI129
(lp423
(g124
S'extensive'
p424
tp425
asI130
(lp426
(S'cool'
p427
S'serene'
p428
tp429
asI131
(lp430
(S'flavorful'
p431
S'spicy'
p432
tp433
asI132
(lp434
(g171
g412
tp435
asI133
(lp436
(g250
S'evil'
p437
tp438
asI134
(lp439
(g159
g86
tp440
asI135
(lp441
(S'simple'
p442
g403
tp443
asI136
(lp444
(g431
S'zesty'
p445
tp446
asI137
(lp447
(g285
S'infeasible'
p448
tp449
asI138
(lp450
(g30
g154
tp451
asI139
(lp452
(S'transnational'
p453
S'international'
p454
tp455
asI140
(lp456
(g284
g448
tp457
asI141
(lp458
(g68
g82
tp459
asI142
(lp460
(g308
g54
tp461
asI143
(lp462
(S'creepy'
p463
g242
tp464
asI144
(lp465
(g41
g143
tp466
asI145
(lp467
(S'big'
p468
S'large'
p469
tp470
asI146
(lp471
(S'homicidal'
p472
S'murderous'
p473
tp474
asI147
(lp475
(g6
g154
tp476
asI148
(lp477
(g101
g132
tp478
asI149
(lp479
(g93
g69
tp480
asI150
(lp481
(S'cordial'
p482
S'intimate'
p483
tp484
asI151
(lp485
(g30
g7
tp486
asI152
(lp487
(g100
g132
tp488
asI153
(lp489
(g60
g322
tp490
asI154
(lp491
(g204
S'exciting'
p492
tp493
asI155
(lp494
(S'frustrated'
p495
S'defeated'
p496
tp497
asI156
(lp498
(g10
S'false'
p499
tp500
asI157
(lp501
(g421
g174
tp502
asI158
(lp503
(g34
g291
tp504
asI159
(lp505
(S'cool'
p506
g132
tp507
asI160
(lp508
(S'indispensable'
p509
S'critical'
p510
tp511
asI161
(lp512
(g41
g83
tp513
asI162
(lp514
(S'realistic'
p515
S'practical'
p516
tp517
asI163
(lp518
(g342
S'quiet'
p519
tp520
asI164
(lp521
(g237
g442
tp522
asI165
(lp523
(S'beautiful'
p524
S'seductive'
p525
tp526
asI166
(lp527
(g231
g288
tp528
asI167
(lp529
(S'unreliable'
p530
g352
tp531
asI168
(lp532
(S'unattractive'
p533
S'ugly'
p534
tp535
asI169
(lp536
(S'sizeable'
p537
S'colossal'
p538
tp539
asI170
(lp540
(g174
g65
tp541
asI171
(lp542
(g57
g86
tp543
asI172
(lp544
(g49
S'quiet'
p545
tp546
asI173
(lp547
(g41
g82
tp548
asI174
(lp549
(S'profane'
p550
S'obscene'
p551
tp552
asI175
(lp553
(g530
g353
tp554
asI176
(lp555
(S'small'
p556
g60
tp557
as.