(dp0
S'tau'
p1
F0.0
sS'|tau|'
p2
F0.0
sS'pairwise'
p3
F0.5
sS'ranking'
p4
(dp5
I0
(dp6
g1
F0.0
sS'gold'
p7
(lp8
(lp9
S'cute'
p10
aa(lp11
S'delightful'
p12
aa(lp13
S'charming'
p14
aa(lp15
S'adorable'
p16
aa(lp17
S'gorgeous'
p18
aasS'raw'
p19
(dp20
S'prob*'
p21
cnumpy.core.multiarray
scalar
p22
(cnumpy
dtype
p23
(S'f8'
p24
I0
I1
tp25
Rp26
(I3
S'<'
p27
NNNI-1
I-1
I0
tp28
bS'\x12\x04Y\x9a\xb8\xe9\x95?'
p29
tp30
Rp31
sS'link-probs'
p32
(lp33
(g10
g18
F0.75
tp34
a(g10
g14
F0.6666666666666666
tp35
a(g10
g16
F0.6666666666666666
tp36
a(g10
g12
F0.8
tp37
a(g18
g14
F0.6666666666666666
tp38
a(g18
g16
F0.4814862246173239
tp39
a(g18
g12
F0.6666666666666666
tp40
a(g14
g16
F0.6
tp41
a(g14
g12
F0.8333333333333334
tp42
a(g16
g12
F0.75
tp43
assg3
F0.5
sS'algo'
p44
(lp45
(lp46
g10
aa(lp47
g18
aa(lp48
g14
aa(lp49
g16
aa(lp50
g12
aasg2
F0.0
sss.