(dp0
S'tau'
p1
F-0.2
sS'|tau|'
p2
F0.2
sS'pairwise'
p3
F0.4
sS'ranking'
p4
(dp5
I0
(dp6
g1
F-0.2
sS'gold'
p7
(lp8
(lp9
S'successful'
p10
aa(lp11
S'efficient'
p12
aa(lp13
S'adequate'
p14
aa(lp15
S'competitive'
p16
aa(lp17
S'effective'
p18
aasS'raw'
p19
(dp20
S'prob*'
p21
cnumpy.core.multiarray
scalar
p22
(cnumpy
dtype
p23
(S'f8'
p24
I0
I1
tp25
Rp26
(I3
S'<'
p27
NNNI-1
I-1
I0
tp28
bS'\xef(\xed\n\\\x00w?'
p29
tp30
Rp31
sS'link-probs'
p32
(lp33
(g14
g18
F0.6238669884437683
tp34
a(g14
g12
F0.639344352095658
tp35
a(g14
g10
F0.6240843224211005
tp36
a(g14
g16
F0.6357652437190292
tp37
a(g18
g12
F0.65
tp38
a(g18
g10
F0.6363636363636364
tp39
a(g18
g16
F0.5301531541078031
tp40
a(g12
g10
F0.625
tp41
a(g12
g16
F0.48877838413630154
tp42
a(g10
g16
F0.5296822788963337
tp43
assg3
F0.4
sS'algo'
p44
(lp45
(lp46
g14
aa(lp47
g18
aa(lp48
g12
aa(lp49
g10
aa(lp50
g16
aasg2
F0.2
sss.