(dp0
S'tau'
p1
F0.6
sS'|tau|'
p2
F0.6
sS'pairwise'
p3
F0.8
sS'ranking'
p4
(dp5
I0
(dp6
g1
F0.6
sS'gold'
p7
(lp8
(lp9
S'detailed'
p10
aa(lp11
S'full'
p12
aa(lp13
S'complete'
p14
aa(lp15
S'thorough'
p16
aa(lp17
S'deep'
p18
aa(lp19
S'extensive'
p20
aasS'raw'
p21
(dp22
S'prob*'
p23
cnumpy.core.multiarray
scalar
p24
(cnumpy
dtype
p25
(S'f8'
p26
I0
I1
tp27
Rp28
(I3
S'<'
p29
NNNI-1
I-1
I0
tp30
bS'\x10\xc3\xd9\xeaX\xe4@?'
p31
tp32
Rp33
sS'link-probs'
p34
(lp35
(g10
g12
F0.6209277584935774
tp36
a(g10
g14
F0.6666666666666666
tp37
a(g10
g20
F0.75
tp38
a(g10
g18
F0.6068054784317062
tp39
a(g10
g16
F0.5522163182414895
tp40
a(g12
g14
F0.5107819364746494
tp41
a(g12
g20
F0.6666666666666666
tp42
a(g12
g18
F0.47360484809774506
tp43
a(g12
g16
F0.6666666666666666
tp44
a(g14
g20
F0.6666666666666666
tp45
a(g14
g18
F0.46319993821556343
tp46
a(g14
g16
F0.6
tp47
a(g20
g18
F0.6044783683503585
tp48
a(g20
g16
F0.5486826117208228
tp49
a(g18
g16
F0.75
tp50
assg3
F0.8
sS'algo'
p51
(lp52
(lp53
g10
aa(lp54
g12
aa(lp55
g14
aa(lp56
g20
aa(lp57
g18
aa(lp58
g16
aasg2
F0.6
sss.