(dp0
S'tau'
p1
F-0.6
sS'|tau|'
p2
F0.6
sS'pairwise'
p3
F0.2
sS'ranking'
p4
(dp5
I0
(dp6
g1
F-0.6
sS'gold'
p7
(lp8
(lp9
S'fantastic'
p10
aa(lp11
S'outstanding'
p12
aa(lp13
S'wonderful'
p14
aa(lp15
S'excellent'
p16
aa(lp17
S'unique'
p18
aa(lp19
S'special'
p20
aasS'raw'
p21
(dp22
S'prob*'
p23
cnumpy.core.multiarray
scalar
p24
(cnumpy
dtype
p25
(S'f8'
p26
I0
I1
tp27
Rp28
(I3
S'<'
p29
NNNI-1
I-1
I0
tp30
bS'\xfe\x9e\xd3\x1a\x83!Y?'
p31
tp32
Rp33
sS'link-probs'
p34
(lp35
(g20
g16
F0.6666666666666666
tp36
a(g20
g14
F0.75
tp37
a(g20
g12
F0.8
tp38
a(g20
g18
F0.8
tp39
a(g20
g10
F0.6666666666666666
tp40
a(g16
g14
F0.6666666666666666
tp41
a(g16
g12
F0.625
tp42
a(g16
g18
F0.5905976846708084
tp43
a(g16
g10
F0.8571428571428571
tp44
a(g14
g12
F0.625
tp45
a(g14
g18
F0.38565826963438204
tp46
a(g14
g10
F0.6666666666666666
tp47
a(g12
g18
F0.6666666666666666
tp48
a(g12
g10
F0.5196717796732835
tp49
a(g18
g10
F0.6123031735366997
tp50
assg3
F0.2
sS'algo'
p51
(lp52
(lp53
g20
aa(lp54
g16
aa(lp55
g14
aa(lp56
g12
aa(lp57
g18
aa(lp58
g10
aasg2
F0.6
sss.