(dp0
S'tau'
p1
F-0.2
sS'|tau|'
p2
F0.2
sS'pairwise'
p3
F0.4
sS'ranking'
p4
(dp5
I0
(dp6
g1
F-0.2
sS'gold'
p7
(lp8
(lp9
S'comparable'
p10
aa(lp11
S'similar'
p12
aa(lp13
S'like'
p14
aa(lp15
S'same'
p16
aa(lp17
S'equal'
p18
aasS'raw'
p19
(dp20
S'prob*'
p21
cnumpy.core.multiarray
scalar
p22
(cnumpy
dtype
p23
(S'f8'
p24
I0
I1
tp25
Rp26
(I3
S'<'
p27
NNNI-1
I-1
I0
tp28
bS'y\x11l36\x18}?'
p29
tp30
Rp31
sS'link-probs'
p32
(lp33
(g14
g18
F0.6355223983764767
tp34
a(g14
g12
F0.6
tp35
a(g14
g10
F0.6666666666666666
tp36
a(g14
g16
F0.6399554192960293
tp37
a(g18
g12
F0.6666666666666666
tp38
a(g18
g10
F0.6666666666666666
tp39
a(g18
g16
F0.3333333333333333
tp40
a(g12
g10
F0.7142857142857143
tp41
a(g12
g16
F0.6415431642323502
tp42
a(g10
g16
F0.6431576694666142
tp43
assg3
F0.4
sS'algo'
p44
(lp45
(lp46
g14
aa(lp47
g18
aa(lp48
g12
aa(lp49
g10
aa(lp50
g16
aasg2
F0.2
sss.