(dp0
S'tau'
p1
F-1.0
sS'|tau|'
p2
F1.0
sS'pairwise'
p3
F0.0
sS'ranking'
p4
(dp5
I0
(dp6
g1
F-1.0
sS'gold'
p7
(lp8
(lp9
S'creative'
p10
aa(lp11
S'innovative'
p12
aasS'raw'
p13
(dp14
S'prob*'
p15
cnumpy.core.multiarray
scalar
p16
(cnumpy
dtype
p17
(S'f8'
p18
I0
I1
tp19
Rp20
(I3
S'<'
p21
NNNI-1
I-1
I0
tp22
bS'UUUUUU\xe5?'
p23
tp24
Rp25
sS'link-probs'
p26
(lp27
(g12
g10
F0.6666666666666666
tp28
assg3
F0.0
sS'algo'
p29
(lp30
(lp31
g12
aa(lp32
g10
aasg2
F1.0
sss.