(dp0
S'tau'
p1
F0.6
sS'|tau|'
p2
F0.6
sS'pairwise'
p3
F0.8
sS'ranking'
p4
(dp5
I0
(dp6
g1
F0.6
sS'gold'
p7
(lp8
(lp9
S'late'
p10
aa(lp11
S'later'
p12
aa(lp13
S'last'
p14
aa(lp15
S'over'
p16
aa(lp17
S'married'
p18
aa(lp19
S'past'
p20
aasS'raw'
p21
(dp22
S'prob*'
p23
cnumpy.core.multiarray
scalar
p24
(cnumpy
dtype
p25
(S'f8'
p26
I0
I1
tp27
Rp28
(I3
S'<'
p29
NNNI-1
I-1
I0
tp30
bS'\x82\x14\x93\xa7\xc9\xbe9?'
p31
tp32
Rp33
sS'link-probs'
p34
(lp35
(g10
g18
F0.5383065548865891
tp36
a(g10
g12
F0.9
tp37
a(g10
g14
F0.6035665392025037
tp38
a(g10
g16
F0.6212498792132337
tp39
a(g10
g20
F0.5901470798780183
tp40
a(g18
g12
F0.559200041241991
tp41
a(g18
g14
F0.5761335254250339
tp42
a(g18
g16
F0.5995966806833973
tp43
a(g18
g20
F0.559200041241991
tp44
a(g12
g14
F0.5202131937756874
tp45
a(g12
g16
F0.5512817298723783
tp46
a(g12
g20
F0.5
tp47
a(g14
g16
F0.532272843450234
tp48
a(g14
g20
F0.6666666666666666
tp49
a(g16
g20
F0.6666666666666666
tp50
assg3
F0.8
sS'algo'
p51
(lp52
(lp53
g10
aa(lp54
g18
aa(lp55
g12
aa(lp56
g14
aa(lp57
g16
aa(lp58
g20
aasg2
F0.6
sss.