(dp0
S'tau'
p1
F0.0
sS'|tau|'
p2
F0.0
sS'pairwise'
p3
F0.5
sS'ranking'
p4
(dp5
I0
(dp6
g1
F0.0
sS'gold'
p7
(lp8
(lp9
S'healthy'
p10
aa(lp11
S'quality'
p12
aa(lp13
S'safe'
p14
aa(lp15
S'green'
p16
aa(lp17
S'clean'
p18
aasS'raw'
p19
(dp20
S'prob*'
p21
cnumpy.core.multiarray
scalar
p22
(cnumpy
dtype
p23
(S'f8'
p24
I0
I1
tp25
Rp26
(I3
S'<'
p27
NNNI-1
I-1
I0
tp28
bS'\xfa\x10\x1b\x14\xef\xc7w?'
p29
tp30
Rp31
sS'link-probs'
p32
(lp33
(g12
g18
F0.5849747106845928
tp34
a(g12
g14
F0.6129603891058006
tp35
a(g12
g10
F0.6337604964333342
tp36
a(g12
g16
F0.6403560287815729
tp37
a(g18
g14
F0.5427625224987104
tp38
a(g18
g10
F0.5825737564985896
tp39
a(g18
g16
F0.6666666666666666
tp40
a(g14
g10
F0.545608965219023
tp41
a(g14
g16
F0.6666666666666666
tp42
a(g10
g16
F0.5203482482832503
tp43
assg3
F0.5
sS'algo'
p44
(lp45
(lp46
g12
aa(lp47
g18
aa(lp48
g14
aa(lp49
g10
aa(lp50
g16
aasg2
F0.0
sss.