(dp0
S'tau'
p1
F-0.3333333333333333
sS'|tau|'
p2
F0.3333333333333333
sS'pairwise'
p3
F0.3333333333333333
sS'ranking'
p4
(dp5
I0
(dp6
g1
F-0.3333333333333333
sS'gold'
p7
(lp8
(lp9
S'terrible'
p10
aa(lp11
S'rude'
p12
aa(lp13
S'horrible'
p14
aasS'raw'
p15
(dp16
S'prob*'
p17
cnumpy.core.multiarray
scalar
p18
(cnumpy
dtype
p19
(S'f8'
p20
I0
I1
tp21
Rp22
(I3
S'<'
p23
NNNI-1
I-1
I0
tp24
bS'\x13\xc6\x12\xcc\x87\xc9\xc7?'
p25
tp26
Rp27
sS'link-probs'
p28
(lp29
(g12
g14
F0.6666666666666666
tp30
a(g12
g10
F0.47786842667897017
tp31
a(g14
g10
F0.5833333333333334
tp32
assg3
F0.3333333333333333
sS'algo'
p33
(lp34
(lp35
g12
aa(lp36
g14
aa(lp37
g10
aasg2
F0.3333333333333333
sss.