(dp0
S'tau'
p1
F0.06666666666666667
sS'|tau|'
p2
F0.06666666666666667
sS'pairwise'
p3
F0.5333333333333333
sS'ranking'
p4
(dp5
I0
(dp6
g1
F0.06666666666666667
sS'gold'
p7
(lp8
(lp9
S'unusual'
p10
aa(lp11
S'rare'
p12
aa(lp13
S'exceptional'
p14
aa(lp15
S'extraordinary'
p16
aa(lp17
S'unique'
p18
aa(lp19
S'special'
p20
aasS'raw'
p21
(dp22
S'prob*'
p23
cnumpy.core.multiarray
scalar
p24
(cnumpy
dtype
p25
(S'f8'
p26
I0
I1
tp27
Rp28
(I3
S'<'
p29
NNNI-1
I-1
I0
tp30
bS'XR\x8d\xb1\x98V[?'
p31
tp32
Rp33
sS'link-probs'
p34
(lp35
(g12
g20
F0.529484665343169
tp36
a(g12
g14
F0.6666666666666666
tp37
a(g12
g10
F0.8
tp38
a(g12
g18
F0.5070110741955883
tp39
a(g12
g16
F0.6666666666666666
tp40
a(g20
g14
F0.8
tp41
a(g20
g10
F0.6666666666666666
tp42
a(g20
g18
F0.8
tp43
a(g20
g16
F0.5711431551195205
tp44
a(g14
g10
F0.6
tp45
a(g14
g18
F0.6
tp46
a(g14
g16
F0.7142857142857143
tp47
a(g10
g18
F0.6369437659099032
tp48
a(g10
g16
F0.6569839477068552
tp49
a(g18
g16
F0.6666666666666666
tp50
assg3
F0.5333333333333333
sS'algo'
p51
(lp52
(lp53
g12
aa(lp54
g20
aa(lp55
g14
aa(lp56
g10
aa(lp57
g18
aa(lp58
g16
aasg2
F0.06666666666666667
sss.