(dp0
S'tau'
p1
F-0.4
sS'|tau|'
p2
F0.4
sS'pairwise'
p3
F0.3
sS'ranking'
p4
(dp5
I0
(dp6
g1
F-0.4
sS'gold'
p7
(lp8
(lp9
S'passionate'
p10
aa(lp11
S'enthusiastic'
p12
aa(lp13
S'hot'
p14
aa(lp15
S'warm'
p16
aa(lp17
S'romantic'
p18
aasS'raw'
p19
(dp20
S'prob*'
p21
cnumpy.core.multiarray
scalar
p22
(cnumpy
dtype
p23
(S'f8'
p24
I0
I1
tp25
Rp26
(I3
S'<'
p27
NNNI-1
I-1
I0
tp28
bS'5\xb5\x88\x9ffVp?'
p29
tp30
Rp31
sS'link-probs'
p32
(lp33
(g14
g16
F0.5003684014024024
tp34
a(g14
g18
F0.5463713601853022
tp35
a(g14
g12
F0.6147403001909897
tp36
a(g14
g10
F0.6157934920775665
tp37
a(g16
g18
F0.5460312679145493
tp38
a(g16
g12
F0.6666666666666666
tp39
a(g16
g10
F0.6156026222528089
tp40
a(g18
g12
F0.5845672878197271
tp41
a(g18
g10
F0.5860571580026975
tp42
a(g12
g10
F0.5020187787926744
tp43
assg3
F0.3
sS'algo'
p44
(lp45
(lp46
g14
aa(lp47
g16
aa(lp48
g18
aa(lp49
g12
aa(lp50
g10
aasg2
F0.4
sss.