(dp0
S'tau'
p1
F0.8666666666666667
sS'|tau|'
p2
F0.8666666666666667
sS'pairwise'
p3
F0.9333333333333333
sS'ranking'
p4
(dp5
I0
(dp6
g1
F0.8666666666666667
sS'gold'
p7
(lp8
(lp9
S'nervous'
p10
aa(lp11
S'angry'
p12
aa(lp13
S'upset'
p14
aa(lp15
S'hungry'
p16
aa(lp17
S'annoyed'
p18
aa(lp19
S'irritated'
p20
aasS'raw'
p21
(dp22
S'prob*'
p23
cnumpy.core.multiarray
scalar
p24
(cnumpy
dtype
p25
(S'f8'
p26
I0
I1
tp27
Rp28
(I3
S'<'
p29
NNNI-1
I-1
I0
tp30
bS'S\xb8a\x87\xa7[K?'
p31
tp32
Rp33
sS'link-probs'
p34
(lp35
(g10
g12
F0.6310640042369186
tp36
a(g10
g16
F0.6323142633050525
tp37
a(g10
g14
F0.5555555555555556
tp38
a(g10
g18
F0.6557886459864174
tp39
a(g10
g20
F0.6601187383379246
tp40
a(g12
g16
F0.503327802858604
tp41
a(g12
g14
F0.5714285714285714
tp42
a(g12
g18
F0.6666666666666666
tp43
a(g12
g20
F0.6188278775537688
tp44
a(g16
g14
F0.617602972976283
tp45
a(g16
g18
F0.5910107277063599
tp46
a(g16
g20
F0.6171680422739323
tp47
a(g14
g18
F0.8
tp48
a(g14
g20
F0.75
tp49
a(g18
g20
F0.5424554370456715
tp50
assg3
F0.9333333333333333
sS'algo'
p51
(lp52
(lp53
g10
aa(lp54
g12
aa(lp55
g16
aa(lp56
g14
aa(lp57
g18
aa(lp58
g20
aasg2
F0.8666666666666667
sss.