(dp0
S'tau'
p1
F0.0
sS'|tau|'
p2
F0.0
sS'pairwise'
p3
F0.5
sS'ranking'
p4
(dp5
I0
(dp6
g1
F0.0
sS'gold'
p7
(lp8
(lp9
S'familiar'
p10
aa(lp11
S'aware'
p12
aa(lp13
S'used'
p14
aa(lp15
S'experienced'
p16
aa(lp17
S'famous'
p18
aasS'raw'
p19
(dp20
S'prob*'
p21
cnumpy.core.multiarray
scalar
p22
(cnumpy
dtype
p23
(S'f8'
p24
I0
I1
tp25
Rp26
(I3
S'<'
p27
NNNI-1
I-1
I0
tp28
bS'\xba+\xdb%v\nz?'
p29
tp30
Rp31
sS'link-probs'
p32
(lp33
(g14
g12
F0.5206289710257977
tp34
a(g14
g18
F0.5429552938645344
tp35
a(g14
g10
F0.6066580322090095
tp36
a(g14
g16
F0.6260524948764677
tp37
a(g12
g18
F0.6666666666666666
tp38
a(g12
g10
F0.6666666666666666
tp39
a(g12
g16
F0.6163116938470071
tp40
a(g18
g10
F0.6666666666666666
tp41
a(g18
g16
F0.6032168984757852
tp42
a(g10
g16
F0.5375863426425848
tp43
assg3
F0.5
sS'algo'
p44
(lp45
(lp46
g14
aa(lp47
g12
aa(lp48
g18
aa(lp49
g10
aa(lp50
g16
aasg2
F0.0
sss.