(dp0
S'tau'
p1
F-0.3333333333333333
sS'|tau|'
p2
F0.3333333333333333
sS'pairwise'
p3
F0.3333333333333333
sS'ranking'
p4
(dp5
I0
(dp6
g1
F-0.3333333333333333
sS'gold'
p7
(lp8
(lp9
S'pleasant'
p10
aa(lp11
S'comfortable'
p12
aa(lp13
S'friendly'
p14
aa(lp15
S'helpful'
p16
aasS'raw'
p17
(dp18
S'prob*'
p19
cnumpy.core.multiarray
scalar
p20
(cnumpy
dtype
p21
(S'f8'
p22
I0
I1
tp23
Rp24
(I3
S'<'
p25
NNNI-1
I-1
I0
tp26
bS'\xaf\xeeH\xe7>\xb4\xa3?'
p27
tp28
Rp29
sS'link-probs'
p30
(lp31
(g16
g10
F0.5062838441945613
tp32
a(g16
g14
F0.5295277338008321
tp33
a(g16
g12
F0.5965505792509783
tp34
a(g10
g14
F0.5234001962818499
tp35
a(g10
g12
F0.8
tp36
a(g14
g12
F0.5746883425416237
tp37
assg3
F0.3333333333333333
sS'algo'
p38
(lp39
(lp40
g16
aa(lp41
g10
aa(lp42
g14
aa(lp43
g12
aasg2
F0.3333333333333333
sss.