(dp0
S'tau'
p1
F0.6
sS'|tau|'
p2
F0.6
sS'pairwise'
p3
F0.8
sS'ranking'
p4
(dp5
I0
(dp6
g1
F0.6
sS'gold'
p7
(lp8
(lp9
S'real'
p10
aa(lp11
S'authentic'
p12
aa(lp13
S'true'
p14
aa(lp15
S'genuine'
p16
aa(lp17
S'actual'
p18
aasS'raw'
p19
(dp20
S'prob*'
p21
cnumpy.core.multiarray
scalar
p22
(cnumpy
dtype
p23
(S'f8'
p24
I0
I1
tp25
Rp26
(I3
S'<'
p27
NNNI-1
I-1
I0
tp28
bS'\xaa\x81\xe2\x17\xef\xd0|?'
p29
tp30
Rp31
sS'link-probs'
p32
(lp33
(g14
g10
F0.7333333333333333
tp34
a(g14
g12
F0.3333333333333333
tp35
a(g14
g16
F0.7
tp36
a(g14
g18
F0.627105517316435
tp37
a(g10
g12
F0.6666666666666666
tp38
a(g10
g16
F0.6
tp39
a(g10
g18
F0.8
tp40
a(g12
g16
F0.5817250078192938
tp41
a(g12
g18
F0.6232332572175843
tp42
a(g16
g18
F0.5651175781060891
tp43
assg3
F0.8
sS'algo'
p44
(lp45
(lp46
g14
aa(lp47
g10
aa(lp48
g12
aa(lp49
g16
aa(lp50
g18
aasg2
F0.6
sss.