(dp0
S'tau'
p1
F-0.42857142857142855
sS'|tau|'
p2
F0.42857142857142855
sS'pairwise'
p3
F0.2857142857142857
sS'ranking'
p4
(dp5
I0
(dp6
g1
F-0.42857142857142855
sS'gold'
p7
(lp8
(lp9
S'dry'
p10
aa(lp11
S'chilly'
p12
aa(lp13
S'frozen'
p14
aa(lp15
S'moist'
p16
aa(lp17
S'wet'
p18
aa(lp19
S'fresh'
p20
aa(lp21
S'cold'
p22
aa(lp23
S'korean'
p24
aasS'raw'
p25
(dp26
S'prob*'
p27
cnumpy.core.multiarray
scalar
p28
(cnumpy
dtype
p29
(S'f8'
p30
I0
I1
tp31
Rp32
(I3
S'<'
p33
NNNI-1
I-1
I0
tp34
bS'\x93\xa9\xab\xb0`[\xa3>'
p35
tp36
Rp37
sS'link-probs'
p38
(lp39
(g22
g24
F0.6066136267416051
tp40
a(g22
g18
F0.6116846545147542
tp41
a(g22
g10
F0.6147710603056327
tp42
a(g22
g20
F0.64629253366019
tp43
a(g22
g12
F0.8333333333333334
tp44
a(g22
g16
F0.6562763767808635
tp45
a(g22
g14
F0.75
tp46
a(g24
g18
F0.5088756093739466
tp47
a(g24
g10
F0.5145799082957585
tp48
a(g24
g20
F0.5904845120137053
tp49
a(g24
g12
F0.6232347086948381
tp50
a(g24
g16
F0.6240957228650911
tp51
a(g24
g14
F0.624978206400966
tp52
a(g18
g10
F0.5057309973491959
tp53
a(g18
g20
F0.5840386089674565
tp54
a(g18
g12
F0.619046705353172
tp55
a(g18
g16
F0.75
tp56
a(g18
g14
F0.6209318003062684
tp57
a(g10
g20
F0.579689304758552
tp58
a(g10
g12
F0.6161689604085444
tp59
a(g10
g16
F0.6171461217422346
tp60
a(g10
g14
F0.6181486294292348
tp61
a(g20
g12
F0.5547140601753212
tp62
a(g20
g16
F0.5564168630633095
tp63
a(g20
g14
F0.558178843291414
tp64
a(g12
g16
F0.5019156824122674
tp65
a(g12
g14
F0.5039132193764065
tp66
a(g16
g14
F0.5019980761919128
tp67
assg3
F0.2857142857142857
sS'algo'
p68
(lp69
(lp70
g22
aa(lp71
g24
aa(lp72
g18
aa(lp73
g10
aa(lp74
g20
aa(lp75
g12
aa(lp76
g16
aa(lp77
g14
aasg2
F0.42857142857142855
sss.