(dp0
S'tau'
p1
F0.0
sS'|tau|'
p2
F0.0
sS'pairwise'
p3
F0.5
sS'ranking'
p4
(dp5
I0
(dp6
g1
F0.0
sS'gold'
p7
(lp8
(lp9
S'east'
p10
aa(lp11
S'eastern'
p12
aa(lp13
S'asian'
p14
aa(lp15
S'western'
p16
aasS'raw'
p17
(dp18
S'prob*'
p19
cnumpy.core.multiarray
scalar
p20
(cnumpy
dtype
p21
(S'f8'
p22
I0
I1
tp23
Rp24
(I3
S'<'
p25
NNNI-1
I-1
I0
tp26
bS'2\x9a$\xefC\xa1\xad?'
p27
tp28
Rp29
sS'link-probs'
p30
(lp31
(g14
g12
F0.6666666666666666
tp32
a(g14
g10
F0.6666666666666666
tp33
a(g14
g16
F0.6199773729970026
tp34
a(g12
g10
F0.6666666666666666
tp35
a(g12
g16
F0.5546180084819748
tp36
a(g10
g16
F0.5680215640104014
tp37
assg3
F0.5
sS'algo'
p38
(lp39
(lp40
g14
aa(lp41
g12
aa(lp42
g10
aa(lp43
g16
aasg2
F0.0
sss.