(dp0
S'tau'
p1
F0.14285714285714285
sS'|tau|'
p2
F0.14285714285714285
sS'pairwise'
p3
F0.5714285714285714
sS'ranking'
p4
(dp5
I0
(dp6
g1
F0.14285714285714285
sS'gold'
p7
(lp8
(lp9
S'sound'
p10
aa(lp11
S'right'
p12
aa(lp13
S'decent'
p14
aa(lp15
S'smooth'
p16
aa(lp17
S'appropriate'
p18
aa(lp19
S'reasonable'
p20
aa(lp21
S'proper'
p22
aa(lp23
S'correct'
p24
aasS'raw'
p25
(dp26
S'prob*'
p27
cnumpy.core.multiarray
scalar
p28
(cnumpy
dtype
p29
(S'f8'
p30
I0
I1
tp31
Rp32
(I3
S'<'
p33
NNNI-1
I-1
I0
tp34
bS'E-\xbc\x99\xbe\xcc\xda>'
p35
tp36
Rp37
sS'link-probs'
p38
(lp39
(g18
g12
F0.6058911250148297
tp40
a(g18
g20
F0.5647537730988712
tp41
a(g18
g10
F0.6666666666666666
tp42
a(g18
g16
F0.6395166628604506
tp43
a(g18
g24
F0.8
tp44
a(g18
g22
F0.8
tp45
a(g18
g14
F0.6666666666666666
tp46
a(g12
g20
F0.8
tp47
a(g12
g10
F0.8333333333333334
tp48
a(g12
g16
F0.5718262267694344
tp49
a(g12
g24
F0.75
tp50
a(g12
g22
F0.8181818181818182
tp51
a(g12
g14
F0.75
tp52
a(g20
g10
F0.6666666666666666
tp53
a(g20
g16
F0.6107979662681022
tp54
a(g20
g24
F0.6262451419259651
tp55
a(g20
g22
F0.6230804954405408
tp56
a(g20
g14
F0.6666666666666666
tp57
a(g10
g16
F0.5993978091282596
tp58
a(g10
g24
F0.6174377749785895
tp59
a(g10
g22
F0.6137082583363304
tp60
a(g10
g14
F0.5843327032093648
tp61
a(g16
g24
F0.5311157322304014
tp62
a(g16
g22
F0.524127599343103
tp63
a(g16
g14
F0.47842387895751015
tp64
a(g24
g22
F0.625
tp65
a(g24
g14
F0.75
tp66
a(g22
g14
F0.6666666666666666
tp67
assg3
F0.5714285714285714
sS'algo'
p68
(lp69
(lp70
g18
aa(lp71
g12
aa(lp72
g20
aa(lp73
g10
aa(lp74
g16
aa(lp75
g24
aa(lp76
g22
aa(lp77
g14
aasg2
F0.14285714285714285
sss.