(dp0
S'tau'
p1
F1.0
sS'|tau|'
p2
F1.0
sS'pairwise'
p3
F1.0
sS'ranking'
p4
(dp5
I0
(dp6
g1
F1.0
sS'gold'
p7
(lp8
(lp9
S'phenomenal'
p10
aa(lp11
S'gigantic'
p12
aa(lp13
S'terrible'
p14
aa(lp15
S'extreme'
p16
aasS'raw'
p17
(dp18
S'prob*'
p19
cnumpy.core.multiarray
scalar
p20
(cnumpy
dtype
p21
(S'f8'
p22
I0
I1
tp23
Rp24
(I3
S'<'
p25
NNNI-1
I-1
I0
tp26
bS'\x1d\xa0\x1c\xf9g\xc6\x9c?'
p27
tp28
Rp29
sS'link-probs'
p30
(lp31
(g10
g12
F0.5
tp32
a(g10
g14
F0.5403488304332872
tp33
a(g10
g16
F0.5886687013310224
tp34
a(g12
g14
F0.5403488304332872
tp35
a(g12
g16
F0.5886687013310224
tp36
a(g14
g16
F0.5554633522285978
tp37
assg3
F1.0
sS'algo'
p38
(lp39
(lp40
g10
aa(lp41
g12
aa(lp42
g14
aa(lp43
g16
aasg2
F1.0
sss.