(dp0
S'tau'
p1
F-0.4
sS'|tau|'
p2
F0.4
sS'pairwise'
p3
F0.3
sS'ranking'
p4
(dp5
I0
(dp6
g1
F-0.4
sS'gold'
p7
(lp8
(lp9
S'scrumptious'
p10
aa(lp11
S'tasty'
p12
aa(lp13
S'yummy'
p14
aa(lp15
S'delicious'
p16
aa(lp17
S'exquisite'
p18
aasS'raw'
p19
(dp20
S'prob*'
p21
cnumpy.core.multiarray
scalar
p22
(cnumpy
dtype
p23
(S'f8'
p24
I0
I1
tp25
Rp26
(I3
S'<'
p27
NNNI-1
I-1
I0
tp28
bS'\xd7\xb8%9\xa9\xf7\x8a?'
p29
tp30
Rp31
sS'link-probs'
p32
(lp33
(g16
g14
F0.6666666666666666
tp34
a(g16
g12
F0.7142857142857143
tp35
a(g16
g18
F0.7142857142857143
tp36
a(g16
g10
F0.8333333333333334
tp37
a(g14
g12
F0.602662027330145
tp38
a(g14
g18
F0.5533476324160497
tp39
a(g14
g10
F0.6666666666666666
tp40
a(g12
g18
F0.6666666666666666
tp41
a(g12
g10
F0.5330304869196797
tp42
a(g18
g10
F0.5880262347187873
tp43
assg3
F0.3
sS'algo'
p44
(lp45
(lp46
g16
aa(lp47
g14
aa(lp48
g12
aa(lp49
g18
aa(lp50
g10
aasg2
F0.4
sss.