(dp0
S'tau'
p1
F0.6
sS'|tau|'
p2
F0.6
sS'pairwise'
p3
F0.8
sS'ranking'
p4
(dp5
I0
(dp6
g1
F0.6
sS'gold'
p7
(lp8
(lp9
S'boring'
p10
aa(lp11
S'unpleasant'
p12
aa(lp13
S'frustrating'
p14
aa(lp15
S'annoying'
p16
aa(lp17
S'painful'
p18
aasS'raw'
p19
(dp20
S'prob*'
p21
cnumpy.core.multiarray
scalar
p22
(cnumpy
dtype
p23
(S'f8'
p24
I0
I1
tp25
Rp26
(I3
S'<'
p27
NNNI-1
I-1
I0
tp28
bS'\x06\xfe\xb2\x84\x80\x8cj?'
p29
tp30
Rp31
sS'link-probs'
p32
(lp33
(g12
g14
F0.6205690994798347
tp34
a(g12
g10
F0.6231292880485445
tp35
a(g12
g16
F0.6666666666666666
tp36
a(g12
g18
F0.3333333333333333
tp37
a(g14
g10
F0.505499172757376
tp38
a(g14
g16
F0.5743325857362401
tp39
a(g14
g18
F0.6028248034843946
tp40
a(g10
g16
F0.6666666666666666
tp41
a(g10
g18
F0.599347982995773
tp42
a(g16
g18
F0.5393080907570394
tp43
assg3
F0.8
sS'algo'
p44
(lp45
(lp46
g12
aa(lp47
g14
aa(lp48
g10
aa(lp49
g16
aa(lp50
g18
aasg2
F0.6
sss.