(dp0
S'tau'
p1
F0.3888888888888889
sS'|tau|'
p2
F0.3888888888888889
sS'pairwise'
p3
F0.6944444444444444
sS'ranking'
p4
(dp5
I0
(dp6
g1
F0.3888888888888889
sS'gold'
p7
(lp8
(lp9
S'gross'
p10
aa(lp11
S'ugly'
p12
aa(lp13
S'drunk'
p14
aa(lp15
S'dark'
p16
aa(lp17
S'lousy'
p18
aa(lp19
S'dirty'
p20
aa(lp21
S'messy'
p22
aa(lp23
S'nasty'
p24
aa(lp25
S'filthy'
p26
aasS'raw'
p27
(dp28
S'prob*'
p29
cnumpy.core.multiarray
scalar
p30
(cnumpy
dtype
p31
(S'f8'
p32
I0
I1
tp33
Rp34
(I3
S'<'
p35
NNNI-1
I-1
I0
tp36
bS'8\xcb\x07\x95\xa0\xde9>'
p37
tp38
Rp39
sS'link-probs'
p40
(lp41
(g22
g10
F0.5430228748224218
tp42
a(g22
g16
F0.5697016690556124
tp43
a(g22
g14
F0.6060623887304258
tp44
a(g22
g20
F0.3333333333333333
tp45
a(g22
g12
F0.6599607613015012
tp46
a(g22
g18
F0.6597690693904085
tp47
a(g22
g24
F0.3333333333333333
tp48
a(g22
g26
F0.6629453108666994
tp49
a(g10
g16
F0.52990747289273
tp50
a(g10
g14
F0.5754306518775849
tp51
a(g10
g20
F0.6559256656663072
tp52
a(g10
g12
F0.6554510330649018
tp53
a(g10
g18
F0.65513497946246
tp54
a(g10
g24
F0.6554553303617411
tp55
a(g10
g26
F0.3333333333333333
tp56
a(g16
g14
F0.5495470886276062
tp57
a(g16
g20
F0.6514423922023436
tp58
a(g16
g12
F0.650779405554313
tp59
a(g16
g18
F0.6503383798727475
tp60
a(g16
g24
F0.650785404547329
tp61
a(g16
g26
F0.6577385402145252
tp62
a(g14
g20
F0.6396069081550029
tp63
a(g14
g12
F0.6384741883479391
tp64
a(g14
g18
F0.637722718725484
tp65
a(g14
g24
F0.6384844212622108
tp66
a(g14
g26
F0.6505497488755111
tp67
a(g20
g12
F0.8
tp68
a(g20
g18
F0.4938790529373624
tp69
a(g20
g24
F0.625
tp70
a(g20
g26
F0.8333333333333334
tp71
a(g12
g18
F0.6666666666666666
tp72
a(g12
g24
F0.6666666666666666
tp73
a(g12
g26
F0.5483992640755405
tp74
a(g18
g24
F0.5024305122980054
tp75
a(g18
g26
F0.5505854260168368
tp76
a(g24
g26
F0.5483690019835438
tp77
assg3
F0.6944444444444444
sS'algo'
p78
(lp79
(lp80
g22
aa(lp81
g10
aa(lp82
g16
aa(lp83
g14
aa(lp84
g20
aa(lp85
g12
aa(lp86
g18
aa(lp87
g24
aa(lp88
g26
aasg2
F0.3888888888888889
sss.