(dp0
S'tau'
p1
F0.6
sS'|tau|'
p2
F0.6
sS'pairwise'
p3
F0.8
sS'ranking'
p4
(dp5
I0
(dp6
g1
F0.6
sS'gold'
p7
(lp8
(lp9
S'numerous'
p10
aa(lp11
S'many'
p12
aa(lp13
S'multiple'
p14
aa(lp15
S'frequent'
p16
aa(lp17
S'countless'
p18
aasS'raw'
p19
(dp20
S'prob*'
p21
cnumpy.core.multiarray
scalar
p22
(cnumpy
dtype
p23
(S'f8'
p24
I0
I1
tp25
Rp26
(I3
S'<'
p27
NNNI-1
I-1
I0
tp28
bS'\x01-\xca\xad\x83U\x90?'
p29
tp30
Rp31
sS'link-probs'
p32
(lp33
(g12
g10
F0.75
tp34
a(g12
g16
F0.5935630305500479
tp35
a(g12
g14
F0.8
tp36
a(g12
g18
F0.75
tp37
a(g10
g16
F0.5358365506039232
tp38
a(g10
g14
F0.6666666666666666
tp39
a(g10
g18
F0.6612302192319764
tp40
a(g16
g14
F0.6294975727100551
tp41
a(g16
g18
F0.658326470006451
tp42
a(g14
g18
F0.6100777247966906
tp43
assg3
F0.8
sS'algo'
p44
(lp45
(lp46
g12
aa(lp47
g10
aa(lp48
g16
aa(lp49
g14
aa(lp50
g18
aasg2
F0.6
sss.