(dp0
S'tau'
p1
F0.2
sS'|tau|'
p2
F0.2
sS'pairwise'
p3
F0.6
sS'ranking'
p4
(dp5
I0
(dp6
g1
F0.2
sS'gold'
p7
(lp8
(lp9
S'following'
p10
aa(lp11
S'further'
p12
aa(lp13
S'next'
p14
aa(lp15
S'third'
p16
aa(lp17
S'new'
p18
aasS'raw'
p19
(dp20
S'prob*'
p21
cnumpy.core.multiarray
scalar
p22
(cnumpy
dtype
p23
(S'f8'
p24
I0
I1
tp25
Rp26
(I3
S'<'
p27
NNNI-1
I-1
I0
tp28
bS'.\xb2\xe7\x907\xbb{?'
p29
tp30
Rp31
sS'link-probs'
p32
(lp33
(g16
g10
F0.5836042322376039
tp34
a(g16
g12
F0.6569574298585498
tp35
a(g16
g18
F0.6582556025696006
tp36
a(g16
g14
F0.6609330513755358
tp37
a(g10
g12
F0.6390326270411143
tp38
a(g10
g18
F0.642548826692575
tp39
a(g10
g14
F0.6666666666666666
tp40
a(g12
g18
F0.5122721669877879
tp41
a(g12
g14
F0.5438553639495507
tp42
a(g18
g14
F0.5322072186704078
tp43
assg3
F0.6
sS'algo'
p44
(lp45
(lp46
g16
aa(lp47
g10
aa(lp48
g12
aa(lp49
g18
aa(lp50
g14
aasg2
F0.2
sss.