(dp0
S'tau'
p1
F-0.2
sS'|tau|'
p2
F0.2
sS'pairwise'
p3
F0.4
sS'ranking'
p4
(dp5
I0
(dp6
g1
F-0.2
sS'gold'
p7
(lp8
(lp9
S'scrumptious'
p10
aa(lp11
S'tasty'
p12
aa(lp13
S'yummy'
p14
aa(lp15
S'delicious'
p16
aa(lp17
S'exquisite'
p18
aasS'raw'
p19
(dp20
S'prob*'
p21
cnumpy.core.multiarray
scalar
p22
(cnumpy
dtype
p23
(S'f8'
p24
I0
I1
tp25
Rp26
(I3
S'<'
p27
NNNI-1
I-1
I0
tp28
bS'@k\xc2\x11\xf2\xe7\x90?'
p29
tp30
Rp31
sS'link-probs'
p32
(lp33
(g16
g12
F0.7142857142857143
tp34
a(g16
g14
F0.6666666666666666
tp35
a(g16
g18
F0.7142857142857143
tp36
a(g16
g10
F0.8333333333333334
tp37
a(g12
g14
F0.6111565024334914
tp38
a(g12
g18
F0.6666666666666666
tp39
a(g12
g10
F0.6564011971378078
tp40
a(g14
g18
F0.5674109807507325
tp41
a(g14
g10
F0.6666666666666666
tp42
a(g18
g10
F0.5757493108533985
tp43
assg3
F0.4
sS'algo'
p44
(lp45
(lp46
g16
aa(lp47
g12
aa(lp48
g14
aa(lp49
g18
aa(lp50
g10
aasg2
F0.2
sss.