(dp0
S'tau'
p1
F-0.3333333333333333
sS'|tau|'
p2
F0.3333333333333333
sS'pairwise'
p3
F0.3333333333333333
sS'ranking'
p4
(dp5
I0
(dp6
g1
F-0.3333333333333333
sS'gold'
p7
(lp8
(lp9
S'generic'
p10
aa(lp11
S'popular'
p12
aa(lp13
S'public'
p14
aa(lp15
S'general'
p16
aasS'raw'
p17
(dp18
S'prob*'
p19
cnumpy.core.multiarray
scalar
p20
(cnumpy
dtype
p21
(S'f8'
p22
I0
I1
tp23
Rp24
(I3
S'<'
p25
NNNI-1
I-1
I0
tp26
bS'\x02W\x8c\x02@\xc0\xae?'
p27
tp28
Rp29
sS'link-probs'
p30
(lp31
(g12
g16
F0.5588211021923634
tp32
a(g12
g14
F0.662842875860753
tp33
a(g12
g10
F0.6647398907732339
tp34
a(g16
g14
F0.6587705412962244
tp35
a(g16
g10
F0.6666666666666666
tp36
a(g14
g10
F0.5554064389842579
tp37
assg3
F0.3333333333333333
sS'algo'
p38
(lp39
(lp40
g12
aa(lp41
g16
aa(lp42
g14
aa(lp43
g10
aasg2
F0.3333333333333333
sss.