(dp0
S'tau'
p1
F0.0
sS'|tau|'
p2
F0.0
sS'pairwise'
p3
F0.5
sS'ranking'
p4
(dp5
I0
(dp6
g1
F0.0
sS'gold'
p7
(lp8
(lp9
S'ready'
p10
aa(lp11
S'willing'
p12
aa(lp13
S'open'
p14
aa(lp15
S'prepared'
p16
aasS'raw'
p17
(dp18
S'prob*'
p19
cnumpy.core.multiarray
scalar
p20
(cnumpy
dtype
p21
(S'f8'
p22
I0
I1
tp23
Rp24
(I3
S'<'
p25
NNNI-1
I-1
I0
tp26
bS'\x8a\x14\x81\xe4\xe9\xc5\xb6?'
p27
tp28
Rp29
sS'link-probs'
p30
(lp31
(g14
g10
F0.6614551620314408
tp32
a(g14
g16
F0.6666666666666666
tp33
a(g14
g12
F0.4755092222651038
tp34
a(g10
g16
F0.7272727272727273
tp35
a(g10
g12
F0.875
tp36
a(g16
g12
F0.6666666666666666
tp37
assg3
F0.5
sS'algo'
p38
(lp39
(lp40
g14
aa(lp41
g10
aa(lp42
g16
aa(lp43
g12
aasg2
F0.0
sss.