(dp0
S'tau'
p1
F-0.23809523809523808
sS'|tau|'
p2
F0.23809523809523808
sS'pairwise'
p3
F0.38095238095238093
sS'ranking'
p4
(dp5
I0
(dp6
g1
F-0.23809523809523808
sS'gold'
p7
(lp8
(lp9
S'tricky'
p10
aa(lp11
S'stressful'
p12
aa(lp13
S'picky'
p14
aa(lp15
S'hard'
p16
aa(lp17
S'easy'
p18
aa(lp19
S'difficult'
p20
aa(lp21
S'challenging'
p22
aasS'raw'
p23
(dp24
S'prob*'
p25
cnumpy.core.multiarray
scalar
p26
(cnumpy
dtype
p27
(S'f8'
p28
I0
I1
tp29
Rp30
(I3
S'<'
p31
NNNI-1
I-1
I0
tp32
bS'\xb0\x84\xacB\xaa\r2?'
p33
tp34
Rp35
sS'link-probs'
p36
(lp37
(g20
g16
F0.6410256410256411
tp38
a(g20
g14
F0.9047619047619048
tp39
a(g20
g18
F0.6363636363636364
tp40
a(g20
g10
F0.9166666666666666
tp41
a(g20
g22
F0.78125
tp42
a(g20
g12
F0.875
tp43
a(g16
g14
F0.5209962992864936
tp44
a(g16
g18
F0.6802841918294849
tp45
a(g16
g10
F0.8
tp46
a(g16
g22
F0.6666666666666666
tp47
a(g16
g12
F0.662632109957456
tp48
a(g14
g18
F0.5194474763943339
tp49
a(g14
g10
F0.6468868756699347
tp50
a(g14
g22
F0.656310569389423
tp51
a(g14
g12
F0.6614871348274184
tp52
a(g18
g10
F0.8
tp53
a(g18
g22
F0.6666666666666666
tp54
a(g18
g12
F0.6601454862217041
tp55
a(g10
g22
F0.5543337023244226
tp56
a(g10
g12
F0.5999554019370676
tp57
a(g22
g12
F0.5567091347037548
tp58
assg3
F0.38095238095238093
sS'algo'
p59
(lp60
(lp61
g20
aa(lp62
g16
aa(lp63
g14
aa(lp64
g18
aa(lp65
g10
aa(lp66
g22
aa(lp67
g12
aasg2
F0.23809523809523808
sss.