(dp0
S'tau'
p1
F0.0
sS'|tau|'
p2
F0.0
sS'pairwise'
p3
F0.5
sS'ranking'
p4
(dp5
I0
(dp6
g1
F0.0
sS'gold'
p7
(lp8
(lp9
S'decent'
p10
aa(lp11
S'regular'
p12
aa(lp13
S'worth'
p14
aa(lp15
S'reasonable'
p16
aasS'raw'
p17
(dp18
S'prob*'
p19
cnumpy.core.multiarray
scalar
p20
(cnumpy
dtype
p21
(S'f8'
p22
I0
I1
tp23
Rp24
(I3
S'<'
p25
NNNI-1
I-1
I0
tp26
bS'\xe7\xd4\xb3\xf4=\x84\xb0?'
p27
tp28
Rp29
sS'link-probs'
p30
(lp31
(g16
g10
F0.6666666666666666
tp32
a(g16
g12
F0.654203285496861
tp33
a(g16
g14
F0.6666666666666666
tp34
a(g10
g12
F0.6632487837860953
tp35
a(g10
g14
F0.6634188765217481
tp36
a(g12
g14
F0.5042958766728938
tp37
assg3
F0.5
sS'algo'
p38
(lp39
(lp40
g16
aa(lp41
g10
aa(lp42
g12
aa(lp43
g14
aasg2
F0.0
sss.