(dp0
S'tau'
p1
F0.2
sS'|tau|'
p2
F0.2
sS'pairwise'
p3
F0.6
sS'ranking'
p4
(dp5
I0
(dp6
g1
F0.2
sS'gold'
p7
(lp8
(lp9
S'detailed'
p10
aa(lp11
S'full'
p12
aa(lp13
S'complete'
p14
aa(lp15
S'thorough'
p16
aa(lp17
S'deep'
p18
aa(lp19
S'extensive'
p20
aasS'raw'
p21
(dp22
S'prob*'
p23
cnumpy.core.multiarray
scalar
p24
(cnumpy
dtype
p25
(S'f8'
p26
I0
I1
tp27
Rp28
(I3
S'<'
p29
NNNI-1
I-1
I0
tp30
bS'\x11\x9f\x95?E\x83E?'
p31
tp32
Rp33
sS'link-probs'
p34
(lp35
(g12
g18
F0.5276992108389308
tp36
a(g12
g10
F0.6248626105804166
tp37
a(g12
g20
F0.6666666666666666
tp38
a(g12
g14
F0.5342194805437996
tp39
a(g12
g16
F0.6666666666666666
tp40
a(g18
g10
F0.6109816656660464
tp41
a(g18
g20
F0.5166841546201874
tp42
a(g18
g14
F0.5067506190105262
tp43
a(g18
g16
F0.75
tp44
a(g10
g20
F0.75
tp45
a(g10
g14
F0.6666666666666666
tp46
a(g10
g16
F0.43049596482745733
tp47
a(g20
g14
F0.9981220657276996
tp48
a(g20
g16
F0.5421949308388869
tp49
a(g14
g16
F0.6
tp50
assg3
F0.6
sS'algo'
p51
(lp52
(lp53
g12
aa(lp54
g18
aa(lp55
g10
aa(lp56
g20
aa(lp57
g14
aa(lp58
g16
aasg2
F0.2
sss.