(dp0
S'tau'
p1
F-0.4
sS'|tau|'
p2
F0.4
sS'pairwise'
p3
F0.3
sS'ranking'
p4
(dp5
I0
(dp6
g1
F-0.4
sS'gold'
p7
(lp8
(lp9
S'plentiful'
p10
aa(lp11
S'enough'
p12
aa(lp13
S'generous'
p14
aa(lp15
S'ample'
p16
aa(lp17
S'rich'
p18
aasS'raw'
p19
(dp20
S'prob*'
p21
cnumpy.core.multiarray
scalar
p22
(cnumpy
dtype
p23
(S'f8'
p24
I0
I1
tp25
Rp26
(I3
S'<'
p27
NNNI-1
I-1
I0
tp28
bS'\x8bZa`\xa7}\x88?'
p29
tp30
Rp31
sS'link-probs'
p32
(lp33
(g14
g18
F0.5222157978804014
tp34
a(g14
g12
F0.6459473946916333
tp35
a(g14
g16
F0.6528409786028315
tp36
a(g14
g10
F0.6622297263211557
tp37
a(g18
g12
F0.6400826236030983
tp38
a(g18
g16
F0.648816076054653
tp39
a(g18
g10
F0.6608886261473775
tp40
a(g12
g16
F0.8333333333333334
tp41
a(g12
g10
F0.6102931357755819
tp42
a(g16
g10
F0.5874450543243337
tp43
assg3
F0.3
sS'algo'
p44
(lp45
(lp46
g14
aa(lp47
g18
aa(lp48
g12
aa(lp49
g16
aa(lp50
g10
aasg2
F0.4
sss.