(dp0
S'tau'
p1
F-0.5
sS'|tau|'
p2
F0.5
sS'pairwise'
p3
F0.25
sS'ranking'
p4
(dp5
I0
(dp6
g1
F-0.5
sS'gold'
p7
(lp8
(lp9
S'perfect'
p10
aa(lp11
S'good'
p12
aa(lp13
S'ok'
p14
aa(lp15
S'wrong'
p16
aa(lp17
S'bad'
p18
aa(lp19
S'right'
p20
aa(lp21
S'okay'
p22
aa(lp23
S'fine'
p24
aasS'raw'
p25
(dp26
S'prob*'
p27
cnumpy.core.multiarray
scalar
p28
(cnumpy
dtype
p29
(S'f8'
p30
I0
I1
tp31
Rp32
(I3
S'<'
p33
NNNI-1
I-1
I0
tp34
bS'Y\xac~\xb9}J\xf5>'
p35
tp36
Rp37
sS'link-probs'
p38
(lp39
(g20
g18
F0.75
tp40
a(g20
g24
F0.7777777777777778
tp41
a(g20
g22
F0.9940119760479041
tp42
a(g20
g12
F0.6
tp43
a(g20
g14
F0.8888888888888888
tp44
a(g20
g16
F0.75
tp45
a(g20
g10
F0.75
tp46
a(g18
g24
F0.75
tp47
a(g18
g22
F0.4833554262638809
tp48
a(g18
g12
F0.7500841354243791
tp49
a(g18
g14
F0.6666666666666666
tp50
a(g18
g16
F0.5333333333333333
tp51
a(g18
g10
F0.6511462992650087
tp52
a(g24
g22
F0.6
tp53
a(g24
g12
F0.5752577319587628
tp54
a(g24
g14
F0.4
tp55
a(g24
g16
F0.6
tp56
a(g24
g10
F0.4166666666666667
tp57
a(g22
g12
F0.9972477064220183
tp58
a(g22
g14
F0.9090909090909091
tp59
a(g22
g16
F0.5150318531520806
tp60
a(g22
g10
F0.9991254919108001
tp61
a(g12
g14
F0.75
tp62
a(g12
g16
F0.6666666666666666
tp63
a(g12
g10
F0.9806520665239585
tp64
a(g14
g16
F0.5407552235142222
tp65
a(g14
g10
F0.6666666666666666
tp66
a(g16
g10
F0.6514327407848274
tp67
assg3
F0.25
sS'algo'
p68
(lp69
(lp70
g20
aa(lp71
g18
aa(lp72
g24
aa(lp73
g22
aa(lp74
g12
aa(lp75
g14
aa(lp76
g16
aa(lp77
g10
aasg2
F0.5
sss.