(dp0
S'tau'
p1
F0.14285714285714285
sS'|tau|'
p2
F0.14285714285714285
sS'pairwise'
p3
F0.5714285714285714
sS'ranking'
p4
(dp5
I0
(dp6
g1
F0.14285714285714285
sS'gold'
p7
(lp8
(lp9
S'skilled'
p10
aa(lp11
S'talented'
p12
aa(lp13
S'knowledgeable'
p14
aa(lp15
S'responsible'
p16
aa(lp17
S'able'
p18
aa(lp19
S'trained'
p20
aa(lp21
S'competent'
p22
aasS'raw'
p23
(dp24
S'prob*'
p25
cnumpy.core.multiarray
scalar
p26
(cnumpy
dtype
p27
(S'f8'
p28
I0
I1
tp29
Rp30
(I3
S'<'
p31
NNNI-1
I-1
I0
tp32
bS'N\x17\xad\x97\xc3h\xf7>'
p33
tp34
Rp35
sS'link-probs'
p36
(lp37
(g12
g18
F0.5077912575343114
tp38
a(g12
g20
F0.6579289318568303
tp39
a(g12
g10
F0.75
tp40
a(g12
g22
F0.6580082160589967
tp41
a(g12
g14
F0.6327827563938674
tp42
a(g12
g16
F0.6509068157040987
tp43
a(g18
g20
F0.6570965387421897
tp44
a(g18
g10
F0.47310427120374937
tp45
a(g18
g22
F0.6571831552188551
tp46
a(g18
g14
F0.6298267140325325
tp47
a(g18
g16
F0.6494409667622535
tp48
a(g20
g10
F0.8
tp49
a(g20
g22
F0.5007799454391741
tp50
a(g20
g14
F0.3973924519411082
tp51
a(g20
g16
F0.45055826875543703
tp52
a(g10
g22
F0.659764070791593
tp53
a(g10
g14
F0.75
tp54
a(g10
g16
F0.6540467940041333
tp55
a(g22
g14
F0.6666666666666666
tp56
a(g22
g16
F0.44984794573707093
tp57
a(g14
g16
F0.5650450943204103
tp58
assg3
F0.5714285714285714
sS'algo'
p59
(lp60
(lp61
g12
aa(lp62
g18
aa(lp63
g20
aa(lp64
g10
aa(lp65
g22
aa(lp66
g14
aa(lp67
g16
aasg2
F0.14285714285714285
sss.