(dp0
S'tau'
p1
F-0.3333333333333333
sS'|tau|'
p2
F0.3333333333333333
sS'pairwise'
p3
F0.3333333333333333
sS'ranking'
p4
(dp5
I0
(dp6
g1
F-0.3333333333333333
sS'gold'
p7
(lp8
(lp9
S'late'
p10
aa(lp11
S'later'
p12
aa(lp13
S'last'
p14
aa(lp15
S'over'
p16
aa(lp17
S'married'
p18
aa(lp19
S'past'
p20
aasS'raw'
p21
(dp22
S'prob*'
p23
cnumpy.core.multiarray
scalar
p24
(cnumpy
dtype
p25
(S'f8'
p26
I0
I1
tp27
Rp28
(I3
S'<'
p29
NNNI-1
I-1
I0
tp30
bS'\xc5&\xcb$J\xb2H?'
p31
tp32
Rp33
sS'link-probs'
p34
(lp35
(g16
g18
F0.592841164876011
tp36
a(g16
g14
F0.6553505660042207
tp37
a(g16
g20
F0.6666666666666666
tp38
a(g16
g10
F0.6589662914460206
tp39
a(g16
g12
F0.6542096982838366
tp40
a(g18
g14
F0.6300180997167913
tp41
a(g18
g20
F0.39050760288049924
tp42
a(g18
g10
F0.6410850450074315
tp43
a(g18
g12
F0.6266407133257176
tp44
a(g14
g20
F0.6666666666666666
tp45
a(g14
g10
F0.5325852938268699
tp46
a(g14
g12
F0.49170662226150647
tp47
a(g20
g10
F0.6610272102568681
tp48
a(g20
g12
F0.6575078597716096
tp49
a(g10
g12
F0.9
tp50
assg3
F0.3333333333333333
sS'algo'
p51
(lp52
(lp53
g16
aa(lp54
g18
aa(lp55
g14
aa(lp56
g20
aa(lp57
g10
aa(lp58
g12
aasg2
F0.3333333333333333
sss.