(dp0
S'tau'
p1
F-0.3333333333333333
sS'|tau|'
p2
F0.3333333333333333
sS'pairwise'
p3
F0.3333333333333333
sS'ranking'
p4
(dp5
I0
(dp6
g1
F-0.3333333333333333
sS'gold'
p7
(lp8
(lp9
S'sexy'
p10
aa(lp11
S'appealing'
p12
aa(lp13
S'attractive'
p14
aasS'raw'
p15
(dp16
S'prob*'
p17
cnumpy.core.multiarray
scalar
p18
(cnumpy
dtype
p19
(S'f8'
p20
I0
I1
tp21
Rp22
(I3
S'<'
p23
NNNI-1
I-1
I0
tp24
bS'\x19)\x01\xbei\x9e\xcd?'
p25
tp26
Rp27
sS'link-probs'
p28
(lp29
(g14
g10
F0.956140350877193
tp30
a(g14
g12
F0.4
tp31
a(g10
g12
F0.6050285467625587
tp32
assg3
F0.3333333333333333
sS'algo'
p33
(lp34
(lp35
g14
aa(lp36
g10
aa(lp37
g12
aasg2
F0.3333333333333333
sss.