(dp0
S'tau'
p1
F-0.4666666666666667
sS'|tau|'
p2
F0.4666666666666667
sS'pairwise'
p3
F0.26666666666666666
sS'ranking'
p4
(dp5
I0
(dp6
g1
F-0.4666666666666667
sS'gold'
p7
(lp8
(lp9
S'little'
p10
aa(lp11
S'slow'
p12
aa(lp13
S'few'
p14
aa(lp15
S'enough'
p16
aa(lp17
S'short'
p18
aa(lp19
S'small'
p20
aasS'raw'
p21
(dp22
S'prob*'
p23
cnumpy.core.multiarray
scalar
p24
(cnumpy
dtype
p25
(S'f8'
p26
I0
I1
tp27
Rp28
(I3
S'<'
p29
NNNI-1
I-1
I0
tp30
bS'\xb3\r\xa6[1D@?'
p31
tp32
Rp33
sS'link-probs'
p34
(lp35
(g20
g14
F0.625
tp36
a(g20
g18
F0.6666666666666666
tp37
a(g20
g10
F0.6875
tp38
a(g20
g16
F0.6508446485531539
tp39
a(g20
g12
F0.6666666666666666
tp40
a(g14
g18
F0.5555555555555556
tp41
a(g14
g10
F0.5559423331865695
tp42
a(g14
g16
F0.6541434097461871
tp43
a(g14
g12
F0.5362030233794297
tp44
a(g18
g10
F0.5087424624408529
tp45
a(g18
g16
F0.6446681627187595
tp46
a(g18
g12
F0.48736611159091175
tp47
a(g10
g16
F0.6424097911304965
tp48
a(g10
g12
F0.4787083101597424
tp49
a(g16
g12
F0.75
tp50
assg3
F0.26666666666666666
sS'algo'
p51
(lp52
(lp53
g20
aa(lp54
g14
aa(lp55
g18
aa(lp56
g10
aa(lp57
g16
aa(lp58
g12
aasg2
F0.4666666666666667
sss.