(dp0
S'tau'
p1
F-0.42857142857142855
sS'|tau|'
p2
F0.42857142857142855
sS'pairwise'
p3
F0.2857142857142857
sS'ranking'
p4
(dp5
I0
(dp6
g1
F-0.42857142857142855
sS'gold'
p7
(lp8
(lp9
S'distinct'
p10
aa(lp11
S'plain'
p12
aa(lp13
S'clear'
p14
aa(lp15
S'apparent'
p16
aa(lp17
S'visible'
p18
aa(lp19
S'obvious'
p20
aa(lp21
S'understandable'
p22
aasS'raw'
p23
(dp24
S'prob*'
p25
cnumpy.core.multiarray
scalar
p26
(cnumpy
dtype
p27
(S'f8'
p28
I0
I1
tp29
Rp30
(I3
S'<'
p31
NNNI-1
I-1
I0
tp32
bS'\x88\x83\x82\xd6\xadz"?'
p33
tp34
Rp35
sS'link-probs'
p36
(lp37
(g14
g22
F0.6666666666666666
tp38
a(g14
g20
F0.4864864864864865
tp39
a(g14
g18
F0.625
tp40
a(g14
g10
F0.8
tp41
a(g14
g16
F0.7777777777777778
tp42
a(g14
g12
F0.8636363636363636
tp43
a(g22
g20
F0.6666666666666666
tp44
a(g22
g18
F0.6097189513499854
tp45
a(g22
g10
F0.4105088055357428
tp46
a(g22
g16
F0.6593002493221621
tp47
a(g22
g12
F0.4430576803957669
tp48
a(g20
g18
F0.7272727272727273
tp49
a(g20
g10
F0.75
tp50
a(g20
g16
F0.7777777777777778
tp51
a(g20
g12
F0.875
tp52
a(g18
g10
F0.6666666666666666
tp53
a(g18
g16
F0.5384615384615384
tp54
a(g18
g12
F0.6666666666666666
tp55
a(g10
g16
F0.6644124987952181
tp56
a(g10
g12
F0.5398614646615004
tp57
a(g16
g12
F0.8333333333333334
tp58
assg3
F0.2857142857142857
sS'algo'
p59
(lp60
(lp61
g14
aa(lp62
g22
aa(lp63
g20
aa(lp64
g18
aa(lp65
g10
aa(lp66
g16
aa(lp67
g12
aasg2
F0.42857142857142855
sss.