(dp0
S'tau'
p1
F-0.2
sS'|tau|'
p2
F0.2
sS'pairwise'
p3
F0.4
sS'ranking'
p4
(dp5
I0
(dp6
g1
F-0.2
sS'gold'
p7
(lp8
(lp9
S'familiar'
p10
aa(lp11
S'aware'
p12
aa(lp13
S'used'
p14
aa(lp15
S'experienced'
p16
aa(lp17
S'famous'
p18
aasS'raw'
p19
(dp20
S'prob*'
p21
cnumpy.core.multiarray
scalar
p22
(cnumpy
dtype
p23
(S'f8'
p24
I0
I1
tp25
Rp26
(I3
S'<'
p27
NNNI-1
I-1
I0
tp28
bS'\xb1@\xf0\x93D\xfd}?'
p29
tp30
Rp31
sS'link-probs'
p32
(lp33
(g14
g16
F0.5436969899573848
tp34
a(g14
g12
F0.6520299850749394
tp35
a(g14
g18
F0.5236969077644043
tp36
a(g14
g10
F0.6598724666458282
tp37
a(g16
g12
F0.6423854975553921
tp38
a(g16
g18
F0.47922549824010224
tp39
a(g16
g10
F0.655209821931512
tp40
a(g12
g18
F0.6666666666666666
tp41
a(g12
g10
F0.6666666666666666
tp42
a(g18
g10
F0.6666666666666666
tp43
assg3
F0.4
sS'algo'
p44
(lp45
(lp46
g14
aa(lp47
g16
aa(lp48
g12
aa(lp49
g18
aa(lp50
g10
aasg2
F0.2
sss.