(dp0
S'tau'
p1
F-1.0
sS'|tau|'
p2
F1.0
sS'pairwise'
p3
F0.0
sS'ranking'
p4
(dp5
I0
(dp6
g1
F-1.0
sS'gold'
p7
(lp8
(lp9
S'direct'
p10
aa(lp11
S'immediate'
p12
aa(lp13
S'left'
p14
aasS'raw'
p15
(dp16
S'prob*'
p17
cnumpy.core.multiarray
scalar
p18
(cnumpy
dtype
p19
(S'f8'
p20
I0
I1
tp21
Rp22
(I3
S'<'
p23
NNNI-1
I-1
I0
tp24
bS'T}}\x96\x98:\xd2?'
p25
tp26
Rp27
sS'link-probs'
p28
(lp29
(g14
g12
F0.6544191122458806
tp30
a(g14
g10
F0.6528532255054817
tp31
a(g12
g10
F0.6666666666666666
tp32
assg3
F0.0
sS'algo'
p33
(lp34
(lp35
g14
aa(lp36
g12
aa(lp37
g10
aasg2
F1.0
sss.