(dp0
S'tau'
p1
F-0.6
sS'|tau|'
p2
F0.6
sS'pairwise'
p3
F0.2
sS'ranking'
p4
(dp5
I0
(dp6
g1
F-0.6
sS'gold'
p7
(lp8
(lp9
S'unusual'
p10
aa(lp11
S'rare'
p12
aa(lp13
S'exceptional'
p14
aa(lp15
S'extraordinary'
p16
aa(lp17
S'unique'
p18
aa(lp19
S'special'
p20
aasS'raw'
p21
(dp22
S'prob*'
p23
cnumpy.core.multiarray
scalar
p24
(cnumpy
dtype
p25
(S'f8'
p26
I0
I1
tp27
Rp28
(I3
S'<'
p29
NNNI-1
I-1
I0
tp30
bS'\xff\x98\xb7\xe3\xc4\xf6D?'
p31
tp32
Rp33
sS'link-probs'
p34
(lp35
(g20
g18
F0.8
tp36
a(g20
g12
F0.5017990629209618
tp37
a(g20
g14
F0.8
tp38
a(g20
g16
F0.3584736385691601
tp39
a(g20
g10
F0.6666666666666666
tp40
a(g18
g12
F0.6378040050190791
tp41
a(g18
g14
F0.4
tp42
a(g18
g16
F0.6666666666666666
tp43
a(g18
g10
F0.5702468775758375
tp44
a(g12
g14
F0.9941520467836257
tp45
a(g12
g16
F0.6666666666666666
tp46
a(g12
g10
F0.3803680981595092
tp47
a(g14
g16
F0.9770114942528736
tp48
a(g14
g10
F0.6
tp49
a(g16
g10
F0.5815830954356536
tp50
assg3
F0.2
sS'algo'
p51
(lp52
(lp53
g20
aa(lp54
g18
aa(lp55
g12
aa(lp56
g14
aa(lp57
g16
aa(lp58
g10
aasg2
F0.6
sss.