(dp0
S'tau'
p1
F-0.6666666666666666
sS'|tau|'
p2
F0.6666666666666666
sS'pairwise'
p3
F0.16666666666666666
sS'ranking'
p4
(dp5
I0
(dp6
g1
F-0.6666666666666666
sS'gold'
p7
(lp8
(lp9
S'vibrant'
p10
aa(lp11
S'live'
p12
aa(lp13
S'lively'
p14
aa(lp15
S'alive'
p16
aasS'raw'
p17
(dp18
S'prob*'
p19
cnumpy.core.multiarray
scalar
p20
(cnumpy
dtype
p21
(S'f8'
p22
I0
I1
tp23
Rp24
(I3
S'<'
p25
NNNI-1
I-1
I0
tp26
bS'\xc5\xb9\xa3Q\xe4\xdb\xae?'
p27
tp28
Rp29
sS'link-probs'
p30
(lp31
(g16
g12
F0.6
tp32
a(g16
g14
F0.6588925470735872
tp33
a(g16
g10
F0.6666666666666666
tp34
a(g12
g14
F0.6555731951756373
tp35
a(g12
g10
F0.6588286341153929
tp36
a(g14
g10
F0.5294719775701178
tp37
assg3
F0.16666666666666666
sS'algo'
p38
(lp39
(lp40
g16
aa(lp41
g12
aa(lp42
g14
aa(lp43
g10
aasg2
F0.6666666666666666
sss.