(dp0
S'tau'
p1
F-0.8
sS'|tau|'
p2
F0.8
sS'pairwise'
p3
F0.1
sS'ranking'
p4
(dp5
I0
(dp6
g1
F-0.8
sS'gold'
p7
(lp8
(lp9
S'comparable'
p10
aa(lp11
S'similar'
p12
aa(lp13
S'like'
p14
aa(lp15
S'same'
p16
aa(lp17
S'equal'
p18
aasS'raw'
p19
(dp20
S'prob*'
p21
cnumpy.core.multiarray
scalar
p22
(cnumpy
dtype
p23
(S'f8'
p24
I0
I1
tp25
Rp26
(I3
S'<'
p27
NNNI-1
I-1
I0
tp28
bS'\t\xde[|\x93E\x8e?'
p29
tp30
Rp31
sS'link-probs'
p32
(lp33
(g18
g14
F0.6401023833012989
tp34
a(g18
g16
F0.7264791464597479
tp35
a(g18
g12
F0.6666666666666666
tp36
a(g18
g10
F0.6666666666666666
tp37
a(g14
g16
F0.9988399071925754
tp38
a(g14
g12
F0.6
tp39
a(g14
g10
F0.6666666666666666
tp40
a(g16
g12
F0.5204690541928464
tp41
a(g16
g10
F0.4814987880392971
tp42
a(g12
g10
F0.7142857142857143
tp43
assg3
F0.1
sS'algo'
p44
(lp45
(lp46
g18
aa(lp47
g14
aa(lp48
g16
aa(lp49
g12
aa(lp50
g10
aasg2
F0.8
sss.