(dp0
S'tau'
p1
F0.2
sS'|tau|'
p2
F0.2
sS'pairwise'
p3
F0.6
sS'ranking'
p4
(dp5
I0
(dp6
g1
F0.2
sS'gold'
p7
(lp8
(lp9
S'beautiful'
p10
aa(lp11
S'cute'
p12
aa(lp13
S'soft'
p14
aa(lp15
S'favorite'
p16
aa(lp17
S'nice'
p18
aasS'raw'
p19
(dp20
S'prob*'
p21
cnumpy.core.multiarray
scalar
p22
(cnumpy
dtype
p23
(S'f8'
p24
I0
I1
tp25
Rp26
(I3
S'<'
p27
NNNI-1
I-1
I0
tp28
bS'\xfa\xb5\xa8\xdd\x99\xc2{?'
p29
tp30
Rp31
sS'link-probs'
p32
(lp33
(g10
g18
F0.6190476190476191
tp34
a(g10
g14
F0.49637830922161436
tp35
a(g10
g12
F0.5625
tp36
a(g10
g16
F0.6603016244932238
tp37
a(g18
g14
F0.6666666666666666
tp38
a(g18
g12
F0.6
tp39
a(g18
g16
F0.6592528409216197
tp40
a(g14
g12
F0.5113548602672292
tp41
a(g14
g16
F0.6605674137817572
tp42
a(g12
g16
F0.6666666666666666
tp43
assg3
F0.6
sS'algo'
p44
(lp45
(lp46
g10
aa(lp47
g18
aa(lp48
g14
aa(lp49
g12
aa(lp50
g16
aasg2
F0.2
sss.