(dp0
S'tau'
p1
F0.14285714285714285
sS'|tau|'
p2
F0.14285714285714285
sS'pairwise'
p3
F0.5714285714285714
sS'ranking'
p4
(dp5
I0
(dp6
g1
F0.14285714285714285
sS'gold'
p7
(lp8
(lp9
S'unexpected'
p10
aa(lp11
S'awkward'
p12
aa(lp13
S'surprising'
p14
aa(lp15
S'strange'
p16
aa(lp17
S'curious'
p18
aa(lp19
S'weird'
p20
aa(lp21
S'odd'
p22
aa(lp23
S'surprised'
p24
aasS'raw'
p25
(dp26
S'prob*'
p27
cnumpy.core.multiarray
scalar
p28
(cnumpy
dtype
p29
(S'f8'
p30
I0
I1
tp31
Rp32
(I3
S'<'
p33
NNNI-1
I-1
I0
tp34
bS'\xa0\xe89\xde\xe8\\\xab>'
p35
tp36
Rp37
sS'link-probs'
p38
(lp39
(g14
g10
F0.75
tp40
a(g14
g16
F0.5555555555555556
tp41
a(g14
g24
F0.5555555555555556
tp42
a(g14
g20
F0.596163271103744
tp43
a(g14
g22
F0.625
tp44
a(g14
g18
F0.5867845617490636
tp45
a(g14
g12
F0.3539174851886626
tp46
a(g10
g16
F0.5343528591195134
tp47
a(g10
g24
F0.6598411513045658
tp48
a(g10
g20
F0.6618744991498726
tp49
a(g10
g22
F0.5487073408656656
tp50
a(g10
g18
F0.6610502292012165
tp51
a(g10
g12
F0.5158645668554943
tp52
a(g16
g24
F0.75
tp53
a(g16
g20
F0.9944071588366891
tp54
a(g16
g22
F0.65
tp55
a(g16
g18
F0.6111111111111112
tp56
a(g16
g12
F0.8181818181818182
tp57
a(g24
g20
F0.5296715335234805
tp58
a(g24
g22
F0.6666666666666666
tp59
a(g24
g18
F0.5165013047932873
tp60
a(g24
g12
F0.34155951298110443
tp61
a(g20
g22
F0.5384615384615384
tp62
a(g20
g18
F0.5833333333333334
tp63
a(g20
g12
F0.75
tp64
a(g22
g18
F0.6565527234927031
tp65
a(g22
g12
F0.625
tp66
a(g18
g12
F0.7142857142857143
tp67
assg3
F0.5714285714285714
sS'algo'
p68
(lp69
(lp70
g14
aa(lp71
g10
aa(lp72
g16
aa(lp73
g24
aa(lp74
g20
aa(lp75
g22
aa(lp76
g18
aa(lp77
g12
aasg2
F0.14285714285714285
sss.