(dp0
S'tau'
p1
F0.0
sS'|tau|'
p2
F0.0
sS'pairwise'
p3
F0.5
sS'ranking'
p4
(dp5
I0
(dp6
g1
F0.0
sS'gold'
p7
(lp8
(lp9
S'mixed'
p10
aa(lp11
S'different'
p12
aa(lp13
S'uneven'
p14
aa(lp15
S'various'
p16
aa(lp17
S'diverse'
p18
aasS'raw'
p19
(dp20
S'prob*'
p21
cnumpy.core.multiarray
scalar
p22
(cnumpy
dtype
p23
(S'f8'
p24
I0
I1
tp25
Rp26
(I3
S'<'
p27
NNNI-1
I-1
I0
tp28
bS'y\xe1\x8a?0\xd7\x94?'
p29
tp30
Rp31
sS'link-probs'
p32
(lp33
(g12
g18
F0.7692307692307693
tp34
a(g12
g10
F0.75
tp35
a(g12
g16
F0.9166666666666666
tp36
a(g12
g14
F0.6580724633612979
tp37
a(g18
g10
F0.75
tp38
a(g18
g16
F0.8
tp39
a(g18
g14
F0.5714999403590021
tp40
a(g10
g16
F0.5295896778534394
tp41
a(g10
g14
F0.580057792552441
tp42
a(g16
g14
F0.5551732831544774
tp43
assg3
F0.5
sS'algo'
p44
(lp45
(lp46
g12
aa(lp47
g18
aa(lp48
g10
aa(lp49
g16
aa(lp50
g14
aasg2
F0.0
sss.