(dp0
S'tau'
p1
F1.0
sS'|tau|'
p2
F1.0
sS'pairwise'
p3
F1.0
sS'ranking'
p4
(dp5
I0
(dp6
g1
F1.0
sS'gold'
p7
(lp8
(lp9
S'professional'
p10
aa(lp11
S'human'
p12
aa(lp13
S'social'
p14
aasS'raw'
p15
(dp16
S'prob*'
p17
cnumpy.core.multiarray
scalar
p18
(cnumpy
dtype
p19
(S'f8'
p20
I0
I1
tp21
Rp22
(I3
S'<'
p23
NNNI-1
I-1
I0
tp24
bS'w\x84\xbfX\xef\x17\xcc?'
p25
tp26
Rp27
sS'link-probs'
p28
(lp29
(g10
g12
F0.5061615738422925
tp30
a(g10
g14
F0.6587909982822949
tp31
a(g12
g14
F0.6582016813598912
tp32
assg3
F1.0
sS'algo'
p33
(lp34
(lp35
g10
aa(lp36
g12
aa(lp37
g14
aasg2
F1.0
sss.