(dp0
S'tau'
p1
F0.6
sS'|tau|'
p2
F0.6
sS'pairwise'
p3
F0.8
sS'ranking'
p4
(dp5
I0
(dp6
g1
F0.6
sS'gold'
p7
(lp8
(lp9
S'nervous'
p10
aa(lp11
S'angry'
p12
aa(lp13
S'upset'
p14
aa(lp15
S'hungry'
p16
aa(lp17
S'annoyed'
p18
aa(lp19
S'irritated'
p20
aasS'raw'
p21
(dp22
S'prob*'
p23
cnumpy.core.multiarray
scalar
p24
(cnumpy
dtype
p25
(S'f8'
p26
I0
I1
tp27
Rp28
(I3
S'<'
p29
NNNI-1
I-1
I0
tp30
bS'\xd9-\xde\x1e\x959G?'
p31
tp32
Rp33
sS'link-probs'
p34
(lp35
(g10
g16
F0.5356855734923806
tp36
a(g10
g14
F0.5555555555555556
tp37
a(g10
g12
F0.6381153887310799
tp38
a(g10
g18
F0.4981684063517006
tp39
a(g10
g20
F0.6598409958068133
tp40
a(g16
g14
F0.5880384487366946
tp41
a(g16
g12
F0.6245247627629903
tp42
a(g16
g18
F0.46257090400543505
tp43
a(g16
g20
F0.6562380719751945
tp44
a(g14
g12
F0.6367896895137668
tp45
a(g14
g18
F0.8
tp46
a(g14
g20
F0.75
tp47
a(g12
g18
F0.6666666666666666
tp48
a(g12
g20
F0.6058515728401903
tp49
a(g18
g20
F0.6599864134353365
tp50
assg3
F0.8
sS'algo'
p51
(lp52
(lp53
g10
aa(lp54
g16
aa(lp55
g14
aa(lp56
g12
aa(lp57
g18
aa(lp58
g20
aasg2
F0.6
sss.