(dp0
S'tau'
p1
F-0.06666666666666667
sS'|tau|'
p2
F0.06666666666666667
sS'pairwise'
p3
F0.4666666666666667
sS'ranking'
p4
(dp5
I0
(dp6
g1
F-0.06666666666666667
sS'gold'
p7
(lp8
(lp9
S'pathetic'
p10
aa(lp11
S'lame'
p12
aa(lp13
S'stupid'
p14
aa(lp15
S'dumb'
p16
aa(lp17
S'silly'
p18
aa(lp19
S'cheesy'
p20
aasS'raw'
p21
(dp22
S'prob*'
p23
cnumpy.core.multiarray
scalar
p24
(cnumpy
dtype
p25
(S'f8'
p26
I0
I1
tp27
Rp28
(I3
S'<'
p29
NNNI-1
I-1
I0
tp30
bS'\x07\x0cbLb+k?'
p31
tp32
Rp33
sS'link-probs'
p34
(lp35
(g14
g18
F0.6818181818181818
tp36
a(g14
g12
F0.8181818181818182
tp37
a(g14
g16
F0.7058823529411765
tp38
a(g14
g20
F0.75
tp39
a(g14
g10
F0.8888888888888888
tp40
a(g18
g12
F0.6
tp41
a(g18
g16
F0.6
tp42
a(g18
g20
F0.75
tp43
a(g18
g10
F0.75
tp44
a(g12
g16
F0.6
tp45
a(g12
g20
F0.6666666666666666
tp46
a(g12
g10
F0.6666666666666666
tp47
a(g16
g20
F0.6477442211178075
tp48
a(g16
g10
F0.6666666666666666
tp49
a(g20
g10
F0.5417833892043379
tp50
assg3
F0.4666666666666667
sS'algo'
p51
(lp52
(lp53
g14
aa(lp54
g18
aa(lp55
g12
aa(lp56
g16
aa(lp57
g20
aa(lp58
g10
aasg2
F0.06666666666666667
sss.