(dp0
S'tau'
p1
F-0.6
sS'|tau|'
p2
F0.6
sS'pairwise'
p3
F0.2
sS'ranking'
p4
(dp5
I0
(dp6
g1
F-0.6
sS'gold'
p7
(lp8
(lp9
S'successful'
p10
aa(lp11
S'efficient'
p12
aa(lp13
S'adequate'
p14
aa(lp15
S'competitive'
p16
aa(lp17
S'effective'
p18
aasS'raw'
p19
(dp20
S'prob*'
p21
cnumpy.core.multiarray
scalar
p22
(cnumpy
dtype
p23
(S'f8'
p24
I0
I1
tp25
Rp26
(I3
S'<'
p27
NNNI-1
I-1
I0
tp28
bS'\x05\xad\t\xdc\x1c\xed\x81?'
p29
tp30
Rp31
sS'link-probs'
p32
(lp33
(g16
g14
F0.5328793387783418
tp34
a(g16
g18
F0.6589562423612553
tp35
a(g16
g12
F0.6463046658458139
tp36
a(g16
g10
F0.6086897574737795
tp37
a(g14
g18
F0.655295722520308
tp38
a(g14
g12
F0.6371816866725957
tp39
a(g14
g10
F0.5870035372977801
tp40
a(g18
g12
F0.65
tp41
a(g18
g10
F0.6363636363636364
tp42
a(g12
g10
F0.625
tp43
assg3
F0.2
sS'algo'
p44
(lp45
(lp46
g16
aa(lp47
g14
aa(lp48
g18
aa(lp49
g12
aa(lp50
g10
aasg2
F0.6
sss.