(dp0
S'tau'
p1
F-0.06666666666666667
sS'|tau|'
p2
F0.06666666666666667
sS'pairwise'
p3
F0.4666666666666667
sS'ranking'
p4
(dp5
I0
(dp6
g1
F-0.06666666666666667
sS'gold'
p7
(lp8
(lp9
S'impressive'
p10
aa(lp11
S'remarkable'
p12
aa(lp13
S'outstanding'
p14
aa(lp15
S'incredible'
p16
aa(lp17
S'spectacular'
p18
aa(lp19
S'superb'
p20
aa(lp21
S'stunning'
p22
aa(lp23
S'fabulous'
p24
aa(lp25
S'excellent'
p26
aa(lp27
S'exciting'
p28
aasS'raw'
p29
(dp30
S'prob*'
p31
cnumpy.core.multiarray
scalar
p32
(cnumpy
dtype
p33
(S'f8'
p34
I0
I1
tp35
Rp36
(I3
S'<'
p37
NNNI-1
I-1
I0
tp38
bS"'w\x8c\x94=;\x05>"
p39
tp40
Rp41
sS'link-probs'
p42
(lp43
(g22
g10
F0.6666666666666666
tp44
a(g22
g28
F0.6666666666666666
tp45
a(g22
g24
F0.6666666666666666
tp46
a(g22
g16
F0.6666666666666666
tp47
a(g22
g12
F0.6666666666666666
tp48
a(g22
g26
F0.6666666666666666
tp49
a(g22
g18
F0.44163422286969106
tp50
a(g22
g14
F0.6666666666666666
tp51
a(g22
g20
F0.6666666666666666
tp52
a(g10
g28
F0.6521310529695478
tp53
a(g10
g24
F0.40246187168102177
tp54
a(g10
g16
F0.875
tp55
a(g10
g12
F0.3333333333333333
tp56
a(g10
g26
F0.4903536745086692
tp57
a(g10
g18
F0.8888888888888888
tp58
a(g10
g14
F0.6666666666666666
tp59
a(g10
g20
F0.6311782470601336
tp60
a(g28
g24
F0.6666666666666666
tp61
a(g28
g16
F0.6666666666666666
tp62
a(g28
g12
F0.75
tp63
a(g28
g26
F0.6666666666666666
tp64
a(g28
g18
F0.4255867911800763
tp65
a(g28
g14
F0.6666666666666666
tp66
a(g28
g20
F0.4255867911800763
tp67
a(g24
g16
F0.5742508369187306
tp68
a(g24
g12
F0.663957910527618
tp69
a(g24
g26
F0.5909732339440037
tp70
a(g24
g18
F0.6565890155749806
tp71
a(g24
g14
F0.660524616919458
tp72
a(g24
g20
F0.6565890155749806
tp73
a(g16
g12
F0.7
tp74
a(g16
g26
F0.6666666666666666
tp75
a(g16
g18
F0.6416125345836846
tp76
a(g16
g14
F0.6511154953148083
tp77
a(g16
g20
F0.6416125345836846
tp78
a(g12
g26
F0.7272727272727273
tp79
a(g12
g18
F0.40270251541985663
tp80
a(g12
g14
F0.7
tp81
a(g12
g20
F0.8888888888888888
tp82
a(g26
g18
F0.6346889558351366
tp83
a(g26
g14
F0.625
tp84
a(g26
g20
F0.9090909090909091
tp85
a(g18
g14
F0.5413882173838203
tp86
a(g18
g20
F0.5
tp87
a(g14
g20
F0.6666666666666666
tp88
assg3
F0.4666666666666667
sS'algo'
p89
(lp90
(lp91
g22
aa(lp92
g10
aa(lp93
g28
aa(lp94
g24
aa(lp95
g16
aa(lp96
g12
aa(lp97
g26
aa(lp98
g18
aa(lp99
g14
aa(lp100
g20
aasg2
F0.06666666666666667
sss.