(dp0
S'tau'
p1
F-0.2
sS'|tau|'
p2
F0.2
sS'pairwise'
p3
F0.4
sS'ranking'
p4
(dp5
I0
(dp6
g1
F-0.2
sS'gold'
p7
(lp8
(lp9
S'boring'
p10
aa(lp11
S'unpleasant'
p12
aa(lp13
S'frustrating'
p14
aa(lp15
S'annoying'
p16
aa(lp17
S'painful'
p18
aasS'raw'
p19
(dp20
S'prob*'
p21
cnumpy.core.multiarray
scalar
p22
(cnumpy
dtype
p23
(S'f8'
p24
I0
I1
tp25
Rp26
(I3
S'<'
p27
NNNI-1
I-1
I0
tp28
bS'U\x8b#./tm?'
p29
tp30
Rp31
sS'link-probs'
p32
(lp33
(g18
g12
F0.6666666666666666
tp34
a(g18
g10
F0.5844807223095652
tp35
a(g18
g16
F0.5145357086353021
tp36
a(g18
g14
F0.5803249577316252
tp37
a(g12
g10
F0.5
tp38
a(g12
g16
F0.6666666666666666
tp39
a(g12
g14
F0.4945008272426239
tp40
a(g10
g16
F0.6666666666666666
tp41
a(g10
g14
F0.4945008272426239
tp42
a(g16
g14
F0.5686758952077808
tp43
assg3
F0.4
sS'algo'
p44
(lp45
(lp46
g18
aa(lp47
g12
aa(lp48
g10
aa(lp49
g16
aa(lp50
g14
aasg2
F0.2
sss.