(dp0
S'tau'
p1
F0.3333333333333333
sS'|tau|'
p2
F0.3333333333333333
sS'pairwise'
p3
F0.6666666666666666
sS'ranking'
p4
(dp5
I0
(dp6
g1
F0.3333333333333333
sS'gold'
p7
(lp8
(lp9
S'normal'
p10
aa(lp11
S'classic'
p12
aa(lp13
S'daily'
p14
aa(lp15
S'traditional'
p16
aa(lp17
S'regular'
p18
aa(lp19
S'common'
p20
aa(lp21
S'ordinary'
p22
aa(lp23
S'usual'
p24
aa(lp25
S'typical'
p26
aasS'raw'
p27
(dp28
S'prob*'
p29
cnumpy.core.multiarray
scalar
p30
(cnumpy
dtype
p31
(S'f8'
p32
I0
I1
tp33
Rp34
(I3
S'<'
p35
NNNI-1
I-1
I0
tp36
bS'P\xe4w\x10\x99\xe6r>'
p37
tp38
Rp39
sS'link-probs'
p40
(lp41
(g12
g20
F0.557347301905012
tp42
a(g12
g10
F0.5521022133065626
tp43
a(g12
g14
F0.5621848764156313
tp44
a(g12
g22
F0.6504382053003149
tp45
a(g12
g24
F0.6547670424052137
tp46
a(g12
g26
F0.3333333333333333
tp47
a(g12
g18
F0.6585075174593064
tp48
a(g12
g16
F0.6618759552805633
tp49
a(g20
g10
F0.6666666666666666
tp50
a(g20
g14
F0.5055501012598108
tp51
a(g20
g22
F0.6666666666666666
tp52
a(g20
g24
F0.8
tp53
a(g20
g26
F0.8
tp54
a(g20
g18
F0.6503658049580129
tp55
a(g20
g16
F0.6569955138602146
tp56
a(g10
g14
F0.5114139769254131
tp57
a(g10
g22
F0.9166666666666666
tp58
a(g10
g24
F0.8461538461538461
tp59
a(g10
g26
F0.9166666666666666
tp60
a(g10
g18
F0.9
tp61
a(g10
g16
F0.6576365127733667
tp62
a(g14
g22
F0.6330678188946766
tp63
a(g14
g24
F0.6416647743115372
tp64
a(g14
g26
F0.6392907201076112
tp65
a(g14
g18
F0.6493012562916558
tp66
a(g14
g16
F0.6563498374499243
tp67
a(g22
g24
F0.526751525112528
tp68
a(g22
g26
F0.5187022204535365
tp69
a(g22
g18
F0.5570032181725731
tp70
a(g22
g16
F0.5927514095388409
tp71
a(g24
g26
F0.6666666666666666
tp72
a(g24
g18
F0.6666666666666666
tp73
a(g24
g16
F0.5724735637530024
tp74
a(g26
g18
F0.5398296237521126
tp75
a(g26
g16
F0.6666666666666666
tp76
a(g18
g16
F0.544151919235466
tp77
assg3
F0.6666666666666666
sS'algo'
p78
(lp79
(lp80
g12
aa(lp81
g20
aa(lp82
g10
aa(lp83
g14
aa(lp84
g22
aa(lp85
g24
aa(lp86
g26
aa(lp87
g18
aa(lp88
g16
aasg2
F0.3333333333333333
sss.