(dp0
S'tau'
p1
F0.0
sS'|tau|'
p2
F0.0
sS'pairwise'
p3
F0.5
sS'ranking'
p4
(dp5
I0
(dp6
g1
F0.0
sS'gold'
p7
(lp8
(lp9
S'polite'
p10
aa(lp11
S'courteous'
p12
aa(lp13
S'friendly'
p14
aa(lp15
S'gracious'
p16
aasS'raw'
p17
(dp18
S'prob*'
p19
cnumpy.core.multiarray
scalar
p20
(cnumpy
dtype
p21
(S'f8'
p22
I0
I1
tp23
Rp24
(I3
S'<'
p25
NNNI-1
I-1
I0
tp26
bS'\xfb\xdcUC\xb7R\xa7?'
p27
tp28
Rp29
sS'link-probs'
p30
(lp31
(g14
g10
F0.5531101368816254
tp32
a(g14
g16
F0.5598549326309407
tp33
a(g14
g12
F0.6619070387361297
tp34
a(g10
g16
F0.507616423281104
tp35
a(g10
g12
F0.6666666666666666
tp36
a(g16
g12
F0.6567316498339373
tp37
assg3
F0.5
sS'algo'
p38
(lp39
(lp40
g14
aa(lp41
g10
aa(lp42
g16
aa(lp43
g12
aasg2
F0.0
sss.