(dp0
S'tau'
p1
F-0.3333333333333333
sS'|tau|'
p2
F0.3333333333333333
sS'pairwise'
p3
F0.3333333333333333
sS'ranking'
p4
(dp5
I0
(dp6
g1
F-0.3333333333333333
sS'gold'
p7
(lp8
(lp9
S'prior'
p10
aa(lp11
S'old'
p12
aa(lp13
S'original'
p14
aa(lp15
S'above'
p16
aasS'raw'
p17
(dp18
S'prob*'
p19
cnumpy.core.multiarray
scalar
p20
(cnumpy
dtype
p21
(S'f8'
p22
I0
I1
tp23
Rp24
(I3
S'<'
p25
NNNI-1
I-1
I0
tp26
bS'\x1cD\xd28/q\xb0?'
p27
tp28
Rp29
sS'link-probs'
p30
(lp31
(g16
g12
F0.6028960466385812
tp32
a(g16
g10
F0.6592911802624564
tp33
a(g16
g14
F0.6641044854060149
tp34
a(g12
g10
F0.6375677544410774
tp35
a(g12
g14
F0.6560983018541499
tp36
a(g10
g14
F0.581656592089084
tp37
assg3
F0.3333333333333333
sS'algo'
p38
(lp39
(lp40
g16
aa(lp41
g12
aa(lp42
g10
aa(lp43
g14
aasg2
F0.3333333333333333
sss.