(dp0
S'tau'
p1
F-0.3333333333333333
sS'|tau|'
p2
F0.3333333333333333
sS'pairwise'
p3
F0.3333333333333333
sS'ranking'
p4
(dp5
I0
(dp6
g1
F-0.3333333333333333
sS'gold'
p7
(lp8
(lp9
S'unhappy'
p10
aa(lp11
S'sad'
p12
aa(lp13
S'disappointing'
p14
aa(lp15
S'unfortunate'
p16
aa(lp17
S'sorry'
p18
aa(lp19
S'disappointed'
p20
aasS'raw'
p21
(dp22
S'prob*'
p23
cnumpy.core.multiarray
scalar
p24
(cnumpy
dtype
p25
(S'f8'
p26
I0
I1
tp27
Rp28
(I3
S'<'
p29
NNNI-1
I-1
I0
tp30
bS',\xd3\x03\x1b\x89aG?'
p31
tp32
Rp33
sS'link-probs'
p34
(lp35
(g20
g12
F0.5087862445932497
tp36
a(g20
g18
F0.5054417724801998
tp37
a(g20
g10
F0.6523384246859145
tp38
a(g20
g16
F0.4920708824009701
tp39
a(g20
g14
F0.5714285714285714
tp40
a(g12
g18
F0.6923076923076923
tp41
a(g12
g10
F0.75
tp42
a(g12
g16
F0.6666666666666666
tp43
a(g12
g14
F0.6666666666666666
tp44
a(g18
g10
F0.75
tp45
a(g18
g16
F0.6
tp46
a(g18
g14
F0.6666666666666666
tp47
a(g10
g16
F0.5714285714285714
tp48
a(g10
g14
F0.4779615363494161
tp49
a(g16
g14
F0.8
tp50
assg3
F0.3333333333333333
sS'algo'
p51
(lp52
(lp53
g20
aa(lp54
g12
aa(lp55
g18
aa(lp56
g10
aa(lp57
g16
aa(lp58
g14
aasg2
F0.3333333333333333
sss.