(dp0
S'tau'
p1
F-0.3333333333333333
sS'|tau|'
p2
F0.3333333333333333
sS'pairwise'
p3
F0.3333333333333333
sS'ranking'
p4
(dp5
I0
(dp6
g1
F-0.3333333333333333
sS'gold'
p7
(lp8
(lp9
S'insane'
p10
aa(lp11
S'crazy'
p12
aa(lp13
S'patient'
p14
aa(lp15
S'unbelievable'
p16
aa(lp17
S'indian'
p18
aa(lp19
S'mad'
p20
aa(lp21
S'sick'
p22
aa(lp23
S'wild'
p24
aa(lp25
S'ridiculous'
p26
aasS'raw'
p27
(dp28
S'prob*'
p29
cnumpy.core.multiarray
scalar
p30
(cnumpy
dtype
p31
(S'f8'
p32
I0
I1
tp33
Rp34
(I3
S'<'
p35
NNNI-1
I-1
I0
tp36
bS'pO\xce9z4`>'
p37
tp38
Rp39
sS'link-probs'
p40
(lp41
(g26
g12
F0.6923076923076923
tp42
a(g26
g20
F0.44947216448121347
tp43
a(g26
g22
F0.4935855313400224
tp44
a(g26
g18
F0.5105328084962668
tp45
a(g26
g14
F0.5416365255767431
tp46
a(g26
g24
F0.6666666666666666
tp47
a(g26
g16
F0.6666666666666666
tp48
a(g26
g10
F0.9230769230769231
tp49
a(g12
g20
F0.7
tp50
a(g12
g22
F0.625
tp51
a(g12
g18
F0.5273274315636861
tp52
a(g12
g14
F0.5571531753535373
tp53
a(g12
g24
F0.6666666666666666
tp54
a(g12
g16
F0.75
tp55
a(g12
g10
F0.997751798561151
tp56
a(g20
g22
F0.6666666666666666
tp57
a(g20
g18
F0.5599127633662736
tp58
a(g20
g14
F0.585675557674815
tp59
a(g20
g24
F0.6362602533724241
tp60
a(g20
g16
F0.75
tp61
a(g20
g10
F0.375
tp62
a(g22
g18
F0.5169061572344312
tp63
a(g22
g14
F0.5475933959762299
tp64
a(g22
g24
F0.6173109878358288
tp65
a(g22
g16
F0.6588130489111886
tp66
a(g22
g10
F0.6550264946040271
tp67
a(g18
g14
F0.531602652932885
tp68
a(g18
g24
F0.6081247202660566
tp69
a(g18
g16
F0.657090829665154
tp70
a(g18
g10
F0.6525100380771979
tp71
a(g14
g24
F0.5872556469553728
tp72
a(g14
g16
F0.6527961360858492
tp73
a(g14
g10
F0.6462901945963587
tp74
a(g24
g16
F0.6666666666666666
tp75
a(g24
g10
F0.6
tp76
a(g16
g10
F0.6666666666666666
tp77
assg3
F0.3333333333333333
sS'algo'
p78
(lp79
(lp80
g26
aa(lp81
g12
aa(lp82
g20
aa(lp83
g22
aa(lp84
g18
aa(lp85
g14
aa(lp86
g24
aa(lp87
g16
aa(lp88
g10
aasg2
F0.3333333333333333
sss.