(dp0
S'tau'
p1
F-0.07142857142857142
sS'|tau|'
p2
F0.07142857142857142
sS'pairwise'
p3
F0.4642857142857143
sS'ranking'
p4
(dp5
I0
(dp6
g1
F-0.07142857142857142
sS'gold'
p7
(lp8
(lp9
S'dry'
p10
aa(lp11
S'chilly'
p12
aa(lp13
S'frozen'
p14
aa(lp15
S'moist'
p16
aa(lp17
S'wet'
p18
aa(lp19
S'fresh'
p20
aa(lp21
S'cold'
p22
aa(lp23
S'korean'
p24
aasS'raw'
p25
(dp26
S'prob*'
p27
cnumpy.core.multiarray
scalar
p28
(cnumpy
dtype
p29
(S'f8'
p30
I0
I1
tp31
Rp32
(I3
S'<'
p33
NNNI-1
I-1
I0
tp34
bS'\xe8_J\x1b\x01\xb1\xb3>'
p35
tp36
Rp37
sS'link-probs'
p38
(lp39
(g22
g10
F0.5728672277747742
tp40
a(g22
g24
F0.6174709316774846
tp41
a(g22
g12
F0.43601190476190477
tp42
a(g22
g20
F0.6593934636321751
tp43
a(g22
g14
F0.9995519713261649
tp44
a(g22
g18
F0.662363763752481
tp45
a(g22
g16
F0.6626932506364119
tp46
a(g10
g24
F0.5644703919006275
tp47
a(g10
g12
F0.603406383611074
tp48
a(g10
g20
F0.6487022298354826
tp49
a(g10
g14
F0.6557557433195007
tp50
a(g10
g18
F0.6558944703867123
tp51
a(g10
g16
F0.656704332655307
tp52
a(g24
g12
F0.5512315277796014
tp53
a(g24
g20
F0.628623376579887
tp54
a(g24
g14
F0.6429681790503997
tp55
a(g24
g18
F0.6432576893359249
tp56
a(g24
g16
F0.6449536432049775
tp57
a(g12
g20
F0.6014608603248636
tp58
a(g12
g14
F0.6245882263617127
tp59
a(g12
g18
F0.6250721105723321
tp60
a(g12
g16
F0.6279208761339018
tp61
a(g20
g14
F0.5424409719695009
tp62
a(g20
g18
F0.543469937443632
tp63
a(g20
g16
F0.5496661663629658
tp64
a(g14
g18
F0.5011021677415222
tp65
a(g14
g16
F0.5078184903160868
tp66
a(g18
g16
F0.75
tp67
assg3
F0.4642857142857143
sS'algo'
p68
(lp69
(lp70
g22
aa(lp71
g10
aa(lp72
g24
aa(lp73
g12
aa(lp74
g20
aa(lp75
g14
aa(lp76
g18
aa(lp77
g16
aasg2
F0.07142857142857142
sss.