(dp0
S'tau'
p1
F-0.8
sS'|tau|'
p2
F0.8
sS'pairwise'
p3
F0.1
sS'ranking'
p4
(dp5
I0
(dp6
g1
F-0.8
sS'gold'
p7
(lp8
(lp9
S'loyal'
p10
aa(lp11
S'straight'
p12
aa(lp13
S'legit'
p14
aa(lp15
S'fair'
p16
aa(lp17
S'honest'
p18
aasS'raw'
p19
(dp20
S'prob*'
p21
cnumpy.core.multiarray
scalar
p22
(cnumpy
dtype
p23
(S'f8'
p24
I0
I1
tp25
Rp26
(I3
S'<'
p27
NNNI-1
I-1
I0
tp28
bS'!\xcf0\\\xc59\x8c?'
p29
tp30
Rp31
sS'link-probs'
p32
(lp33
(g18
g16
F0.6
tp34
a(g18
g12
F0.8571428571428571
tp35
a(g18
g14
F0.8333333333333334
tp36
a(g18
g10
F0.8
tp37
a(g16
g12
F0.75
tp38
a(g16
g14
F0.40113868938347297
tp39
a(g16
g10
F0.5031333900259458
tp40
a(g12
g14
F0.6666666666666666
tp41
a(g12
g10
F0.6629381020742714
tp42
a(g14
g10
F0.6008698248063756
tp43
assg3
F0.1
sS'algo'
p44
(lp45
(lp46
g18
aa(lp47
g16
aa(lp48
g12
aa(lp49
g14
aa(lp50
g10
aasg2
F0.8
sss.