(dp0
S'tau'
p1
F0.0
sS'|tau|'
p2
F0.0
sS'pairwise'
p3
F0.5
sS'ranking'
p4
(dp5
I0
(dp6
g1
F0.0
sS'gold'
p7
(lp8
(lp9
S'complimentary'
p10
aa(lp11
S'off'
p12
aa(lp13
S'free'
p14
aa(lp15
S'out'
p16
aasS'raw'
p17
(dp18
S'prob*'
p19
cnumpy.core.multiarray
scalar
p20
(cnumpy
dtype
p21
(S'f8'
p22
I0
I1
tp23
Rp24
(I3
S'<'
p25
NNNI-1
I-1
I0
tp26
bS'Y\xb88\xe2\xf1h\xa7?'
p27
tp28
Rp29
sS'link-probs'
p30
(lp31
(g12
g14
F0.5238916614109009
tp32
a(g12
g16
F0.5328382486035929
tp33
a(g12
g10
F0.6571353660920706
tp34
a(g14
g16
F0.5092066205619573
tp35
a(g14
g10
F0.75
tp36
a(g16
g10
F0.6526544918628631
tp37
assg3
F0.5
sS'algo'
p38
(lp39
(lp40
g12
aa(lp41
g14
aa(lp42
g16
aa(lp43
g10
aasg2
F0.0
sss.