(dp0
S'tau'
p1
F0.4666666666666667
sS'|tau|'
p2
F0.4666666666666667
sS'pairwise'
p3
F0.7333333333333333
sS'ranking'
p4
(dp5
I0
(dp6
g1
F0.4666666666666667
sS'gold'
p7
(lp8
(lp9
S'huge'
p10
aa(lp11
S'wide'
p12
aa(lp13
S'massive'
p14
aa(lp15
S'tall'
p16
aa(lp17
S'overwhelming'
p18
aa(lp19
S'vast'
p20
aasS'raw'
p21
(dp22
S'prob*'
p23
cnumpy.core.multiarray
scalar
p24
(cnumpy
dtype
p25
(S'f8'
p26
I0
I1
tp27
Rp28
(I3
S'<'
p29
NNNI-1
I-1
I0
tp30
bS'?~\t\xf2\x1d\xe7Y?'
p31
tp32
Rp33
sS'link-probs'
p34
(lp35
(g12
g10
F0.6666666666666666
tp36
a(g12
g16
F0.5196139056101162
tp37
a(g12
g20
F0.6666666666666666
tp38
a(g12
g14
F0.6666666666666666
tp39
a(g12
g18
F0.6467140082763452
tp40
a(g10
g16
F0.5757194851837101
tp41
a(g10
g20
F0.6666666666666666
tp42
a(g10
g14
F0.6666666666666666
tp43
a(g10
g18
F0.9987325728770595
tp44
a(g16
g20
F0.6666666666666666
tp45
a(g16
g14
F0.639547161934933
tp46
a(g16
g18
F0.6666666666666666
tp47
a(g20
g14
F0.655633315263371
tp48
a(g20
g18
F0.6565890155749806
tp49
a(g14
g18
F0.5077912575343115
tp50
assg3
F0.7333333333333333
sS'algo'
p51
(lp52
(lp53
g12
aa(lp54
g10
aa(lp55
g16
aa(lp56
g20
aa(lp57
g14
aa(lp58
g18
aasg2
F0.4666666666666667
sss.