(dp0
S'tau'
p1
F-0.6
sS'|tau|'
p2
F0.6
sS'pairwise'
p3
F0.2
sS'ranking'
p4
(dp5
I0
(dp6
g1
F-0.6
sS'gold'
p7
(lp8
(lp9
S'terrific'
p10
aa(lp11
S'fantastic'
p12
aa(lp13
S'wonderful'
p14
aa(lp15
S'awesome'
p16
aa(lp17
S'amazing'
p18
aasS'raw'
p19
(dp20
S'prob*'
p21
cnumpy.core.multiarray
scalar
p22
(cnumpy
dtype
p23
(S'f8'
p24
I0
I1
tp25
Rp26
(I3
S'<'
p27
NNNI-1
I-1
I0
tp28
bS'X\xe2\xa7\xe1\xee\xc8\x9f?'
p29
tp30
Rp31
sS'link-probs'
p32
(lp33
(g14
g18
F0.625
tp34
a(g14
g16
F0.6818181818181818
tp35
a(g14
g12
F0.6666666666666666
tp36
a(g14
g10
F0.8333333333333334
tp37
a(g18
g16
F0.6666666666666666
tp38
a(g18
g12
F0.7272727272727273
tp39
a(g18
g10
F0.8333333333333334
tp40
a(g16
g12
F0.6622528833034887
tp41
a(g16
g10
F0.7
tp42
a(g12
g10
F0.7
tp43
assg3
F0.2
sS'algo'
p44
(lp45
(lp46
g14
aa(lp47
g18
aa(lp48
g16
aa(lp49
g12
aa(lp50
g10
aasg2
F0.6
sss.