(dp0
S'tau'
p1
F0.3333333333333333
sS'|tau|'
p2
F0.3333333333333333
sS'pairwise'
p3
F0.6666666666666666
sS'ranking'
p4
(dp5
I0
(dp6
g1
F0.3333333333333333
sS'gold'
p7
(lp8
(lp9
S'many'
p10
aa(lp11
S'different'
p12
aa(lp13
S'several'
p14
aasS'raw'
p15
(dp16
S'prob*'
p17
cnumpy.core.multiarray
scalar
p18
(cnumpy
dtype
p19
(S'f8'
p20
I0
I1
tp21
Rp22
(I3
S'<'
p23
NNNI-1
I-1
I0
tp24
bS'\x00\x00\x00\x00\x00\x00\xd8?'
p25
tp26
Rp27
sS'link-probs'
p28
(lp29
(g12
g10
F0.6666666666666666
tp30
a(g12
g14
F0.75
tp31
a(g10
g14
F0.75
tp32
assg3
F0.6666666666666666
sS'algo'
p33
(lp34
(lp35
g12
aa(lp36
g10
aa(lp37
g14
aasg2
F0.3333333333333333
sss.