(dp0
S'tau'
p1
F0.3333333333333333
sS'|tau|'
p2
F0.3333333333333333
sS'pairwise'
p3
F0.6666666666666666
sS'ranking'
p4
(dp5
I0
(dp6
g1
F0.3333333333333333
sS'gold'
p7
(lp8
(lp9
S'alright'
p10
aa(lp11
S'ok'
p12
aa(lp13
S'well'
p14
aa(lp15
S'helpful'
p16
aasS'raw'
p17
(dp18
S'prob*'
p19
cnumpy.core.multiarray
scalar
p20
(cnumpy
dtype
p21
(S'f8'
p22
I0
I1
tp23
Rp24
(I3
S'<'
p25
NNNI-1
I-1
I0
tp26
bS'\xc78\xc4\xb2\xc7t\xab?'
p27
tp28
Rp29
sS'link-probs'
p30
(lp31
(g14
g10
F0.6666666666666666
tp32
a(g14
g12
F0.6666666666666666
tp33
a(g14
g16
F0.6666666666666666
tp34
a(g10
g12
F0.5773781276969921
tp35
a(g10
g16
F0.5962224667764301
tp36
a(g12
g16
F0.5257449872437733
tp37
assg3
F0.6666666666666666
sS'algo'
p38
(lp39
(lp40
g14
aa(lp41
g10
aa(lp42
g12
aa(lp43
g16
aasg2
F0.3333333333333333
sss.