(dp0
S'tau'
p1
F0.4666666666666667
sS'|tau|'
p2
F0.4666666666666667
sS'pairwise'
p3
F0.7333333333333333
sS'ranking'
p4
(dp5
I0
(dp6
g1
F0.4666666666666667
sS'gold'
p7
(lp8
(lp9
S'independent'
p10
aa(lp11
S'lazy'
p12
aa(lp13
S'own'
p14
aa(lp15
S'separate'
p16
aa(lp17
S'personal'
p18
aa(lp19
S'private'
p20
aasS'raw'
p21
(dp22
S'prob*'
p23
cnumpy.core.multiarray
scalar
p24
(cnumpy
dtype
p25
(S'f8'
p26
I0
I1
tp27
Rp28
(I3
S'<'
p29
NNNI-1
I-1
I0
tp30
bS'\xec\xa4\xe0A\x14;B?'
p31
tp32
Rp33
sS'link-probs'
p34
(lp35
(g10
g18
F0.5170429058506589
tp36
a(g10
g12
F0.5206461420081342
tp37
a(g10
g14
F0.5396432552046962
tp38
a(g10
g20
F0.6566618045408362
tp39
a(g10
g16
F0.6599851981786095
tp40
a(g18
g12
F0.5036494651335774
tp41
a(g18
g14
F0.5231637592839419
tp42
a(g18
g20
F0.9992223950233281
tp43
a(g18
g16
F0.6585003816891623
tp44
a(g12
g14
F0.5195738627377344
tp45
a(g12
g20
F0.6539406028660931
tp46
a(g12
g16
F0.6581440930499994
tp47
a(g14
g20
F0.6507157248871998
tp48
a(g14
g16
F0.6559488009777673
tp49
a(g20
g16
F0.534012313085442
tp50
assg3
F0.7333333333333333
sS'algo'
p51
(lp52
(lp53
g10
aa(lp54
g18
aa(lp55
g12
aa(lp56
g14
aa(lp57
g20
aa(lp58
g16
aasg2
F0.4666666666666667
sss.