(dp0
S'tau'
p1
F0.14285714285714285
sS'|tau|'
p2
F0.14285714285714285
sS'pairwise'
p3
F0.5714285714285714
sS'ranking'
p4
(dp5
I0
(dp6
g1
F0.14285714285714285
sS'gold'
p7
(lp8
(lp9
S'scary'
p10
aa(lp11
S'horrendous'
p12
aa(lp13
S'disgusting'
p14
aa(lp15
S'outrageous'
p16
aa(lp17
S'horrible'
p18
aa(lp19
S'awful'
p20
aa(lp21
S'obnoxious'
p22
aasS'raw'
p23
(dp24
S'prob*'
p25
cnumpy.core.multiarray
scalar
p26
(cnumpy
dtype
p27
(S'f8'
p28
I0
I1
tp29
Rp30
(I3
S'<'
p31
NNNI-1
I-1
I0
tp32
bS'\xed;O>\x9c\xa6\x04?'
p33
tp34
Rp35
sS'link-probs'
p36
(lp37
(g10
g20
F0.8
tp38
a(g10
g16
F0.5291029307025604
tp39
a(g10
g18
F0.5760210349771059
tp40
a(g10
g12
F0.6595106601991241
tp41
a(g10
g22
F0.6619979293081749
tp42
a(g10
g14
F0.6621772408120276
tp43
a(g20
g16
F0.8
tp44
a(g20
g18
F0.46153846153846156
tp45
a(g20
g12
F0.8571428571428571
tp46
a(g20
g22
F0.3333333333333333
tp47
a(g20
g14
F0.6666666666666666
tp48
a(g16
g18
F0.5509784156300974
tp49
a(g16
g12
F0.6565744889026274
tp50
a(g16
g22
F0.6600616401263865
tp51
a(g16
g14
F0.6666666666666666
tp52
a(g18
g12
F0.875
tp53
a(g18
g22
F0.6544538601781339
tp54
a(g18
g14
F0.6
tp55
a(g12
g22
F0.5356619602445122
tp56
a(g12
g14
F0.5388057929494968
tp57
a(g22
g14
F0.5033086708983656
tp58
assg3
F0.5714285714285714
sS'algo'
p59
(lp60
(lp61
g10
aa(lp62
g20
aa(lp63
g16
aa(lp64
g18
aa(lp65
g12
aa(lp66
g22
aa(lp67
g14
aasg2
F0.14285714285714285
sss.