(dp0
S'tau'
p1
F-0.06666666666666667
sS'|tau|'
p2
F0.06666666666666667
sS'pairwise'
p3
F0.4666666666666667
sS'ranking'
p4
(dp5
I0
(dp6
g1
F-0.06666666666666667
sS'gold'
p7
(lp8
(lp9
S'updated'
p10
aa(lp11
S'modern'
p12
aa(lp13
S'contemporary'
p14
aa(lp15
S'current'
p16
aa(lp17
S'present'
p18
aa(lp19
S'recent'
p20
aasS'raw'
p21
(dp22
S'prob*'
p23
cnumpy.core.multiarray
scalar
p24
(cnumpy
dtype
p25
(S'f8'
p26
I0
I1
tp27
Rp28
(I3
S'<'
p29
NNNI-1
I-1
I0
tp30
bS'\xc5\xc7\xa4\r.7W?'
p31
tp32
Rp33
sS'link-probs'
p34
(lp35
(g12
g16
F0.5383172725448163
tp36
a(g12
g20
F0.6605716148703432
tp37
a(g12
g18
F0.5417088037916828
tp38
a(g12
g10
F0.6539828908950026
tp39
a(g12
g14
F0.75
tp40
a(g16
g20
F0.6570375237917073
tp41
a(g16
g18
F0.6666666666666666
tp42
a(g16
g10
F0.75
tp43
a(g16
g14
F0.6609870684516227
tp44
a(g20
g18
F0.6666666666666666
tp45
a(g20
g10
F0.75
tp46
a(g20
g14
F0.5439406503406236
tp47
a(g18
g10
F0.6460395987694739
tp48
a(g18
g14
F0.6607408510974115
tp49
a(g10
g14
F0.5948976411265584
tp50
assg3
F0.4666666666666667
sS'algo'
p51
(lp52
(lp53
g12
aa(lp54
g16
aa(lp55
g20
aa(lp56
g18
aa(lp57
g10
aa(lp58
g14
aasg2
F0.06666666666666667
sss.