(dp0
S'tau'
p1
F-0.4444444444444444
sS'|tau|'
p2
F0.4444444444444444
sS'pairwise'
p3
F0.2777777777777778
sS'ranking'
p4
(dp5
I0
(dp6
g1
F-0.4444444444444444
sS'gold'
p7
(lp8
(lp9
S'delighted'
p10
aa(lp11
S'proud'
p12
aa(lp13
S'satisfied'
p14
aa(lp15
S'pleased'
p16
aa(lp17
S'thankful'
p18
aa(lp19
S'grateful'
p20
aa(lp21
S'excited'
p22
aa(lp23
S'glad'
p24
aa(lp25
S'happy'
p26
aasS'raw'
p27
(dp28
S'prob*'
p29
cnumpy.core.multiarray
scalar
p30
(cnumpy
dtype
p31
(S'f8'
p32
I0
I1
tp33
Rp34
(I3
S'<'
p35
NNNI-1
I-1
I0
tp36
bS'\x1e\xf56\xc1\xe7\xea\x99>'
p37
tp38
Rp39
sS'link-probs'
p40
(lp41
(g26
g24
F0.6363636363636364
tp42
a(g26
g16
F0.6875
tp43
a(g26
g12
F0.625
tp44
a(g26
g22
F0.6
tp45
a(g26
g20
F0.625
tp46
a(g26
g10
F0.8333333333333334
tp47
a(g26
g14
F0.9609261939218524
tp48
a(g26
g18
F0.661690335893099
tp49
a(g24
g16
F0.6666666666666666
tp50
a(g24
g12
F0.75
tp51
a(g24
g22
F0.6503930136127777
tp52
a(g24
g20
F0.42857142857142855
tp53
a(g24
g10
F0.6666666666666666
tp54
a(g24
g14
F0.6512431792245907
tp55
a(g24
g18
F0.659920129605715
tp56
a(g16
g12
F0.6666666666666666
tp57
a(g16
g22
F0.42857142857142855
tp58
a(g16
g20
F0.5352154177531437
tp59
a(g16
g10
F0.6666666666666666
tp60
a(g16
g14
F0.9957850368809273
tp61
a(g16
g18
F0.662645067863119
tp62
a(g12
g22
F0.6551458448243157
tp63
a(g12
g20
F0.75
tp64
a(g12
g10
F0.6517406611087533
tp65
a(g12
g14
F0.9880952380952381
tp66
a(g12
g18
F0.6619320518378377
tp67
a(g22
g20
F0.6666666666666666
tp68
a(g22
g10
F0.6
tp69
a(g22
g14
F0.75
tp70
a(g22
g18
F0.5710084989856874
tp71
a(g20
g10
F0.75
tp72
a(g20
g14
F0.6526036199365334
tp73
a(g20
g18
F0.8571428571428571
tp74
a(g10
g14
F0.5269221405672269
tp75
a(g10
g18
F0.5882985817576704
tp76
a(g14
g18
F0.5671205306869411
tp77
assg3
F0.2777777777777778
sS'algo'
p78
(lp79
(lp80
g26
aa(lp81
g24
aa(lp82
g16
aa(lp83
g12
aa(lp84
g22
aa(lp85
g20
aa(lp86
g10
aa(lp87
g14
aa(lp88
g18
aasg2
F0.4444444444444444
sss.