(dp0
S'tau'
p1
F-0.4
sS'|tau|'
p2
F0.4
sS'pairwise'
p3
F0.3
sS'ranking'
p4
(dp5
I0
(dp6
g1
F-0.4
sS'gold'
p7
(lp8
(lp9
S'fine'
p10
aa(lp11
S'good'
p12
aa(lp13
S'okay'
p14
aa(lp15
S'nice'
p16
aa(lp17
S'cool'
p18
aasS'raw'
p19
(dp20
S'prob*'
p21
cnumpy.core.multiarray
scalar
p22
(cnumpy
dtype
p23
(S'f8'
p24
I0
I1
tp25
Rp26
(I3
S'<'
p27
NNNI-1
I-1
I0
tp28
bS'\xdfeV+\x83gp?'
p29
tp30
Rp31
sS'link-probs'
p32
(lp33
(g16
g18
F0.5294117647058824
tp34
a(g16
g10
F0.625
tp35
a(g16
g14
F0.5714285714285714
tp36
a(g16
g12
F0.3076923076923077
tp37
a(g18
g10
F0.75
tp38
a(g18
g14
F0.6666666666666666
tp39
a(g18
g12
F0.4
tp40
a(g10
g14
F0.6
tp41
a(g10
g12
F0.5752577319587628
tp42
a(g14
g12
F0.9972477064220183
tp43
assg3
F0.3
sS'algo'
p44
(lp45
(lp46
g16
aa(lp47
g18
aa(lp48
g10
aa(lp49
g14
aa(lp50
g12
aasg2
F0.4
sss.