(dp0
S'tau'
p1
F-0.3333333333333333
sS'|tau|'
p2
F0.3333333333333333
sS'pairwise'
p3
F0.3333333333333333
sS'ranking'
p4
(dp5
I0
(dp6
g1
F-0.3333333333333333
sS'gold'
p7
(lp8
(lp9
S'impressed'
p10
aa(lp11
S'awesome'
p12
aa(lp13
S'amazing'
p14
aa(lp15
S'hot'
p16
aa(lp17
S'super'
p18
aa(lp19
S'cool'
p20
aasS'raw'
p21
(dp22
S'prob*'
p23
cnumpy.core.multiarray
scalar
p24
(cnumpy
dtype
p25
(S'f8'
p26
I0
I1
tp27
Rp28
(I3
S'<'
p29
NNNI-1
I-1
I0
tp30
bS'(\x8bDi\xe6B;?'
p31
tp32
Rp33
sS'link-probs'
p34
(lp35
(g20
g16
F0.5555555555555556
tp36
a(g20
g12
F0.5714285714285714
tp37
a(g20
g10
F0.4998507797214527
tp38
a(g20
g18
F0.6666666666666666
tp39
a(g20
g14
F0.6666666666666666
tp40
a(g16
g12
F0.75
tp41
a(g16
g10
F0.6666666666666666
tp42
a(g16
g18
F0.6666666666666666
tp43
a(g16
g14
F0.5099686672467729
tp44
a(g12
g10
F0.6666666666666666
tp45
a(g12
g18
F0.625
tp46
a(g12
g14
F0.3333333333333333
tp47
a(g10
g18
F0.6106964227174857
tp48
a(g10
g14
F0.6567870179077547
tp49
a(g18
g14
F0.6228451711725002
tp50
assg3
F0.3333333333333333
sS'algo'
p51
(lp52
(lp53
g20
aa(lp54
g16
aa(lp55
g12
aa(lp56
g10
aa(lp57
g18
aa(lp58
g14
aasg2
F0.3333333333333333
sss.