(dp0
S'tau'
p1
F0.3333333333333333
sS'|tau|'
p2
F1.0
sS'pairwise'
p3
F0.6666666666666666
sS'ranking'
p4
(dp5
I0
(dp6
g1
F1.0
sS'gold'
p7
(lp8
(lp9
S'late'
p10
aa(lp11
S'old'
p12
aasS'raw'
p13
(dp14
S'prob*'
p15
cnumpy.core.multiarray
scalar
p16
(cnumpy
dtype
p17
(S'f8'
p18
I0
I1
tp19
Rp20
(I3
S'<'
p21
NNNI-1
I-1
I0
tp22
bS'\xa4\x11W\x837\x06\xe1?'
p23
tp24
Rp25
sS'link-probs'
p26
(lp27
(g10
g12
F0.5320088925587254
tp28
assg3
F1.0
sS'algo'
p29
(lp30
(lp31
g10
aa(lp32
g12
aasg2
F1.0
ssI1
(dp33
g1
F1.0
sg7
(lp34
(lp35
S'simple'
p36
aa(lp37
S'easy'
p38
aasg13
(dp39
g15
g16
(g20
S'I\x92$I\x92$\xe1?'
p40
tp41
Rp42
sg26
(lp43
(g36
g38
F0.5357142857142857
tp44
assg3
F1.0
sg29
(lp45
(lp46
g36
aa(lp47
g38
aasg2
F1.0
ssI2
(dp48
g1
F-1.0
sg7
(lp49
(lp50
S'knowledgeable'
p51
aa(lp52
S'sure'
p53
aasg13
(dp54
g15
g16
(g20
S'\x1c\x90\x9a 8\x84\xe3?'
p55
tp56
Rp57
sg26
(lp58
(g53
g51
F0.6098900448600975
tp59
assg3
F0.0
sg29
(lp60
(lp61
g53
aa(lp62
g51
aasg2
F1.0
sss.