(dp0
S'tau'
p1
F0.06666666666666667
sS'|tau|'
p2
F0.06666666666666667
sS'pairwise'
p3
F0.5333333333333333
sS'ranking'
p4
(dp5
I0
(dp6
g1
F0.06666666666666667
sS'gold'
p7
(lp8
(lp9
S'little'
p10
aa(lp11
S'slow'
p12
aa(lp13
S'few'
p14
aa(lp15
S'enough'
p16
aa(lp17
S'short'
p18
aa(lp19
S'small'
p20
aasS'raw'
p21
(dp22
S'prob*'
p23
cnumpy.core.multiarray
scalar
p24
(cnumpy
dtype
p25
(S'f8'
p26
I0
I1
tp27
Rp28
(I3
S'<'
p29
NNNI-1
I-1
I0
tp30
bS'&\xe4o\xb8\x0b\x141?'
p31
tp32
Rp33
sS'link-probs'
p34
(lp35
(g20
g10
F0.6875
tp36
a(g20
g16
F0.6209754213277228
tp37
a(g20
g12
F0.6666666666666666
tp38
a(g20
g14
F0.625
tp39
a(g20
g18
F0.6666666666666666
tp40
a(g10
g16
F0.5415707489918985
tp41
a(g10
g12
F0.4792802632485884
tp42
a(g10
g14
F0.5423322984423238
tp43
a(g10
g18
F0.5188773314851066
tp44
a(g16
g12
F0.75
tp45
a(g16
g14
F0.5008130585579075
tp46
a(g16
g18
F0.4766468366394187
tp47
a(g12
g14
F0.5611220391531367
tp48
a(g12
g18
F0.5390472516870808
tp49
a(g14
g18
F0.5555555555555556
tp50
assg3
F0.5333333333333333
sS'algo'
p51
(lp52
(lp53
g20
aa(lp54
g10
aa(lp55
g16
aa(lp56
g12
aa(lp57
g14
aa(lp58
g18
aasg2
F0.06666666666666667
sss.