(dp0
S'tau'
p1
F0.17777777777777778
sS'|tau|'
p2
F0.48888888888888893
sS'pairwise'
p3
F0.5888888888888889
sS'ranking'
p4
(dp5
I0
(dp6
g1
F1.0
sS'gold'
p7
(lp8
(lp9
S'definite'
p10
aa(lp11
S'accurate'
p12
aa(lp13
S'exact'
p14
aasS'raw'
p15
(dp16
S'prob*'
p17
cnumpy.core.multiarray
scalar
p18
(cnumpy
dtype
p19
(S'f8'
p20
I0
I1
tp21
Rp22
(I3
S'<'
p23
NNNI-1
I-1
I0
tp24
bS'V\xee\t\xd6q\xc6\xcb?'
p25
tp26
Rp27
sS'link-probs'
p28
(lp29
(g10
g12
F0.5250977592450834
tp30
a(g10
g14
F0.49589291967274196
tp31
a(g12
g14
F0.8333333333333334
tp32
assg3
F1.0
sS'algo'
p33
(lp34
(lp35
g10
aa(lp36
g12
aa(lp37
g14
aasg2
F1.0
ssI1
(dp38
g1
F-0.06666666666666667
sg7
(lp39
(lp40
S'pathetic'
p41
aa(lp42
S'lame'
p43
aa(lp44
S'stupid'
p45
aa(lp46
S'dumb'
p47
aa(lp48
S'silly'
p49
aa(lp50
S'cheesy'
p51
aasg15
(dp52
g17
g18
(g22
S'\xe2<%\xf1\xf2Id?'
p53
tp54
Rp55
sg28
(lp56
(g45
g49
F0.6818181818181818
tp57
a(g45
g43
F0.8181818181818182
tp58
a(g45
g47
F0.7058823529411765
tp59
a(g45
g51
F0.75
tp60
a(g45
g41
F0.8888888888888888
tp61
a(g49
g43
F0.6
tp62
a(g49
g47
F0.6
tp63
a(g49
g51
F0.75
tp64
a(g49
g41
F0.75
tp65
a(g43
g47
F0.6
tp66
a(g43
g51
F0.6666666666666666
tp67
a(g43
g41
F0.6666666666666666
tp68
a(g47
g51
F0.513578320940454
tp69
a(g47
g41
F0.6666666666666666
tp70
a(g51
g41
F0.5102689231187397
tp71
assg3
F0.4666666666666667
sg33
(lp72
(lp73
g45
aa(lp74
g49
aa(lp75
g43
aa(lp76
g47
aa(lp77
g51
aa(lp78
g41
aasg2
F0.06666666666666667
ssI2
(dp79
g1
F-0.4
sg7
(lp80
(lp81
S'passionate'
p82
aa(lp83
S'enthusiastic'
p84
aa(lp85
S'hot'
p86
aa(lp87
S'warm'
p88
aa(lp89
S'romantic'
p90
aasg15
(dp91
g17
g18
(g22
S'5\xb5\x88\x9ffVp?'
p92
tp93
Rp94
sg28
(lp95
(g86
g88
F0.5003684014024024
tp96
a(g86
g90
F0.5463713601853022
tp97
a(g86
g84
F0.6147403001909897
tp98
a(g86
g82
F0.6157934920775665
tp99
a(g88
g90
F0.5460312679145493
tp100
a(g88
g84
F0.6666666666666666
tp101
a(g88
g82
F0.6156026222528089
tp102
a(g90
g84
F0.5845672878197271
tp103
a(g90
g82
F0.5860571580026975
tp104
a(g84
g82
F0.5020187787926744
tp105
assg3
F0.3
sg33
(lp106
(lp107
g86
aa(lp108
g88
aa(lp109
g90
aa(lp110
g84
aa(lp111
g82
aasg2
F0.4
sss.