(dp0
S'tau'
p1
F0.3333333333333333
sS'|tau|'
p2
F0.3333333333333333
sS'pairwise'
p3
F0.6666666666666666
sS'ranking'
p4
(dp5
I0
(dp6
g1
F0.3333333333333333
sS'gold'
p7
(lp8
(lp9
S'necessary'
p10
aa(lp11
S'worth'
p12
aa(lp13
S'unnecessary'
p14
aasS'raw'
p15
(dp16
S'prob*'
p17
cnumpy.core.multiarray
scalar
p18
(cnumpy
dtype
p19
(S'f8'
p20
I0
I1
tp21
Rp22
(I3
S'<'
p23
NNNI-1
I-1
I0
tp24
bS'\x1b\xbd\x01w/Q\xd3?'
p25
tp26
Rp27
sS'link-probs'
p28
(lp29
(g10
g14
F0.8333333333333334
tp30
a(g10
g12
F0.6532127328275642
tp31
a(g14
g12
F0.5544842878796552
tp32
assg3
F0.6666666666666666
sS'algo'
p33
(lp34
(lp35
g10
aa(lp36
g14
aa(lp37
g12
aasg2
F0.3333333333333333
ssI1
(dp38
g1
F0.3333333333333333
sg7
(lp39
(lp40
S'beautiful'
p41
aa(lp42
S'american'
p43
aa(lp44
S'lovely'
p45
aa(lp46
S'pretty'
p47
aasg15
(dp48
g17
g18
(g22
S'\xe8\xc3\xfcLw\xb9\xad?'
p49
tp50
Rp51
sg28
(lp52
(g43
g41
F0.5638130280152688
tp53
a(g43
g47
F0.615217113798311
tp54
a(g43
g45
F0.6025363351726974
tp55
a(g41
g47
F0.625
tp56
a(g41
g45
F0.6666666666666666
tp57
a(g47
g45
F0.6666666666666666
tp58
assg3
F0.6666666666666666
sg33
(lp59
(lp60
g43
aa(lp61
g41
aa(lp62
g47
aa(lp63
g45
aasg2
F0.3333333333333333
ssI2
(dp64
g1
F0.3333333333333333
sg7
(lp65
(lp66
S'stylish'
p67
aa(lp68
S'elegant'
p69
aa(lp70
S'fancy'
p71
aa(lp72
S'classy'
p73
aasg15
(dp74
g17
g18
(g22
S"'\xc2y\xd3\x9d\x87\xac?"
p75
tp76
Rp77
sg28
(lp78
(g69
g71
F0.6666666666666666
tp79
a(g69
g67
F0.6666666666666666
tp80
a(g69
g73
F0.6666666666666666
tp81
a(g71
g67
F0.6055451941833335
tp82
a(g71
g73
F0.6105644706952932
tp83
a(g67
g73
F0.5086554732617626
tp84
assg3
F0.6666666666666666
sg33
(lp85
(lp86
g69
aa(lp87
g71
aa(lp88
g67
aa(lp89
g73
aasg2
F0.3333333333333333
sss.