(dp0
S'tau'
p1
F1.0
sS'|tau|'
p2
F1.0
sS'pairwise'
p3
F1.0
sS'ranking'
p4
(dp5
I0
(dp6
g1
F1.0
sS'gold'
p7
(lp8
(lp9
S'good'
p10
aa(lp11
S'great'
p12
aasS'raw'
p13
(dp14
S'prob*'
p15
cnumpy.core.multiarray
scalar
p16
(cnumpy
dtype
p17
(S'f8'
p18
I0
I1
tp19
Rp20
(I3
S'<'
p21
NNNI-1
I-1
I0
tp22
bS'\x00\x00\x00\x00\x00\x00\xe8?'
p23
tp24
Rp25
sS'link-probs'
p26
(lp27
(g10
g12
F0.75
tp28
assg3
F1.0
sS'algo'
p29
(lp30
(lp31
g10
aa(lp32
g12
aasg2
F1.0
ssI1
(dp33
g1
F1.0
sg7
(lp34
(lp35
S'great'
p36
aa(lp37
S'excellent'
p38
aasg13
(dp39
g15
g16
(g20
S'm\xc0#\x82!\x8a\xe0?'
p40
tp41
Rp42
sg26
(lp43
(g36
g38
F0.5168616811552177
tp44
assg3
F1.0
sg29
(lp45
(lp46
g36
aa(lp47
g38
aasg2
F1.0
sss.