(dp0
S'tau'
p1
F-0.24444444444444446
sS'|tau|'
p2
F0.24444444444444446
sS'pairwise'
p3
F0.37777777777777777
sS'ranking'
p4
(dp5
I0
(dp6
g1
F-0.2
sS'gold'
p7
(lp8
(lp9
S'successful'
p10
aa(lp11
S'efficient'
p12
aa(lp13
S'adequate'
p14
aa(lp15
S'competitive'
p16
aa(lp17
S'effective'
p18
aasS'raw'
p19
(dp20
S'prob*'
p21
cnumpy.core.multiarray
scalar
p22
(cnumpy
dtype
p23
(S'f8'
p24
I0
I1
tp25
Rp26
(I3
S'<'
p27
NNNI-1
I-1
I0
tp28
bS'\xef(\xed\n\\\x00w?'
p29
tp30
Rp31
sS'link-probs'
p32
(lp33
(g14
g18
F0.6238669884437683
tp34
a(g14
g12
F0.639344352095658
tp35
a(g14
g10
F0.6240843224211005
tp36
a(g14
g16
F0.6357652437190292
tp37
a(g18
g12
F0.65
tp38
a(g18
g10
F0.6363636363636364
tp39
a(g18
g16
F0.5301531541078031
tp40
a(g12
g10
F0.625
tp41
a(g12
g16
F0.48877838413630154
tp42
a(g10
g16
F0.5296822788963337
tp43
assg3
F0.4
sS'algo'
p44
(lp45
(lp46
g14
aa(lp47
g18
aa(lp48
g12
aa(lp49
g10
aa(lp50
g16
aasg2
F0.2
ssI1
(dp51
g1
F-0.3333333333333333
sg7
(lp52
(lp53
S'subtle'
p54
aa(lp55
S'delicate'
p56
aa(lp57
S'sophisticated'
p58
aasg19
(dp59
g21
g22
(g26
S'l\xc8\x9f,@\x11\xcc?'
p60
tp61
Rp62
sg32
(lp63
(g56
g58
F0.65067799403185
tp64
a(g56
g54
F0.6666666666666666
tp65
a(g58
g54
F0.5054953087709532
tp66
assg3
F0.3333333333333333
sg44
(lp67
(lp68
g56
aa(lp69
g58
aa(lp70
g54
aasg2
F0.3333333333333333
ssI2
(dp71
g1
F-0.2
sg7
(lp72
(lp73
S'comparable'
p74
aa(lp75
S'similar'
p76
aa(lp77
S'like'
p78
aa(lp79
S'same'
p80
aa(lp81
S'equal'
p82
aasg19
(dp83
g21
g22
(g26
S'y\x11l36\x18}?'
p84
tp85
Rp86
sg32
(lp87
(g78
g82
F0.6355223983764767
tp88
a(g78
g76
F0.6
tp89
a(g78
g74
F0.6666666666666666
tp90
a(g78
g80
F0.6399554192960293
tp91
a(g82
g76
F0.6666666666666666
tp92
a(g82
g74
F0.6666666666666666
tp93
a(g82
g80
F0.3333333333333333
tp94
a(g76
g74
F0.7142857142857143
tp95
a(g76
g80
F0.6415431642323502
tp96
a(g74
g80
F0.6431576694666142
tp97
assg3
F0.4
sg44
(lp98
(lp99
g78
aa(lp100
g82
aa(lp101
g76
aa(lp102
g74
aa(lp103
g80
aasg2
F0.2
sss.