(dp0
S'tau'
p1
F0.047619047619047616
sS'|tau|'
p2
F0.047619047619047616
sS'pairwise'
p3
F0.5238095238095238
sS'ranking'
p4
(dp5
I0
(dp6
g1
F0.047619047619047616
sS'gold'
p7
(lp8
(lp9
S'skilled'
p10
aa(lp11
S'talented'
p12
aa(lp13
S'knowledgeable'
p14
aa(lp15
S'responsible'
p16
aa(lp17
S'able'
p18
aa(lp19
S'trained'
p20
aa(lp21
S'competent'
p22
aasS'raw'
p23
(dp24
S'prob*'
p25
cnumpy.core.multiarray
scalar
p26
(cnumpy
dtype
p27
(S'f8'
p28
I0
I1
tp29
Rp30
(I3
S'<'
p31
NNNI-1
I-1
I0
tp32
bS'\xcb\x9f\xa6\x8cM\x8d\x0c?'
p33
tp34
Rp35
sS'link-probs'
p36
(lp37
(g12
g16
F0.5262848829673781
tp38
a(g12
g22
F0.632348331889281
tp39
a(g12
g20
F0.6350668283796981
tp40
a(g12
g10
F0.75
tp41
a(g12
g14
F0.6426257515377204
tp42
a(g12
g18
F0.6599909091319425
tp43
a(g16
g22
F0.6212479858945434
tp44
a(g16
g20
F0.6247224423888693
tp45
a(g16
g10
F0.6519146685274714
tp46
a(g16
g14
F0.6344919635111751
tp47
a(g16
g18
F0.657559293751217
tp48
a(g22
g20
F0.5076261856548685
tp49
a(g22
g10
F0.5910251268615253
tp50
a(g22
g14
F0.6666666666666666
tp51
a(g22
g18
F0.6162835905661878
tp52
a(g20
g10
F0.8
tp53
a(g20
g14
F0.5246624105269531
tp54
a(g20
g18
F0.612240666760791
tp55
a(g10
g14
F0.75
tp56
a(g10
g18
F0.5408085839722654
tp57
a(g14
g18
F0.5972716175029191
tp58
assg3
F0.5238095238095238
sS'algo'
p59
(lp60
(lp61
g12
aa(lp62
g16
aa(lp63
g22
aa(lp64
g20
aa(lp65
g10
aa(lp66
g14
aa(lp67
g18
aasg2
F0.047619047619047616
sss.