(dp0
S'tau'
p1
F-0.2
sS'|tau|'
p2
F0.2
sS'pairwise'
p3
F0.4
sS'ranking'
p4
(dp5
I0
(dp6
g1
F-0.2
sS'gold'
p7
(lp8
(lp9
S'independent'
p10
aa(lp11
S'lazy'
p12
aa(lp13
S'own'
p14
aa(lp15
S'separate'
p16
aa(lp17
S'personal'
p18
aa(lp19
S'private'
p20
aasS'raw'
p21
(dp22
S'prob*'
p23
cnumpy.core.multiarray
scalar
p24
(cnumpy
dtype
p25
(S'f8'
p26
I0
I1
tp27
Rp28
(I3
S'<'
p29
NNNI-1
I-1
I0
tp30
bS'\xdc`\xc9\x9a+j8?'
p31
tp32
Rp33
sS'link-probs'
p34
(lp35
(g14
g20
F0.511025359700302
tp36
a(g14
g18
F0.5834456176421107
tp37
a(g14
g10
F0.5872903194506615
tp38
a(g14
g12
F0.6231709985664984
tp39
a(g14
g16
F0.655633315263371
tp40
a(g20
g18
F0.5749010284033514
tp41
a(g20
g10
F0.5790021191646599
tp42
a(g20
g12
F0.6179100444938278
tp43
a(g20
g16
F0.6541289440439063
tp44
a(g18
g10
F0.5052112033996544
tp45
a(g18
g12
F0.5630572493698124
tp46
a(g18
g16
F0.6355711479194307
tp47
a(g10
g12
F0.5585385422601604
tp48
a(g10
g16
F0.6337619932530312
tp49
a(g12
g16
F0.604751749341546
tp50
assg3
F0.4
sS'algo'
p51
(lp52
(lp53
g14
aa(lp54
g20
aa(lp55
g18
aa(lp56
g10
aa(lp57
g12
aa(lp58
g16
aasg2
F0.2
sss.