(dp0
S'tau'
p1
F0.4
sS'|tau|'
p2
F0.4
sS'pairwise'
p3
F0.7
sS'ranking'
p4
(dp5
I0
(dp6
g1
F0.4
sS'gold'
p7
(lp8
(lp9
S'beautiful'
p10
aa(lp11
S'cute'
p12
aa(lp13
S'soft'
p14
aa(lp15
S'favorite'
p16
aa(lp17
S'nice'
p18
aasS'raw'
p19
(dp20
S'prob*'
p21
cnumpy.core.multiarray
scalar
p22
(cnumpy
dtype
p23
(S'f8'
p24
I0
I1
tp25
Rp26
(I3
S'<'
p27
NNNI-1
I-1
I0
tp28
bS'G\x00\xc3w\x15\x04~?'
p29
tp30
Rp31
sS'link-probs'
p32
(lp33
(g10
g18
F0.6190476190476191
tp34
a(g10
g12
F0.5625
tp35
a(g10
g14
F0.528316920700949
tp36
a(g10
g16
F0.6439722553258768
tp37
a(g18
g12
F0.6
tp38
a(g18
g14
F0.6666666666666666
tp39
a(g18
g16
F0.6551107704503846
tp40
a(g12
g14
F0.5571229962537031
tp41
a(g12
g16
F0.6666666666666666
tp42
a(g14
g16
F0.6355494747372251
tp43
assg3
F0.7
sS'algo'
p44
(lp45
(lp46
g10
aa(lp47
g18
aa(lp48
g12
aa(lp49
g14
aa(lp50
g16
aasg2
F0.4
sss.