(dp0
S'tau'
p1
F-0.022222222222222237
sS'|tau|'
p2
F0.24444444444444446
sS'pairwise'
p3
F0.48888888888888893
sS'ranking'
p4
(dp5
I0
(dp6
g1
F-0.2
sS'gold'
p7
(lp8
(lp9
S'incorrect'
p10
aa(lp11
S'wrong'
p12
aa(lp13
S'guilty'
p14
aa(lp15
S'bad'
p16
aa(lp17
S'fake'
p18
aasS'raw'
p19
(dp20
S'prob*'
p21
cnumpy.core.multiarray
scalar
p22
(cnumpy
dtype
p23
(S'f8'
p24
I0
I1
tp25
Rp26
(I3
S'<'
p27
NNNI-1
I-1
I0
tp28
bS'0\x19["/\x16\x86?'
p29
tp30
Rp31
sS'link-probs'
p32
(lp33
(g16
g12
F0.5333333333333333
tp34
a(g16
g18
F0.5711250087582461
tp35
a(g16
g10
F0.8888888888888888
tp36
a(g16
g14
F0.5801045047491028
tp37
a(g12
g18
F0.7142857142857143
tp38
a(g12
g10
F0.875
tp39
a(g12
g14
F0.5922014897146043
tp40
a(g18
g10
F0.6666666666666666
tp41
a(g18
g14
F0.5112964925819611
tp42
a(g10
g14
F0.5442335867010919
tp43
assg3
F0.4
sS'algo'
p44
(lp45
(lp46
g16
aa(lp47
g12
aa(lp48
g18
aa(lp49
g10
aa(lp50
g14
aasg2
F0.2
ssI1
(dp51
g1
F-0.2
sg7
(lp52
(lp53
S'updated'
p54
aa(lp55
S'modern'
p56
aa(lp57
S'contemporary'
p58
aa(lp59
S'current'
p60
aa(lp61
S'present'
p62
aa(lp63
S'recent'
p64
aasg19
(dp65
g21
g22
(g26
S'\x9b=\x83\x7fO\xfaS?'
p66
tp67
Rp68
sg32
(lp69
(g56
g64
F0.6227173326271922
tp70
a(g56
g60
F0.6576057906803018
tp71
a(g56
g62
F0.6512585065243297
tp72
a(g56
g54
F0.6608398723620216
tp73
a(g56
g58
F0.75
tp74
a(g64
g60
F0.614868439441539
tp75
a(g64
g62
F0.6666666666666666
tp76
a(g64
g54
F0.75
tp77
a(g64
g58
F0.6355698007240278
tp78
a(g60
g62
F0.6666666666666666
tp79
a(g60
g54
F0.75
tp80
a(g60
g58
F0.5471146043299893
tp81
a(g62
g54
F0.5771585433694372
tp82
a(g62
g58
F0.5853965124748113
tp83
a(g54
g58
F0.51079973743902
tp84
assg3
F0.4
sg44
(lp85
(lp86
g56
aa(lp87
g64
aa(lp88
g60
aa(lp89
g62
aa(lp90
g54
aa(lp91
g58
aasg2
F0.2
ssI2
(dp92
g1
F0.3333333333333333
sg7
(lp93
(lp94
S'large'
p95
aa(lp96
S'big'
p97
aa(lp98
S'great'
p99
aasg19
(dp100
g21
g22
(g26
S'\x1e\x92\x0b \xcd7\xd1?'
p101
tp102
Rp103
sg32
(lp104
(g97
g95
F0.5595841456335154
tp105
a(g97
g99
F0.7692307692307693
tp106
a(g95
g99
F0.625
tp107
assg3
F0.6666666666666666
sg44
(lp108
(lp109
g97
aa(lp110
g95
aa(lp111
g99
aasg2
F0.3333333333333333
sss.