(dp0
S'tau'
p1
F-0.3333333333333333
sS'|tau|'
p2
F0.5555555555555555
sS'pairwise'
p3
F0.3333333333333333
sS'ranking'
p4
(dp5
I0
(dp6
g1
F-0.3333333333333333
sS'gold'
p7
(lp8
(lp9
S'pleasant'
p10
aa(lp11
S'comfortable'
p12
aa(lp13
S'friendly'
p14
aa(lp15
S'helpful'
p16
aasS'raw'
p17
(dp18
S'prob*'
p19
cnumpy.core.multiarray
scalar
p20
(cnumpy
dtype
p21
(S'f8'
p22
I0
I1
tp23
Rp24
(I3
S'<'
p25
NNNI-1
I-1
I0
tp26
bS'\xaf\xeeH\xe7>\xb4\xa3?'
p27
tp28
Rp29
sS'link-probs'
p30
(lp31
(g16
g10
F0.5062838441945613
tp32
a(g16
g14
F0.5295277338008321
tp33
a(g16
g12
F0.5965505792509783
tp34
a(g10
g14
F0.5234001962818499
tp35
a(g10
g12
F0.8
tp36
a(g14
g12
F0.5746883425416237
tp37
assg3
F0.3333333333333333
sS'algo'
p38
(lp39
(lp40
g16
aa(lp41
g10
aa(lp42
g14
aa(lp43
g12
aasg2
F0.3333333333333333
ssI1
(dp44
g1
F-1.0
sg7
(lp45
(lp46
S'green'
p47
aa(lp48
S'clean'
p49
aasg17
(dp50
g19
g20
(g24
S'UUUUUU\xe5?'
p51
tp52
Rp53
sg30
(lp54
(g49
g47
F0.6666666666666666
tp55
assg3
F0.0
sg38
(lp56
(lp57
g49
aa(lp58
g47
aasg2
F1.0
ssI2
(dp59
g1
F0.3333333333333333
sg7
(lp60
(lp61
S'only'
p62
aa(lp63
S'own'
p64
aa(lp65
S'same'
p66
aasg17
(dp67
g19
g20
(g24
S'\xdbo7\\\x1b\xa5\xce?'
p68
tp69
Rp70
sg30
(lp71
(g64
g62
F0.6429499720810993
tp72
a(g64
g66
F0.6561889541691319
tp73
a(g62
g66
F0.5674699023285213
tp74
assg3
F0.6666666666666666
sg38
(lp75
(lp76
g64
aa(lp77
g62
aa(lp78
g66
aasg2
F0.3333333333333333
sss.