(dp0
S'tau'
p1
F-0.4666666666666667
sS'|tau|'
p2
F0.4666666666666667
sS'pairwise'
p3
F0.26666666666666666
sS'ranking'
p4
(dp5
I0
(dp6
g1
F-0.4666666666666667
sS'gold'
p7
(lp8
(lp9
S'impressed'
p10
aa(lp11
S'awesome'
p12
aa(lp13
S'amazing'
p14
aa(lp15
S'hot'
p16
aa(lp17
S'super'
p18
aa(lp19
S'cool'
p20
aasS'raw'
p21
(dp22
S'prob*'
p23
cnumpy.core.multiarray
scalar
p24
(cnumpy
dtype
p25
(S'f8'
p26
I0
I1
tp27
Rp28
(I3
S'<'
p29
NNNI-1
I-1
I0
tp30
bS'r"\x88\xb4\xe1\xc4N?'
p31
tp32
Rp33
sS'link-probs'
p34
(lp35
(g20
g14
F0.6666666666666666
tp36
a(g20
g16
F0.5555555555555556
tp37
a(g20
g12
F0.5714285714285714
tp38
a(g20
g18
F0.6666666666666666
tp39
a(g20
g10
F0.5456887585102002
tp40
a(g14
g16
F0.6178496180141977
tp41
a(g14
g12
F0.6666666666666666
tp42
a(g14
g18
F0.6187016960067295
tp43
a(g14
g10
F0.6361280609474781
tp44
a(g16
g12
F0.75
tp45
a(g16
g18
F0.6666666666666666
tp46
a(g16
g10
F0.6666666666666666
tp47
a(g12
g18
F0.625
tp48
a(g12
g10
F0.6666666666666666
tp49
a(g18
g10
F0.5416610385922883
tp50
assg3
F0.26666666666666666
sS'algo'
p51
(lp52
(lp53
g20
aa(lp54
g14
aa(lp55
g16
aa(lp56
g12
aa(lp57
g18
aa(lp58
g10
aasg2
F0.4666666666666667
sss.