(dp0
S'tau'
p1
F-0.4444444444444444
sS'|tau|'
p2
F0.6666666666666666
sS'pairwise'
p3
F0.27777777777777773
sS'ranking'
p4
(dp5
I0
(dp6
g1
F-1.0
sS'gold'
p7
(lp8
(lp9
S'kinda'
p10
aa(lp11
S'tired'
p12
aasS'raw'
p13
(dp14
S'prob*'
p15
cnumpy.core.multiarray
scalar
p16
(cnumpy
dtype
p17
(S'f8'
p18
I0
I1
tp19
Rp20
(I3
S'<'
p21
NNNI-1
I-1
I0
tp22
bS'T*\xdc*\xc2D\xe4?'
p23
tp24
Rp25
sS'link-probs'
p26
(lp27
(g12
g10
F0.6333933674917014
tp28
assg3
F0.0
sS'algo'
p29
(lp30
(lp31
g12
aa(lp32
g10
aasg2
F1.0
ssI1
(dp33
g1
F-0.6666666666666666
sg7
(lp34
(lp35
S'vibrant'
p36
aa(lp37
S'live'
p38
aa(lp39
S'lively'
p40
aa(lp41
S'alive'
p42
aasg13
(dp43
g15
g16
(g20
S'\x01E\x8f\x7fV\xee\xae?'
p44
tp45
Rp46
sg26
(lp47
(g42
g38
F0.6
tp48
a(g42
g40
F0.6544116515463659
tp49
a(g42
g36
F0.6666666666666666
tp50
a(g38
g40
F0.6530958635526869
tp51
a(g38
g36
F0.6579096722231091
tp52
a(g40
g36
F0.5371182198032848
tp53
assg3
F0.16666666666666666
sg29
(lp54
(lp55
g42
aa(lp56
g38
aa(lp57
g40
aa(lp58
g36
aasg2
F0.6666666666666666
ssI2
(dp59
g1
F0.3333333333333333
sg7
(lp60
(lp61
S'direct'
p62
aa(lp63
S'immediate'
p64
aa(lp65
S'left'
p66
aasg13
(dp67
g15
g16
(g20
S'\xe8\xfc/P\xf3\x8f\xcd?'
p68
tp69
Rp70
sg26
(lp71
(g64
g62
F0.6666666666666666
tp72
a(g64
g66
F0.6403356500536318
tp73
a(g62
g66
F0.5410182585884867
tp74
assg3
F0.6666666666666666
sg29
(lp75
(lp76
g64
aa(lp77
g62
aa(lp78
g66
aasg2
F0.3333333333333333
sss.