(dp0
S'tau'
p1
F-0.1111111111111111
sS'|tau|'
p2
F0.1111111111111111
sS'pairwise'
p3
F0.4444444444444444
sS'ranking'
p4
(dp5
I0
(dp6
g1
F-0.3333333333333333
sS'gold'
p7
(lp8
(lp9
S'near'
p10
aa(lp11
S'adjacent'
p12
aa(lp13
S'nearby'
p14
aasS'raw'
p15
(dp16
S'prob*'
p17
cnumpy.core.multiarray
scalar
p18
(cnumpy
dtype
p19
(S'f8'
p20
I0
I1
tp21
Rp22
(I3
S'<'
p23
NNNI-1
I-1
I0
tp24
bS'\xce,\x83\x904\x98\xcf?'
p25
tp26
Rp27
sS'link-probs'
p28
(lp29
(g14
g10
F0.6666666666666666
tp30
a(g14
g12
F0.656704332655307
tp31
a(g10
g12
F0.5637981031444926
tp32
assg3
F0.3333333333333333
sS'algo'
p33
(lp34
(lp35
g14
aa(lp36
g10
aa(lp37
g12
aasg2
F0.3333333333333333
ssI1
(dp38
g1
F0.0
sg7
(lp39
(lp40
S'timely'
p41
aa(lp42
S'quick'
p43
aa(lp44
S'early'
p45
aa(lp46
S'fast'
p47
aasg15
(dp48
g17
g18
(g22
S'5\xbb)\xb2\xd7_\xae?'
p49
tp50
Rp51
sg28
(lp52
(g43
g47
F0.625
tp53
a(g43
g41
F0.8
tp54
a(g43
g45
F0.59752584385207
tp55
a(g47
g41
F0.5994111260286453
tp56
a(g47
g45
F0.6193736343959575
tp57
a(g41
g45
F0.5348516256418634
tp58
assg3
F0.5
sg33
(lp59
(lp60
g43
aa(lp61
g47
aa(lp62
g41
aa(lp63
g45
aasg2
F0.0
ssI2
(dp64
g1
F0.0
sg7
(lp65
(lp66
S'east'
p67
aa(lp68
S'eastern'
p69
aa(lp70
S'asian'
p71
aa(lp72
S'western'
p73
aasg15
(dp74
g17
g18
(g22
S'2\x9a$\xefC\xa1\xad?'
p75
tp76
Rp77
sg28
(lp78
(g71
g69
F0.6666666666666666
tp79
a(g71
g67
F0.6666666666666666
tp80
a(g71
g73
F0.6199773729970026
tp81
a(g69
g67
F0.6666666666666666
tp82
a(g69
g73
F0.5546180084819748
tp83
a(g67
g73
F0.5680215640104014
tp84
assg3
F0.5
sg33
(lp85
(lp86
g71
aa(lp87
g69
aa(lp88
g67
aa(lp89
g73
aasg2
F0.0
sss.