(dp0
S'tau'
p1
F0.0
sS'|tau|'
p2
F0.0
sS'pairwise'
p3
F0.5
sS'ranking'
p4
(dp5
I0
(dp6
g1
F0.0
sS'gold'
p7
(lp8
(lp9
S'fine'
p10
aa(lp11
S'good'
p12
aa(lp13
S'okay'
p14
aa(lp15
S'nice'
p16
aa(lp17
S'cool'
p18
aasS'raw'
p19
(dp20
S'prob*'
p21
cnumpy.core.multiarray
scalar
p22
(cnumpy
dtype
p23
(S'f8'
p24
I0
I1
tp25
Rp26
(I3
S'<'
p27
NNNI-1
I-1
I0
tp28
bS'|\xe2\x11\xcd\xce\xd6\x8b?'
p29
tp30
Rp31
sS'link-probs'
p32
(lp33
(g12
g16
F0.6923076923076923
tp34
a(g12
g18
F0.6
tp35
a(g12
g10
F0.7692307692307693
tp36
a(g12
g14
F0.75
tp37
a(g16
g18
F0.5294117647058824
tp38
a(g16
g10
F0.625
tp39
a(g16
g14
F0.5714285714285714
tp40
a(g18
g10
F0.75
tp41
a(g18
g14
F0.6666666666666666
tp42
a(g10
g14
F0.6
tp43
assg3
F0.5
sS'algo'
p44
(lp45
(lp46
g12
aa(lp47
g16
aa(lp48
g18
aa(lp49
g10
aa(lp50
g14
aasg2
F0.0
sss.