(dp0
S'tau'
p1
F0.6666666666666666
sS'|tau|'
p2
F0.6666666666666666
sS'pairwise'
p3
F0.8333333333333334
sS'ranking'
p4
(dp5
I0
(dp6
g1
F0.6666666666666666
sS'gold'
p7
(lp8
(lp9
S'quick'
p10
aa(lp11
S'fast'
p12
aa(lp13
S'french'
p14
aa(lp15
S'hungry'
p16
aasS'raw'
p17
(dp18
S'prob*'
p19
cnumpy.core.multiarray
scalar
p20
(cnumpy
dtype
p21
(S'f8'
p22
I0
I1
tp23
Rp24
(I3
S'<'
p25
NNNI-1
I-1
I0
tp26
bS'\x96[\xf5.\xc4\xb6\xaf?'
p27
tp28
Rp29
sS'link-probs'
p30
(lp31
(g10
g12
F0.625
tp32
a(g10
g16
F0.5961221422605062
tp33
a(g10
g14
F0.6540789701752838
tp34
a(g12
g16
F0.6183323391450636
tp35
a(g12
g14
F0.6586020506354987
tp36
a(g16
g14
F0.6241509270295036
tp37
assg3
F0.8333333333333334
sS'algo'
p38
(lp39
(lp40
g10
aa(lp41
g12
aa(lp42
g16
aa(lp43
g14
aasg2
F0.6666666666666666
sss.