(dp0
S'tau'
p1
F-0.2
sS'|tau|'
p2
F0.2
sS'pairwise'
p3
F0.4
sS'ranking'
p4
(dp5
I0
(dp6
g1
F-0.2
sS'gold'
p7
(lp8
(lp9
S'updated'
p10
aa(lp11
S'modern'
p12
aa(lp13
S'contemporary'
p14
aa(lp15
S'current'
p16
aa(lp17
S'present'
p18
aa(lp19
S'recent'
p20
aasS'raw'
p21
(dp22
S'prob*'
p23
cnumpy.core.multiarray
scalar
p24
(cnumpy
dtype
p25
(S'f8'
p26
I0
I1
tp27
Rp28
(I3
S'<'
p29
NNNI-1
I-1
I0
tp30
bS'\x9b=\x83\x7fO\xfaS?'
p31
tp32
Rp33
sS'link-probs'
p34
(lp35
(g12
g20
F0.6227173326271922
tp36
a(g12
g16
F0.6576057906803018
tp37
a(g12
g18
F0.6512585065243297
tp38
a(g12
g10
F0.6608398723620216
tp39
a(g12
g14
F0.75
tp40
a(g20
g16
F0.614868439441539
tp41
a(g20
g18
F0.6666666666666666
tp42
a(g20
g10
F0.75
tp43
a(g20
g14
F0.6355698007240278
tp44
a(g16
g18
F0.6666666666666666
tp45
a(g16
g10
F0.75
tp46
a(g16
g14
F0.5471146043299893
tp47
a(g18
g10
F0.5771585433694372
tp48
a(g18
g14
F0.5853965124748113
tp49
a(g10
g14
F0.51079973743902
tp50
assg3
F0.4
sS'algo'
p51
(lp52
(lp53
g12
aa(lp54
g20
aa(lp55
g16
aa(lp56
g18
aa(lp57
g10
aa(lp58
g14
aasg2
F0.2
sss.