(dp0
S'tau'
p1
F0.04444444444444445
sS'|tau|'
p2
F0.7111111111111111
sS'pairwise'
p3
F0.5222222222222223
sS'ranking'
p4
(dp5
I0
(dp6
g1
F0.8
sS'gold'
p7
(lp8
(lp9
S'numerous'
p10
aa(lp11
S'many'
p12
aa(lp13
S'multiple'
p14
aa(lp15
S'frequent'
p16
aa(lp17
S'countless'
p18
aasS'raw'
p19
(dp20
S'prob*'
p21
cnumpy.core.multiarray
scalar
p22
(cnumpy
dtype
p23
(S'f8'
p24
I0
I1
tp25
Rp26
(I3
S'<'
p27
NNNI-1
I-1
I0
tp28
bS'\x84`\x0f\x90\xdf\xf5\x8d?'
p29
tp30
Rp31
sS'link-probs'
p32
(lp33
(g12
g10
F0.75
tp34
a(g12
g14
F0.8
tp35
a(g12
g16
F0.6542767772282823
tp36
a(g12
g18
F0.75
tp37
a(g10
g14
F0.6666666666666666
tp38
a(g10
g16
F0.6598736373162419
tp39
a(g10
g18
F0.6614346181975089
tp40
a(g14
g16
F0.5630181572386574
tp41
a(g14
g18
F0.580996544106754
tp42
a(g16
g18
F0.5220256726322455
tp43
assg3
F0.9
sS'algo'
p44
(lp45
(lp46
g12
aa(lp47
g10
aa(lp48
g14
aa(lp49
g16
aa(lp50
g18
aasg2
F0.8
ssI1
(dp51
g1
F-1.0
sg7
(lp52
(lp53
S'superior'
p54
aa(lp55
S'top'
p56
aasg19
(dp57
g21
g22
(g26
S'\x00\x00\x00\x00\x00\x00\xe0?'
p58
tp59
Rp60
sg32
(lp61
(g56
g54
F0.5
tp62
assg3
F0.0
sg44
(lp63
(lp64
g56
aa(lp65
g54
aasg2
F1.0
ssI2
(dp66
g1
F0.3333333333333333
sg7
(lp67
(lp68
S'peaceful'
p69
aa(lp70
S'calm'
p71
aa(lp72
S'quiet'
p73
aasg19
(dp74
g21
g22
(g26
S'_\xf0\xdb\xc0\x9fA\xc7?'
p75
tp76
Rp77
sg32
(lp78
(g71
g69
F0.5046949629505483
tp79
a(g71
g73
F0.6
tp80
a(g69
g73
F0.6
tp81
assg3
F0.6666666666666666
sg44
(lp82
(lp83
g71
aa(lp84
g69
aa(lp85
g73
aasg2
F0.3333333333333333
sss.