(dp0
S'tau'
p1
F-0.14285714285714285
sS'|tau|'
p2
F0.14285714285714285
sS'pairwise'
p3
F0.42857142857142855
sS'ranking'
p4
(dp5
I0
(dp6
g1
F-0.14285714285714285
sS'gold'
p7
(lp8
(lp9
S'tricky'
p10
aa(lp11
S'stressful'
p12
aa(lp13
S'picky'
p14
aa(lp15
S'hard'
p16
aa(lp17
S'easy'
p18
aa(lp19
S'difficult'
p20
aa(lp21
S'challenging'
p22
aasS'raw'
p23
(dp24
S'prob*'
p25
cnumpy.core.multiarray
scalar
p26
(cnumpy
dtype
p27
(S'f8'
p28
I0
I1
tp29
Rp30
(I3
S'<'
p31
NNNI-1
I-1
I0
tp32
bS'\x9d\xfb\x1c\xffbm2?'
p33
tp34
Rp35
sS'link-probs'
p36
(lp37
(g20
g14
F0.9047619047619048
tp38
a(g20
g16
F0.6410256410256411
tp39
a(g20
g18
F0.6363636363636364
tp40
a(g20
g10
F0.9166666666666666
tp41
a(g20
g22
F0.78125
tp42
a(g20
g12
F0.875
tp43
a(g14
g16
F0.6280658968090177
tp44
a(g14
g18
F0.5499541334438968
tp45
a(g14
g10
F0.6536298192865494
tp46
a(g14
g22
F0.656310569389423
tp47
a(g14
g12
F0.661707705495441
tp48
a(g16
g18
F0.625
tp49
a(g16
g10
F0.8
tp50
a(g16
g22
F0.6666666666666666
tp51
a(g16
g12
F0.6322048523352132
tp52
a(g18
g10
F0.8
tp53
a(g18
g22
F0.6666666666666666
tp54
a(g18
g12
F0.6575784727106315
tp55
a(g10
g22
F0.5197845311898232
tp56
a(g10
g12
F0.5764607566176897
tp57
a(g22
g12
F0.5599405042540319
tp58
assg3
F0.42857142857142855
sS'algo'
p59
(lp60
(lp61
g20
aa(lp62
g14
aa(lp63
g16
aa(lp64
g18
aa(lp65
g10
aa(lp66
g22
aa(lp67
g12
aasg2
F0.14285714285714285
sss.