(dp0
S'tau'
p1
F0.0
sS'|tau|'
p2
F0.0
sS'pairwise'
p3
F0.5
sS'ranking'
p4
(dp5
I0
(dp6
g1
F0.0
sS'gold'
p7
(lp8
(lp9
S'prior'
p10
aa(lp11
S'old'
p12
aa(lp13
S'original'
p14
aa(lp15
S'above'
p16
aasS'raw'
p17
(dp18
S'prob*'
p19
cnumpy.core.multiarray
scalar
p20
(cnumpy
dtype
p21
(S'f8'
p22
I0
I1
tp23
Rp24
(I3
S'<'
p25
NNNI-1
I-1
I0
tp26
bS'\x1bS\x91\xac\x90A\xa2?'
p27
tp28
Rp29
sS'link-probs'
p30
(lp31
(g12
g16
F0.5320714441419733
tp32
a(g12
g10
F0.5648775573614208
tp33
a(g12
g14
F0.6243701669206008
tp34
a(g16
g10
F0.5354624573260552
tp35
a(g16
g14
F0.6077745325200024
tp36
a(g10
g14
F0.5838488552315587
tp37
assg3
F0.5
sS'algo'
p38
(lp39
(lp40
g12
aa(lp41
g16
aa(lp42
g10
aa(lp43
g14
aasg2
F0.0
sss.