(dp0
S'tau'
p1
F-0.14285714285714285
sS'|tau|'
p2
F0.14285714285714285
sS'pairwise'
p3
F0.42857142857142855
sS'ranking'
p4
(dp5
I0
(dp6
g1
F-0.14285714285714285
sS'gold'
p7
(lp8
(lp9
S'scary'
p10
aa(lp11
S'horrendous'
p12
aa(lp13
S'disgusting'
p14
aa(lp15
S'outrageous'
p16
aa(lp17
S'horrible'
p18
aa(lp19
S'awful'
p20
aa(lp21
S'obnoxious'
p22
aasS'raw'
p23
(dp24
S'prob*'
p25
cnumpy.core.multiarray
scalar
p26
(cnumpy
dtype
p27
(S'f8'
p28
I0
I1
tp29
Rp30
(I3
S'<'
p31
NNNI-1
I-1
I0
tp32
bS'-\xdcD\t\xbc\x87\x0e?'
p33
tp34
Rp35
sS'link-probs'
p36
(lp37
(g18
g10
F0.5136952253704471
tp38
a(g18
g22
F0.6546027945626723
tp39
a(g18
g20
F0.5384615384615384
tp40
a(g18
g12
F0.875
tp41
a(g18
g16
F0.6497779873121535
tp42
a(g18
g14
F0.6
tp43
a(g10
g22
F0.652534268701693
tp44
a(g10
g20
F0.8
tp45
a(g10
g12
F0.6453325050698048
tp46
a(g10
g16
F0.6469329933520256
tp47
a(g10
g14
F0.6560278725958418
tp48
a(g22
g20
F0.6666666666666666
tp49
a(g22
g12
F0.46433803975548776
tp50
a(g22
g16
F0.47100137726027164
tp51
a(g22
g14
F0.5243942065116477
tp52
a(g20
g12
F0.8571428571428571
tp53
a(g20
g16
F0.8
tp54
a(g20
g14
F0.6666666666666666
tp55
a(g12
g16
F0.5069210016794458
tp56
a(g12
g14
F0.5582324415208589
tp57
a(g16
g14
F0.6666666666666666
tp58
assg3
F0.42857142857142855
sS'algo'
p59
(lp60
(lp61
g18
aa(lp62
g10
aa(lp63
g22
aa(lp64
g20
aa(lp65
g12
aa(lp66
g16
aa(lp67
g14
aasg2
F0.14285714285714285
sss.