(dp0
S'tau'
p1
F0.1111111111111111
sS'|tau|'
p2
F0.1111111111111111
sS'pairwise'
p3
F0.5555555555555555
sS'ranking'
p4
(dp5
I0
(dp6
g1
F0.0
sS'gold'
p7
(lp8
(lp9
S'familiar'
p10
aa(lp11
S'aware'
p12
aa(lp13
S'used'
p14
aa(lp15
S'experienced'
p16
aa(lp17
S'famous'
p18
aasS'raw'
p19
(dp20
S'prob*'
p21
cnumpy.core.multiarray
scalar
p22
(cnumpy
dtype
p23
(S'f8'
p24
I0
I1
tp25
Rp26
(I3
S'<'
p27
NNNI-1
I-1
I0
tp28
bS'\xba+\xdb%v\nz?'
p29
tp30
Rp31
sS'link-probs'
p32
(lp33
(g14
g12
F0.5206289710257977
tp34
a(g14
g18
F0.5429552938645344
tp35
a(g14
g10
F0.6066580322090095
tp36
a(g14
g16
F0.6260524948764677
tp37
a(g12
g18
F0.6666666666666666
tp38
a(g12
g10
F0.6666666666666666
tp39
a(g12
g16
F0.6163116938470071
tp40
a(g18
g10
F0.6666666666666666
tp41
a(g18
g16
F0.6032168984757852
tp42
a(g10
g16
F0.5375863426425848
tp43
assg3
F0.5
sS'algo'
p44
(lp45
(lp46
g14
aa(lp47
g12
aa(lp48
g18
aa(lp49
g10
aa(lp50
g16
aasg2
F0.0
ssI1
(dp51
g1
F0.0
sg7
(lp52
(lp53
S'confident'
p54
aa(lp55
S'reliable'
p56
aa(lp57
S'sure'
p58
aa(lp59
S'unsure'
p60
aasg19
(dp61
g21
g22
(g26
S'\xd9\xfe\xd1\xe4\x97\xc4\xc1?'
p62
tp63
Rp64
sg32
(lp65
(g58
g56
F0.8571428571428571
tp66
a(g58
g54
F0.8333333333333334
tp67
a(g58
g60
F0.75
tp68
a(g56
g54
F0.6456448554529495
tp69
a(g56
g60
F0.66179010822786
tp70
a(g54
g60
F0.6064290281530638
tp71
assg3
F0.5
sg44
(lp72
(lp73
g58
aa(lp74
g56
aa(lp75
g54
aa(lp76
g60
aasg2
F0.0
ssI2
(dp77
g1
F0.3333333333333333
sg7
(lp78
(lp79
S'close'
p80
aa(lp81
S'closed'
p82
aa(lp83
S'intimate'
p84
aasg19
(dp85
g21
g22
(g26
S'\x0eA\x16\xe7_\xe1\xc8?'
p86
tp87
Rp88
sg32
(lp89
(g82
g80
F0.6126957623205532
tp90
a(g82
g84
F0.6191160330719946
tp91
a(g80
g84
F0.5124245525121793
tp92
assg3
F0.6666666666666666
sg44
(lp93
(lp94
g82
aa(lp95
g80
aa(lp96
g84
aasg2
F0.3333333333333333
sss.