(dp0
S'tau'
p1
F-0.3333333333333333
sS'|tau|'
p2
F1.0
sS'pairwise'
p3
F0.3333333333333333
sS'ranking'
p4
(dp5
I0
(dp6
g1
F-1.0
sS'gold'
p7
(lp8
(lp9
S'recommended'
p10
aa(lp11
S'best'
p12
aasS'raw'
p13
(dp14
S'prob*'
p15
cnumpy.core.multiarray
scalar
p16
(cnumpy
dtype
p17
(S'f8'
p18
I0
I1
tp19
Rp20
(I3
S'<'
p21
NNNI-1
I-1
I0
tp22
bS'O%$%\x0c\x85\xe4?'
p23
tp24
Rp25
sS'link-probs'
p26
(lp27
(g12
g10
F0.6412411427892638
tp28
assg3
F0.0
sS'algo'
p29
(lp30
(lp31
g12
aa(lp32
g10
aasg2
F1.0
ssI1
(dp33
g1
F1.0
sg7
(lp34
(lp35
S'phenomenal'
p36
aa(lp37
S'gigantic'
p38
aa(lp39
S'terrible'
p40
aa(lp41
S'extreme'
p42
aasg13
(dp43
g15
g16
(g20
S'\x1d\xa0\x1c\xf9g\xc6\x9c?'
p44
tp45
Rp46
sg26
(lp47
(g36
g38
F0.5
tp48
a(g36
g40
F0.5403488304332872
tp49
a(g36
g42
F0.5886687013310224
tp50
a(g38
g40
F0.5403488304332872
tp51
a(g38
g42
F0.5886687013310224
tp52
a(g40
g42
F0.5554633522285978
tp53
assg3
F1.0
sg29
(lp54
(lp55
g36
aa(lp56
g38
aa(lp57
g40
aa(lp58
g42
aasg2
F1.0
ssI2
(dp59
g1
F-1.0
sg7
(lp60
(lp61
S'thick'
p62
aa(lp63
S'dense'
p64
aasg13
(dp65
g15
g16
(g20
S'\xc5\xf9\xeb\xbfG\xf8\xe4?'
p66
tp67
Rp68
sg26
(lp69
(g64
g62
F0.6553076504204048
tp70
assg3
F0.0
sg29
(lp71
(lp72
g64
aa(lp73
g62
aasg2
F1.0
sss.