(dp0
S'tau'
p1
F0.14285714285714285
sS'|tau|'
p2
F0.14285714285714285
sS'pairwise'
p3
F0.5714285714285714
sS'ranking'
p4
(dp5
I0
(dp6
g1
F0.14285714285714285
sS'gold'
p7
(lp8
(lp9
S'perfect'
p10
aa(lp11
S'good'
p12
aa(lp13
S'ok'
p14
aa(lp15
S'wrong'
p16
aa(lp17
S'bad'
p18
aa(lp19
S'right'
p20
aa(lp21
S'okay'
p22
aa(lp23
S'fine'
p24
aasS'raw'
p25
(dp26
S'prob*'
p27
cnumpy.core.multiarray
scalar
p28
(cnumpy
dtype
p29
(S'f8'
p30
I0
I1
tp31
Rp32
(I3
S'<'
p33
NNNI-1
I-1
I0
tp34
bS'\x9f\x92\x82\x05\x0b\xf6\xcb>'
p35
tp36
Rp37
sS'link-probs'
p38
(lp39
(g20
g12
F0.6
tp40
a(g20
g10
F0.75
tp41
a(g20
g22
F0.75
tp42
a(g20
g18
F0.75
tp43
a(g20
g14
F0.8888888888888888
tp44
a(g20
g24
F0.7777777777777778
tp45
a(g20
g16
F0.75
tp46
a(g12
g10
F0.6666666666666666
tp47
a(g12
g22
F0.75
tp48
a(g12
g18
F0.4937792051011156
tp49
a(g12
g14
F0.75
tp50
a(g12
g24
F0.7692307692307693
tp51
a(g12
g16
F0.6666666666666666
tp52
a(g10
g22
F0.6666666666666666
tp53
a(g10
g18
F0.6219220723534267
tp54
a(g10
g14
F0.3333333333333333
tp55
a(g10
g24
F0.5833333333333334
tp56
a(g10
g16
F0.6136647019839055
tp57
a(g22
g18
F0.614009288637502
tp58
a(g22
g14
F0.9090909090909091
tp59
a(g22
g24
F0.4
tp60
a(g22
g16
F0.6046056862589756
tp61
a(g18
g14
F0.6666666666666666
tp62
a(g18
g24
F0.75
tp63
a(g18
g16
F0.5333333333333333
tp64
a(g14
g24
F0.6
tp65
a(g14
g16
F0.41713686632315866
tp66
a(g24
g16
F0.6
tp67
assg3
F0.5714285714285714
sS'algo'
p68
(lp69
(lp70
g20
aa(lp71
g12
aa(lp72
g10
aa(lp73
g22
aa(lp74
g18
aa(lp75
g14
aa(lp76
g24
aa(lp77
g16
aasg2
F0.14285714285714285
sss.