(dp0
S'tau'
p1
F0.3333333333333333
sS'|tau|'
p2
F0.3333333333333333
sS'pairwise'
p3
F0.6666666666666666
sS'ranking'
p4
(dp5
I0
(dp6
g1
F0.3333333333333333
sS'gold'
p7
(lp8
(lp9
S'fun'
p10
aa(lp11
S'funny'
p12
aa(lp13
S'hilarious'
p14
aasS'raw'
p15
(dp16
S'prob*'
p17
cnumpy.core.multiarray
scalar
p18
(cnumpy
dtype
p19
(S'f8'
p20
I0
I1
tp21
Rp22
(I3
S'<'
p23
NNNI-1
I-1
I0
tp24
bS'\xc6W|\xc5W|\xe1?'
p25
tp26
Rp27
sS'link-probs'
p28
(lp29
(g12
g10
F0.8095238095238095
tp30
a(g12
g14
F0.9
tp31
a(g10
g14
F0.75
tp32
assg3
F0.6666666666666666
sS'algo'
p33
(lp34
(lp35
g12
aa(lp36
g10
aa(lp37
g14
aasg2
F0.3333333333333333
ssI1
(dp38
g1
F0.3333333333333333
sg7
(lp39
(lp40
S'certain'
p41
aa(lp42
S'several'
p43
aa(lp44
S'partial'
p45
aasg15
(dp46
g17
g18
(g22
S'\x86\xbe&\xf7\x8e\xc2\xc9?'
p47
tp48
Rp49
sg28
(lp50
(g41
g45
F0.6342920951428659
tp51
a(g41
g43
F0.6343512831977812
tp52
a(g45
g43
F0.5001688787400974
tp53
assg3
F0.6666666666666666
sg33
(lp54
(lp55
g41
aa(lp56
g45
aa(lp57
g43
aasg2
F0.3333333333333333
ssI2
(dp58
g1
F0.3333333333333333
sg7
(lp59
(lp60
S'professional'
p61
aa(lp62
S'human'
p63
aa(lp64
S'social'
p65
aasg15
(dp66
g17
g18
(g22
S'\x96\xaa\x04\xb9\xeb\xcd\xc8?'
p67
tp68
Rp69
sg28
(lp70
(g63
g61
F0.612790795856975
tp71
a(g63
g65
F0.6186003232138831
tp72
a(g61
g65
F0.5112060640619499
tp73
assg3
F0.6666666666666666
sg33
(lp74
(lp75
g63
aa(lp76
g61
aa(lp77
g65
aasg2
F0.3333333333333333
sss.