(dp0
S'tau'
p1
F-0.7777777777777777
sS'|tau|'
p2
F0.7777777777777777
sS'pairwise'
p3
F0.1111111111111111
sS'ranking'
p4
(dp5
I0
(dp6
g1
F-0.3333333333333333
sS'gold'
p7
(lp8
(lp9
S'brilliant'
p10
aa(lp11
S'bright'
p12
aa(lp13
S'smart'
p14
aasS'raw'
p15
(dp16
S'prob*'
p17
cnumpy.core.multiarray
scalar
p18
(cnumpy
dtype
p19
(S'f8'
p20
I0
I1
tp21
Rp22
(I3
S'<'
p23
NNNI-1
I-1
I0
tp24
bS'e\x93M6\xd9d\xd3?'
p25
tp26
Rp27
sS'link-probs'
p28
(lp29
(g14
g10
F0.7272727272727273
tp30
a(g14
g12
F0.6666666666666666
tp31
a(g10
g12
F0.625
tp32
assg3
F0.3333333333333333
sS'algo'
p33
(lp34
(lp35
g14
aa(lp36
g10
aa(lp37
g12
aasg2
F0.3333333333333333
ssI1
(dp38
g1
F-1.0
sg7
(lp39
(lp40
S'welcome'
p41
aa(lp42
S'welcoming'
p43
aasg15
(dp44
g17
g18
(g22
S'\x0b\xa4\x88}\xe0a\xe2?'
p45
tp46
Rp47
sg28
(lp48
(g43
g41
F0.5744478656607738
tp49
assg3
F0.0
sg33
(lp50
(lp51
g43
aa(lp52
g41
aasg2
F1.0
ssI2
(dp53
g1
F-1.0
sg7
(lp54
(lp55
S'far'
p56
aa(lp57
S'long'
p58
aasg15
(dp59
g17
g18
(g22
S'\x99\xce\xa3\xef\x19\xb8\xe1?'
p60
tp61
Rp62
sg28
(lp63
(g58
g56
F0.5537233047929987
tp64
assg3
F0.0
sg33
(lp65
(lp66
g58
aa(lp67
g56
aasg2
F1.0
sss.