(dp0
S'tau'
p1
F0.2
sS'|tau|'
p2
F0.2
sS'pairwise'
p3
F0.6
sS'ranking'
p4
(dp5
I0
(dp6
g1
F0.2
sS'gold'
p7
(lp8
(lp9
S'following'
p10
aa(lp11
S'further'
p12
aa(lp13
S'next'
p14
aa(lp15
S'third'
p16
aa(lp17
S'new'
p18
aasS'raw'
p19
(dp20
S'prob*'
p21
cnumpy.core.multiarray
scalar
p22
(cnumpy
dtype
p23
(S'f8'
p24
I0
I1
tp25
Rp26
(I3
S'<'
p27
NNNI-1
I-1
I0
tp28
bS'all\x01\x1a\xa7~?'
p29
tp30
Rp31
sS'link-probs'
p32
(lp33
(g10
g18
F0.5518839435193404
tp34
a(g10
g14
F0.6666666666666666
tp35
a(g10
g12
F0.6500178841581251
tp36
a(g10
g16
F0.6563888825059685
tp37
a(g18
g14
F0.5487386401818876
tp38
a(g18
g12
F0.6363362795413331
tp39
a(g18
g16
F0.6476280715767216
tp40
a(g14
g12
F0.6151410346527973
tp41
a(g14
g16
F0.6334588670064546
tp42
a(g12
g16
F0.5409975877293453
tp43
assg3
F0.6
sS'algo'
p44
(lp45
(lp46
g10
aa(lp47
g18
aa(lp48
g14
aa(lp49
g12
aa(lp50
g16
aasg2
F0.2
sss.