(dp0
S'tau'
p1
F-0.6
sS'|tau|'
p2
F0.6
sS'pairwise'
p3
F0.2
sS'ranking'
p4
(dp5
I0
(dp6
g1
F-0.6
sS'gold'
p7
(lp8
(lp9
S'plentiful'
p10
aa(lp11
S'enough'
p12
aa(lp13
S'generous'
p14
aa(lp15
S'ample'
p16
aa(lp17
S'rich'
p18
aasS'raw'
p19
(dp20
S'prob*'
p21
cnumpy.core.multiarray
scalar
p22
(cnumpy
dtype
p23
(S'f8'
p24
I0
I1
tp25
Rp26
(I3
S'<'
p27
NNNI-1
I-1
I0
tp28
bS'\xd9"\x08;|\x15\x85?'
p29
tp30
Rp31
sS'link-probs'
p32
(lp33
(g18
g14
F0.6185648627054222
tp34
a(g18
g12
F0.631826770233919
tp35
a(g18
g16
F0.6505551654108933
tp36
a(g18
g10
F0.6614709208001058
tp37
a(g14
g12
F0.5303254654343488
tp38
a(g14
g16
F0.589513383267899
tp39
a(g14
g10
F0.638055706753068
tp40
a(g12
g16
F0.8333333333333334
tp41
a(g12
g10
F0.6268485695571204
tp42
a(g16
g10
F0.5874450543243337
tp43
assg3
F0.2
sS'algo'
p44
(lp45
(lp46
g18
aa(lp47
g14
aa(lp48
g12
aa(lp49
g16
aa(lp50
g10
aasg2
F0.6
sss.