(dp0
S'tau'
p1
F1.0
sS'|tau|'
p2
F1.0
sS'pairwise'
p3
F1.0
sS'ranking'
p4
(dp5
I0
(dp6
g1
F1.0
sS'gold'
p7
(lp8
(lp9
S'bold'
p10
aa(lp11
S'noisy'
p12
aasS'raw'
p13
(dp14
S'prob*'
p15
cnumpy.core.multiarray
scalar
p16
(cnumpy
dtype
p17
(S'f8'
p18
I0
I1
tp19
Rp20
(I3
S'<'
p21
NNNI-1
I-1
I0
tp22
bS't\xc4\xd9J\xd1n\xe1?'
p23
tp24
Rp25
sS'link-probs'
p26
(lp27
(g10
g12
F0.5447775327612718
tp28
assg3
F1.0
sS'algo'
p29
(lp30
(lp31
g10
aa(lp32
g12
aasg2
F1.0
sss.