(dp0
S'tau'
p1
F-0.07142857142857142
sS'|tau|'
p2
F0.07142857142857142
sS'pairwise'
p3
F0.4642857142857143
sS'ranking'
p4
(dp5
I0
(dp6
g1
F-0.07142857142857142
sS'gold'
p7
(lp8
(lp9
S'unexpected'
p10
aa(lp11
S'awkward'
p12
aa(lp13
S'surprising'
p14
aa(lp15
S'strange'
p16
aa(lp17
S'curious'
p18
aa(lp19
S'weird'
p20
aa(lp21
S'odd'
p22
aa(lp23
S'surprised'
p24
aasS'raw'
p25
(dp26
S'prob*'
p27
cnumpy.core.multiarray
scalar
p28
(cnumpy
dtype
p29
(S'f8'
p30
I0
I1
tp31
Rp32
(I3
S'<'
p33
NNNI-1
I-1
I0
tp34
bS'\x04\x06\xb1\xb2i\t\x99>'
p35
tp36
Rp37
sS'link-probs'
p38
(lp39
(g14
g16
F0.5555555555555556
tp40
a(g14
g24
F0.5555555555555556
tp41
a(g14
g20
F0.513968589165425
tp42
a(g14
g18
F0.5111771636805961
tp43
a(g14
g10
F0.75
tp44
a(g14
g22
F0.625
tp45
a(g14
g12
F0.47894460066769334
tp46
a(g16
g24
F0.75
tp47
a(g16
g20
F0.4827586206896552
tp48
a(g16
g18
F0.6111111111111112
tp49
a(g16
g10
F0.5008804003576538
tp50
a(g16
g22
F0.6666666666666666
tp51
a(g16
g12
F0.8181818181818182
tp52
a(g24
g20
F0.6055949057571491
tp53
a(g24
g18
F0.6038964171074515
tp54
a(g24
g10
F0.6128513509354856
tp55
a(g24
g22
F0.6666666666666666
tp56
a(g24
g12
F0.581701732562402
tp57
a(g20
g18
F0.5833333333333334
tp58
a(g20
g10
F0.5127081990056523
tp59
a(g20
g22
F0.5384615384615384
tp60
a(g20
g12
F0.75
tp61
a(g18
g10
F0.5154955022075481
tp62
a(g18
g22
F0.5632435367658334
tp63
a(g18
g12
F0.7142857142857143
tp64
a(g10
g22
F0.5494941717681665
tp65
a(g10
g12
F0.4533740395567379
tp66
a(g22
g12
F0.625
tp67
assg3
F0.4642857142857143
sS'algo'
p68
(lp69
(lp70
g14
aa(lp71
g16
aa(lp72
g24
aa(lp73
g20
aa(lp74
g18
aa(lp75
g10
aa(lp76
g22
aa(lp77
g12
aasg2
F0.07142857142857142
sss.