(dp0
S'tau'
p1
F-0.3333333333333333
sS'|tau|'
p2
F0.3333333333333333
sS'pairwise'
p3
F0.3333333333333333
sS'ranking'
p4
(dp5
I0
(dp6
g1
F-0.3333333333333333
sS'gold'
p7
(lp8
(lp9
S'convenient'
p10
aa(lp11
S'fitting'
p12
aa(lp13
S'handy'
p14
aa(lp15
S'ideal'
p16
aasS'raw'
p17
(dp18
S'prob*'
p19
cnumpy.core.multiarray
scalar
p20
(cnumpy
dtype
p21
(S'f8'
p22
I0
I1
tp23
Rp24
(I3
S'<'
p25
NNNI-1
I-1
I0
tp26
bS'\x8b&4%\xd1\x80\xab?'
p27
tp28
Rp29
sS'link-probs'
p30
(lp31
(g16
g12
F0.626499328673273
tp32
a(g16
g10
F0.6219023175302503
tp33
a(g16
g14
F0.6036786773546008
tp34
a(g12
g10
F0.6666666666666666
tp35
a(g12
g14
F0.4567667716664965
tp36
a(g10
g14
F0.75
tp37
assg3
F0.3333333333333333
sS'algo'
p38
(lp39
(lp40
g16
aa(lp41
g12
aa(lp42
g10
aa(lp43
g14
aasg2
F0.3333333333333333
sss.