(dp0
S'tau'
p1
F0.2222222222222222
sS'|tau|'
p2
F0.2222222222222222
sS'pairwise'
p3
F0.611111111111111
sS'ranking'
p4
(dp5
I0
(dp6
g1
F0.3333333333333333
sS'gold'
p7
(lp8
(lp9
S'lit'
p10
aa(lp11
S'thoughtful'
p12
aa(lp13
S'wise'
p14
aasS'raw'
p15
(dp16
S'prob*'
p17
cnumpy.core.multiarray
scalar
p18
(cnumpy
dtype
p19
(S'f8'
p20
I0
I1
tp21
Rp22
(I3
S'<'
p23
NNNI-1
I-1
I0
tp24
bS'\xfbi\xc2\x13[\x9b\xcb?'
p25
tp26
Rp27
sS'link-probs'
p28
(lp29
(g10
g14
F0.6466799081484308
tp30
a(g10
g12
F0.6495178561570434
tp31
a(g14
g12
F0.5134835751876831
tp32
assg3
F0.6666666666666666
sS'algo'
p33
(lp34
(lp35
g10
aa(lp36
g14
aa(lp37
g12
aasg2
F0.3333333333333333
ssI1
(dp38
g1
F0.3333333333333333
sg7
(lp39
(lp40
S'ready'
p41
aa(lp42
S'willing'
p43
aa(lp44
S'open'
p45
aa(lp46
S'prepared'
p47
aasg15
(dp48
g17
g18
(g22
S'$\x1f,\xd9\xef`\xb4?'
p49
tp50
Rp51
sg28
(lp52
(g41
g45
F0.5101713729565969
tp53
a(g41
g47
F0.7272727272727273
tp54
a(g41
g43
F0.875
tp55
a(g45
g47
F0.6666666666666666
tp56
a(g45
g43
F0.551692057412548
tp57
a(g47
g43
F0.6666666666666666
tp58
assg3
F0.6666666666666666
sg33
(lp59
(lp60
g41
aa(lp61
g45
aa(lp62
g47
aa(lp63
g43
aasg2
F0.3333333333333333
ssI2
(dp64
g1
F0.0
sg7
(lp65
(lp66
S'responsive'
p67
aa(lp68
S'sensitive'
p69
aa(lp70
S'attentive'
p71
aa(lp72
S'careful'
p73
aasg15
(dp74
g17
g18
(g22
S'\xdeI\x14\x03\xd0E\xb8?'
p75
tp76
Rp77
sg28
(lp78
(g69
g73
F0.55799544521211
tp79
a(g69
g67
F0.9090909090909091
tp80
a(g69
g71
F0.6557476199843423
tp81
a(g73
g67
F0.59841058612975
tp82
a(g73
g71
F0.8
tp83
a(g67
g71
F0.59540745838765
tp84
assg3
F0.5
sg33
(lp85
(lp86
g69
aa(lp87
g73
aa(lp88
g67
aa(lp89
g71
aasg2
F0.0
sss.