(dp0
S'tau'
p1
F0.7777777777777777
sS'|tau|'
p2
F0.7777777777777777
sS'pairwise'
p3
F0.8888888888888888
sS'ranking'
p4
(dp5
I0
(dp6
g1
F0.3333333333333333
sS'gold'
p7
(lp8
(lp9
S'questionable'
p10
aa(lp11
S'dangerous'
p12
aa(lp13
S'negative'
p14
aasS'raw'
p15
(dp16
S'prob*'
p17
cnumpy.core.multiarray
scalar
p18
(cnumpy
dtype
p19
(S'f8'
p20
I0
I1
tp21
Rp22
(I3
S'<'
p23
NNNI-1
I-1
I0
tp24
bS'\xcf\xe1\xad\x07LB\xc2?'
p25
tp26
Rp27
sS'link-probs'
p28
(lp29
(g10
g14
F0.5079025957765184
tp30
a(g10
g12
F0.533799238968787
tp31
a(g14
g12
F0.5261480742369309
tp32
assg3
F0.6666666666666666
sS'algo'
p33
(lp34
(lp35
g10
aa(lp36
g14
aa(lp37
g12
aasg2
F0.3333333333333333
ssI1
(dp38
g1
F1.0
sg7
(lp39
(lp40
S'natural'
p41
aa(lp42
S'physical'
p43
aasg15
(dp44
g17
g18
(g22
S'\xe5\xbb\x8e\xeaN\xbf\xe0?'
p45
tp46
Rp47
sg28
(lp48
(g41
g43
F0.523353059883331
tp49
assg3
F1.0
sg33
(lp50
(lp51
g41
aa(lp52
g43
aasg2
F1.0
ssI2
(dp53
g1
F1.0
sg7
(lp54
(lp55
S'bold'
p56
aa(lp57
S'noisy'
p58
aasg15
(dp59
g17
g18
(g22
S't\xc4\xd9J\xd1n\xe1?'
p60
tp61
Rp62
sg28
(lp63
(g56
g58
F0.5447775327612718
tp64
assg3
F1.0
sg33
(lp65
(lp66
g56
aa(lp67
g58
aasg2
F1.0
sss.