(dp0
S'tau'
p1
F0.7777777777777778
sS'|tau|'
p2
F0.7777777777777778
sS'pairwise'
p3
F0.8888888888888888
sS'ranking'
p4
(dp5
I0
(dp6
g1
F1.0
sS'gold'
p7
(lp8
(lp9
S'magic'
p10
aa(lp11
S'magical'
p12
aasS'raw'
p13
(dp14
S'prob*'
p15
cnumpy.core.multiarray
scalar
p16
(cnumpy
dtype
p17
(S'f8'
p18
I0
I1
tp19
Rp20
(I3
S'<'
p21
NNNI-1
I-1
I0
tp22
bS'UUUUUU\xe5?'
p23
tp24
Rp25
sS'link-probs'
p26
(lp27
(g10
g12
F0.6666666666666666
tp28
assg3
F1.0
sS'algo'
p29
(lp30
(lp31
g10
aa(lp32
g12
aasg2
F1.0
ssI1
(dp33
g1
F1.0
sg7
(lp34
(lp35
S'specific'
p36
aa(lp37
S'particular'
p38
aasg13
(dp39
g15
g16
(g20
S'UUUUUU\xe5?'
p40
tp41
Rp42
sg26
(lp43
(g36
g38
F0.6666666666666666
tp44
assg3
F1.0
sg29
(lp45
(lp46
g36
aa(lp47
g38
aasg2
F1.0
ssI2
(dp48
g1
F0.3333333333333333
sg7
(lp49
(lp50
S'impressed'
p51
aa(lp52
S'overwhelmed'
p53
aa(lp54
S'shocked'
p55
aasg13
(dp56
g15
g16
(g20
S' M?)u]\xc3?'
p57
tp58
Rp59
sg26
(lp60
(g51
g55
F0.5380796951186254
tp61
a(g51
g53
F0.5492151365163754
tp62
a(g55
g53
F0.5119410760177181
tp63
assg3
F0.6666666666666666
sg29
(lp64
(lp65
g51
aa(lp66
g55
aa(lp67
g53
aasg2
F0.3333333333333333
sss.