(dp0
S'tau'
p1
F0.2
sS'|tau|'
p2
F0.2
sS'pairwise'
p3
F0.6
sS'ranking'
p4
(dp5
I0
(dp6
g1
F0.2
sS'gold'
p7
(lp8
(lp9
S'basic'
p10
aa(lp11
S'main'
p12
aa(lp13
S'central'
p14
aa(lp15
S'key'
p16
aa(lp17
S'first'
p18
aasS'raw'
p19
(dp20
S'prob*'
p21
cnumpy.core.multiarray
scalar
p22
(cnumpy
dtype
p23
(S'f8'
p24
I0
I1
tp25
Rp26
(I3
S'<'
p27
NNNI-1
I-1
I0
tp28
bS'JG\x16\x15\x1d\x04\x7f?'
p29
tp30
Rp31
sS'link-probs'
p32
(lp33
(g10
g18
F0.6666666666666666
tp34
a(g10
g14
F0.49162430136985974
tp35
a(g10
g12
F0.6666666666666666
tp36
a(g10
g16
F0.75
tp37
a(g18
g14
F0.6372220767321627
tp38
a(g18
g12
F0.6145148024336212
tp39
a(g18
g16
F0.6376789168535875
tp40
a(g14
g12
F0.6666666666666666
tp41
a(g14
g16
F0.5014282195551345
tp42
a(g12
g16
F0.553569280973173
tp43
assg3
F0.6
sS'algo'
p44
(lp45
(lp46
g10
aa(lp47
g18
aa(lp48
g14
aa(lp49
g12
aa(lp50
g16
aasg2
F0.2
sss.