(dp0
S'tau'
p1
F0.0
sS'|tau|'
p2
F0.0
sS'pairwise'
p3
F0.5
sS'ranking'
p4
(dp5
I0
(dp6
g1
F0.0
sS'gold'
p7
(lp8
(lp9
S'timely'
p10
aa(lp11
S'quick'
p12
aa(lp13
S'early'
p14
aa(lp15
S'fast'
p16
aasS'raw'
p17
(dp18
S'prob*'
p19
cnumpy.core.multiarray
scalar
p20
(cnumpy
dtype
p21
(S'f8'
p22
I0
I1
tp23
Rp24
(I3
S'<'
p25
NNNI-1
I-1
I0
tp26
bS'5\xbb)\xb2\xd7_\xae?'
p27
tp28
Rp29
sS'link-probs'
p30
(lp31
(g12
g16
F0.625
tp32
a(g12
g10
F0.8
tp33
a(g12
g14
F0.59752584385207
tp34
a(g16
g10
F0.5994111260286453
tp35
a(g16
g14
F0.6193736343959575
tp36
a(g10
g14
F0.5348516256418634
tp37
assg3
F0.5
sS'algo'
p38
(lp39
(lp40
g12
aa(lp41
g16
aa(lp42
g10
aa(lp43
g14
aasg2
F0.0
sss.