(dp0
S'tau'
p1
F0.3333333333333333
sS'|tau|'
p2
F0.3333333333333333
sS'pairwise'
p3
F0.6666666666666666
sS'ranking'
p4
(dp5
I0
(dp6
g1
F1.0
sS'gold'
p7
(lp8
(lp9
S'lucky'
p10
aa(lp11
S'fortunate'
p12
aasS'raw'
p13
(dp14
S'prob*'
p15
cnumpy.core.multiarray
scalar
p16
(cnumpy
dtype
p17
(S'f8'
p18
I0
I1
tp19
Rp20
(I3
S'<'
p21
NNNI-1
I-1
I0
tp22
bS'ffffff\xe6?'
p23
tp24
Rp25
sS'link-probs'
p26
(lp27
(g10
g12
F0.7
tp28
assg3
F1.0
sS'algo'
p29
(lp30
(lp31
g10
aa(lp32
g12
aasg2
F1.0
ssI1
(dp33
g1
F0.0
sg7
(lp34
(lp35
S'generic'
p36
aa(lp37
S'popular'
p38
aa(lp39
S'public'
p40
aa(lp41
S'general'
p42
aasg13
(dp43
g15
g16
(g20
S'fR\xdfO6^\xa3?'
p44
tp45
Rp46
sg26
(lp47
(g38
g40
F0.5066654098593658
tp48
a(g38
g42
F0.5153564036606332
tp49
a(g38
g36
F0.6540819556349283
tp50
a(g40
g42
F0.5087231371842081
tp51
a(g40
g36
F0.653076185332243
tp52
a(g42
g36
F0.6666666666666666
tp53
assg3
F0.5
sg29
(lp54
(lp55
g38
aa(lp56
g40
aa(lp57
g42
aa(lp58
g36
aasg2
F0.0
ssI2
(dp59
g1
F0.0
sg7
(lp60
(lp61
S'fine'
p62
aa(lp63
S'good'
p64
aa(lp65
S'okay'
p66
aa(lp67
S'nice'
p68
aa(lp69
S'cool'
p70
aasg13
(dp71
g15
g16
(g20
S'|\xe2\x11\xcd\xce\xd6\x8b?'
p72
tp73
Rp74
sg26
(lp75
(g64
g68
F0.6923076923076923
tp76
a(g64
g70
F0.6
tp77
a(g64
g62
F0.7692307692307693
tp78
a(g64
g66
F0.75
tp79
a(g68
g70
F0.5294117647058824
tp80
a(g68
g62
F0.625
tp81
a(g68
g66
F0.5714285714285714
tp82
a(g70
g62
F0.75
tp83
a(g70
g66
F0.6666666666666666
tp84
a(g62
g66
F0.6
tp85
assg3
F0.5
sg29
(lp86
(lp87
g64
aa(lp88
g68
aa(lp89
g70
aa(lp90
g62
aa(lp91
g66
aasg2
F0.0
sss.