(dp0
S'tau'
p1
F0.022222222222222216
sS'|tau|'
p2
F0.37777777777777777
sS'pairwise'
p3
F0.5111111111111112
sS'ranking'
p4
(dp5
I0
(dp6
g1
F-0.3333333333333333
sS'gold'
p7
(lp8
(lp9
S'complimentary'
p10
aa(lp11
S'off'
p12
aa(lp13
S'free'
p14
aa(lp15
S'out'
p16
aasS'raw'
p17
(dp18
S'prob*'
p19
cnumpy.core.multiarray
scalar
p20
(cnumpy
dtype
p21
(S'f8'
p22
I0
I1
tp23
Rp24
(I3
S'<'
p25
NNNI-1
I-1
I0
tp26
bS'\xe1\xca\xb6\x02\x13\xcc\xb0?'
p27
tp28
Rp29
sS'link-probs'
p30
(lp31
(g12
g16
F0.5350671562312033
tp32
a(g12
g14
F0.6322383823100468
tp33
a(g12
g10
F0.651398846642851
tp34
a(g16
g14
F0.6166437394610116
tp35
a(g16
g10
F0.6438197548194169
tp36
a(g14
g10
F0.75
tp37
assg3
F0.3333333333333333
sS'algo'
p38
(lp39
(lp40
g12
aa(lp41
g16
aa(lp42
g14
aa(lp43
g10
aasg2
F0.3333333333333333
ssI1
(dp44
g1
F-0.2
sg7
(lp45
(lp46
S'unhappy'
p47
aa(lp48
S'sad'
p49
aa(lp50
S'disappointing'
p51
aa(lp52
S'unfortunate'
p53
aa(lp54
S'sorry'
p55
aa(lp56
S'disappointed'
p57
aasg17
(dp58
g19
g20
(g24
S'?{\x84\x18\x84\xefI?'
p59
tp60
Rp61
sg30
(lp62
(g49
g57
F0.5435231449049801
tp63
a(g49
g55
F0.6923076923076923
tp64
a(g49
g47
F0.75
tp65
a(g49
g53
F0.6666666666666666
tp66
a(g49
g51
F0.6666666666666666
tp67
a(g57
g55
F0.5219709177057141
tp68
a(g57
g47
F0.607767095736409
tp69
a(g57
g53
F0.530433684040877
tp70
a(g57
g51
F0.5714285714285714
tp71
a(g55
g47
F0.75
tp72
a(g55
g53
F0.6
tp73
a(g55
g51
F0.6666666666666666
tp74
a(g47
g53
F0.5714285714285714
tp75
a(g47
g51
F0.4785208294544265
tp76
a(g53
g51
F0.8
tp77
assg3
F0.4
sg38
(lp78
(lp79
g49
aa(lp80
g57
aa(lp81
g55
aa(lp82
g47
aa(lp83
g53
aa(lp84
g51
aasg2
F0.2
ssI2
(dp85
g1
F0.6
sg7
(lp86
(lp87
S'detailed'
p88
aa(lp89
S'full'
p90
aa(lp91
S'complete'
p92
aa(lp93
S'thorough'
p94
aa(lp95
S'deep'
p96
aa(lp97
S'extensive'
p98
aasg17
(dp99
g19
g20
(g24
S'\x10\xc3\xd9\xeaX\xe4@?'
p100
tp101
Rp102
sg30
(lp103
(g88
g90
F0.6209277584935774
tp104
a(g88
g92
F0.6666666666666666
tp105
a(g88
g98
F0.75
tp106
a(g88
g96
F0.6068054784317062
tp107
a(g88
g94
F0.5522163182414895
tp108
a(g90
g92
F0.5107819364746494
tp109
a(g90
g98
F0.6666666666666666
tp110
a(g90
g96
F0.47360484809774506
tp111
a(g90
g94
F0.6666666666666666
tp112
a(g92
g98
F0.6666666666666666
tp113
a(g92
g96
F0.46319993821556343
tp114
a(g92
g94
F0.6
tp115
a(g98
g96
F0.6044783683503585
tp116
a(g98
g94
F0.5486826117208228
tp117
a(g96
g94
F0.75
tp118
assg3
F0.8
sg38
(lp119
(lp120
g88
aa(lp121
g90
aa(lp122
g92
aa(lp123
g98
aa(lp124
g96
aa(lp125
g94
aasg2
F0.6
sss.