(dp0
S'tau'
p1
F-0.7999999999999999
sS'|tau|'
p2
F0.7999999999999999
sS'pairwise'
p3
F0.09999999999999999
sS'ranking'
p4
(dp5
I0
(dp6
g1
F-0.4
sS'gold'
p7
(lp8
(lp9
S'loyal'
p10
aa(lp11
S'straight'
p12
aa(lp13
S'legit'
p14
aa(lp15
S'fair'
p16
aa(lp17
S'honest'
p18
aasS'raw'
p19
(dp20
S'prob*'
p21
cnumpy.core.multiarray
scalar
p22
(cnumpy
dtype
p23
(S'f8'
p24
I0
I1
tp25
Rp26
(I3
S'<'
p27
NNNI-1
I-1
I0
tp28
bS'\xca*\xddQ7\xd5\x89?'
p29
tp30
Rp31
sS'link-probs'
p32
(lp33
(g18
g16
F0.6
tp34
a(g18
g10
F0.8
tp35
a(g18
g12
F0.8571428571428571
tp36
a(g18
g14
F0.8333333333333334
tp37
a(g16
g10
F0.5080689771231007
tp38
a(g16
g12
F0.75
tp39
a(g16
g14
F0.5304043777727295
tp40
a(g10
g12
F0.5225344237843627
tp41
a(g10
g14
F0.5225344237843627
tp42
a(g12
g14
F0.6666666666666666
tp43
assg3
F0.3
sS'algo'
p44
(lp45
(lp46
g18
aa(lp47
g16
aa(lp48
g10
aa(lp49
g12
aa(lp50
g14
aasg2
F0.4
ssI1
(dp51
g1
F-1.0
sg7
(lp52
(lp53
S'concerned'
p54
aa(lp55
S'interested'
p56
aasg19
(dp57
g21
g22
(g26
S'333333\xe3?'
p58
tp59
Rp60
sg32
(lp61
(g56
g54
F0.6
tp62
assg3
F0.0
sg44
(lp63
(lp64
g56
aa(lp65
g54
aasg2
F1.0
ssI2
(dp66
g1
F-1.0
sg7
(lp67
(lp68
S'refreshing'
p69
aa(lp70
S'comforting'
p71
aasg19
(dp72
g21
g22
(g26
S'\x00\x00\x00\x00\x00\x00\xe8?'
p73
tp74
Rp75
sg32
(lp76
(g71
g69
F0.75
tp77
assg3
F0.0
sg44
(lp78
(lp79
g71
aa(lp80
g69
aasg2
F1.0
sss.