(dp0
S'tau'
p1
F0.20000000000000004
sS'|tau|'
p2
F0.4222222222222222
sS'pairwise'
p3
F0.6
sS'ranking'
p4
(dp5
I0
(dp6
g1
F0.6
sS'gold'
p7
(lp8
(lp9
S'boring'
p10
aa(lp11
S'unpleasant'
p12
aa(lp13
S'frustrating'
p14
aa(lp15
S'annoying'
p16
aa(lp17
S'painful'
p18
aasS'raw'
p19
(dp20
S'prob*'
p21
cnumpy.core.multiarray
scalar
p22
(cnumpy
dtype
p23
(S'f8'
p24
I0
I1
tp25
Rp26
(I3
S'<'
p27
NNNI-1
I-1
I0
tp28
bS'\x06\xfe\xb2\x84\x80\x8cj?'
p29
tp30
Rp31
sS'link-probs'
p32
(lp33
(g12
g14
F0.6205690994798347
tp34
a(g12
g10
F0.6231292880485445
tp35
a(g12
g16
F0.6666666666666666
tp36
a(g12
g18
F0.3333333333333333
tp37
a(g14
g10
F0.505499172757376
tp38
a(g14
g16
F0.5743325857362401
tp39
a(g14
g18
F0.6028248034843946
tp40
a(g10
g16
F0.6666666666666666
tp41
a(g10
g18
F0.599347982995773
tp42
a(g16
g18
F0.5393080907570394
tp43
assg3
F0.8
sS'algo'
p44
(lp45
(lp46
g12
aa(lp47
g14
aa(lp48
g10
aa(lp49
g16
aa(lp50
g18
aasg2
F0.6
ssI1
(dp51
g1
F0.3333333333333333
sg7
(lp52
(lp53
S'impossible'
p54
aa(lp55
S'unable'
p56
aa(lp57
S'incompetent'
p58
aasg19
(dp59
g21
g22
(g26
S'\xe9\xaf\xa9\x14,\x1f\xd9?'
p60
tp61
Rp62
sg32
(lp63
(g54
g58
F0.6308479277758933
tp64
a(g54
g56
F0.9333333333333333
tp65
a(g58
g56
F0.6666666666666666
tp66
assg3
F0.6666666666666666
sg44
(lp67
(lp68
g54
aa(lp69
g58
aa(lp70
g56
aasg2
F0.3333333333333333
ssI2
(dp71
g1
F-0.3333333333333333
sg7
(lp72
(lp73
S'likely'
p74
aa(lp75
S'potential'
p76
aa(lp77
S'possible'
p78
aasg19
(dp79
g21
g22
(g26
S'ffffff\xd6?'
p80
tp81
Rp82
sg32
(lp83
(g78
g74
F0.6
tp84
a(g78
g76
F0.875
tp85
a(g74
g76
F0.6666666666666666
tp86
assg3
F0.3333333333333333
sg44
(lp87
(lp88
g78
aa(lp89
g74
aa(lp90
g76
aasg2
F0.3333333333333333
sss.