(dp0
S'tau'
p1
F-0.8222222222222223
sS'|tau|'
p2
F0.8222222222222223
sS'pairwise'
p3
F0.08888888888888889
sS'ranking'
p4
(dp5
I0
(dp6
g1
F-1.0
sS'gold'
p7
(lp8
(lp9
S'pricey'
p10
aa(lp11
S'cheap'
p12
aa(lp13
S'expensive'
p14
aasS'raw'
p15
(dp16
S'prob*'
p17
cnumpy.core.multiarray
scalar
p18
(cnumpy
dtype
p19
(S'f8'
p20
I0
I1
tp21
Rp22
(I3
S'<'
p23
NNNI-1
I-1
I0
tp24
bS'\xbc!\xb5\xa8}>\xd6?'
p25
tp26
Rp27
sS'link-probs'
p28
(lp29
(g14
g12
F0.8333333333333334
tp30
a(g14
g10
F0.75
tp31
a(g12
g10
F0.556102622609654
tp32
assg3
F0.0
sS'algo'
p33
(lp34
(lp35
g14
aa(lp36
g12
aa(lp37
g10
aasg2
F1.0
ssI1
(dp38
g1
F-0.4666666666666667
sg7
(lp39
(lp40
S'impressed'
p41
aa(lp42
S'awesome'
p43
aa(lp44
S'amazing'
p45
aa(lp46
S'hot'
p47
aa(lp48
S'super'
p49
aa(lp50
S'cool'
p51
aasg15
(dp52
g17
g18
(g22
S'r"\x88\xb4\xe1\xc4N?'
p53
tp54
Rp55
sg28
(lp56
(g51
g45
F0.6666666666666666
tp57
a(g51
g47
F0.5555555555555556
tp58
a(g51
g43
F0.5714285714285714
tp59
a(g51
g49
F0.6666666666666666
tp60
a(g51
g41
F0.5456887585102002
tp61
a(g45
g47
F0.6178496180141977
tp62
a(g45
g43
F0.6666666666666666
tp63
a(g45
g49
F0.6187016960067295
tp64
a(g45
g41
F0.6361280609474781
tp65
a(g47
g43
F0.75
tp66
a(g47
g49
F0.6666666666666666
tp67
a(g47
g41
F0.6666666666666666
tp68
a(g43
g49
F0.625
tp69
a(g43
g41
F0.6666666666666666
tp70
a(g49
g41
F0.5416610385922883
tp71
assg3
F0.26666666666666666
sg33
(lp72
(lp73
g51
aa(lp74
g45
aa(lp75
g47
aa(lp76
g43
aa(lp77
g49
aa(lp78
g41
aasg2
F0.4666666666666667
ssI2
(dp79
g1
F-1.0
sg7
(lp80
(lp81
S'top'
p82
aa(lp83
S'first'
p84
aasg15
(dp85
g17
g18
(g22
S'\xa5\x7fQ\xfe\xe7/\xe4?'
p86
tp87
Rp88
sg28
(lp89
(g84
g82
F0.6308479277758933
tp90
assg3
F0.0
sg33
(lp91
(lp92
g84
aa(lp93
g82
aasg2
F1.0
sss.