(dp0
S'tau'
p1
F-1.0
sS'|tau|'
p2
F1.0
sS'pairwise'
p3
F0.0
sS'ranking'
p4
(dp5
I0
(dp6
g1
F-1.0
sS'gold'
p7
(lp8
(lp9
S'disappointed'
p10
aa(lp11
S'excited'
p12
aa(lp13
S'glad'
p14
aa(lp15
S'happy'
p16
aasS'raw'
p17
(dp18
S'prob*'
p19
cnumpy.core.multiarray
scalar
p20
(cnumpy
dtype
p21
(S'f8'
p22
I0
I1
tp23
Rp24
(I3
S'<'
p25
NNNI-1
I-1
I0
tp26
bS'{g\xda\xa34_\xa2?'
p27
tp28
Rp29
sS'link-probs'
p30
(lp31
(g16
g14
F0.6363636363636364
tp32
a(g16
g12
F0.6
tp33
a(g16
g10
F0.49362562542506866
tp34
a(g14
g12
F0.6020416530260774
tp35
a(g14
g10
F0.6119230504140535
tp36
a(g12
g10
F0.5167808187998838
tp37
assg3
F0.0
sS'algo'
p38
(lp39
(lp40
g16
aa(lp41
g14
aa(lp42
g12
aa(lp43
g10
aasg2
F1.0
sss.