(dp0
S'tau'
p1
F0.022222222222222223
sS'|tau|'
p2
F0.24444444444444444
sS'pairwise'
p3
F0.5111111111111111
sS'ranking'
p4
(dp5
I0
(dp6
g1
F0.3333333333333333
sS'gold'
p7
(lp8
(lp9
S'poor'
p10
aa(lp11
S'mediocre'
p12
aa(lp13
S'weak'
p14
aasS'raw'
p15
(dp16
S'prob*'
p17
cnumpy.core.multiarray
scalar
p18
(cnumpy
dtype
p19
(S'f8'
p20
I0
I1
tp21
Rp22
(I3
S'<'
p23
NNNI-1
I-1
I0
tp24
bS'\xee\x1bg\x8e2-\xd0?'
p25
tp26
Rp27
sS'link-probs'
p28
(lp29
(g10
g14
F0.5001750963712728
tp30
a(g10
g12
F0.8
tp31
a(g14
g12
F0.6316753808237893
tp32
assg3
F0.6666666666666666
sS'algo'
p33
(lp34
(lp35
g10
aa(lp36
g14
aa(lp37
g12
aasg2
F0.3333333333333333
ssI1
(dp38
g1
F-0.3333333333333333
sg7
(lp39
(lp40
S'convenient'
p41
aa(lp42
S'fitting'
p43
aa(lp44
S'handy'
p45
aa(lp46
S'ideal'
p47
aasg15
(dp48
g17
g18
(g22
S'\x8b&4%\xd1\x80\xab?'
p49
tp50
Rp51
sg28
(lp52
(g47
g43
F0.626499328673273
tp53
a(g47
g41
F0.6219023175302503
tp54
a(g47
g45
F0.6036786773546008
tp55
a(g43
g41
F0.6666666666666666
tp56
a(g43
g45
F0.4567667716664965
tp57
a(g41
g45
F0.75
tp58
assg3
F0.3333333333333333
sg33
(lp59
(lp60
g47
aa(lp61
g43
aa(lp62
g41
aa(lp63
g45
aasg2
F0.3333333333333333
ssI2
(dp64
g1
F0.06666666666666667
sg7
(lp65
(lp66
S'unusual'
p67
aa(lp68
S'rare'
p69
aa(lp70
S'exceptional'
p71
aa(lp72
S'extraordinary'
p73
aa(lp74
S'unique'
p75
aa(lp76
S'special'
p77
aasg15
(dp78
g17
g18
(g22
S'XR\x8d\xb1\x98V[?'
p79
tp80
Rp81
sg28
(lp82
(g69
g77
F0.529484665343169
tp83
a(g69
g71
F0.6666666666666666
tp84
a(g69
g67
F0.8
tp85
a(g69
g75
F0.5070110741955883
tp86
a(g69
g73
F0.6666666666666666
tp87
a(g77
g71
F0.8
tp88
a(g77
g67
F0.6666666666666666
tp89
a(g77
g75
F0.8
tp90
a(g77
g73
F0.5711431551195205
tp91
a(g71
g67
F0.6
tp92
a(g71
g75
F0.6
tp93
a(g71
g73
F0.7142857142857143
tp94
a(g67
g75
F0.6369437659099032
tp95
a(g67
g73
F0.6569839477068552
tp96
a(g75
g73
F0.6666666666666666
tp97
assg3
F0.5333333333333333
sg33
(lp98
(lp99
g69
aa(lp100
g77
aa(lp101
g71
aa(lp102
g67
aa(lp103
g75
aa(lp104
g73
aasg2
F0.06666666666666667
sss.