(dp0
S'tau'
p1
F0.3333333333333333
sS'|tau|'
p2
F0.3333333333333333
sS'pairwise'
p3
F0.6666666666666666
sS'ranking'
p4
(dp5
I0
(dp6
g1
F1.0
sS'gold'
p7
(lp8
(lp9
S'complex'
p10
aa(lp11
S'confusing'
p12
aasS'raw'
p13
(dp14
S'prob*'
p15
cnumpy.core.multiarray
scalar
p16
(cnumpy
dtype
p17
(S'f8'
p18
I0
I1
tp19
Rp20
(I3
S'<'
p21
NNNI-1
I-1
I0
tp22
bS'\xab@!}\xb0\x9e\xe1?'
p23
tp24
Rp25
sS'link-probs'
p26
(lp27
(g10
g12
F0.550621265787432
tp28
assg3
F1.0
sS'algo'
p29
(lp30
(lp31
g10
aa(lp32
g12
aasg2
F1.0
ssI1
(dp33
g1
F0.0
sg7
(lp34
(lp35
S'mixed'
p36
aa(lp37
S'different'
p38
aa(lp39
S'uneven'
p40
aa(lp41
S'various'
p42
aa(lp43
S'diverse'
p44
aasg13
(dp45
g15
g16
(g20
S'\xf5\x19\xc0Cm\x8f\x95?'
p46
tp47
Rp48
sg26
(lp49
(g38
g44
F0.7692307692307693
tp50
a(g38
g36
F0.75
tp51
a(g38
g42
F0.9166666666666666
tp52
a(g38
g40
F0.6212305261182464
tp53
a(g44
g36
F0.75
tp54
a(g44
g42
F0.8
tp55
a(g44
g40
F0.6435219866611276
tp56
a(g36
g42
F0.5256005602849508
tp57
a(g36
g40
F0.5731451144796214
tp58
a(g42
g40
F0.550981306697388
tp59
assg3
F0.5
sg29
(lp60
(lp61
g38
aa(lp62
g44
aa(lp63
g36
aa(lp64
g42
aa(lp65
g40
aasg2
F0.0
ssI2
(dp66
g1
F0.0
sg7
(lp67
(lp68
S'cute'
p69
aa(lp70
S'delightful'
p71
aa(lp72
S'charming'
p73
aa(lp74
S'adorable'
p75
aa(lp76
S'gorgeous'
p77
aasg13
(dp78
g15
g16
(g20
S'\x12\x04Y\x9a\xb8\xe9\x95?'
p79
tp80
Rp81
sg26
(lp82
(g69
g77
F0.75
tp83
a(g69
g73
F0.6666666666666666
tp84
a(g69
g75
F0.6666666666666666
tp85
a(g69
g71
F0.8
tp86
a(g77
g73
F0.6666666666666666
tp87
a(g77
g75
F0.4814862246173239
tp88
a(g77
g71
F0.6666666666666666
tp89
a(g73
g75
F0.6
tp90
a(g73
g71
F0.8333333333333334
tp91
a(g75
g71
F0.75
tp92
assg3
F0.5
sg29
(lp93
(lp94
g69
aa(lp95
g77
aa(lp96
g73
aa(lp97
g75
aa(lp98
g71
aasg2
F0.0
sss.