(dp0
S'tau'
p1
F0.06666666666666667
sS'|tau|'
p2
F0.06666666666666667
sS'pairwise'
p3
F0.5333333333333333
sS'ranking'
p4
(dp5
I0
(dp6
g1
F0.06666666666666667
sS'gold'
p7
(lp8
(lp9
S'huge'
p10
aa(lp11
S'wide'
p12
aa(lp13
S'massive'
p14
aa(lp15
S'tall'
p16
aa(lp17
S'overwhelming'
p18
aa(lp19
S'vast'
p20
aasS'raw'
p21
(dp22
S'prob*'
p23
cnumpy.core.multiarray
scalar
p24
(cnumpy
dtype
p25
(S'f8'
p26
I0
I1
tp27
Rp28
(I3
S'<'
p29
NNNI-1
I-1
I0
tp30
bS'\xd2\xf9|k\x9f\x91E?'
p31
tp32
Rp33
sS'link-probs'
p34
(lp35
(g16
g12
F0.5401804624520764
tp36
a(g16
g10
F0.6463476858240552
tp37
a(g16
g20
F0.6666666666666666
tp38
a(g16
g18
F0.6666666666666666
tp39
a(g16
g14
F0.6312191530143143
tp40
a(g12
g10
F0.6666666666666666
tp41
a(g12
g20
F0.6666666666666666
tp42
a(g12
g18
F0.6123668190612248
tp43
a(g12
g14
F0.6666666666666666
tp44
a(g10
g20
F0.6666666666666666
tp45
a(g10
g18
F0.6666666666666666
tp46
a(g10
g14
F0.6666666666666666
tp47
a(g20
g18
F0.5
tp48
a(g20
g14
F0.5
tp49
a(g18
g14
F0.5
tp50
assg3
F0.5333333333333333
sS'algo'
p51
(lp52
(lp53
g16
aa(lp54
g12
aa(lp55
g10
aa(lp56
g20
aa(lp57
g18
aa(lp58
g14
aasg2
F0.06666666666666667
sss.