(dp0
S'tau'
p1
F-0.4222222222222222
sS'|tau|'
p2
F0.4666666666666666
sS'pairwise'
p3
F0.2888888888888889
sS'ranking'
p4
(dp5
I0
(dp6
g1
F-0.3333333333333333
sS'gold'
p7
(lp8
(lp9
S'terrible'
p10
aa(lp11
S'rude'
p12
aa(lp13
S'horrible'
p14
aasS'raw'
p15
(dp16
S'prob*'
p17
cnumpy.core.multiarray
scalar
p18
(cnumpy
dtype
p19
(S'f8'
p20
I0
I1
tp21
Rp22
(I3
S'<'
p23
NNNI-1
I-1
I0
tp24
bS'\x13\xc6\x12\xcc\x87\xc9\xc7?'
p25
tp26
Rp27
sS'link-probs'
p28
(lp29
(g12
g14
F0.6666666666666666
tp30
a(g12
g10
F0.47786842667897017
tp31
a(g14
g10
F0.5833333333333334
tp32
assg3
F0.3333333333333333
sS'algo'
p33
(lp34
(lp35
g12
aa(lp36
g14
aa(lp37
g10
aasg2
F0.3333333333333333
ssI1
(dp38
g1
F-1.0
sg7
(lp39
(lp40
S'sweet'
p41
aa(lp42
S'tasty'
p43
aa(lp44
S'delicious'
p45
aasg15
(dp46
g17
g18
(g22
S'Y\x96eY\x96e\xd9?'
p47
tp48
Rp49
sg28
(lp50
(g45
g43
F0.7142857142857143
tp51
a(g45
g41
F0.8333333333333334
tp52
a(g43
g41
F0.6666666666666666
tp53
assg3
F0.0
sg33
(lp54
(lp55
g45
aa(lp56
g43
aa(lp57
g41
aasg2
F1.0
ssI2
(dp58
g1
F0.06666666666666667
sg7
(lp59
(lp60
S'little'
p61
aa(lp62
S'slow'
p63
aa(lp64
S'few'
p65
aa(lp66
S'enough'
p67
aa(lp68
S'short'
p69
aa(lp70
S'small'
p71
aasg15
(dp72
g17
g18
(g22
S'&\xe4o\xb8\x0b\x141?'
p73
tp74
Rp75
sg28
(lp76
(g71
g61
F0.6875
tp77
a(g71
g67
F0.6209754213277228
tp78
a(g71
g63
F0.6666666666666666
tp79
a(g71
g65
F0.625
tp80
a(g71
g69
F0.6666666666666666
tp81
a(g61
g67
F0.5415707489918985
tp82
a(g61
g63
F0.4792802632485884
tp83
a(g61
g65
F0.5423322984423238
tp84
a(g61
g69
F0.5188773314851066
tp85
a(g67
g63
F0.75
tp86
a(g67
g65
F0.5008130585579075
tp87
a(g67
g69
F0.4766468366394187
tp88
a(g63
g65
F0.5611220391531367
tp89
a(g63
g69
F0.5390472516870808
tp90
a(g65
g69
F0.5555555555555556
tp91
assg3
F0.5333333333333333
sg33
(lp92
(lp93
g71
aa(lp94
g61
aa(lp95
g67
aa(lp96
g63
aa(lp97
g65
aa(lp98
g69
aasg2
F0.06666666666666667
sss.