(dp0
S'tau'
p1
F-0.17777777777777773
sS'|tau|'
p2
F0.4444444444444445
sS'pairwise'
p3
F0.41111111111111104
sS'ranking'
p4
(dp5
I0
(dp6
g1
F-0.3333333333333333
sS'gold'
p7
(lp8
(lp9
S'dry'
p10
aa(lp11
S'warm'
p12
aa(lp13
S'empty'
p14
aasS'raw'
p15
(dp16
S'prob*'
p17
cnumpy.core.multiarray
scalar
p18
(cnumpy
dtype
p19
(S'f8'
p20
I0
I1
tp21
Rp22
(I3
S'<'
p23
NNNI-1
I-1
I0
tp24
bS'g(t\xda\x8c\x8b\xc2?'
p25
tp26
Rp27
sS'link-probs'
p28
(lp29
(g12
g14
F0.5274122413224992
tp30
a(g12
g10
F0.5378035395940933
tp31
a(g14
g10
F0.5107939792270894
tp32
assg3
F0.3333333333333333
sS'algo'
p33
(lp34
(lp35
g12
aa(lp36
g14
aa(lp37
g10
aasg2
F0.3333333333333333
ssI1
(dp38
g1
F0.4
sg7
(lp39
(lp40
S'beautiful'
p41
aa(lp42
S'cute'
p43
aa(lp44
S'soft'
p45
aa(lp46
S'favorite'
p47
aa(lp48
S'nice'
p49
aasg15
(dp50
g17
g18
(g22
S'G\x00\xc3w\x15\x04~?'
p51
tp52
Rp53
sg28
(lp54
(g41
g49
F0.6190476190476191
tp55
a(g41
g43
F0.5625
tp56
a(g41
g45
F0.528316920700949
tp57
a(g41
g47
F0.6439722553258768
tp58
a(g49
g43
F0.6
tp59
a(g49
g45
F0.6666666666666666
tp60
a(g49
g47
F0.6551107704503846
tp61
a(g43
g45
F0.5571229962537031
tp62
a(g43
g47
F0.6666666666666666
tp63
a(g45
g47
F0.6355494747372251
tp64
assg3
F0.7
sg33
(lp65
(lp66
g41
aa(lp67
g49
aa(lp68
g43
aa(lp69
g45
aa(lp70
g47
aasg2
F0.4
ssI2
(dp71
g1
F-0.6
sg7
(lp72
(lp73
S'fantastic'
p74
aa(lp75
S'outstanding'
p76
aa(lp77
S'wonderful'
p78
aa(lp79
S'excellent'
p80
aa(lp81
S'unique'
p82
aa(lp83
S'special'
p84
aasg15
(dp85
g17
g18
(g22
S'\xfe\x9e\xd3\x1a\x83!Y?'
p86
tp87
Rp88
sg28
(lp89
(g84
g80
F0.6666666666666666
tp90
a(g84
g78
F0.75
tp91
a(g84
g76
F0.8
tp92
a(g84
g82
F0.8
tp93
a(g84
g74
F0.6666666666666666
tp94
a(g80
g78
F0.6666666666666666
tp95
a(g80
g76
F0.625
tp96
a(g80
g82
F0.5905976846708084
tp97
a(g80
g74
F0.8571428571428571
tp98
a(g78
g76
F0.625
tp99
a(g78
g82
F0.38565826963438204
tp100
a(g78
g74
F0.6666666666666666
tp101
a(g76
g82
F0.6666666666666666
tp102
a(g76
g74
F0.5196717796732835
tp103
a(g82
g74
F0.6123031735366997
tp104
assg3
F0.2
sg33
(lp105
(lp106
g84
aa(lp107
g80
aa(lp108
g78
aa(lp109
g76
aa(lp110
g82
aa(lp111
g74
aasg2
F0.6
sss.