(dp0
S'tau'
p1
F-0.2
sS'|tau|'
p2
F0.2
sS'pairwise'
p3
F0.4
sS'ranking'
p4
(dp5
I0
(dp6
g1
F-0.2
sS'gold'
p7
(lp8
(lp9
S'incorrect'
p10
aa(lp11
S'wrong'
p12
aa(lp13
S'guilty'
p14
aa(lp15
S'bad'
p16
aa(lp17
S'fake'
p18
aasS'raw'
p19
(dp20
S'prob*'
p21
cnumpy.core.multiarray
scalar
p22
(cnumpy
dtype
p23
(S'f8'
p24
I0
I1
tp25
Rp26
(I3
S'<'
p27
NNNI-1
I-1
I0
tp28
bS'0\x19["/\x16\x86?'
p29
tp30
Rp31
sS'link-probs'
p32
(lp33
(g16
g12
F0.5333333333333333
tp34
a(g16
g18
F0.5711250087582461
tp35
a(g16
g10
F0.8888888888888888
tp36
a(g16
g14
F0.5801045047491028
tp37
a(g12
g18
F0.7142857142857143
tp38
a(g12
g10
F0.875
tp39
a(g12
g14
F0.5922014897146043
tp40
a(g18
g10
F0.6666666666666666
tp41
a(g18
g14
F0.5112964925819611
tp42
a(g10
g14
F0.5442335867010919
tp43
assg3
F0.4
sS'algo'
p44
(lp45
(lp46
g16
aa(lp47
g12
aa(lp48
g18
aa(lp49
g10
aa(lp50
g14
aasg2
F0.2
sss.