(dp0
S'tau'
p1
F0.08888888888888886
sS'|tau|'
p2
F0.35555555555555557
sS'pairwise'
p3
F0.5444444444444444
sS'ranking'
p4
(dp5
I0
(dp6
g1
F0.3333333333333333
sS'gold'
p7
(lp8
(lp9
S'sexy'
p10
aa(lp11
S'appealing'
p12
aa(lp13
S'attractive'
p14
aasS'raw'
p15
(dp16
S'prob*'
p17
cnumpy.core.multiarray
scalar
p18
(cnumpy
dtype
p19
(S'f8'
p20
I0
I1
tp21
Rp22
(I3
S'<'
p23
NNNI-1
I-1
I0
tp24
bS'\x90\x841LyK\xc9?'
p25
tp26
Rp27
sS'link-probs'
p28
(lp29
(g12
g10
F0.5269754084366424
tp30
a(g12
g14
F0.6
tp31
a(g10
g14
F0.625
tp32
assg3
F0.6666666666666666
sS'algo'
p33
(lp34
(lp35
g12
aa(lp36
g10
aa(lp37
g14
aasg2
F0.3333333333333333
ssI1
(dp38
g1
F-0.4
sg7
(lp39
(lp40
S'scrumptious'
p41
aa(lp42
S'tasty'
p43
aa(lp44
S'yummy'
p45
aa(lp46
S'delicious'
p47
aa(lp48
S'exquisite'
p49
aasg15
(dp50
g17
g18
(g22
S'\xd7\xb8%9\xa9\xf7\x8a?'
p51
tp52
Rp53
sg28
(lp54
(g47
g45
F0.6666666666666666
tp55
a(g47
g43
F0.7142857142857143
tp56
a(g47
g49
F0.7142857142857143
tp57
a(g47
g41
F0.8333333333333334
tp58
a(g45
g43
F0.602662027330145
tp59
a(g45
g49
F0.5533476324160497
tp60
a(g45
g41
F0.6666666666666666
tp61
a(g43
g49
F0.6666666666666666
tp62
a(g43
g41
F0.5330304869196797
tp63
a(g49
g41
F0.5880262347187873
tp64
assg3
F0.3
sg33
(lp65
(lp66
g47
aa(lp67
g45
aa(lp68
g43
aa(lp69
g49
aa(lp70
g41
aasg2
F0.4
ssI2
(dp71
g1
F0.3333333333333333
sg7
(lp72
(lp73
S'flexible'
p74
aa(lp75
S'relaxed'
p76
aa(lp77
S'loose'
p78
aa(lp79
S'relaxing'
p80
aasg15
(dp81
g17
g18
(g22
S'\xe0:\xe9\x87\x19u\xa0?'
p82
tp83
Rp84
sg28
(lp85
(g74
g80
F0.5079416972279925
tp86
a(g74
g76
F0.6666666666666666
tp87
a(g74
g78
F0.5781843528483682
tp88
a(g80
g76
F0.5077912575343114
tp89
a(g80
g78
F0.5718486888226466
tp90
a(g76
g78
F0.565374898870641
tp91
assg3
F0.6666666666666666
sg33
(lp92
(lp93
g74
aa(lp94
g80
aa(lp95
g76
aa(lp96
g78
aasg2
F0.3333333333333333
sss.