(dp0
S'tau'
p1
F0.1111111111111111
sS'|tau|'
p2
F0.3333333333333333
sS'pairwise'
p3
F0.5555555555555555
sS'ranking'
p4
(dp5
I0
(dp6
g1
F0.3333333333333333
sS'gold'
p7
(lp8
(lp9
S'many'
p10
aa(lp11
S'different'
p12
aa(lp13
S'several'
p14
aasS'raw'
p15
(dp16
S'prob*'
p17
cnumpy.core.multiarray
scalar
p18
(cnumpy
dtype
p19
(S'f8'
p20
I0
I1
tp21
Rp22
(I3
S'<'
p23
NNNI-1
I-1
I0
tp24
bS'\x00\x00\x00\x00\x00\x00\xd8?'
p25
tp26
Rp27
sS'link-probs'
p28
(lp29
(g12
g10
F0.6666666666666666
tp30
a(g12
g14
F0.75
tp31
a(g10
g14
F0.75
tp32
assg3
F0.6666666666666666
sS'algo'
p33
(lp34
(lp35
g12
aa(lp36
g10
aa(lp37
g14
aasg2
F0.3333333333333333
ssI1
(dp38
g1
F-0.3333333333333333
sg7
(lp39
(lp40
S'close'
p41
aa(lp42
S'attentive'
p43
aa(lp44
S'busy'
p45
aasg15
(dp46
g17
g18
(g22
S"\x9e\xa1E\xd8$'\xc9?"
p47
tp48
Rp49
sg28
(lp50
(g45
g41
F0.5005005141054876
tp51
a(g45
g43
F0.6267007511382041
tp52
a(g41
g43
F0.6264890061810353
tp53
assg3
F0.3333333333333333
sg33
(lp54
(lp55
g45
aa(lp56
g41
aa(lp57
g43
aasg2
F0.3333333333333333
ssI2
(dp58
g1
F0.3333333333333333
sg7
(lp59
(lp60
S'new'
p61
aa(lp62
S'other'
p63
aa(lp64
S'last'
p65
aa(lp66
S'next'
p67
aasg15
(dp68
g17
g18
(g22
S'\x95\xde\x88\xa4J\x03\xac?'
p69
tp70
Rp71
sg28
(lp72
(g63
g61
F0.5958433437650558
tp73
a(g63
g67
F0.6666666666666666
tp74
a(g63
g65
F0.6561558639388093
tp75
a(g61
g67
F0.5487386401818876
tp76
a(g61
g65
F0.6307713275032507
tp77
a(g67
g65
F0.6064599424489796
tp78
assg3
F0.6666666666666666
sg33
(lp79
(lp80
g63
aa(lp81
g61
aa(lp82
g67
aa(lp83
g65
aasg2
F0.3333333333333333
sss.