(dp0
S'tau'
p1
F0.11111111111111109
sS'|tau|'
p2
F0.7777777777777777
sS'pairwise'
p3
F0.5555555555555555
sS'ranking'
p4
(dp5
I0
(dp6
g1
F0.3333333333333333
sS'gold'
p7
(lp8
(lp9
S'available'
p10
aa(lp11
S'affordable'
p12
aa(lp13
S'accessible'
p14
aasS'raw'
p15
(dp16
S'prob*'
p17
cnumpy.core.multiarray
scalar
p18
(cnumpy
dtype
p19
(S'f8'
p20
I0
I1
tp21
Rp22
(I3
S'<'
p23
NNNI-1
I-1
I0
tp24
bS'\xb3\x8b4\x9djK\xd2?'
p25
tp26
Rp27
sS'link-probs'
p28
(lp29
(g10
g14
F0.6
tp30
a(g10
g12
F0.8333333333333334
tp31
a(g14
g12
F0.5717061109938782
tp32
assg3
F0.6666666666666666
sS'algo'
p33
(lp34
(lp35
g10
aa(lp36
g14
aa(lp37
g12
aasg2
F0.3333333333333333
ssI1
(dp38
g1
F1.0
sg7
(lp39
(lp40
S'young'
p41
aa(lp42
S'female'
p43
aasg15
(dp44
g17
g18
(g22
S'\xbf\x13G\xcdfH\xe0?'
p45
tp46
Rp47
sg28
(lp48
(g41
g43
F0.5088380822495465
tp49
assg3
F1.0
sg33
(lp50
(lp51
g41
aa(lp52
g43
aasg2
F1.0
ssI2
(dp53
g1
F-1.0
sg7
(lp54
(lp55
S'busy'
p56
aa(lp57
S'crowded'
p58
aasg15
(dp59
g17
g18
(g22
S'k\xe7\x08J\xc2\xaf\xe3?'
p60
tp61
Rp62
sg28
(lp63
(g58
g56
F0.6152049489967174
tp64
assg3
F0.0
sg33
(lp65
(lp66
g58
aa(lp67
g56
aasg2
F1.0
sss.