(dp0
S'tau'
p1
F0.6
sS'|tau|'
p2
F0.6
sS'pairwise'
p3
F0.8
sS'ranking'
p4
(dp5
I0
(dp6
g1
F0.6
sS'gold'
p7
(lp8
(lp9
S'available'
p10
aa(lp11
S'ready'
p12
aa(lp13
S'able'
p14
aa(lp15
S'open'
p16
aa(lp17
S'free'
p18
aasS'raw'
p19
(dp20
S'prob*'
p21
cnumpy.core.multiarray
scalar
p22
(cnumpy
dtype
p23
(S'f8'
p24
I0
I1
tp25
Rp26
(I3
S'<'
p27
NNNI-1
I-1
I0
tp28
bS'\xd1V3|<\x14\x80?'
p29
tp30
Rp31
sS'link-probs'
p32
(lp33
(g10
g12
F0.6666666666666666
tp34
a(g10
g16
F0.8333333333333334
tp35
a(g10
g18
F0.6666666666666666
tp36
a(g10
g14
F0.6179244628844379
tp37
a(g12
g16
F0.5101713729565969
tp38
a(g12
g18
F0.5308019698821892
tp39
a(g12
g14
F0.6302860254283237
tp40
a(g16
g18
F0.5208659384123924
tp41
a(g16
g14
F0.6261320014949536
tp42
a(g18
g14
F0.6162835905661878
tp43
assg3
F0.8
sS'algo'
p44
(lp45
(lp46
g10
aa(lp47
g12
aa(lp48
g16
aa(lp49
g18
aa(lp50
g14
aasg2
F0.6
sss.