(dp0
I0
(lp1
(S'small'
p2
S'miniscule'
p3
tp4
a(S'minute'
p5
g3
tp6
asI1
(lp7
(S'upset'
p8
S'enraged'
p9
tp10
a(S'angry'
p11
g9
tp12
asI2
(lp13
(S'positive'
p14
S'terrific'
p15
tp16
asI3
(lp17
(S'valuable'
p18
S'immeasurable'
p19
tp20
asI4
(lp21
(S'useful'
p22
S'worthwhile'
p23
tp24
a(g23
S'valuable'
p25
tp26
asI5
(lp27
(S'functioning'
p28
S'efficient'
p29
tp30
asI6
(lp31
(S'low'
p32
S'scarce'
p33
tp34
a(S'limited'
p35
g33
tp36
a(g32
g35
tp37
asI7
(lp38
(S'pretty'
p39
S'lovely'
p40
tp41
a(g39
S'lovelier'
p42
tp43
a(S'cute'
p44
g39
tp45
a(g39
S'breathtaking'
p46
tp47
a(g40
g42
tp48
a(g44
g40
tp49
a(g40
g46
tp50
a(g44
g42
tp51
a(g42
g46
tp52
a(g44
g46
tp53
asI8
(lp54
(S'expensive'
p55
S'exorbitant'
p56
tp57
a(S'costly'
p58
g55
tp59
a(g58
g56
tp60
asI9
(lp61
(S'lousy'
p62
S'miserable'
p63
tp64
a(g63
S'horrible'
p65
tp66
a(g62
g65
tp67
asI10
(lp68
(S'fine'
p69
S'adequate'
p70
tp71
asI11
(lp72
(S'bad'
p73
S'ludicrous'
p74
tp75
asI13
(lp76
(S'fine'
p77
S'satisfactory'
p78
tp79
a(g78
S'excellent'
p80
tp81
a(g77
g80
tp82
asI14
(lp83
(S'uncomfortable'
p84
S'embarrassing'
p85
tp86
asI15
(lp87
(S'substantial'
p88
S'tremendous'
p89
tp90
a(S'staggering'
p91
g89
tp92
a(S'big'
p93
g89
tp94
a(g88
g91
tp95
a(g93
g88
tp96
a(g93
g91
tp97
asI16
(lp98
(S'precise'
p99
S'exact'
p100
tp101
a(S'clear'
p102
g99
tp103
a(g102
g100
tp104
a(S'accurate'
p105
g100
tp106
a(g102
g105
tp107
asI17
(lp108
(S'pleased'
p109
S'overwhelmed'
p110
tp111
a(g109
S'happy'
p112
tp113
a(g109
S'excited'
p114
tp115
a(g109
S'delighted'
p116
tp117
a(g112
g110
tp118
a(g114
g110
tp119
a(g116
g110
tp120
a(g112
g114
tp121
a(g112
g116
tp122
a(g114
g116
tp123
asI18
(lp124
(S'horrific'
p125
S'horrendous'
p126
tp127
a(S'bad'
p128
g125
tp129
a(g128
g126
tp130
asI19
(lp131
(S'qualified'
p132
S'outstanding'
p133
tp134
a(g132
S'excellent'
p135
tp136
a(g135
g133
tp137
asI21
(lp138
(S'fine'
p139
S'remarkable'
p140
tp141
a(g140
S'spectacular'
p142
tp143
asI22
(lp144
(S'fine'
p145
S'okay'
p146
tp147
a(g146
S'faultless'
p148
tp149
a(g146
S'appropriate'
p150
tp151
a(S'a-okay'
p152
g146
tp153
a(g145
S'perfect'
p154
tp155
a(g148
g154
tp156
a(g150
g154
tp157
a(g152
g154
tp158
a(g145
g148
tp159
a(g145
g150
tp160
a(g152
g145
tp161
a(g150
g148
tp162
a(g152
g148
tp163
a(g152
g150
tp164
asI23
(lp165
(S'graver'
p166
S'life-threatening'
p167
tp168
a(S'critical'
p169
g167
tp170
a(g166
g169
tp171
asI25
(lp172
(S'unfortunate'
p173
S'reprehensible'
p174
tp175
asI26
(lp176
(S'plenty'
p177
S'vast'
p178
tp179
a(g178
S'abundant'
p180
tp181
a(g177
g180
tp182
asI27
(lp183
(S'pleased'
p184
S'delighted'
p185
tp186
asI28
(lp187
(S'uncomfortable'
p188
S'embarrassed'
p189
tp190
asI29
(lp191
(S'efficient'
p192
S'optimum'
p193
tp194
asI30
(lp195
(S'fine'
p196
S'satisfactory'
p197
tp198
a(g197
S'excellent'
p199
tp200
a(S'appropriate'
p201
g197
tp202
a(g196
g199
tp203
a(g201
g196
tp204
a(g201
g199
tp205
asI31
(lp206
(S'clear'
p207
S'prominent'
p208
tp209
asI32
(lp210
(S'tough'
p211
S'formidable'
p212
tp213
a(g211
S'daunting'
p214
tp215
a(g212
g214
tp216
asI33
(lp217
(S'proficient'
p218
S'skilled'
p219
tp220
a(S'capable'
p221
g219
tp222
a(S'qualified'
p223
g218
tp224
a(g221
g223
tp225
a(g221
g218
tp226
asI34
(lp227
(S'okay'
p228
S'terrific'
p229
tp230
a(S'marvelous'
p231
g229
tp232
a(S'incredible'
p233
g229
tp234
a(S'awesome'
p235
g229
tp236
a(g228
g231
tp237
a(g228
g233
tp238
a(g228
g235
tp239
a(g233
g231
tp240
a(g235
g231
tp241
a(g235
g233
tp242
asI35
(lp243
(S'awful'
p244
S'shitty'
p245
tp246
asI36
(lp247
(S'content'
p248
S'satisfied'
p249
tp250
asI37
(lp251
(S'fine'
p252
S'fitting'
p253
tp254
a(g253
S'good'
p255
tp256
a(S'adequate'
p257
g253
tp258
a(g257
g252
tp259
asI38
(lp260
(S'poor'
p261
S'indigent'
p262
tp263
a(g261
S'bankrupt'
p264
tp265
a(g262
g264
tp266
asI39
(lp267
(S'pretty'
p268
S'marvellous'
p269
tp270
a(g268
S'breathtaking'
p271
tp272
a(g269
S'spectacular'
p273
tp274
a(g271
g273
tp275
a(g271
g269
tp276
asI40
(lp277
(S'considerable'
p278
S'abundant'
p279
tp280
asI41
(lp281
(S'remarkable'
p282
S'impressive'
p283
tp284
a(S'fine'
p285
g282
tp286
a(g285
g283
tp287
asI42
(lp288
(S'fine'
p289
S'upstanding'
p290
tp291
a(S'admirable'
p292
g290
tp293
a(g289
g292
tp294
asI43
(lp295
(S'bad'
p296
S'distressing'
p297
tp298
asI44
(lp299
(S'much'
p300
S'huge'
p301
tp302
a(g300
S'excessive'
p303
tp304
a(g303
g301
tp305
asI45
(lp306
(S'scary'
p307
S'terrifying'
p308
tp309
asI46
(lp310
(S'tough'
p311
S'stringent'
p312
tp313
a(g311
S'severe'
p314
tp315
a(g311
S'rigorous'
p316
tp317
a(S'tougher'
p318
g312
tp319
a(g318
g314
tp320
a(g318
g316
tp321
a(g312
g314
tp322
a(g316
g312
tp323
a(g316
g314
tp324
asI47
(lp325
(S'low'
p326
S'scarce'
p327
tp328
a(S'limited'
p329
g327
tp330
a(g326
g329
tp331
asI48
(lp332
(S'better'
p333
S'exceptional'
p334
tp335
a(g334
S'perfect'
p336
tp337
a(S'remarkable'
p338
g334
tp339
a(g333
g338
tp340
a(g338
g336
tp341
asI49
(lp342
(S'little'
p343
S'least'
p344
tp345
a(S'few'
p346
g343
tp347
a(g346
g344
tp348
asI50
(lp349
(S'sad'
p350
S'unhappy'
p351
tp352
a(g351
S'miserable'
p353
tp354
a(g350
g353
tp355
asI51
(lp356
(S'competent'
p357
S'impressive'
p358
tp359
asI52
(lp360
(S'relevant'
p361
S'crucial'
p362
tp363
asI53
(lp364
(S'effective'
p365
S'potent'
p366
tp367
asI54
(lp368
(S'general'
p369
S'wide-ranging'
p370
tp371
a(g370
S'diverse'
p372
tp373
a(S'broader'
p374
g370
tp375
a(S'broad'
p376
g370
tp377
a(g369
g372
tp378
a(g369
g374
tp379
a(g369
g376
tp380
a(g374
g372
tp381
a(g376
g372
tp382
a(g376
g374
tp383
asI55
(lp384
(S'expensive'
p385
S'exorbitant'
p386
tp387
a(g385
S'excessive'
p388
tp389
a(S'costly'
p390
g385
tp391
a(g388
g386
tp392
a(g390
g386
tp393
a(g390
g388
tp394
asI56
(lp395
(S'substantial'
p396
S'tremendous'
p397
tp398
a(S'staggering'
p399
g397
tp400
a(S'major'
p401
g397
tp402
a(S'big'
p403
g397
tp404
a(g396
g399
tp405
a(g401
g396
tp406
a(g403
g396
tp407
a(g401
g399
tp408
a(g403
g399
tp409
a(g403
g401
tp410
asI57
(lp411
(S'sizeable'
p412
S'tremendous'
p413
tp414
a(S'major'
p415
g413
tp416
a(S'immense'
p417
g413
tp418
a(S'huge'
p419
g413
tp420
a(S'overwhelming'
p421
g413
tp422
a(S'formidable'
p423
g413
tp424
a(S'colossal'
p425
g413
tp426
a(g412
g415
tp427
a(g412
g417
tp428
a(g412
g421
tp429
a(g412
g423
tp430
a(g412
g425
tp431
a(g415
g417
tp432
a(g419
g415
tp433
a(g415
g421
tp434
a(g415
g423
tp435
a(g415
g425
tp436
a(g419
g417
tp437
a(g417
g421
tp438
a(g423
g417
tp439
a(g417
g425
tp440
a(g419
g423
tp441
a(g423
g421
tp442
a(g425
g421
tp443
a(g423
g425
tp444
asI58
(lp445
(S'well'
p446
S'terrific'
p447
tp448
a(S'fine'
p449
g446
tp450
a(g446
S'awesome'
p451
tp452
a(g449
g447
tp453
a(g451
g447
tp454
a(g447
S'perfect'
p455
tp456
a(g449
g451
tp457
a(g449
g455
tp458
asI59
(lp459
(S'little'
p460
S'feeble'
p461
tp462
asI60
(lp463
(S'poor'
p464
S'unsatisfactory'
p465
tp466
a(S'incorrect'
p467
g465
tp468
a(S'improper'
p469
g465
tp470
a(g464
g467
tp471
a(g469
g464
tp472
a(g469
g467
tp473
asI62
(lp474
(S'sizeable'
p475
S'tremendous'
p476
tp477
a(S'immense'
p478
g476
tp479
a(S'enormous'
p480
g476
tp481
a(S'big'
p482
g476
tp483
a(S'huge'
p484
g476
tp485
a(g475
g478
tp486
a(g475
g480
tp487
a(g475
g482
tp488
a(g480
g478
tp489
a(g482
g478
tp490
a(g484
g478
tp491
a(g482
g480
tp492
a(g484
g480
tp493
asI63
(lp494
(S'weak'
p495
S'vulnerable'
p496
tp497
a(g495
S'shaky'
p498
tp499
a(g498
g496
tp500
asI64
(lp501
(S'meagre'
p502
S'scant'
p503
tp504
a(S'limited'
p505
g503
tp506
a(S'few'
p507
g503
tp508
a(g505
g502
tp509
a(g507
g502
tp510
a(g507
g505
tp511
asI65
(lp512
(S'small'
p513
S'miniscule'
p514
tp515
a(S'minute'
p516
g514
tp517
asI66
(lp518
(S'general'
p519
S'global'
p520
tp521
a(S'universal'
p522
g520
tp523
a(S'comprehensive'
p524
g520
tp525
a(S'commonplace'
p526
g520
tp527
a(g519
g524
tp528
a(g526
g519
tp529
a(g524
g522
tp530
a(g526
g522
tp531
a(g526
g524
tp532
asI67
(lp533
(S'awful'
p534
S'dreadful'
p535
tp536
asI68
(lp537
(S'scarce'
p538
S'unacceptable'
p539
tp540
a(S'low'
p541
g539
tp542
a(S'inadequate'
p543
g539
tp544
a(g541
g538
tp545
a(g538
g543
tp546
a(g541
g543
tp547
asI69
(lp548
(S'little'
p549
S'tiny'
p550
tp551
asI70
(lp552
(S'tenacious'
p553
S'tough'
p554
tp555
a(S'hardworking'
p556
g554
tp557
a(g556
g553
tp558
asI71
(lp559
(S'cute'
p560
S'gorgeous'
p561
tp562
asI72
(lp563
(S'known'
p564
S'noteworthy'
p565
tp566
a(S'celebrated'
p567
g565
tp568
a(g564
g567
tp569
asI73
(lp570
(S'intact'
p571
S'sturdy'
p572
tp573
asI74
(lp574
(S'extensive'
p575
S'vast'
p576
tp577
a(S'big'
p578
g576
tp579
a(g578
g575
tp580
asI75
(lp581
(S'hard'
p582
S'problematic'
p583
tp584
asI76
(lp585
(S'annoying'
p586
S'obnoxious'
p587
tp588
asI77
(lp589
(S'sad'
p590
S'terrible'
p591
tp592
a(S'miserable'
p593
g591
tp594
a(g590
g593
tp595
asI78
(lp596
(S'fairer'
p597
S'fairest'
p598
tp599
a(S'fair'
p600
g598
tp601
a(g598
S'beautiful'
p602
tp603
a(g600
g597
tp604
a(g597
g602
tp605
a(g600
g602
tp606
as.