(dp0
I1
(lp1
(S'mean'
p2
S'meaner'
p3
tp4
asI3
(lp5
(S'pure'
p6
S'purer'
p7
tp8
asI4
(lp9
(S'bold'
p10
S'bolder'
p11
tp12
asI5
(lp13
(S'stark'
p14
S'starker'
p15
tp16
asI8
(lp17
(S'smooth'
p18
S'smoother'
p19
tp20
asI9
(lp21
(S'many'
p22
S'more'
p23
tp24
asI14
(lp25
(S'light'
p26
S'lighter'
p27
tp28
asI16
(lp29
(S'dre'
p30
S'drier'
p31
tp32
asI17
(lp33
(S'some'
p34
S'more'
p35
tp36
asI18
(lp37
(S'less'
p38
S'lesser'
p39
tp40
asI19
(lp41
(S'holy'
p42
S'holier'
p43
tp44
asI20
(lp45
(S'stupid'
p46
S'stupider'
p47
tp48
asI24
(lp49
(S'stupide'
p50
S'stupider'
p51
tp52
asI25
(lp53
(S'narrow'
p54
S'narrower'
p55
tp56
asI27
(lp57
(S'sick'
p58
S'sicker'
p59
tp60
asI28
(lp61
(S'grave'
p62
S'graver'
p63
tp64
asI29
(lp65
(S'lovely'
p66
S'lovelier'
p67
tp68
asI30
(lp69
(S'subtle'
p70
S'subtler'
p71
tp72
asI31
(lp73
(S'east'
p74
S'easier'
p75
tp76
asI33
(lp77
(S'sweet'
p78
S'sweeter'
p79
tp80
asI38
(lp81
(S'lucky'
p82
S'luckier'
p83
tp84
asI39
(lp85
(S'new'
p86
S'newer'
p87
tp88
asI42
(lp89
(S'costly'
p90
S'costlier'
p91
tp92
asI43
(lp93
(S'scarce'
p94
S'scarcer'
p95
tp96
asI45
(lp97
(S'up'
p98
S'upper'
p99
tp100
asI46
(lp101
(S'dirty'
p102
S'dirtier'
p103
tp104
asI49
(lp105
(S'sure'
p106
S'surer'
p107
tp108
asI52
(lp109
(S'brave'
p110
S'braver'
p111
tp112
asI53
(lp113
(S'proud'
p114
S'prouder'
p115
tp116
asI54
(lp117
(S'clean'
p118
S'cleaner'
p119
tp120
asI56
(lp121
(S'noble'
p122
S'nobler'
p123
tp124
asI59
(lp125
(S'moist'
p126
S'moister'
p127
tp128
asI60
(lp129
(S'weird'
p130
S'weirder'
p131
tp132
asI61
(lp133
(S'wise'
p134
S'wiser'
p135
tp136
asI62
(lp137
(S'sound'
p138
S'sounder'
p139
tp140
asI63
(lp141
(S'soft'
p142
S'softer'
p143
tp144
asI64
(lp145
(S'mighty'
p146
S'mightier'
p147
tp148
asI68
(lp149
(S'broad'
p150
S'broader'
p151
tp152
asI71
(lp153
(S'timely'
p154
S'timelier'
p155
tp156
asI72
(lp157
(S'soon'
p158
S'sooner'
p159
tp160
asI74
(lp161
(S'sunny'
p162
S'sunnier'
p163
tp164
asI75
(lp165
(S'dumb'
p166
S'dumber'
p167
tp168
asI76
(lp169
(S'fine'
p170
S'finer'
p171
tp172
asI79
(lp173
(S'grim'
p174
S'grimmer'
p175
tp176
asI80
(lp177
(S'sad'
p178
S'sadder'
p179
tp180
asI81
(lp181
(S'late'
p182
S'later'
p183
tp184
asI84
(lp185
(S'tight'
p186
S'tighter'
p187
tp188
asI86
(lp189
(S'wealthy'
p190
S'wealthier'
p191
tp192
asI89
(lp193
(S'dead'
p194
S'deader'
p195
tp196
asI91
(lp197
(S'steep'
p198
S'steeper'
p199
tp200
asI93
(lp201
(S'strict'
p202
S'stricter'
p203
tp204
asI95
(lp205
(S'ill'
p206
S'worse'
p207
tp208
asI97
(lp209
(S'loose'
p210
S'looser'
p211
tp212
asI99
(lp213
(S'green'
p214
S'greener'
p215
tp216
asI100
(lp217
(S'wet'
p218
S'wetter'
p219
tp220
asI101
(lp221
(S'dense'
p222
S'denser'
p223
tp224
asI102
(lp225
(S'fair'
p226
S'fairer'
p227
tp228
asI104
(lp229
(S'friendly'
p230
S'friendlier'
p231
tp232
asI105
(lp233
(S'swift'
p234
S'swifter'
p235
tp236
asI106
(lp237
(S'dark'
p238
S'darker'
p239
tp240
asI108
(lp241
(S'full'
p242
S'fuller'
p243
tp244
asI109
(lp245
(S'thick'
p246
S'thicker'
p247
tp248
asI110
(lp249
(S'fierce'
p250
S'fiercer'
p251
tp252
asI112
(lp253
(S'speedy'
p254
S'speedier'
p255
tp256
asI113
(lp257
(S'early'
p258
S'earlier'
p259
tp260
asI114
(lp261
(S'dear'
p262
S'dearer'
p263
tp264
asI116
(lp265
(S'lengthy'
p266
S'lengthier'
p267
tp268
asI117
(lp269
(S'sharp'
p270
S'sharper'
p271
tp272
asI119
(lp273
(S'well'
p274
S'better'
p275
tp276
asI121
(lp277
(S'funny'
p278
S'funnier'
p279
tp280
asI122
(lp281
(S'mild'
p282
S'milder'
p283
tp284
asI123
(lp285
(S'firm'
p286
S'firmer'
p287
tp288
asI124
(lp289
(S'slim'
p290
S'slimmer'
p291
tp292
asI126
(lp293
(S'fat'
p294
S'fatter'
p295
tp296
asI127
(lp297
(S'free'
p298
S'freer'
p299
tp300
asI128
(lp301
(S'dry'
p302
S'drier'
p303
tp304
asI129
(lp305
(S'cute'
p306
S'cuter'
p307
tp308
asI130
(lp309
(S'clever'
p310
S'cleverer'
p311
tp312
asI132
(lp313
(S'longer'
p314
S'longest'
p315
tp316
asI133
(lp317
(S'harder'
p318
S'hardest'
p319
tp320
asI134
(lp321
(S'broader'
p322
S'broadest'
p323
tp324
asI135
(lp325
(S'deeper'
p326
S'deepest'
p327
tp328
asI136
(lp329
(S'older'
p330
S'oldest'
p331
tp332
asI137
(lp333
(S'lower'
p334
S'lowest'
p335
tp336
asI138
(lp337
(S'weaker'
p338
S'weakest'
p339
tp340
asI139
(lp341
(S'smaller'
p342
S'smallest'
p343
tp344
asI140
(lp345
(S'further'
p346
S'furthest'
p347
tp348
asI141
(lp349
(S'larger'
p350
S'largest'
p351
tp352
asI142
(lp353
(S'fairer'
p354
S'fairest'
p355
tp356
asI143
(lp357
(S'greater'
p358
S'greatest'
p359
tp360
asI144
(lp361
(S'closer'
p362
S'closest'
p363
tp364
asI145
(lp365
(S'rarer'
p366
S'rarest'
p367
tp368
asI146
(lp369
(S'richer'
p370
S'richest'
p371
tp372
asI147
(lp373
(S'brighter'
p374
S'brightest'
p375
tp376
asI148
(lp377
(S'wider'
p378
S'widest'
p379
tp380
asI149
(lp381
(S'shorter'
p382
S'shortest'
p383
tp384
asI150
(lp385
(S'cleaner'
p386
S'cleanest'
p387
tp388
asI151
(lp389
(S'braver'
p390
S'bravest'
p391
tp392
asI152
(lp393
(S'stronger'
p394
S'strongest'
p395
tp396
asI153
(lp397
(S'heavier'
p398
S'heaviest'
p399
tp400
asI154
(lp401
(S'cheaper'
p402
S'cheapest'
p403
tp404
asI155
(lp405
(S'happier'
p406
S'happiest'
p407
tp408
asI156
(lp409
(S'later'
p410
S'latest'
p411
tp412
asI157
(lp413
(S'smarter'
p414
S'smartest'
p415
tp416
asI158
(lp417
(S'simpler'
p418
S'simplest'
p419
tp420
asI159
(lp421
(S'easier'
p422
S'easiest'
p423
tp424
asI160
(lp425
(S'less'
p426
S'least'
p427
tp428
asI161
(lp429
(S'higher'
p430
S'highest'
p431
tp432
asI162
(lp433
(S'clearer'
p434
S'clearest'
p435
tp436
asI163
(lp437
(S'darker'
p438
S'darkest'
p439
tp440
asI164
(lp441
(S'quicker'
p442
S'quickest'
p443
tp444
asI165
(lp445
(S'poorer'
p446
S'poorest'
p447
tp448
asI166
(lp449
(S'graver'
p450
S'gravest'
p451
tp452
asI167
(lp453
(S'bigger'
p454
S'biggest'
p455
tp456
asI168
(lp457
(S'safer'
p458
S'safest'
p459
tp460
asI170
(lp461
(S'earlier'
p462
S'earliest'
p463
tp464
asI171
(lp465
(S'fuller'
p466
S'fullest'
p467
tp468
asI172
(lp469
(S'warmer'
p470
S'warmest'
p471
tp472
asI173
(lp473
(S'wealthier'
p474
S'wealthiest'
p475
tp476
asI174
(lp477
(S'faster'
p478
S'fastest'
p479
tp480
asI175
(lp481
(S'freer'
p482
S'freest'
p483
tp484
asI176
(lp485
(S'newer'
p486
S'newest'
p487
tp488
asI177
(lp489
(S'finer'
p490
S'finest'
p491
tp492
asI178
(lp493
(S'stricter'
p494
S'strictest'
p495
tp496
asI179
(lp497
(S'clear'
p498
S'clearest'
p499
tp500
asI180
(lp501
(S'long'
p502
S'longest'
p503
tp504
asI181
(lp505
(S'fair'
p506
S'fairest'
p507
tp508
asI183
(lp509
(S'safe'
p510
S'safest'
p511
tp512
asI184
(lp513
(S'small'
p514
S'smallest'
p515
tp516
asI185
(lp517
(S'old'
p518
S'oldest'
p519
tp520
asI186
(lp521
(S'fine'
p522
S'finest'
p523
tp524
asI187
(lp525
(S'wide'
p526
S'widest'
p527
tp528
asI188
(lp529
(S'ill'
p530
S'worst'
p531
tp532
asI189
(lp533
(S'free'
p534
S'freest'
p535
tp536
asI190
(lp537
(S'bright'
p538
S'brightest'
p539
tp540
asI191
(lp541
(S'little'
p542
S'least'
p543
tp544
asI192
(lp545
(S'short'
p546
S'shortest'
p547
tp548
asI193
(lp549
(S'grave'
p550
S'gravest'
p551
tp552
asI194
(lp553
(S'heavy'
p554
S'heaviest'
p555
tp556
asI195
(lp557
(S'cheap'
p558
S'cheapest'
p559
tp560
asI197
(lp561
(S'close'
p562
S'closest'
p563
tp564
asI198
(lp565
(S'dark'
p566
S'darkest'
p567
tp568
asI199
(lp569
(S'weak'
p570
S'weakest'
p571
tp572
asI200
(lp573
(S'broad'
p574
S'broadest'
p575
tp576
asI201
(lp577
(S'easy'
p578
S'easiest'
p579
tp580
asI202
(lp581
(S'brave'
p582
S'bravest'
p583
tp584
asI203
(lp585
(S'late'
p586
S'latest'
p587
tp588
asI204
(lp589
(S'quick'
p590
S'quickest'
p591
tp592
asI205
(lp593
(S'big'
p594
S'biggest'
p595
tp596
asI206
(lp597
(S'new'
p598
S'newest'
p599
tp600
asI207
(lp601
(S'far'
p602
S'furthest'
p603
tp604
asI209
(lp605
(S'large'
p606
S'largest'
p607
tp608
asI210
(lp609
(S'poor'
p610
S'poorest'
p611
tp612
asI211
(lp613
(S'cruel'
p614
S'cruellest'
p615
tp616
asI213
(lp617
(S'deep'
p618
S'deepest'
p619
tp620
asI214
(lp621
(S'full'
p622
S'fullest'
p623
tp624
asI215
(lp625
(S'smart'
p626
S'smartest'
p627
tp628
asI217
(lp629
(S'strict'
p630
S'strictest'
p631
tp632
asI219
(lp633
(S'wealthy'
p634
S'wealthiest'
p635
tp636
asI220
(lp637
(S'rich'
p638
S'richest'
p639
tp640
asI221
(lp641
(S'rare'
p642
S'rarest'
p643
tp644
asI223
(lp645
(S'low'
p646
S'lowest'
p647
tp648
asI224
(lp649
(S'simple'
p650
S'simplest'
p651
tp652
asI225
(lp653
(S'clean'
p654
S'cleanest'
p655
tp656
asI226
(lp657
(S'happy'
p658
S'happiest'
p659
tp660
asI227
(lp661
(S'hard'
p662
S'hardest'
p663
tp664
asI228
(lp665
(S'well'
p666
S'best'
p667
tp668
asI229
(lp669
(S'early'
p670
S'earliest'
p671
tp672
asI231
(lp673
(S'some'
p674
S'most'
p675
tp676
asI232
(lp677
(S'hon'
p678
S'honest'
p679
tp680
asI233
(lp681
(S'warm'
p682
S'warmest'
p683
tp684
asI234
(lp685
(S'young'
p686
S'youngest'
p687
tp688
asI236
(lp689
(S'near'
p690
S'nearest'
p691
tp692
asI237
(lp693
(S'east'
p694
S'easiest'
p695
tp696
asI238
(lp697
(S'little'
p698
S'least'
p699
tp700
a(S'less'
p701
g699
tp702
asI239
(lp703
(S'broader'
p704
S'broadest'
p705
tp706
a(S'broad'
p707
g705
tp708
a(g707
g704
tp709
asI240
(lp710
(S'graver'
p711
S'gravest'
p712
tp713
a(S'grave'
p714
g712
tp715
a(g714
g711
tp716
asI241
(lp717
(S'bright'
p718
S'brightest'
p719
tp720
a(S'brighter'
p721
g719
tp722
asI242
(lp723
(S'heavy'
p724
S'heaviest'
p725
tp726
a(S'heavier'
p727
g725
tp728
asI243
(lp729
(S'east'
p730
S'easiest'
p731
tp732
a(g730
S'easier'
p733
tp734
a(g733
g731
tp735
asI244
(lp736
(S'small'
p737
S'smallest'
p738
tp739
a(S'smaller'
p740
g738
tp741
asI245
(lp742
(S'finer'
p743
S'finest'
p744
tp745
a(S'fine'
p746
g744
tp747
a(g746
g743
tp748
asI246
(lp749
(S'smart'
p750
S'smartest'
p751
tp752
a(S'smarter'
p753
g751
tp754
asI247
(lp755
(S'cheap'
p756
S'cheapest'
p757
tp758
a(S'cheaper'
p759
g757
tp760
asI248
(lp761
(S'big'
p762
S'biggest'
p763
tp764
a(S'bigger'
p765
g763
tp766
asI249
(lp767
(S'warm'
p768
S'warmest'
p769
tp770
a(S'warmer'
p771
g769
tp772
asI250
(lp773
(S'far'
p774
S'furthest'
p775
tp776
a(S'further'
p777
g775
tp778
asI251
(lp779
(S'close'
p780
S'closest'
p781
tp782
a(S'closer'
p783
g781
tp784
asI252
(lp785
(S'freer'
p786
S'freest'
p787
tp788
a(S'free'
p789
g787
tp790
a(g789
g786
tp791
asI253
(lp792
(S'poor'
p793
S'poorest'
p794
tp795
a(S'poorer'
p796
g794
tp797
asI254
(lp798
(S'rare'
p799
S'rarest'
p800
tp801
a(S'rarer'
p802
g800
tp803
asI255
(lp804
(S'safe'
p805
S'safest'
p806
tp807
a(S'safer'
p808
g806
tp809
asI256
(lp810
(S'simple'
p811
S'simplest'
p812
tp813
a(S'simpler'
p814
g812
tp815
asI257
(lp816
(S'large'
p817
S'largest'
p818
tp819
a(S'larger'
p820
g818
tp821
asI258
(lp822
(S'greater'
p823
S'greatest'
p824
tp825
asI259
(lp826
(S'later'
p827
S'latest'
p828
tp829
a(S'late'
p830
g828
tp831
a(g830
g827
tp832
asI260
(lp833
(S'darker'
p834
S'darkest'
p835
tp836
a(S'dark'
p837
g835
tp838
a(g837
g834
tp839
asI261
(lp840
(S'quick'
p841
S'quickest'
p842
tp843
a(S'quicker'
p844
g842
tp845
asI262
(lp846
(S'wide'
p847
S'widest'
p848
tp849
a(S'wider'
p850
g848
tp851
asI263
(lp852
(S'fuller'
p853
S'fullest'
p854
tp855
a(S'full'
p856
g854
tp857
a(g856
g853
tp858
asI264
(lp859
(S'deep'
p860
S'deepest'
p861
tp862
a(S'deeper'
p863
g861
tp864
asI265
(lp865
(S'young'
p866
S'youngest'
p867
tp868
asI266
(lp869
(S'wealthy'
p870
S'wealthiest'
p871
tp872
a(g870
S'wealthier'
p873
tp874
a(g873
g871
tp875
asI267
(lp876
(S'newer'
p877
S'newest'
p878
tp879
a(S'new'
p880
g878
tp881
a(g880
g877
tp882
asI268
(lp883
(S'long'
p884
S'longest'
p885
tp886
a(S'longer'
p887
g885
tp888
asI269
(lp889
(S'braver'
p890
S'bravest'
p891
tp892
a(S'brave'
p893
g891
tp894
a(g893
g890
tp895
asI270
(lp896
(S'hard'
p897
S'hardest'
p898
tp899
a(S'harder'
p900
g898
tp901
asI271
(lp902
(S'rich'
p903
S'richest'
p904
tp905
a(S'richer'
p906
g904
tp907
asI272
(lp908
(S'stricter'
p909
S'strictest'
p910
tp911
a(S'strict'
p912
g910
tp913
a(g912
g909
tp914
asI273
(lp915
(S'cleaner'
p916
S'cleanest'
p917
tp918
a(S'clean'
p919
g917
tp920
a(g919
g916
tp921
asI274
(lp922
(S'weak'
p923
S'weakest'
p924
tp925
a(S'weaker'
p926
g924
tp927
asI275
(lp928
(S'fairer'
p929
S'fairest'
p930
tp931
a(S'fair'
p932
g930
tp933
a(g932
g929
tp934
asI276
(lp935
(S'short'
p936
S'shortest'
p937
tp938
a(S'shorter'
p939
g937
tp940
asI277
(lp941
(S'higher'
p942
S'highest'
p943
tp944
asI278
(lp945
(S'early'
p946
S'earliest'
p947
tp948
a(g946
S'earlier'
p949
tp950
a(g949
g947
tp951
asI279
(lp952
(S'clear'
p953
S'clearest'
p954
tp955
a(S'clearer'
p956
g954
tp957
asI280
(lp958
(S'low'
p959
S'lowest'
p960
tp961
a(S'lower'
p962
g960
tp963
asI281
(lp964
(S'happy'
p965
S'happiest'
p966
tp967
a(S'happier'
p968
g966
tp969
asI282
(lp970
(S'faster'
p971
S'fastest'
p972
tp973
asI283
(lp974
(S'old'
p975
S'oldest'
p976
tp977
a(S'older'
p978
g976
tp979
asI284
(lp980
(S'stronger'
p981
S'strongest'
p982
tp983
as.