(dp0
I0
(lp1
(S'third'
p2
S'sixth'
p3
tp4
a(g2
S'seventh'
p5
tp6
a(S'second'
p7
g2
tp8
a(g2
S'fourth'
p9
tp10
a(S'first'
p11
g2
tp12
a(g2
S'fifth'
p13
tp14
a(g2
S'eighth'
p15
tp16
a(g3
g5
tp17
a(g7
g3
tp18
a(g9
g3
tp19
a(g11
g3
tp20
a(g13
g3
tp21
a(g3
g15
tp22
a(g7
g5
tp23
a(g9
g5
tp24
a(g11
g5
tp25
a(g13
g5
tp26
a(g5
g15
tp27
a(g7
g9
tp28
a(g11
g7
tp29
a(g7
g13
tp30
a(g7
g15
tp31
a(g11
g9
tp32
a(g9
g13
tp33
a(g9
g15
tp34
a(g11
g13
tp35
a(g11
g15
tp36
a(g13
g15
tp37
asI1
(lp38
(S'known'
p39
S'legendary'
p40
tp41
a(S'famous'
p42
g40
tp43
asI2
(lp44
(S'dim'
p45
S'dark'
p46
tp47
a(g45
S'gloomy'
p48
tp49
a(g45
S'black'
p50
tp51
a(g46
g50
tp52
a(g48
g50
tp53
asI3
(lp54
(S'close'
p55
S'intimate'
p56
tp57
a(S'near'
p58
g56
tp59
asI4
(lp60
(S'nearby'
p61
S'close'
p62
tp63
a(g61
S'adjacent'
p64
tp65
a(g62
g64
tp66
a(S'near'
p67
g64
tp68
asI5
(lp69
(S'sufficient'
p70
S'wide'
p71
tp72
a(S'good'
p73
g71
tp74
a(g71
S'full'
p75
tp76
a(g70
g73
tp77
a(g70
g75
tp78
a(g73
g75
tp79
asI6
(lp80
(S'real'
p81
S'solemn'
p82
tp83
a(g82
S'serious'
p84
tp85
a(g82
S'grave'
p86
tp87
asI7
(lp88
(S'interesting'
p89
S'amusing'
p90
tp91
a(g89
S'entertaining'
p92
tp93
a(g90
S'fascinating'
p94
tp95
a(g92
g94
tp96
a(S'intriguing'
p97
g90
tp98
a(g97
g92
tp99
a(g92
S'exciting'
p100
tp101
asI8
(lp102
(S'further'
p103
S'removed'
p104
tp105
a(S'farther'
p106
g104
tp107
a(S'far'
p108
g103
tp109
asI9
(lp110
(S'acceptable'
p111
S'okay'
p112
tp113
a(g111
S'alright'
p114
tp115
asI10
(lp116
(S'cracked'
p117
S'crushed'
p118
tp119
a(S'broken'
p120
g118
tp121
a(g117
g120
tp122
asI11
(lp123
(S'stuffed'
p124
S'overloaded'
p125
tp126
a(g124
S'overflowing'
p127
tp128
a(S'full'
p129
g124
tp130
a(g125
g127
tp131
a(g129
g125
tp132
a(g129
g127
tp133
asI12
(lp134
(S'zesty'
p135
S'spicy'
p136
tp137
a(g135
S'hot'
p138
tp139
a(S'flavorful'
p140
g135
tp141
a(g138
g136
tp142
a(g140
g136
tp143
a(g140
g138
tp144
asI13
(lp145
(S'unstable'
p146
S'crazy'
p147
tp148
a(g146
S'insane'
p149
tp150
asI14
(lp151
(S'good'
p152
S'authentic'
p153
tp154
asI15
(lp155
(S'clean'
p156
S'immaculate'
p157
tp158
a(S'spotless'
p159
g157
tp160
asI16
(lp161
(S'realistic'
p162
S'practical'
p163
tp164
a(S'possible'
p165
g162
tp166
a(g165
g163
tp167
asI17
(lp168
(S'ill'
p169
S'impaired'
p170
tp171
a(S'sick'
p172
g170
tp173
a(g170
S'disabled'
p174
tp175
a(g169
g174
tp176
a(g172
g174
tp177
asI18
(lp178
(S'unusual'
p179
S'extraordinary'
p180
tp181
a(S'uncommon'
p182
g180
tp183
asI19
(lp184
(S'unrealistic'
p185
S'impossible'
p186
tp187
a(S'impractical'
p188
g185
tp189
asI20
(lp190
(S'transnational'
p191
S'international'
p192
tp193
a(g191
S'global'
p194
tp195
a(g192
g194
tp196
asI21
(lp197
(S'preoccupied'
p198
S'obsessed'
p199
tp200
a(S'concerned'
p201
g199
tp202
asI22
(lp203
(S'moving'
p204
S'thrilling'
p205
tp206
a(S'interesting'
p207
g205
tp208
a(S'exciting'
p209
g205
tp210
a(g207
g204
tp211
a(g204
g209
tp212
asI23
(lp213
(S'subdued'
p214
S'quiet'
p215
tp216
a(S'low'
p217
g214
tp218
a(g217
g215
tp219
asI24
(lp220
(S'sweet'
p221
S'syrupy'
p222
tp223
a(S'sugary'
p224
g222
tp225
a(g221
g224
tp226
asI25
(lp227
(S'terrible'
p228
S'violent'
p229
tp230
a(S'strong'
p231
g229
tp232
a(S'overwhelming'
p233
g229
tp234
a(S'intense'
p235
g229
tp236
a(g231
g228
tp237
a(g228
g233
tp238
a(g235
g228
tp239
a(g231
g233
tp240
a(g235
g233
tp241
asI26
(lp242
(S'bleak'
p243
S'desperate'
p244
tp245
a(g243
S'hopeless'
p246
tp247
asI27
(lp248
(S'unfortunate'
p249
S'fatal'
p250
tp251
a(S'disastrous'
p252
g250
tp253
asI28
(lp254
(S'negligent'
p255
S'reckless'
p256
tp257
a(S'careless'
p258
g256
tp259
a(g255
g258
tp260
asI29
(lp261
(S'strange'
p262
S'funny'
p263
tp264
a(g263
S'eerie'
p265
tp266
asI30
(lp267
(S'reasonable'
p268
S'valid'
p269
tp270
a(g269
S'sound'
p271
tp272
asI31
(lp273
(S'affordable'
p274
S'inexpensive'
p275
tp276
a(g275
S'cheap'
p277
tp278
asI32
(lp279
(S'available'
p280
S'visible'
p281
tp282
a(S'accessible'
p283
g281
tp284
asI33
(lp285
(S'refrigerated'
p286
S'icy'
p287
tp288
a(g286
S'frigid'
p289
tp290
a(g286
S'cold'
p291
tp292
a(g286
S'frozen'
p293
tp294
a(S'cool'
p295
g286
tp296
a(S'chilly'
p297
g286
tp298
a(g289
g287
tp299
a(g291
g287
tp300
a(g293
g287
tp301
a(g295
g287
tp302
a(g297
g287
tp303
a(g291
g289
tp304
a(g289
g293
tp305
a(g295
g289
tp306
a(g297
g289
tp307
a(g295
g293
tp308
a(g297
g293
tp309
asI34
(lp310
(S'content'
p311
S'pleased'
p312
tp313
asI35
(lp314
(S'misleading'
p315
S'false'
p316
tp317
a(g315
S'fraudulent'
p318
tp319
a(S'deceptive'
p320
g316
tp321
a(g320
g318
tp322
asI36
(lp323
(S'needed'
p324
S'required'
p325
tp326
a(S'essential'
p327
g325
tp328
a(g325
S'indispensable'
p329
tp330
asI37
(lp331
(S'some'
p332
S'many'
p333
tp334
a(g332
S'numerous'
p335
tp336
a(g332
S'galore'
p337
tp338
a(g333
g337
tp339
a(g335
g337
tp340
asI38
(lp341
(S'quiet'
p342
S'inaudible'
p343
tp344
a(g342
S'imperceptible'
p345
tp346
a(g343
S'silent'
p347
tp348
a(g345
g347
tp349
a(g345
g343
tp350
asI39
(lp351
(S'immoral'
p352
S'sinful'
p353
tp354
a(g353
S'evil'
p355
tp356
a(g352
g355
tp357
asI40
(lp358
(S'thin'
p359
S'skeletal'
p360
tp361
a(S'lean'
p362
g359
tp363
a(g359
S'gaunt'
p364
tp365
a(g359
S'emaciated'
p366
tp367
a(S'slim'
p368
S'skinny'
p369
tp370
a(g368
g360
tp371
a(g362
g368
tp372
a(g368
g364
tp373
a(g368
g366
tp374
a(g369
g360
tp375
a(g362
g369
tp376
a(g369
g364
tp377
a(g369
g366
tp378
a(g362
g360
tp379
a(g364
g360
tp380
a(g366
g360
tp381
a(g362
g364
tp382
a(g362
g366
tp383
a(g364
g366
tp384
asI41
(lp385
(S'statewide'
p386
S'worldwide'
p387
tp388
a(S'nationwide'
p389
g387
tp390
a(g386
g389
tp391
asI42
(lp392
(S'warm'
p393
S'sultry'
p394
tp395
a(g393
S'stifling'
p396
tp397
a(g393
S'overheated'
p398
tp399
a(g393
S'hot'
p400
tp401
a(g396
g394
tp402
a(g398
g394
tp403
a(g400
g394
tp404
a(g398
g396
tp405
a(g400
g396
tp406
a(g400
g398
tp407
asI43
(lp408
(S'simple'
p409
S'effortless'
p410
tp411
a(S'smooth'
p412
g409
tp413
a(S'painless'
p414
g410
tp415
a(S'easy'
p416
g414
tp417
a(g412
g414
tp418
a(g416
g410
tp419
a(g412
g410
tp420
asI44
(lp421
(S'unattractive'
p422
S'ugly'
p423
tp424
a(S'plain'
p425
g422
tp426
a(g425
g423
tp427
asI45
(lp428
(S'like'
p429
S'same'
p430
tp431
a(g429
S'equal'
p432
tp433
asI46
(lp434
(S'broad'
p435
S'general'
p436
tp437
a(g435
S'universal'
p438
tp439
a(S'widespread'
p440
g438
tp441
asI47
(lp442
(S'cheap'
p443
S'bad'
p444
tp445
a(g443
S'worst'
p446
tp447
a(S'mediocre'
p448
g443
tp449
a(g448
g446
tp450
asI48
(lp451
(S'lovely'
p452
S'attractive'
p453
tp454
asI49
(lp455
(S'thick'
p456
S'impenetrable'
p457
tp458
a(g456
S'dense'
p459
tp460
a(g459
g457
tp461
asI50
(lp462
(S'soft'
p463
S'quiet'
p464
tp465
a(g463
S'silent'
p466
tp467
a(g463
S'inaudible'
p468
tp469
a(g464
g468
tp470
a(g468
g466
tp471
asI51
(lp472
(S'unfriendly'
p473
S'hostile'
p474
tp475
a(S'cool'
p476
g473
tp477
a(S'chilly'
p478
g473
tp479
a(g476
g474
tp480
a(g478
g474
tp481
asI52
(lp482
(S'big'
p483
S'large'
p484
tp485
a(S'sizeable'
p486
S'huge'
p487
tp488
a(g487
S'colossal'
p489
tp490
a(g486
g489
tp491
asI53
(lp492
(S'treble'
p493
S'triple'
p494
tp495
a(g494
S'quadruple'
p496
tp497
a(S'dual'
p498
g494
tp499
a(S'doubled'
p500
g494
tp501
a(S'double'
p502
g494
tp503
a(g493
g496
tp504
a(g498
g493
tp505
a(g500
g493
tp506
a(g502
g493
tp507
a(g498
g496
tp508
a(g500
g496
tp509
a(g502
g496
tp510
a(g500
g498
tp511
a(g502
g498
tp512
a(g502
g500
tp513
asI54
(lp514
(S'scary'
p515
S'sinister'
p516
tp517
a(S'terrifying'
p518
g516
tp519
a(S'frightening'
p520
g516
tp521
a(S'creepy'
p522
g516
tp523
asI55
(lp524
(S'some'
p525
S'fewer'
p526
tp527
asI56
(lp528
(S'neglected'
p529
S'overlooked'
p530
tp531
a(S'ignored'
p532
g530
tp533
a(g530
S'forgotten'
p534
tp535
a(g529
g532
tp536
a(g529
g534
tp537
a(g532
g534
tp538
asI57
(lp539
(S'old'
p540
S'obsolete'
p541
tp542
a(g540
S'outdated'
p543
tp544
asI58
(lp545
(S'indispensable'
p546
S'critical'
p547
tp548
asI59
(lp549
(S'beautiful'
p550
S'mesmerizing'
p551
tp552
a(S'attractive'
p553
g551
tp554
a(S'seductive'
p555
g551
tp556
a(g550
g555
tp557
asI60
(lp558
(S'closed'
p559
S'shut'
p560
tp561
a(g560
S'sealed'
p562
tp563
asI61
(lp564
(S'unexpected'
p565
S'astonishing'
p566
tp567
a(g565
S'stunning'
p568
tp569
asI62
(lp570
(S'profane'
p571
S'obscene'
p572
tp573
a(S'indecent'
p574
g571
tp575
a(g574
g572
tp576
asI63
(lp577
(S'sexy'
p578
S'seductive'
p579
tp580
asI64
(lp581
(S'humbled'
p582
S'humiliated'
p583
tp584
a(g583
S'crushed'
p585
tp586
a(g582
g585
tp587
asI66
(lp588
(S'violent'
p589
S'murderous'
p590
tp591
a(g589
S'homicidal'
p592
tp593
a(g592
g590
tp594
asI67
(lp595
(S'private'
p596
S'secret'
p597
tp598
a(S'personal'
p599
g597
tp600
a(g599
g596
tp601
asI68
(lp602
(S'high'
p603
S'soaring'
p604
tp605
a(S'higher'
p606
g604
tp607
asI69
(lp608
(S'harmful'
p609
S'toxic'
p610
tp611
a(g610
S'deadly'
p612
tp613
a(g609
g612
tp614
asI70
(lp615
(S'small'
p616
S'midget'
p617
tp618
a(g616
S'microscopic'
p619
tp620
a(g616
S'micro'
p621
tp622
a(S'smaller'
p623
S'minute'
p624
tp625
a(g623
S'minuscule'
p626
tp627
a(g623
g617
tp628
a(g623
g619
tp629
a(g623
g621
tp630
a(g617
S'tiny'
p631
tp632
a(g631
g619
tp633
a(g631
g621
tp634
a(g617
g624
tp635
a(g624
g619
tp636
a(g624
g621
tp637
a(g617
g626
tp638
a(g626
g619
tp639
a(g626
g621
tp640
a(g617
g619
tp641
a(g617
g621
tp642
a(g621
g619
tp643
asI71
(lp644
(S'unrealistic'
p645
S'impossible'
p646
tp647
a(g645
S'infeasible'
p648
tp649
a(S'impractical'
p650
g645
tp651
a(S'impracticable'
p652
g645
tp653
a(g650
g648
tp654
a(g652
g648
tp655
a(g652
g650
tp656
asI72
(lp657
(S'mature'
p658
S'overripe'
p659
tp660
a(S'ripe'
p661
g659
tp662
asI73
(lp663
(S'fat'
p664
S'obese'
p665
tp666
a(S'overweight'
p667
g665
tp668
a(S'chubby'
p669
g665
tp670
a(g667
g669
tp671
asI74
(lp672
(S'uneasy'
p673
S'painful'
p674
tp675
asI75
(lp676
(S'warm'
p677
S'intimate'
p678
tp679
a(S'friendly'
p680
g678
tp681
a(S'cordial'
p682
g678
tp683
a(g682
g680
tp684
asI76
(lp685
(S'frigid'
p686
S'icy'
p687
tp688
a(S'cold'
p689
g687
tp690
a(S'frozen'
p691
g687
tp692
a(S'cool'
p693
g687
tp694
a(g689
g686
tp695
a(g686
g691
tp696
a(g693
g686
tp697
a(g693
g691
tp698
asI77
(lp699
(S'disappointed'
p700
S'frustrated'
p701
tp702
a(g701
S'defeated'
p703
tp704
a(g700
g703
tp705
asI78
(lp706
(S'tight'
p707
S'snug'
p708
tp709
a(S'close'
p710
g707
tp711
a(g710
g708
tp712
asI79
(lp713
(S'general'
p714
S'comprehensive'
p715
tp716
a(g714
S'complete'
p717
tp718
a(g714
S'extensive'
p719
tp720
a(g715
S'universal'
p721
tp722
a(g717
g721
tp723
a(g719
g721
tp724
a(g719
g715
tp725
asI80
(lp726
(S'alive'
p727
S'aware'
p728
tp729
a(S'awake'
p730
S'conscious'
p731
tp732
a(g727
g731
tp733
a(g727
g730
tp734
asI81
(lp735
(S'interested'
p736
S'involved'
p737
tp738
a(S'concerned'
p739
g737
tp740
asI82
(lp741
(S'negative'
p742
S'hostile'
p743
tp744
a(S'critical'
p745
g742
tp746
a(g745
g743
tp747
asI83
(lp748
(S'hard'
p749
S'hopeless'
p750
tp751
a(S'painful'
p752
g750
tp753
asI84
(lp754
(S'happy'
p755
S'euphoric'
p756
tp757
a(S'content'
p758
g756
tp759
asI85
(lp760
(S'calm'
p761
S'serene'
p762
tp763
a(S'cool'
p764
g762
tp765
asI86
(lp766
(S'unreliable'
p767
S'suicidal'
p768
tp769
a(g767
S'dangerous'
p770
tp771
a(g767
S'risky'
p772
tp773
a(g770
g768
tp774
a(g772
g768
tp775
as.