(dp0
I1
(lp1
(S'mean'
p2
S'meaner'
p3
tp4
asI4
(lp5
(S'bold'
p6
S'bolder'
p7
tp8
asI5
(lp9
(S'stark'
p10
S'starker'
p11
tp12
asI8
(lp13
(S'smooth'
p14
S'smoother'
p15
tp16
asI16
(lp17
(S'dre'
p18
S'drier'
p19
tp20
asI19
(lp21
(S'holy'
p22
S'holier'
p23
tp24
asI24
(lp25
(S'stupide'
p26
S'stupider'
p27
tp28
asI27
(lp29
(S'sick'
p30
S'sicker'
p31
tp32
asI28
(lp33
(S'grave'
p34
S'graver'
p35
tp36
asI31
(lp37
(S'east'
p38
S'easier'
p39
tp40
asI33
(lp41
(S'sweet'
p42
S'sweeter'
p43
tp44
asI39
(lp45
(S'new'
p46
S'newer'
p47
tp48
asI42
(lp49
(S'costly'
p50
S'costlier'
p51
tp52
asI43
(lp53
(S'scarce'
p54
S'scarcer'
p55
tp56
asI45
(lp57
(S'up'
p58
S'upper'
p59
tp60
asI46
(lp61
(S'dirty'
p62
S'dirtier'
p63
tp64
asI52
(lp65
(S'brave'
p66
S'braver'
p67
tp68
asI54
(lp69
(S'clean'
p70
S'cleaner'
p71
tp72
asI59
(lp73
(S'moist'
p74
S'moister'
p75
tp76
asI63
(lp77
(S'soft'
p78
S'softer'
p79
tp80
asI64
(lp81
(S'mighty'
p82
S'mightier'
p83
tp84
asI71
(lp85
(S'timely'
p86
S'timelier'
p87
tp88
asI72
(lp89
(S'soon'
p90
S'sooner'
p91
tp92
asI74
(lp93
(S'sunny'
p94
S'sunnier'
p95
tp96
asI75
(lp97
(S'dumb'
p98
S'dumber'
p99
tp100
asI76
(lp101
(S'fine'
p102
S'finer'
p103
tp104
asI80
(lp105
(S'sad'
p106
S'sadder'
p107
tp108
asI84
(lp109
(S'tight'
p110
S'tighter'
p111
tp112
asI86
(lp113
(S'wealthy'
p114
S'wealthier'
p115
tp116
asI91
(lp117
(S'steep'
p118
S'steeper'
p119
tp120
asI95
(lp121
(S'ill'
p122
S'worse'
p123
tp124
asI97
(lp125
(S'loose'
p126
S'looser'
p127
tp128
asI100
(lp129
(S'wet'
p130
S'wetter'
p131
tp132
asI104
(lp133
(S'friendly'
p134
S'friendlier'
p135
tp136
asI105
(lp137
(S'swift'
p138
S'swifter'
p139
tp140
asI108
(lp141
(S'full'
p142
S'fuller'
p143
tp144
asI109
(lp145
(S'thick'
p146
S'thicker'
p147
tp148
asI110
(lp149
(S'fierce'
p150
S'fiercer'
p151
tp152
asI112
(lp153
(S'speedy'
p154
S'speedier'
p155
tp156
asI114
(lp157
(S'dear'
p158
S'dearer'
p159
tp160
asI116
(lp161
(S'lengthy'
p162
S'lengthier'
p163
tp164
asI117
(lp165
(S'sharp'
p166
S'sharper'
p167
tp168
asI121
(lp169
(S'funny'
p170
S'funnier'
p171
tp172
asI122
(lp173
(S'mild'
p174
S'milder'
p175
tp176
asI124
(lp177
(S'slim'
p178
S'slimmer'
p179
tp180
asI130
(lp181
(S'clever'
p182
S'cleverer'
p183
tp184
asI136
(lp185
(S'older'
p186
S'oldest'
p187
tp188
asI138
(lp189
(S'weaker'
p190
S'weakest'
p191
tp192
asI140
(lp193
(S'further'
p194
S'furthest'
p195
tp196
asI141
(lp197
(S'larger'
p198
S'largest'
p199
tp200
asI142
(lp201
(S'fairer'
p202
S'fairest'
p203
tp204
asI145
(lp205
(S'rarer'
p206
S'rarest'
p207
tp208
asI146
(lp209
(S'richer'
p210
S'richest'
p211
tp212
asI147
(lp213
(S'brighter'
p214
S'brightest'
p215
tp216
asI149
(lp217
(S'shorter'
p218
S'shortest'
p219
tp220
asI150
(lp221
(S'cleaner'
p222
S'cleanest'
p223
tp224
asI151
(lp225
(S'braver'
p226
S'bravest'
p227
tp228
asI153
(lp229
(S'heavier'
p230
S'heaviest'
p231
tp232
asI154
(lp233
(S'cheaper'
p234
S'cheapest'
p235
tp236
asI155
(lp237
(S'happier'
p238
S'happiest'
p239
tp240
asI157
(lp241
(S'smarter'
p242
S'smartest'
p243
tp244
asI163
(lp245
(S'darker'
p246
S'darkest'
p247
tp248
asI166
(lp249
(S'graver'
p250
S'gravest'
p251
tp252
asI170
(lp253
(S'earlier'
p254
S'earliest'
p255
tp256
asI171
(lp257
(S'fuller'
p258
S'fullest'
p259
tp260
asI172
(lp261
(S'warmer'
p262
S'warmest'
p263
tp264
asI173
(lp265
(S'wealthier'
p266
S'wealthiest'
p267
tp268
asI175
(lp269
(S'freer'
p270
S'freest'
p271
tp272
asI176
(lp273
(S'newer'
p274
S'newest'
p275
tp276
asI177
(lp277
(S'finer'
p278
S'finest'
p279
tp280
asI178
(lp281
(S'stricter'
p282
S'strictest'
p283
tp284
asI183
(lp285
(S'safe'
p286
S'safest'
p287
tp288
asI185
(lp289
(S'old'
p290
S'oldest'
p291
tp292
asI186
(lp293
(S'fine'
p294
S'finest'
p295
tp296
asI188
(lp297
(S'ill'
p298
S'worst'
p299
tp300
asI190
(lp301
(S'bright'
p302
S'brightest'
p303
tp304
asI194
(lp305
(S'heavy'
p306
S'heaviest'
p307
tp308
asI195
(lp309
(S'cheap'
p310
S'cheapest'
p311
tp312
asI202
(lp313
(S'brave'
p314
S'bravest'
p315
tp316
asI203
(lp317
(S'late'
p318
S'latest'
p319
tp320
asI204
(lp321
(S'quick'
p322
S'quickest'
p323
tp324
asI207
(lp325
(S'far'
p326
S'furthest'
p327
tp328
asI209
(lp329
(S'large'
p330
S'largest'
p331
tp332
asI213
(lp333
(S'deep'
p334
S'deepest'
p335
tp336
asI214
(lp337
(S'full'
p338
S'fullest'
p339
tp340
asI215
(lp341
(S'smart'
p342
S'smartest'
p343
tp344
asI219
(lp345
(S'wealthy'
p346
S'wealthiest'
p347
tp348
asI225
(lp349
(S'clean'
p350
S'cleanest'
p351
tp352
asI227
(lp353
(S'hard'
p354
S'hardest'
p355
tp356
asI228
(lp357
(S'well'
p358
S'best'
p359
tp360
asI231
(lp361
(S'some'
p362
S'most'
p363
tp364
asI232
(lp365
(S'hon'
p366
S'honest'
p367
tp368
asI236
(lp369
(S'near'
p370
S'nearest'
p371
tp372
asI237
(lp373
(S'east'
p374
S'easiest'
p375
tp376
asI240
(lp377
(S'grave'
p378
S'graver'
p379
tp380
a(g379
S'gravest'
p381
tp382
asI241
(lp383
(S'bright'
p384
S'brightest'
p385
tp386
a(S'brighter'
p387
g385
tp388
asI242
(lp389
(S'heavy'
p390
S'heaviest'
p391
tp392
a(S'heavier'
p393
g391
tp394
asI243
(lp395
(S'east'
p396
S'easier'
p397
tp398
a(g396
S'easiest'
p399
tp400
asI245
(lp401
(S'finer'
p402
S'finest'
p403
tp404
a(S'fine'
p405
g403
tp406
a(g405
g402
tp407
asI246
(lp408
(S'smart'
p409
S'smartest'
p410
tp411
a(S'smarter'
p412
g410
tp413
asI247
(lp414
(S'cheap'
p415
S'cheapest'
p416
tp417
a(S'cheaper'
p418
g416
tp419
asI249
(lp420
(S'warmer'
p421
S'warmest'
p422
tp423
asI250
(lp424
(S'far'
p425
S'furthest'
p426
tp427
a(S'further'
p428
g426
tp429
asI252
(lp430
(S'freer'
p431
S'freest'
p432
tp433
asI254
(lp434
(S'rarer'
p435
S'rarest'
p436
tp437
asI255
(lp438
(S'safe'
p439
S'safest'
p440
tp441
asI257
(lp442
(S'large'
p443
S'largest'
p444
tp445
a(S'larger'
p446
g444
tp447
asI259
(lp448
(S'late'
p449
S'latest'
p450
tp451
asI260
(lp452
(S'darker'
p453
S'darkest'
p454
tp455
asI261
(lp456
(S'quick'
p457
S'quickest'
p458
tp459
asI263
(lp460
(S'fuller'
p461
S'fullest'
p462
tp463
a(S'full'
p464
g462
tp465
a(g464
g461
tp466
asI264
(lp467
(S'deep'
p468
S'deepest'
p469
tp470
asI266
(lp471
(S'wealthy'
p472
S'wealthiest'
p473
tp474
a(g472
S'wealthier'
p475
tp476
a(g475
g473
tp477
asI267
(lp478
(S'new'
p479
S'newer'
p480
tp481
a(g480
S'newest'
p482
tp483
asI269
(lp484
(S'braver'
p485
S'bravest'
p486
tp487
a(S'brave'
p488
g486
tp489
a(g488
g485
tp490
asI270
(lp491
(S'hard'
p492
S'hardest'
p493
tp494
asI271
(lp495
(S'richer'
p496
S'richest'
p497
tp498
asI272
(lp499
(S'stricter'
p500
S'strictest'
p501
tp502
asI273
(lp503
(S'cleaner'
p504
S'cleanest'
p505
tp506
a(S'clean'
p507
g505
tp508
a(g507
g504
tp509
asI274
(lp510
(S'weaker'
p511
S'weakest'
p512
tp513
asI275
(lp514
(S'fairer'
p515
S'fairest'
p516
tp517
asI276
(lp518
(S'shorter'
p519
S'shortest'
p520
tp521
asI278
(lp522
(S'earlier'
p523
S'earliest'
p524
tp525
asI281
(lp526
(S'happier'
p527
S'happiest'
p528
tp529
asI283
(lp530
(S'old'
p531
S'oldest'
p532
tp533
a(S'older'
p534
g532
tp535
as.