(dp0
I0
(lp1
(S'first'
p2
S'third'
p3
tp4
a(g2
S'fourth'
p5
tp6
a(g2
S'fifth'
p7
tp8
a(g2
S'sixth'
p9
tp10
a(g2
S'seventh'
p11
tp12
a(g2
S'eighth'
p13
tp14
a(S'second'
p15
g5
tp16
a(g15
g7
tp17
a(g15
g9
tp18
a(g15
g11
tp19
a(g15
g13
tp20
a(g3
g9
tp21
a(g3
g11
tp22
a(g3
g13
tp23
a(g5
g9
tp24
a(g5
g11
tp25
a(g5
g13
tp26
a(g7
g11
tp27
a(g7
g13
tp28
a(g9
g13
tp29
asI1
(lp30
(S'known'
p31
S'legendary'
p32
tp33
asI2
(lp34
(S'dim'
p35
S'black'
p36
tp37
a(S'gloomy'
p38
g36
tp39
asI3
(lp40
(S'near'
p41
S'intimate'
p42
tp43
asI4
(lp44
(S'nearby'
p45
S'adjacent'
p46
tp47
asI5
(lp48
(S'sufficient'
p49
S'wide'
p50
tp51
a(g50
S'full'
p52
tp53
a(g49
g52
tp54
asI6
(lp55
(S'real'
p56
S'solemn'
p57
tp58
a(g57
S'grave'
p59
tp60
asI7
(lp61
(S'entertaining'
p62
S'fascinating'
p63
tp64
a(S'amusing'
p65
g63
tp66
a(S'intriguing'
p67
g62
tp68
a(g67
g65
tp69
asI8
(lp70
(S'further'
p71
S'removed'
p72
tp73
a(S'farther'
p74
g72
tp75
asI9
(lp76
(S'okay'
p77
S'acceptable'
p78
tp79
a(S'alright'
p80
g78
tp81
asI10
(lp82
(S'cracked'
p83
S'crushed'
p84
tp85
asI11
(lp86
(S'stuffed'
p87
S'overloaded'
p88
tp89
a(g87
S'overflowing'
p90
tp91
a(g88
g90
tp92
asI12
(lp93
(S'flavorful'
p94
S'zesty'
p95
tp96
a(g94
S'spicy'
p97
tp98
asI13
(lp99
(S'unstable'
p100
S'insane'
p101
tp102
asI15
(lp103
(S'immaculate'
p104
S'spotless'
p105
tp106
asI16
(lp107
(S'realistic'
p108
S'practical'
p109
tp110
asI17
(lp111
(S'ill'
p112
S'impaired'
p113
tp114
a(S'sick'
p115
g113
tp116
a(g115
S'disabled'
p117
tp118
asI18
(lp119
(S'unusual'
p120
S'extraordinary'
p121
tp122
a(S'uncommon'
p123
g121
tp124
asI19
(lp125
(S'impractical'
p126
S'unrealistic'
p127
tp128
asI20
(lp129
(S'transnational'
p130
S'international'
p131
tp132
asI22
(lp133
(S'interesting'
p134
S'thrilling'
p135
tp136
a(S'moving'
p137
S'exciting'
p138
tp139
a(g137
g135
tp140
asI23
(lp141
(S'low'
p142
S'quiet'
p143
tp144
a(g142
S'subdued'
p145
tp146
asI24
(lp147
(S'sugary'
p148
S'syrupy'
p149
tp150
asI25
(lp151
(S'strong'
p152
S'terrible'
p153
tp154
a(S'intense'
p155
g153
tp156
a(g153
S'overwhelming'
p157
tp158
a(g153
S'violent'
p159
tp160
a(g157
g159
tp161
asI26
(lp162
(S'bleak'
p163
S'desperate'
p164
tp165
asI28
(lp166
(S'negligent'
p167
S'careless'
p168
tp169
asI29
(lp170
(S'funny'
p171
S'eerie'
p172
tp173
asI30
(lp174
(S'reasonable'
p175
S'valid'
p176
tp177
asI31
(lp178
(S'affordable'
p179
S'inexpensive'
p180
tp181
asI32
(lp182
(S'available'
p183
S'visible'
p184
tp185
asI33
(lp186
(S'cool'
p187
S'refrigerated'
p188
tp189
a(S'chilly'
p190
g188
tp191
a(g188
S'cold'
p192
tp193
a(g188
S'icy'
p194
tp195
a(g188
S'frigid'
p196
tp197
a(g187
g194
tp198
a(g190
g194
tp199
a(g190
g196
tp200
a(g190
S'frozen'
p201
tp202
a(g196
g194
tp203
a(g201
g194
tp204
a(g196
g201
tp205
asI35
(lp206
(S'deceptive'
p207
S'false'
p208
tp209
a(g207
S'fraudulent'
p210
tp211
asI36
(lp212
(S'required'
p213
S'indispensable'
p214
tp215
asI37
(lp216
(S'some'
p217
S'numerous'
p218
tp219
a(g217
S'galore'
p220
tp221
a(S'many'
p222
g220
tp223
a(g218
g220
tp224
asI38
(lp225
(S'inaudible'
p226
S'silent'
p227
tp228
a(S'imperceptible'
p229
g227
tp230
a(g229
g226
tp231
asI39
(lp232
(S'immoral'
p233
S'sinful'
p234
tp235
a(g234
S'evil'
p236
tp237
asI40
(lp238
(S'lean'
p239
S'thin'
p240
tp241
a(g239
S'slim'
p242
tp243
a(g242
S'gaunt'
p244
tp245
a(g242
S'emaciated'
p246
tp247
a(g242
S'skeletal'
p248
tp249
a(g239
g244
tp250
a(g239
g246
tp251
a(g239
g248
tp252
a(g244
g246
tp253
a(S'skinny'
p254
g244
tp255
a(g244
g248
tp256
a(g254
g246
tp257
a(g246
g248
tp258
a(g254
g248
tp259
asI41
(lp260
(S'statewide'
p261
S'worldwide'
p262
tp263
asI42
(lp264
(S'overheated'
p265
S'stifling'
p266
tp267
a(S'sultry'
p268
g266
tp269
a(S'hot'
p270
g266
tp271
a(g265
g268
tp272
a(g270
g265
tp273
a(g270
g268
tp274
asI43
(lp275
(S'smooth'
p276
S'simple'
p277
tp278
a(g277
S'effortless'
p279
tp280
a(g276
S'painless'
p281
tp282
a(g281
g279
tp283
asI44
(lp284
(S'unattractive'
p285
S'ugly'
p286
tp287
asI45
(lp288
(S'like'
p289
S'equal'
p290
tp291
asI46
(lp292
(S'broad'
p293
S'general'
p294
tp295
asI47
(lp296
(S'mediocre'
p297
S'cheap'
p298
tp299
a(g298
S'worst'
p300
tp301
a(g297
g300
tp302
asI48
(lp303
(S'lovely'
p304
S'attractive'
p305
tp306
asI49
(lp307
(S'thick'
p308
S'dense'
p309
tp310
asI50
(lp311
(S'soft'
p312
S'quiet'
p313
tp314
a(g312
S'silent'
p315
tp316
a(S'inaudible'
p317
g315
tp318
asI51
(lp319
(S'cool'
p320
S'unfriendly'
p321
tp322
a(S'chilly'
p323
g321
tp324
a(g323
S'hostile'
p325
tp326
asI52
(lp327
(S'big'
p328
S'large'
p329
tp330
a(S'sizeable'
p331
S'colossal'
p332
tp333
asI53
(lp334
(S'doubled'
p335
S'dual'
p336
tp337
a(S'double'
p338
g336
tp339
a(g336
S'treble'
p340
tp341
a(g336
S'quadruple'
p342
tp343
a(g338
g335
tp344
a(g335
g340
tp345
a(g335
g342
tp346
a(S'triple'
p347
g340
tp348
asI54
(lp349
(S'frightening'
p350
S'sinister'
p351
tp352
a(S'terrifying'
p353
g351
tp354
a(S'creepy'
p355
g351
tp356
asI55
(lp357
(S'some'
p358
S'fewer'
p359
tp360
asI56
(lp361
(S'neglected'
p362
S'overlooked'
p363
tp364
a(S'ignored'
p365
S'forgotten'
p366
tp367
asI58
(lp368
(S'indispensable'
p369
S'critical'
p370
tp371
asI59
(lp372
(S'attractive'
p373
S'mesmerizing'
p374
tp375
a(S'beautiful'
p376
S'seductive'
p377
tp378
a(g374
g377
tp379
asI60
(lp380
(S'shut'
p381
S'sealed'
p382
tp383
asI62
(lp384
(S'profane'
p385
S'obscene'
p386
tp387
asI63
(lp388
(S'sexy'
p389
S'seductive'
p390
tp391
asI64
(lp392
(S'humbled'
p393
S'crushed'
p394
tp395
asI66
(lp396
(S'homicidal'
p397
S'murderous'
p398
tp399
asI67
(lp400
(S'personal'
p401
S'secret'
p402
tp403
asI68
(lp404
(S'high'
p405
S'soaring'
p406
tp407
asI70
(lp408
(S'small'
p409
S'midget'
p410
tp411
a(g410
S'tiny'
p412
tp413
a(g410
S'micro'
p414
tp415
a(g410
S'minute'
p416
tp417
a(g410
S'minuscule'
p418
tp419
a(g410
S'microscopic'
p420
tp421
a(S'smaller'
p422
g414
tp423
a(g422
g416
tp424
a(g422
g418
tp425
a(g422
g420
tp426
a(g412
g414
tp427
a(g416
g414
tp428
a(g418
g414
tp429
a(g420
g414
tp430
a(g416
g420
tp431
a(g418
g420
tp432
asI71
(lp433
(S'unrealistic'
p434
S'infeasible'
p435
tp436
a(S'impractical'
p437
g434
tp438
a(S'impracticable'
p439
g434
tp440
a(g437
g435
tp441
a(g439
g435
tp442
a(g439
g437
tp443
asI73
(lp444
(S'overweight'
p445
S'chubby'
p446
tp447
a(g446
S'obese'
p448
tp449
asI75
(lp450
(S'cordial'
p451
S'intimate'
p452
tp453
asI76
(lp454
(S'cool'
p455
S'icy'
p456
tp457
a(S'frigid'
p458
g456
tp459
a(S'frozen'
p460
g456
tp461
a(g458
g460
tp462
asI77
(lp463
(S'frustrated'
p464
S'defeated'
p465
tp466
asI78
(lp467
(S'close'
p468
S'snug'
p469
tp470
asI79
(lp471
(S'general'
p472
S'extensive'
p473
tp474
a(g472
S'comprehensive'
p475
tp476
a(g475
S'universal'
p477
tp478
a(g472
S'complete'
p479
tp480
a(g479
g477
tp481
asI82
(lp482
(S'critical'
p483
S'negative'
p484
tp485
asI83
(lp486
(S'painful'
p487
S'hopeless'
p488
tp489
asI84
(lp490
(S'content'
p491
S'euphoric'
p492
tp493
asI85
(lp494
(S'cool'
p495
S'serene'
p496
tp497
asI86
(lp498
(S'unreliable'
p499
S'risky'
p500
tp501
a(g499
S'suicidal'
p502
tp503
a(g500
g502
tp504
as.