(dp0
I0
(lp1
(S'first'
p2
S'third'
p3
tp4
a(g2
S'fourth'
p5
tp6
a(g2
S'fifth'
p7
tp8
a(g2
S'sixth'
p9
tp10
a(g2
S'seventh'
p11
tp12
a(g2
S'eighth'
p13
tp14
a(S'second'
p15
g5
tp16
a(g15
g7
tp17
a(g15
g9
tp18
a(g15
g11
tp19
a(g15
g13
tp20
a(g3
g9
tp21
a(g3
g11
tp22
a(g3
g13
tp23
a(g5
g9
tp24
a(g5
g11
tp25
a(g5
g13
tp26
a(g7
g11
tp27
a(g7
g13
tp28
a(g9
g13
tp29
asI1
(lp30
(S'known'
p31
S'legendary'
p32
tp33
asI2
(lp34
(S'dim'
p35
S'black'
p36
tp37
a(S'gloomy'
p38
S'dark'
p39
tp40
a(g38
g36
tp41
asI3
(lp42
(S'close'
p43
S'near'
p44
tp45
a(g44
S'intimate'
p46
tp47
asI4
(lp48
(S'near'
p49
S'nearby'
p50
tp51
a(g50
S'adjacent'
p52
tp53
a(g49
S'close'
p54
tp55
asI5
(lp56
(S'sufficient'
p57
S'wide'
p58
tp59
a(g58
S'full'
p60
tp61
a(g57
g60
tp62
asI6
(lp63
(S'real'
p64
S'solemn'
p65
tp66
a(g64
S'grave'
p67
tp68
a(g65
g67
tp69
asI7
(lp70
(S'intriguing'
p71
S'entertaining'
p72
tp73
a(g71
S'fascinating'
p74
tp75
a(g71
S'amusing'
p76
tp77
a(g71
S'exciting'
p78
tp79
a(g72
g74
tp80
a(g76
g74
tp81
a(g78
g74
tp82
a(g76
g78
tp83
asI8
(lp84
(S'far'
p85
S'removed'
p86
tp87
a(S'further'
p88
g86
tp89
a(S'farther'
p90
g86
tp91
a(g90
g88
tp92
asI9
(lp93
(S'acceptable'
p94
S'alright'
p95
tp96
a(S'okay'
p97
g95
tp98
a(g97
g94
tp99
asI10
(lp100
(S'cracked'
p101
S'crushed'
p102
tp103
asI11
(lp104
(S'stuffed'
p105
S'overloaded'
p106
tp107
a(g105
S'overflowing'
p108
tp109
a(g106
g108
tp110
asI12
(lp111
(S'flavorful'
p112
S'zesty'
p113
tp114
a(g112
S'spicy'
p115
tp116
asI13
(lp117
(S'unstable'
p118
S'insane'
p119
tp120
asI14
(lp121
(S'real'
p122
S'authentic'
p123
tp124
asI15
(lp125
(S'immaculate'
p126
S'spotless'
p127
tp128
asI16
(lp129
(S'realistic'
p130
S'practical'
p131
tp132
a(g130
S'feasible'
p133
tp134
asI17
(lp135
(S'ill'
p136
S'impaired'
p137
tp138
a(S'sick'
p139
g137
tp140
a(g139
S'disabled'
p141
tp142
asI18
(lp143
(S'unusual'
p144
S'exceptional'
p145
tp146
a(g144
S'extraordinary'
p147
tp148
a(S'uncommon'
p149
g145
tp150
a(g149
g147
tp151
a(S'rare'
p152
g147
tp153
asI19
(lp154
(S'impractical'
p155
S'unrealistic'
p156
tp157
asI20
(lp158
(S'transnational'
p159
S'international'
p160
tp161
asI22
(lp162
(S'interesting'
p163
S'thrilling'
p164
tp165
a(S'moving'
p166
S'exciting'
p167
tp168
a(g166
g164
tp169
asI23
(lp170
(S'low'
p171
S'quiet'
p172
tp173
a(g171
S'subdued'
p174
tp175
asI24
(lp176
(S'sugary'
p177
S'syrupy'
p178
tp179
asI25
(lp180
(S'strong'
p181
S'terrible'
p182
tp183
a(S'intense'
p184
g182
tp185
a(g182
S'violent'
p186
tp187
a(g182
S'overwhelming'
p188
tp189
a(g181
g184
tp190
a(g188
g186
tp191
asI26
(lp192
(S'bleak'
p193
S'desperate'
p194
tp195
asI27
(lp196
(S'unfortunate'
p197
S'disastrous'
p198
tp199
asI28
(lp200
(S'negligent'
p201
S'careless'
p202
tp203
asI29
(lp204
(S'unusual'
p205
S'weird'
p206
tp207
a(g206
S'eerie'
p208
tp209
a(S'funny'
p210
g205
tp211
a(g205
g208
tp212
a(g210
g208
tp213
asI30
(lp214
(S'reasonable'
p215
S'valid'
p216
tp217
asI31
(lp218
(S'affordable'
p219
S'inexpensive'
p220
tp221
asI32
(lp222
(S'available'
p223
S'visible'
p224
tp225
asI33
(lp226
(S'cool'
p227
S'refrigerated'
p228
tp229
a(S'chilly'
p230
g228
tp231
a(g228
S'cold'
p232
tp233
a(g228
S'icy'
p234
tp235
a(g228
S'frigid'
p236
tp237
a(g227
g234
tp238
a(g230
g234
tp239
a(g230
S'frozen'
p240
tp241
a(g230
g236
tp242
a(g240
g234
tp243
a(g236
g234
tp244
a(g236
g240
tp245
asI34
(lp246
(S'happy'
p247
S'pleased'
p248
tp249
a(S'satisfied'
p250
S'content'
p251
tp252
asI35
(lp253
(S'fraudulent'
p254
S'false'
p255
tp256
a(S'deceptive'
p257
g254
tp258
a(g257
g255
tp259
asI36
(lp260
(S'needed'
p261
S'indispensable'
p262
tp263
a(g261
S'essential'
p264
tp265
a(S'required'
p266
g262
tp267
a(g264
g262
tp268
asI37
(lp269
(S'some'
p270
S'numerous'
p271
tp272
a(g270
S'galore'
p273
tp274
a(S'many'
p275
g271
tp276
a(g271
g273
tp277
a(g275
g273
tp278
asI38
(lp279
(S'inaudible'
p280
S'silent'
p281
tp282
a(S'imperceptible'
p283
g281
tp284
a(g283
g280
tp285
asI39
(lp286
(S'immoral'
p287
S'sinful'
p288
tp289
a(g288
S'evil'
p290
tp291
asI40
(lp292
(S'slim'
p293
S'thin'
p294
tp295
a(S'lean'
p296
g294
tp297
a(g293
S'skeletal'
p298
tp299
a(g296
g293
tp300
a(g293
S'gaunt'
p301
tp302
a(g293
S'emaciated'
p303
tp304
a(g296
g298
tp305
a(S'skinny'
p306
g298
tp307
a(g301
g298
tp308
a(g303
g298
tp309
a(g296
g301
tp310
a(g296
g303
tp311
a(g306
g301
tp312
a(g306
g303
tp313
a(g301
g303
tp314
asI41
(lp315
(S'statewide'
p316
S'worldwide'
p317
tp318
asI42
(lp319
(S'overheated'
p320
S'stifling'
p321
tp322
a(S'sultry'
p323
g321
tp324
a(S'hot'
p325
g321
tp326
a(g320
g323
tp327
a(g325
g320
tp328
a(g325
g323
tp329
asI43
(lp330
(S'simple'
p331
S'smooth'
p332
tp333
a(S'easy'
p334
g332
tp335
a(g332
S'painless'
p336
tp337
a(g331
S'effortless'
p338
tp339
a(g336
g338
tp340
asI44
(lp341
(S'unattractive'
p342
S'ugly'
p343
tp344
asI45
(lp345
(S'like'
p346
S'equal'
p347
tp348
asI46
(lp349
(S'widespread'
p350
S'general'
p351
tp352
a(S'broad'
p353
g350
tp354
a(g353
g351
tp355
asI47
(lp356
(S'mediocre'
p357
S'cheap'
p358
tp359
a(g358
S'worst'
p360
tp361
a(g357
g360
tp362
asI48
(lp363
(S'attractive'
p364
S'pretty'
p365
tp366
a(S'lovely'
p367
g365
tp368
a(S'handsome'
p369
g364
tp370
a(g367
g369
tp371
a(S'gorgeous'
p372
g369
tp373
a(g369
S'beautiful'
p374
tp375
a(g367
g364
tp376
a(g372
g364
tp377
a(g367
g374
tp378
a(g372
g374
tp379
asI49
(lp380
(S'thick'
p381
S'dense'
p382
tp383
asI50
(lp384
(S'soft'
p385
S'quiet'
p386
tp387
a(g385
S'silent'
p388
tp389
a(S'inaudible'
p390
g388
tp391
asI51
(lp392
(S'cool'
p393
S'unfriendly'
p394
tp395
a(S'chilly'
p396
g394
tp397
a(g396
S'hostile'
p398
tp399
asI52
(lp400
(S'sizeable'
p401
S'large'
p402
tp403
a(g401
S'big'
p404
tp405
a(g401
S'colossal'
p406
tp407
a(g404
g402
tp408
a(g402
g406
tp409
a(g404
g406
tp410
asI53
(lp411
(S'doubled'
p412
S'dual'
p413
tp414
a(S'double'
p415
g413
tp416
a(g413
S'treble'
p417
tp418
a(g413
S'quadruple'
p419
tp420
a(g415
g412
tp421
a(g412
g417
tp422
a(g412
g419
tp423
a(S'triple'
p424
g417
tp425
asI54
(lp426
(S'creepy'
p427
S'frightening'
p428
tp429
a(g427
S'terrifying'
p430
tp431
a(g427
S'sinister'
p432
tp433
a(S'scary'
p434
g430
tp435
a(g428
g432
tp436
a(g430
g432
tp437
asI55
(lp438
(S'some'
p439
S'few'
p440
tp441
a(g439
S'fewer'
p442
tp443
asI56
(lp444
(S'neglected'
p445
S'overlooked'
p446
tp447
a(S'ignored'
p448
S'forgotten'
p449
tp450
asI57
(lp451
(S'obsolete'
p452
S'outdated'
p453
tp454
asI58
(lp455
(S'vital'
p456
S'indispensable'
p457
tp458
a(g456
S'critical'
p459
tp460
a(g457
g459
tp461
asI59
(lp462
(S'attractive'
p463
S'mesmerizing'
p464
tp465
a(S'beautiful'
p466
S'seductive'
p467
tp468
a(g464
g467
tp469
asI60
(lp470
(S'shut'
p471
S'sealed'
p472
tp473
asI61
(lp474
(S'astonishing'
p475
S'stunning'
p476
tp477
asI62
(lp478
(S'profane'
p479
S'obscene'
p480
tp481
asI63
(lp482
(S'sexy'
p483
S'seductive'
p484
tp485
asI64
(lp486
(S'humbled'
p487
S'crushed'
p488
tp489
asI65
(lp490
(S'intelligent'
p491
S'smart'
p492
tp493
a(S'clever'
p494
g492
tp495
a(S'bright'
p496
g492
tp497
a(g494
g491
tp498
a(g496
g491
tp499
a(g496
S'brilliant'
p500
tp501
asI66
(lp502
(S'homicidal'
p503
S'murderous'
p504
tp505
asI67
(lp506
(S'personal'
p507
S'secret'
p508
tp509
asI68
(lp510
(S'high'
p511
S'soaring'
p512
tp513
asI70
(lp514
(S'small'
p515
S'midget'
p516
tp517
a(g516
S'tiny'
p518
tp519
a(S'minuscule'
p520
g518
tp521
a(S'minute'
p522
g518
tp523
a(S'smaller'
p524
g518
tp525
a(g518
S'micro'
p526
tp527
a(g516
S'microscopic'
p528
tp529
a(g516
g520
tp530
a(g516
g522
tp531
a(g516
g526
tp532
a(g520
g528
tp533
a(g522
g528
tp534
a(g524
g528
tp535
a(g526
g528
tp536
a(g522
g520
tp537
a(g524
g520
tp538
a(g520
g526
tp539
a(g524
g522
tp540
a(g522
g526
tp541
a(g524
g526
tp542
asI71
(lp543
(S'impractical'
p544
S'infeasible'
p545
tp546
a(S'unrealistic'
p547
g545
tp548
a(S'impracticable'
p549
g545
tp550
a(g544
g547
tp551
a(g549
g544
tp552
a(g549
g547
tp553
asI72
(lp554
(S'mature'
p555
S'ripe'
p556
tp557
asI73
(lp558
(S'overweight'
p559
S'chubby'
p560
tp561
a(g559
S'fat'
p562
tp563
a(g560
S'obese'
p564
tp565
asI74
(lp566
(S'uncomfortable'
p567
S'uneasy'
p568
tp569
asI75
(lp570
(S'cordial'
p571
S'warm'
p572
tp573
a(S'friendly'
p574
g572
tp575
a(g571
S'intimate'
p576
tp577
asI76
(lp578
(S'cool'
p579
S'icy'
p580
tp581
a(S'frozen'
p582
g580
tp583
a(S'frigid'
p584
g580
tp585
a(g584
g582
tp586
asI77
(lp587
(S'frustrated'
p588
S'defeated'
p589
tp590
asI78
(lp591
(S'close'
p592
S'snug'
p593
tp594
asI79
(lp595
(S'general'
p596
S'extensive'
p597
tp598
a(g596
S'comprehensive'
p599
tp600
a(g596
S'complete'
p601
tp602
a(g599
S'universal'
p603
tp604
a(g601
g603
tp605
asI81
(lp606
(S'interested'
p607
S'concerned'
p608
tp609
asI82
(lp610
(S'critical'
p611
S'negative'
p612
tp613
asI83
(lp614
(S'painful'
p615
S'hopeless'
p616
tp617
asI84
(lp618
(S'content'
p619
S'euphoric'
p620
tp621
asI85
(lp622
(S'cool'
p623
S'serene'
p624
tp625
asI86
(lp626
(S'unreliable'
p627
S'risky'
p628
tp629
a(g627
S'suicidal'
p630
tp631
a(g628
g630
tp632
as.