(dp0
I0
(lp1
(S'minute'
p2
S'miniscule'
p3
tp4
asI6
(lp5
(S'low'
p6
S'limited'
p7
tp8
asI7
(lp9
(S'cute'
p10
S'breathtaking'
p11
tp12
a(S'lovelier'
p13
g11
tp14
asI10
(lp15
(S'fine'
p16
S'adequate'
p17
tp18
asI13
(lp19
(S'fine'
p20
S'satisfactory'
p21
tp22
asI15
(lp23
(S'staggering'
p24
S'tremendous'
p25
tp26
asI17
(lp27
(S'pleased'
p28
S'overwhelmed'
p29
tp30
a(S'delighted'
p31
g29
tp32
asI18
(lp33
(S'bad'
p34
S'horrific'
p35
tp36
asI21
(lp37
(S'remarkable'
p38
S'spectacular'
p39
tp40
asI22
(lp41
(S'appropriate'
p42
S'faultless'
p43
tp44
a(S'a-okay'
p45
g42
tp46
a(g45
S'fine'
p47
tp48
a(S'okay'
p49
g43
tp50
a(g45
g43
tp51
asI23
(lp52
(S'graver'
p53
S'life-threatening'
p54
tp55
asI26
(lp56
(S'plenty'
p57
S'vast'
p58
tp59
a(g58
S'abundant'
p60
tp61
a(g57
g60
tp62
asI28
(lp63
(S'uncomfortable'
p64
S'embarrassed'
p65
tp66
asI30
(lp67
(S'fine'
p68
S'satisfactory'
p69
tp70
asI32
(lp71
(S'tough'
p72
S'formidable'
p73
tp74
a(g72
S'daunting'
p75
tp76
a(g73
g75
tp77
asI35
(lp78
(S'awful'
p79
S'shitty'
p80
tp81
asI36
(lp82
(S'content'
p83
S'pleased'
p84
tp85
asI37
(lp86
(S'adequate'
p87
S'fine'
p88
tp89
a(g87
S'fitting'
p90
tp91
asI38
(lp92
(S'indigent'
p93
S'bankrupt'
p94
tp95
asI39
(lp96
(S'marvellous'
p97
S'spectacular'
p98
tp99
a(S'breathtaking'
p100
g98
tp101
a(g100
g97
tp102
asI42
(lp103
(S'admirable'
p104
S'upstanding'
p105
tp106
asI44
(lp107
(S'excessive'
p108
S'huge'
p109
tp110
asI46
(lp111
(S'stringent'
p112
S'severe'
p113
tp114
asI47
(lp115
(S'low'
p116
S'limited'
p117
tp118
asI48
(lp119
(S'remarkable'
p120
S'perfect'
p121
tp122
a(S'better'
p123
g120
tp124
a(S'exceptional'
p125
g121
tp126
a(g123
g121
tp127
a(g123
g125
tp128
asI49
(lp129
(S'few'
p130
S'little'
p131
tp132
asI54
(lp133
(S'general'
p134
S'diverse'
p135
tp136
a(g134
S'broad'
p137
tp138
a(g134
S'wide-ranging'
p139
tp140
a(g137
g135
tp141
asI55
(lp142
(S'costly'
p143
S'excessive'
p144
tp145
a(S'exorbitant'
p146
g144
tp147
asI56
(lp148
(S'major'
p149
S'staggering'
p150
tp151
a(g150
S'tremendous'
p152
tp153
asI57
(lp154
(S'sizeable'
p155
S'huge'
p156
tp157
a(g155
S'overwhelming'
p158
tp159
a(g155
S'immense'
p160
tp161
a(g155
S'formidable'
p162
tp163
a(g155
S'colossal'
p164
tp165
a(g156
g164
tp166
a(g160
g158
tp167
a(g162
g158
tp168
a(g164
g158
tp169
a(g162
g160
tp170
a(g160
S'tremendous'
p171
tp172
a(g160
g164
tp173
a(g162
g164
tp174
a(g164
g171
tp175
asI58
(lp176
(S'awesome'
p177
S'perfect'
p178
tp179
asI60
(lp180
(S'incorrect'
p181
S'unsatisfactory'
p182
tp183
a(S'improper'
p184
g182
tp185
a(g184
g181
tp186
asI62
(lp187
(S'sizeable'
p188
S'huge'
p189
tp190
a(g188
S'immense'
p191
tp192
a(g191
S'tremendous'
p193
tp194
asI64
(lp195
(S'limited'
p196
S'scant'
p197
tp198
a(g196
S'meagre'
p199
tp200
a(g199
g197
tp201
asI65
(lp202
(S'minute'
p203
S'miniscule'
p204
tp205
asI66
(lp206
(S'general'
p207
S'comprehensive'
p208
tp209
a(S'global'
p210
S'universal'
p211
tp212
a(g208
g211
tp213
a(S'commonplace'
p214
g211
tp215
a(g208
g210
tp216
a(g214
g210
tp217
a(g214
g208
tp218
asI68
(lp219
(S'inadequate'
p220
S'unacceptable'
p221
tp222
a(S'scarce'
p223
g220
tp224
a(g223
g221
tp225
asI70
(lp226
(S'hardworking'
p227
S'tenacious'
p228
tp229
asI72
(lp230
(S'celebrated'
p231
S'noteworthy'
p232
tp233
asI73
(lp234
(S'intact'
p235
S'sturdy'
p236
tp237
asI78
(lp238
(S'fairest'
p239
S'beautiful'
p240
tp241
a(S'fairer'
p242
g239
tp243
as.