(dp0
I0
(lp1
(S'minute'
p2
S'miniscule'
p3
tp4
asI6
(lp5
(S'low'
p6
S'limited'
p7
tp8
asI7
(lp9
(S'cute'
p10
S'breathtaking'
p11
tp12
a(S'lovelier'
p13
g11
tp14
asI10
(lp15
(S'fine'
p16
S'adequate'
p17
tp18
asI13
(lp19
(S'fine'
p20
S'satisfactory'
p21
tp22
asI15
(lp23
(S'staggering'
p24
S'tremendous'
p25
tp26
asI17
(lp27
(S'pleased'
p28
S'overwhelmed'
p29
tp30
a(S'delighted'
p31
g29
tp32
asI18
(lp33
(S'bad'
p34
S'horrific'
p35
tp36
asI21
(lp37
(S'remarkable'
p38
S'spectacular'
p39
tp40
asI22
(lp41
(S'appropriate'
p42
S'faultless'
p43
tp44
a(S'a-okay'
p45
g42
tp46
a(g45
S'fine'
p47
tp48
a(S'okay'
p49
g43
tp50
a(g45
g43
tp51
asI23
(lp52
(S'graver'
p53
S'life-threatening'
p54
tp55
asI26
(lp56
(S'plenty'
p57
S'vast'
p58
tp59
a(g58
S'abundant'
p60
tp61
a(g57
g60
tp62
asI28
(lp63
(S'uncomfortable'
p64
S'embarrassed'
p65
tp66
asI30
(lp67
(S'fine'
p68
S'satisfactory'
p69
tp70
asI32
(lp71
(S'tough'
p72
S'formidable'
p73
tp74
a(g72
S'daunting'
p75
tp76
a(g73
g75
tp77
asI35
(lp78
(S'awful'
p79
S'shitty'
p80
tp81
asI37
(lp82
(S'adequate'
p83
S'fine'
p84
tp85
a(S'fitting'
p86
g83
tp87
asI38
(lp88
(S'indigent'
p89
S'bankrupt'
p90
tp91
asI39
(lp92
(S'breathtaking'
p93
S'marvellous'
p94
tp95
a(S'spectacular'
p96
g94
tp97
a(g96
g93
tp98
asI42
(lp99
(S'admirable'
p100
S'upstanding'
p101
tp102
asI44
(lp103
(S'excessive'
p104
S'huge'
p105
tp106
asI46
(lp107
(S'stringent'
p108
S'severe'
p109
tp110
asI47
(lp111
(S'low'
p112
S'limited'
p113
tp114
asI48
(lp115
(S'better'
p116
S'remarkable'
p117
tp118
a(g117
S'perfect'
p119
tp120
a(g116
S'exceptional'
p121
tp122
a(g121
g119
tp123
asI49
(lp124
(S'few'
p125
S'little'
p126
tp127
asI54
(lp128
(S'general'
p129
S'diverse'
p130
tp131
a(g129
S'broad'
p132
tp133
a(g129
S'wide-ranging'
p134
tp135
a(g132
g130
tp136
asI55
(lp137
(S'costly'
p138
S'excessive'
p139
tp140
a(S'exorbitant'
p141
g139
tp142
asI56
(lp143
(S'major'
p144
S'staggering'
p145
tp146
a(g145
S'tremendous'
p147
tp148
asI57
(lp149
(S'sizeable'
p150
S'immense'
p151
tp152
a(g150
S'formidable'
p153
tp154
a(g150
S'overwhelming'
p155
tp156
a(g150
S'colossal'
p157
tp158
a(g153
g151
tp159
a(g151
g155
tp160
a(g151
S'tremendous'
p161
tp162
a(g151
g157
tp163
a(g153
g155
tp164
a(g153
g157
tp165
a(g157
g155
tp166
a(g157
g161
tp167
asI60
(lp168
(S'incorrect'
p169
S'unsatisfactory'
p170
tp171
a(S'improper'
p172
g170
tp173
a(g172
g169
tp174
asI62
(lp175
(S'sizeable'
p176
S'immense'
p177
tp178
a(S'tremendous'
p179
g177
tp180
asI64
(lp181
(S'limited'
p182
S'scant'
p183
tp184
a(g182
S'meagre'
p185
tp186
a(g185
g183
tp187
asI65
(lp188
(S'minute'
p189
S'miniscule'
p190
tp191
asI66
(lp192
(S'general'
p193
S'comprehensive'
p194
tp195
a(S'global'
p196
S'universal'
p197
tp198
a(g194
g197
tp199
a(S'commonplace'
p200
g197
tp201
a(g194
g196
tp202
a(g200
g196
tp203
a(g200
g194
tp204
asI68
(lp205
(S'inadequate'
p206
S'unacceptable'
p207
tp208
a(S'scarce'
p209
g206
tp210
a(g209
g207
tp211
asI70
(lp212
(S'hardworking'
p213
S'tenacious'
p214
tp215
asI72
(lp216
(S'celebrated'
p217
S'noteworthy'
p218
tp219
asI73
(lp220
(S'intact'
p221
S'sturdy'
p222
tp223
asI78
(lp224
(S'fairest'
p225
S'beautiful'
p226
tp227
a(S'fairer'
p228
g225
tp229
as.