(dp0
I1
(lp1
(S'mean'
p2
S'meaner'
p3
tp4
asI4
(lp5
(S'bold'
p6
S'bolder'
p7
tp8
asI5
(lp9
(S'stark'
p10
S'starker'
p11
tp12
asI8
(lp13
(S'smooth'
p14
S'smoother'
p15
tp16
asI16
(lp17
(S'dre'
p18
S'drier'
p19
tp20
asI19
(lp21
(S'holy'
p22
S'holier'
p23
tp24
asI24
(lp25
(S'stupide'
p26
S'stupider'
p27
tp28
asI27
(lp29
(S'sick'
p30
S'sicker'
p31
tp32
asI28
(lp33
(S'grave'
p34
S'graver'
p35
tp36
asI31
(lp37
(S'east'
p38
S'easier'
p39
tp40
asI33
(lp41
(S'sweet'
p42
S'sweeter'
p43
tp44
asI35
(lp45
(S'far'
p46
S'further'
p47
tp48
asI39
(lp49
(S'new'
p50
S'newer'
p51
tp52
asI42
(lp53
(S'costly'
p54
S'costlier'
p55
tp56
asI43
(lp57
(S'scarce'
p58
S'scarcer'
p59
tp60
asI45
(lp61
(S'up'
p62
S'upper'
p63
tp64
asI46
(lp65
(S'dirty'
p66
S'dirtier'
p67
tp68
asI52
(lp69
(S'brave'
p70
S'braver'
p71
tp72
asI54
(lp73
(S'clean'
p74
S'cleaner'
p75
tp76
asI59
(lp77
(S'moist'
p78
S'moister'
p79
tp80
asI63
(lp81
(S'soft'
p82
S'softer'
p83
tp84
asI64
(lp85
(S'mighty'
p86
S'mightier'
p87
tp88
asI71
(lp89
(S'timely'
p90
S'timelier'
p91
tp92
asI72
(lp93
(S'soon'
p94
S'sooner'
p95
tp96
asI74
(lp97
(S'sunny'
p98
S'sunnier'
p99
tp100
asI75
(lp101
(S'dumb'
p102
S'dumber'
p103
tp104
asI76
(lp105
(S'fine'
p106
S'finer'
p107
tp108
asI80
(lp109
(S'sad'
p110
S'sadder'
p111
tp112
asI84
(lp113
(S'tight'
p114
S'tighter'
p115
tp116
asI86
(lp117
(S'wealthy'
p118
S'wealthier'
p119
tp120
asI91
(lp121
(S'steep'
p122
S'steeper'
p123
tp124
asI95
(lp125
(S'ill'
p126
S'worse'
p127
tp128
asI97
(lp129
(S'loose'
p130
S'looser'
p131
tp132
asI100
(lp133
(S'wet'
p134
S'wetter'
p135
tp136
asI104
(lp137
(S'friendly'
p138
S'friendlier'
p139
tp140
asI105
(lp141
(S'swift'
p142
S'swifter'
p143
tp144
asI108
(lp145
(S'full'
p146
S'fuller'
p147
tp148
asI109
(lp149
(S'thick'
p150
S'thicker'
p151
tp152
asI110
(lp153
(S'fierce'
p154
S'fiercer'
p155
tp156
asI112
(lp157
(S'speedy'
p158
S'speedier'
p159
tp160
asI114
(lp161
(S'dear'
p162
S'dearer'
p163
tp164
asI116
(lp165
(S'lengthy'
p166
S'lengthier'
p167
tp168
asI117
(lp169
(S'sharp'
p170
S'sharper'
p171
tp172
asI121
(lp173
(S'funny'
p174
S'funnier'
p175
tp176
asI122
(lp177
(S'mild'
p178
S'milder'
p179
tp180
asI124
(lp181
(S'slim'
p182
S'slimmer'
p183
tp184
asI130
(lp185
(S'clever'
p186
S'cleverer'
p187
tp188
asI136
(lp189
(S'older'
p190
S'oldest'
p191
tp192
asI138
(lp193
(S'weaker'
p194
S'weakest'
p195
tp196
asI140
(lp197
(S'further'
p198
S'furthest'
p199
tp200
asI141
(lp201
(S'larger'
p202
S'largest'
p203
tp204
asI142
(lp205
(S'fairer'
p206
S'fairest'
p207
tp208
asI145
(lp209
(S'rarer'
p210
S'rarest'
p211
tp212
asI146
(lp213
(S'richer'
p214
S'richest'
p215
tp216
asI147
(lp217
(S'brighter'
p218
S'brightest'
p219
tp220
asI149
(lp221
(S'shorter'
p222
S'shortest'
p223
tp224
asI150
(lp225
(S'cleaner'
p226
S'cleanest'
p227
tp228
asI151
(lp229
(S'braver'
p230
S'bravest'
p231
tp232
asI153
(lp233
(S'heavier'
p234
S'heaviest'
p235
tp236
asI154
(lp237
(S'cheaper'
p238
S'cheapest'
p239
tp240
asI155
(lp241
(S'happier'
p242
S'happiest'
p243
tp244
asI157
(lp245
(S'smarter'
p246
S'smartest'
p247
tp248
asI163
(lp249
(S'darker'
p250
S'darkest'
p251
tp252
asI166
(lp253
(S'graver'
p254
S'gravest'
p255
tp256
asI170
(lp257
(S'earlier'
p258
S'earliest'
p259
tp260
asI171
(lp261
(S'fuller'
p262
S'fullest'
p263
tp264
asI172
(lp265
(S'warmer'
p266
S'warmest'
p267
tp268
asI173
(lp269
(S'wealthier'
p270
S'wealthiest'
p271
tp272
asI175
(lp273
(S'freer'
p274
S'freest'
p275
tp276
asI176
(lp277
(S'newer'
p278
S'newest'
p279
tp280
asI177
(lp281
(S'finer'
p282
S'finest'
p283
tp284
asI178
(lp285
(S'stricter'
p286
S'strictest'
p287
tp288
asI183
(lp289
(S'safe'
p290
S'safest'
p291
tp292
asI185
(lp293
(S'old'
p294
S'oldest'
p295
tp296
asI186
(lp297
(S'fine'
p298
S'finest'
p299
tp300
asI188
(lp301
(S'ill'
p302
S'worst'
p303
tp304
asI190
(lp305
(S'bright'
p306
S'brightest'
p307
tp308
asI194
(lp309
(S'heavy'
p310
S'heaviest'
p311
tp312
asI195
(lp313
(S'cheap'
p314
S'cheapest'
p315
tp316
asI202
(lp317
(S'brave'
p318
S'bravest'
p319
tp320
asI203
(lp321
(S'late'
p322
S'latest'
p323
tp324
asI204
(lp325
(S'quick'
p326
S'quickest'
p327
tp328
asI207
(lp329
(S'far'
p330
S'furthest'
p331
tp332
asI209
(lp333
(S'large'
p334
S'largest'
p335
tp336
asI213
(lp337
(S'deep'
p338
S'deepest'
p339
tp340
asI214
(lp341
(S'full'
p342
S'fullest'
p343
tp344
asI215
(lp345
(S'smart'
p346
S'smartest'
p347
tp348
asI219
(lp349
(S'wealthy'
p350
S'wealthiest'
p351
tp352
asI225
(lp353
(S'clean'
p354
S'cleanest'
p355
tp356
asI227
(lp357
(S'hard'
p358
S'hardest'
p359
tp360
asI228
(lp361
(S'well'
p362
S'best'
p363
tp364
asI231
(lp365
(S'some'
p366
S'most'
p367
tp368
asI232
(lp369
(S'hon'
p370
S'honest'
p371
tp372
asI236
(lp373
(S'near'
p374
S'nearest'
p375
tp376
asI237
(lp377
(S'east'
p378
S'easiest'
p379
tp380
asI240
(lp381
(S'grave'
p382
S'graver'
p383
tp384
a(g383
S'gravest'
p385
tp386
asI241
(lp387
(S'bright'
p388
S'brightest'
p389
tp390
a(S'brighter'
p391
g389
tp392
asI242
(lp393
(S'heavy'
p394
S'heaviest'
p395
tp396
a(S'heavier'
p397
g395
tp398
asI243
(lp399
(S'east'
p400
S'easier'
p401
tp402
a(g400
S'easiest'
p403
tp404
asI245
(lp405
(S'finer'
p406
S'finest'
p407
tp408
a(S'fine'
p409
g407
tp410
a(g409
g406
tp411
asI246
(lp412
(S'smart'
p413
S'smartest'
p414
tp415
a(S'smarter'
p416
g414
tp417
asI247
(lp418
(S'cheap'
p419
S'cheapest'
p420
tp421
a(S'cheaper'
p422
g420
tp423
asI249
(lp424
(S'warmer'
p425
S'warmest'
p426
tp427
asI250
(lp428
(S'further'
p429
S'furthest'
p430
tp431
a(S'far'
p432
g430
tp433
a(g432
g429
tp434
asI252
(lp435
(S'freer'
p436
S'freest'
p437
tp438
asI254
(lp439
(S'rarer'
p440
S'rarest'
p441
tp442
asI255
(lp443
(S'safe'
p444
S'safest'
p445
tp446
asI257
(lp447
(S'large'
p448
S'largest'
p449
tp450
a(S'larger'
p451
g449
tp452
asI259
(lp453
(S'late'
p454
S'latest'
p455
tp456
asI260
(lp457
(S'darker'
p458
S'darkest'
p459
tp460
asI261
(lp461
(S'quick'
p462
S'quickest'
p463
tp464
asI263
(lp465
(S'fuller'
p466
S'fullest'
p467
tp468
a(S'full'
p469
g467
tp470
a(g469
g466
tp471
asI264
(lp472
(S'deep'
p473
S'deepest'
p474
tp475
asI266
(lp476
(S'wealthy'
p477
S'wealthiest'
p478
tp479
a(g477
S'wealthier'
p480
tp481
a(g480
g478
tp482
asI267
(lp483
(S'new'
p484
S'newer'
p485
tp486
a(g485
S'newest'
p487
tp488
asI269
(lp489
(S'braver'
p490
S'bravest'
p491
tp492
a(S'brave'
p493
g491
tp494
a(g493
g490
tp495
asI270
(lp496
(S'hard'
p497
S'hardest'
p498
tp499
asI271
(lp500
(S'richer'
p501
S'richest'
p502
tp503
asI272
(lp504
(S'stricter'
p505
S'strictest'
p506
tp507
asI273
(lp508
(S'cleaner'
p509
S'cleanest'
p510
tp511
a(S'clean'
p512
g510
tp513
a(g512
g509
tp514
asI274
(lp515
(S'weaker'
p516
S'weakest'
p517
tp518
asI275
(lp519
(S'fairer'
p520
S'fairest'
p521
tp522
asI276
(lp523
(S'shorter'
p524
S'shortest'
p525
tp526
asI278
(lp527
(S'earlier'
p528
S'earliest'
p529
tp530
asI281
(lp531
(S'happier'
p532
S'happiest'
p533
tp534
asI283
(lp535
(S'old'
p536
S'oldest'
p537
tp538
a(S'older'
p539
g537
tp540
as.