(lp0
(dp1
S'raw'
p2
(dp3
S'prob*'
p4
cnumpy.core.multiarray
scalar
p5
(cnumpy
dtype
p6
(S'f8'
p7
I0
I1
tp8
Rp9
(I3
S'<'
p10
NNNI-1
I-1
I0
tp11
bS'Hx\xd1\xe6\xb7@\xef?'
p12
tp13
Rp14
sS'link-probs'
p15
(lp16
(S'good'
p17
S'great'
p18
F0.9766501911324292
tp19
assS'algo'
p20
(lp21
(lp22
g17
aa(lp23
g18
aasa(dp24
g2
(dp25
g4
g5
(g9
S'\xdf3\x89\xde3\x89\xee?'
p26
tp27
Rp28
sg15
(lp29
(S'great'
p30
S'excellent'
p31
F0.954248366013072
tp32
assg20
(lp33
(lp34
g30
aa(lp35
g31
aasa.