(lp0
(dp1
S'raw'
p2
(dp3
S'prob*'
p4
cnumpy.core.multiarray
scalar
p5
(cnumpy
dtype
p6
(S'f8'
p7
I0
I1
tp8
Rp9
(I3
S'<'
p10
NNNI-1
I-1
I0
tp11
bS'Hx\xd1\xe6\xb7@\xef?'
p12
tp13
Rp14
sS'link-probs'
p15
(lp16
(S'good'
p17
S'great'
p18
F0.9766501911324292
tp19
assS'algo'
p20
(lp21
(lp22
g17
aa(lp23
g18
aasa(dp24
g2
(dp25
g4
g5
(g9
S'\xdf3\x89\xde3\x89\xee?'
p26
tp27
Rp28
sg15
(lp29
(S'great'
p30
S'excellent'
p31
F0.954248366013072
tp32
assg20
(lp33
(lp34
g30
aa(lp35
g31
aasa(dp36
g2
(dp37
S'prob*'
p38
g5
(g9
S'X\xe2\xa7\xe1\xee\xc8\x9f?'
p39
tp40
Rp41
sS'link-probs'
p42
(lp43
(S'wonderful'
p44
S'amazing'
p45
F0.625
tp46
a(g44
S'awesome'
p47
F0.6818181818181818
tp48
a(g44
S'fantastic'
p49
F0.6666666666666666
tp50
a(g44
S'terrific'
p51
F0.8333333333333334
tp52
a(g45
g47
F0.6666666666666666
tp53
a(g45
g49
F0.7272727272727273
tp54
a(g45
g51
F0.8333333333333334
tp55
a(g47
g49
F0.6622528833034887
tp56
a(g47
g51
F0.7
tp57
a(g49
g51
F0.7
tp58
assg20
(lp59
(lp60
g44
aa(lp61
g45
aa(lp62
g47
aa(lp63
g49
aa(lp64
g51
aasa(dp65
g2
(dp66
S'prob*'
p67
g5
(g9
S'\x99,8\x89\xc0C\xda?'
p68
tp69
Rp70
sS'link-probs'
p71
(lp72
(S'smart'
p73
S'brilliant'
p74
F0.9849246231155779
tp75
a(g73
S'bright'
p76
F0.6666666666666666
tp77
a(g74
g76
F0.625
tp78
assg20
(lp79
(lp80
g73
aa(lp81
g74
aa(lp82
g76
aasa(dp83
g2
(dp84
S'prob*'
p85
g5
(g9
S'\x02\xb0Cy\xe4\x9c\xe1?'
p86
tp87
Rp88
sS'link-probs'
p89
(lp90
(S'welcome'
p91
S'welcoming'
p92
F0.550401913494625
tp93
assg20
(lp94
(lp95
g91
aa(lp96
g92
aasa(dp97
g2
(dp98
S'prob*'
p99
g5
(g9
S'\xff\xc6\xb7\x81\x14y\xe1?'
p100
tp101
Rp102
sS'link-probs'
p103
(lp104
(S'long'
p105
S'far'
p106
F0.5460302861740444
tp107
assg20
(lp108
(lp109
g105
aa(lp110
g106
aasa(dp111
g2
(dp112
S'prob*'
p113
g5
(g9
S'C\x0f\xbd\xefZ2\xe0?'
p114
tp115
Rp116
sS'link-probs'
p117
(lp118
(S'unacceptable'
p119
S'acceptable'
p120
F0.5061468775170187
tp121
assg20
(lp122
(lp123
g119
aa(lp124
g120
aasa(dp125
g2
(dp126
S'prob*'
p127
g5
(g9
S'\xc5&\xcb$J\xb2H?'
p128
tp129
Rp130
sS'link-probs'
p131
(lp132
(S'over'
p133
S'married'
p134
F0.592841164876011
tp135
a(g133
S'last'
p136
F0.6553505660042207
tp137
a(g133
S'past'
p138
F0.6666666666666666
tp139
a(g133
S'late'
p140
F0.6589662914460206
tp141
a(g133
S'later'
p142
F0.6542096982838366
tp143
a(g134
g136
F0.6300180997167913
tp144
a(g134
g138
F0.39050760288049924
tp145
a(g134
g140
F0.6410850450074315
tp146
a(g134
g142
F0.6266407133257176
tp147
a(g136
g138
F0.6666666666666666
tp148
a(g136
g140
F0.5325852938268699
tp149
a(g136
g142
F0.49170662226150647
tp150
a(g138
g140
F0.6610272102568681
tp151
a(g138
g142
F0.6575078597716096
tp152
a(g140
g142
F0.9
tp153
assg20
(lp154
(lp155
g133
aa(lp156
g134
aa(lp157
g136
aa(lp158
g138
aa(lp159
g140
aa(lp160
g142
aasa(dp161
g2
(dp162
S'prob*'
p163
g5
(g9
S'\x9b\xe8\xbf\xbe\x01\xa4\xe1?'
p164
tp165
Rp166
sS'link-probs'
p167
(lp168
(S'confusing'
p169
S'complex'
p170
F0.5512703633860555
tp171
assg20
(lp172
(lp173
g169
aa(lp174
g170
aasa(dp175
g2
(dp176
S'prob*'
p177
g5
(g9
S'y\xe1\x8a?0\xd7\x94?'
p178
tp179
Rp180
sS'link-probs'
p181
(lp182
(S'different'
p183
S'diverse'
p184
F0.7692307692307693
tp185
a(g183
S'mixed'
p186
F0.75
tp187
a(g183
S'various'
p188
F0.9166666666666666
tp189
a(g183
S'uneven'
p190
F0.6580724633612979
tp191
a(g184
g186
F0.75
tp192
a(g184
g188
F0.8
tp193
a(g184
g190
F0.5714999403590021
tp194
a(g186
g188
F0.5295896778534394
tp195
a(g186
g190
F0.580057792552441
tp196
a(g188
g190
F0.5551732831544774
tp197
assg20
(lp198
(lp199
g183
aa(lp200
g184
aa(lp201
g186
aa(lp202
g188
aa(lp203
g190
aasa(dp204
g2
(dp205
S'prob*'
p206
g5
(g9
S'\xee\x07\x17\x10$\x0e\x94?'
p207
tp208
Rp209
sS'link-probs'
p210
(lp211
(S'cute'
p212
S'adorable'
p213
F0.6666666666666666
tp214
a(g212
S'gorgeous'
p215
F0.75
tp216
a(g212
S'charming'
p217
F0.6666666666666666
tp218
a(g212
S'delightful'
p219
F0.8
tp220
a(g213
g215
F0.6610002684777316
tp221
a(g213
g217
F0.4
tp222
a(g213
g219
F0.75
tp223
a(g215
g217
F0.6666666666666666
tp224
a(g215
g219
F0.6666666666666666
tp225
a(g217
g219
F0.8333333333333334
tp226
assg20
(lp227
(lp228
g212
aa(lp229
g213
aa(lp230
g215
aa(lp231
g217
aa(lp232
g219
aasa(dp233
g2
(dp234
S'prob*'
p235
g5
(g9
S'\xb1@\xf0\x93D\xfd}?'
p236
tp237
Rp238
sS'link-probs'
p239
(lp240
(S'used'
p241
S'experienced'
p242
F0.5436969899573848
tp243
a(g241
S'aware'
p244
F0.6520299850749394
tp245
a(g241
S'famous'
p246
F0.5236969077644043
tp247
a(g241
S'familiar'
p248
F0.6598724666458282
tp249
a(g242
g244
F0.6423854975553921
tp250
a(g242
g246
F0.47922549824010224
tp251
a(g242
g248
F0.655209821931512
tp252
a(g244
g246
F0.6666666666666666
tp253
a(g244
g248
F0.6666666666666666
tp254
a(g246
g248
F0.6666666666666666
tp255
assg20
(lp256
(lp257
g241
aa(lp258
g242
aa(lp259
g244
aa(lp260
g246
aa(lp261
g248
aasa(dp262
g2
(dp263
S'prob*'
p264
g5
(g9
S'\x1cD\xd28/q\xb0?'
p265
tp266
Rp267
sS'link-probs'
p268
(lp269
(S'above'
p270
S'old'
p271
F0.6028960466385812
tp272
a(g270
S'prior'
p273
F0.6592911802624564
tp274
a(g270
S'original'
p275
F0.6641044854060149
tp276
a(g271
g273
F0.6375677544410774
tp277
a(g271
g275
F0.6560983018541499
tp278
a(g273
g275
F0.581656592089084
tp279
assg20
(lp280
(lp281
g270
aa(lp282
g271
aa(lp283
g273
aa(lp284
g275
aasa(dp285
g2
(dp286
S'prob*'
p287
g5
(g9
S'\x87\xce\xec\xf1\xbc\xac\xc1?'
p288
tp289
Rp290
sS'link-probs'
p291
(lp292
(S'sure'
p293
S'reliable'
p294
F0.8571428571428571
tp295
a(g293
S'confident'
p296
F0.8333333333333334
tp297
a(g293
S'unsure'
p298
F0.75
tp299
a(g294
g296
F0.6482862881442691
tp300
a(g294
g298
F0.6619318479200618
tp301
a(g296
g298
F0.6006620135388734
tp302
assg20
(lp303
(lp304
g293
aa(lp305
g294
aa(lp306
g296
aa(lp307
g298
aasa(dp308
g2
(dp309
S'prob*'
p310
g5
(g9
S'#]B\xe1k\x08\xd6?'
p311
tp312
Rp313
sS'link-probs'
p314
(lp315
(S'close'
p316
S'closed'
p317
F0.5226324219835169
tp318
a(g316
S'intimate'
p319
F0.996
tp320
a(g317
g319
F0.6613569568988457
tp321
assg20
(lp322
(lp323
g316
aa(lp324
g317
aa(lp325
g319
aasa(dp326
g2
(dp327
S'prob*'
p328
g5
(g9
S'\x1e\xf8\xe2\x17 \xf5|?'
p329
tp330
Rp331
sS'link-probs'
p332
(lp333
(S'central'
p334
S'basic'
p335
F0.5679868691136667
tp336
a(g334
S'first'
p337
F0.43369178347231374
tp338
a(g334
S'main'
p339
F0.6666666666666666
tp340
a(g334
S'key'
p341
F0.6003091323463298
tp342
a(g335
g337
F0.6666666666666666
tp343
a(g335
g339
F0.6666666666666666
tp344
a(g335
g341
F0.75
tp345
a(g337
g339
F0.6036397861234066
tp346
a(g337
g341
F0.634428725537307
tp347
a(g339
g341
F0.561770344979632
tp348
assg20
(lp349
(lp350
g334
aa(lp351
g335
aa(lp352
g337
aa(lp353
g339
aa(lp354
g341
aasa(dp355
g2
(dp356
S'prob*'
p357
g5
(g9
S'\xab\x8fr\xf9\x99\xe1\xab?'
p358
tp359
Rp360
sS'link-probs'
p361
(lp362
(S'quick'
p363
S'fast'
p364
F0.625
tp365
a(g363
S'hungry'
p366
F0.5668449334959439
tp367
a(g363
S'french'
p368
F0.6626312320845801
tp369
a(g364
g366
F0.5342541815173215
tp370
a(g364
g368
F0.6604859471733239
tp371
a(g366
g368
F0.6573772471851022
tp372
assg20
(lp373
(lp374
g363
aa(lp375
g364
aa(lp376
g366
aa(lp377
g368
aasa(dp378
g2
(dp379
S'prob*'
p380
g5
(g9
S'\xff\x10\x01\xc9\x1e\xb8\xd7?'
p381
tp382
Rp383
sS'link-probs'
p384
(lp385
(S'expensive'
p386
S'cheap'
p387
F0.8333333333333334
tp388
a(g386
S'pricey'
p389
F0.75
tp390
a(g387
g389
F0.5929804936113441
tp391
assg20
(lp392
(lp393
g386
aa(lp394
g387
aa(lp395
g389
aasa(dp396
g2
(dp397
S'prob*'
p398
g5
(g9
S'(\x8bDi\xe6B;?'
p399
tp400
Rp401
sS'link-probs'
p402
(lp403
(S'cool'
p404
S'hot'
p405
F0.5555555555555556
tp406
a(g404
S'awesome'
p407
F0.5714285714285714
tp408
a(g404
S'impressed'
p409
F0.4998507797214527
tp410
a(g404
S'super'
p411
F0.6666666666666666
tp412
a(g404
S'amazing'
p413
F0.6666666666666666
tp414
a(g405
g407
F0.75
tp415
a(g405
g409
F0.6666666666666666
tp416
a(g405
g411
F0.6666666666666666
tp417
a(g405
g413
F0.5099686672467729
tp418
a(g407
g409
F0.6666666666666666
tp419
a(g407
g411
F0.625
tp420
a(g407
g413
F0.3333333333333333
tp421
a(g409
g411
F0.6106964227174857
tp422
a(g409
g413
F0.6567870179077547
tp423
a(g411
g413
F0.6228451711725002
tp424
assg20
(lp425
(lp426
g404
aa(lp427
g405
aa(lp428
g407
aa(lp429
g409
aa(lp430
g411
aa(lp431
g413
aasa(dp432
g2
(dp433
S'prob*'
p434
g5
(g9
S'\xe3FwR\xf0\x82\xe3?'
p435
tp436
Rp437
sS'link-probs'
p438
(lp439
(S'top'
p440
S'first'
p441
F0.6097337351477247
tp442
assg20
(lp443
(lp444
g440
aa(lp445
g441
aasa(dp446
g2
(dp447
S'prob*'
p448
g5
(g9
S'\xe7\xd4\xb3\xf4=\x84\xb0?'
p449
tp450
Rp451
sS'link-probs'
p452
(lp453
(S'reasonable'
p454
S'decent'
p455
F0.6666666666666666
tp456
a(g454
S'regular'
p457
F0.654203285496861
tp458
a(g454
S'worth'
p459
F0.6666666666666666
tp460
a(g455
g457
F0.6632487837860953
tp461
a(g455
g459
F0.6634188765217481
tp462
a(g457
g459
F0.5042958766728938
tp463
assg20
(lp464
(lp465
g454
aa(lp466
g455
aa(lp467
g457
aa(lp468
g459
aasa(dp469
g2
(dp470
S'prob*'
p471
g5
(g9
S'\xb0\x84\xacB\xaa\r2?'
p472
tp473
Rp474
sS'link-probs'
p475
(lp476
(S'difficult'
p477
S'hard'
p478
F0.6410256410256411
tp479
a(g477
S'picky'
p480
F0.9047619047619048
tp481
a(g477
S'easy'
p482
F0.6363636363636364
tp483
a(g477
S'tricky'
p484
F0.9166666666666666
tp485
a(g477
S'challenging'
p486
F0.78125
tp487
a(g477
S'stressful'
p488
F0.875
tp489
a(g478
g480
F0.5209962992864936
tp490
a(g478
g482
F0.6802841918294849
tp491
a(g478
g484
F0.8
tp492
a(g478
g486
F0.6666666666666666
tp493
a(g478
g488
F0.662632109957456
tp494
a(g480
g482
F0.5194474763943339
tp495
a(g480
g484
F0.6468868756699347
tp496
a(g480
g486
F0.656310569389423
tp497
a(g480
g488
F0.6614871348274184
tp498
a(g482
g484
F0.8
tp499
a(g482
g486
F0.6666666666666666
tp500
a(g482
g488
F0.6601454862217041
tp501
a(g484
g486
F0.5543337023244226
tp502
a(g484
g488
F0.5999554019370676
tp503
a(g486
g488
F0.5567091347037548
tp504
assg20
(lp505
(lp506
g477
aa(lp507
g478
aa(lp508
g480
aa(lp509
g482
aa(lp510
g484
aa(lp511
g486
aa(lp512
g488
aasa(dp513
g2
(dp514
S'prob*'
p515
g5
(g9
S')\xe2/R\xc0\x19\xe5?'
p516
tp517
Rp518
sS'link-probs'
p519
(lp520
(S'cold'
p521
S'fresh'
p522
F0.6593934636321751
tp523
assg20
(lp524
(lp525
g521
aa(lp526
g522
aasa(dp527
g2
(dp528
S'prob*'
p529
g5
(g9
S'\xf4%\xd6a\xad#\xa6?'
p530
tp531
Rp532
sS'link-probs'
p533
(lp534
(S'happy'
p535
S'glad'
p536
F0.6363636363636364
tp537
a(g535
S'disappointed'
p538
F0.5307056122793654
tp539
a(g535
S'excited'
p540
F0.6
tp541
a(g536
g538
F0.5052466825788973
tp542
a(g536
g540
F0.6503930136127777
tp543
a(g538
g540
F0.6493899495302519
tp544
assg20
(lp545
(lp546
g535
aa(lp547
g536
aa(lp548
g538
aa(lp549
g540
aasa(dp550
g2
(dp551
S'prob*'
p552
g5
(g9
S'\xf2\xffZ\xb0h\xc3\x85?'
p553
tp554
Rp555
sS'link-probs'
p556
(lp557
(S'available'
p558
S'open'
p559
F0.8333333333333334
tp560
a(g558
S'free'
p561
F0.6666666666666666
tp562
a(g558
S'able'
p563
F0.5861197478230444
tp564
a(g558
S'ready'
p565
F0.6666666666666666
tp566
a(g559
g561
F0.5345561987786437
tp567
a(g559
g563
F0.582583391297732
tp568
a(g559
g565
F0.6614551620314408
tp569
a(g561
g563
F0.5535262462804718
tp570
a(g561
g565
F0.6587932079210234
tp571
a(g563
g565
F0.6516783879698362
tp572
assg20
(lp573
(lp574
g558
aa(lp575
g559
aa(lp576
g561
aa(lp577
g563
aa(lp578
g565
aasa(dp579
g2
(dp580
S'prob*'
p581
g5
(g9
S'\x9f\xbf\x8c\x1c\xa0\\\xd0?'
p582
tp583
Rp584
sS'link-probs'
p585
(lp586
(S'rude'
p587
S'horrible'
p588
F0.6666666666666666
tp589
a(g587
S'terrible'
p590
F0.6573944775515875
tp591
a(g588
g590
F0.5833333333333334
tp592
assg20
(lp593
(lp594
g587
aa(lp595
g588
aa(lp596
g590
aasa(dp597
g2
(dp598
S'prob*'
p599
g5
(g9
S'Y\x96eY\x96e\xd9?'
p600
tp601
Rp602
sS'link-probs'
p603
(lp604
(S'delicious'
p605
S'tasty'
p606
F0.7142857142857143
tp607
a(g605
S'sweet'
p608
F0.8333333333333334
tp609
a(g606
g608
F0.6666666666666666
tp610
assg20
(lp611
(lp612
g605
aa(lp613
g606
aa(lp614
g608
aasa(dp615
g2
(dp616
S'prob*'
p617
g5
(g9
S'\xb3\r\xa6[1D@?'
p618
tp619
Rp620
sS'link-probs'
p621
(lp622
(S'small'
p623
S'few'
p624
F0.625
tp625
a(g623
S'short'
p626
F0.6666666666666666
tp627
a(g623
S'little'
p628
F0.6875
tp629
a(g623
S'enough'
p630
F0.6508446485531539
tp631
a(g623
S'slow'
p632
F0.6666666666666666
tp633
a(g624
g626
F0.5555555555555556
tp634
a(g624
g628
F0.5559423331865695
tp635
a(g624
g630
F0.6541434097461871
tp636
a(g624
g632
F0.5362030233794297
tp637
a(g626
g628
F0.5087424624408529
tp638
a(g626
g630
F0.6446681627187595
tp639
a(g626
g632
F0.48736611159091175
tp640
a(g628
g630
F0.6424097911304965
tp641
a(g628
g632
F0.4787083101597424
tp642
a(g630
g632
F0.75
tp643
assg20
(lp644
(lp645
g623
aa(lp646
g624
aa(lp647
g626
aa(lp648
g628
aa(lp649
g630
aa(lp650
g632
aasa(dp651
g2
(dp652
S'prob*'
p653
g5
(g9
S'4\x88\xc5\tou\xe4?'
p654
tp655
Rp656
sS'link-probs'
p657
(lp658
(S'old'
p659
S'late'
p660
F0.6393351736881017
tp661
assg20
(lp662
(lp663
g659
aa(lp664
g660
aasa(dp665
g2
(dp666
S'prob*'
p667
g5
(g9
S'\xc5B\xd5\xcb\xf8\xfa\xef?'
p668
tp669
Rp670
sS'link-probs'
p671
(lp672
(S'simple'
p673
S'easy'
p674
F0.9993862134088763
tp675
assg20
(lp676
(lp677
g673
aa(lp678
g674
aasa(dp679
g2
(dp680
S'prob*'
p681
g5
(g9
S'\xbbj\xfaDjJ\xe2?'
p682
tp683
Rp684
sS'link-probs'
p685
(lp686
(S'knowledgeable'
p687
S'sure'
p688
F0.5715838763456625
tp689
assg20
(lp690
(lp691
g687
aa(lp692
g688
aasa(dp693
g2
(dp694
S'prob*'
p695
g5
(g9
S'\xcd\xd0K\xe2@4\xcf?'
p696
tp697
Rp698
sS'link-probs'
p699
(lp700
(S'necessary'
p701
S'unnecessary'
p702
F0.8333333333333334
tp703
a(g701
S'worth'
p704
F0.5322831783110787
tp705
a(g702
g704
F0.5495920038831316
tp706
assg20
(lp707
(lp708
g701
aa(lp709
g702
aa(lp710
g704
aasa(dp711
g2
(dp712
S'prob*'
p713
g5
(g9
S'\x00\x00\x00\x00\x00\x00\xd8?'
p714
tp715
Rp716
sS'link-probs'
p717
(lp718
(S'different'
p719
S'many'
p720
F0.6666666666666666
tp721
a(g719
S'several'
p722
F0.75
tp723
a(g720
g722
F0.75
tp724
assg20
(lp725
(lp726
g719
aa(lp727
g720
aa(lp728
g722
aasa(dp729
g2
(dp730
S'prob*'
p731
g5
(g9
S'\xb5\xbfS\xa6\\\xa4\xce?'
p732
tp733
Rp734
sS'link-probs'
p735
(lp736
(S'close'
p737
S'busy'
p738
F0.5467820533437969
tp739
a(g737
S'attentive'
p740
F0.6630600020048617
tp741
a(g738
g740
F0.6602989478160536
tp742
assg20
(lp743
(lp744
g737
aa(lp745
g738
aa(lp746
g740
aasa(dp747
g2
(dp748
S'prob*'
p749
g5
(g9
S'\xfc\xcb\x12u1\xc0\xa3?'
p750
tp751
Rp752
sS'link-probs'
p753
(lp754
(S'other'
p755
S'last'
p756
F0.634252904693672
tp757
a(g755
S'new'
p758
F0.6354909899806457
tp759
a(g755
S'next'
p760
F0.6666666666666666
tp761
a(g756
g758
F0.5035870115344495
tp762
a(g756
g760
F0.5356459787242412
tp763
a(g758
g760
F0.5322072186704078
tp764
assg20
(lp765
(lp766
g755
aa(lp767
g756
aa(lp768
g758
aa(lp769
g760
aasa(dp770
g2
(dp771
S'prob*'
p772
g5
(g9
S'\xca*\x81\xc7&\xeb\xa6?'
p773
tp774
Rp775
sS'link-probs'
p776
(lp777
(S'friendly'
p778
S'helpful'
p779
F0.5179799044358596
tp780
a(g778
S'pleasant'
p781
F0.6576082618948048
tp782
a(g778
S'comfortable'
p783
F0.5096966233510645
tp784
a(g779
g781
F0.6554909421803911
tp785
a(g779
g783
F0.49166440138906237
tp786
a(g781
g783
F0.8
tp787
assg20
(lp788
(lp789
g778
aa(lp790
g779
aa(lp791
g781
aa(lp792
g783
aasa(dp793
g2
(dp794
S'prob*'
p795
g5
(g9
S'UUUUUU\xe5?'
p796
tp797
Rp798
sS'link-probs'
p799
(lp800
(S'clean'
p801
S'green'
p802
F0.6666666666666666
tp803
assg20
(lp804
(lp805
g801
aa(lp806
g802
aasa(dp807
g2
(dp808
S'prob*'
p809
g5
(g9
S'*j%\xec\xcf(\xcf?'
p810
tp811
Rp812
sS'link-probs'
p813
(lp814
(S'same'
p815
S'own'
p816
F0.5817340494407627
tp817
a(g815
S'only'
p818
F0.6561730670188238
tp819
a(g816
g818
F0.6377295596178514
tp820
assg20
(lp821
(lp822
g815
aa(lp823
g816
aa(lp824
g818
aasa(dp825
g2
(dp826
S'prob*'
p827
g5
(g9
S'\xff(\x13\xfb:&\xce?'
p828
tp829
Rp830
sS'link-probs'
p831
(lp832
(S'warm'
p833
S'dry'
p834
F0.5499456230119159
tp835
a(g833
S'empty'
p836
F0.6579923214986404
tp837
a(g834
g836
F0.6509194187161093
tp838
assg20
(lp839
(lp840
g833
aa(lp841
g834
aa(lp842
g836
aasa(dp843
g2
(dp844
S'prob*'
p845
g5
(g9
S'\xfa\xb5\xa8\xdd\x99\xc2{?'
p846
tp847
Rp848
sS'link-probs'
p849
(lp850
(S'beautiful'
p851
S'nice'
p852
F0.6190476190476191
tp853
a(g851
S'soft'
p854
F0.49637830922161436
tp855
a(g851
S'cute'
p856
F0.5625
tp857
a(g851
S'favorite'
p858
F0.6603016244932238
tp859
a(g852
g854
F0.6666666666666666
tp860
a(g852
g856
F0.6
tp861
a(g852
g858
F0.6592528409216197
tp862
a(g854
g856
F0.5113548602672292
tp863
a(g854
g858
F0.6605674137817572
tp864
a(g856
g858
F0.6666666666666666
tp865
assg20
(lp866
(lp867
g851
aa(lp868
g852
aa(lp869
g854
aa(lp870
g856
aa(lp871
g858
aasa(dp872
g2
(dp873
S'prob*'
p874
g5
(g9
S'\xa9\x8a\x8e%\x91{[?'
p875
tp876
Rp877
sS'link-probs'
p878
(lp879
(S'special'
p880
S'excellent'
p881
F0.6666666666666666
tp882
a(g880
S'wonderful'
p883
F0.75
tp884
a(g880
S'outstanding'
p885
F0.8
tp886
a(g880
S'unique'
p887
F0.8
tp888
a(g880
S'fantastic'
p889
F0.6666666666666666
tp890
a(g881
g883
F0.6666666666666666
tp891
a(g881
g885
F0.625
tp892
a(g881
g887
F0.45177272929318396
tp893
a(g881
g889
F0.8571428571428571
tp894
a(g883
g885
F0.625
tp895
a(g883
g887
F0.49989280776440675
tp896
a(g883
g889
F0.6666666666666666
tp897
a(g885
g887
F0.6666666666666666
tp898
a(g885
g889
F0.5325878734117079
tp899
a(g887
g889
F0.6589505675710666
tp900
assg20
(lp901
(lp902
g880
aa(lp903
g881
aa(lp904
g883
aa(lp905
g885
aa(lp906
g887
aa(lp907
g889
aasa(dp908
g2
(dp909
S'prob*'
p910
g5
(g9
S'\x92xoJ\x87\x9f\xbd?'
p911
tp912
Rp913
sS'link-probs'
p914
(lp915
(S'pretty'
p916
S'beautiful'
p917
F0.9069200779727096
tp918
a(g916
S'lovely'
p919
F0.6666666666666666
tp920
a(g916
S'american'
p921
F0.6596792189286154
tp922
a(g917
g919
F0.6666666666666666
tp923
a(g917
g921
F0.6605345343609836
tp924
a(g919
g921
F0.6588348460245234
tp925
assg20
(lp926
(lp927
g916
aa(lp928
g917
aa(lp929
g919
aa(lp930
g921
aasa(dp931
g2
(dp932
S'prob*'
p933
g5
(g9
S'\xb60x}\xb4\xea\xb3?'
p934
tp935
Rp936
sS'link-probs'
p937
(lp938
(S'elegant'
p939
S'fancy'
p940
F0.6666666666666666
tp941
a(g939
S'classy'
p942
F0.6666666666666666
tp943
a(g939
S'stylish'
p944
F0.6666666666666666
tp945
a(g940
g942
F0.5991073729659692
tp946
a(g940
g944
F0.6647624880010704
tp947
a(g942
g944
F0.6592992267294798
tp948
assg20
(lp949
(lp950
g939
aa(lp951
g940
aa(lp952
g942
aa(lp953
g944
aasa(dp954
g2
(dp955
S'prob*'
p956
g5
(g9
S'\x12\xae\xd4XbK\xe1?'
p957
tp958
Rp959
sS'link-probs'
p960
(lp961
(S'available'
p962
S'affordable'
p963
F0.8333333333333334
tp964
a(g962
S'accessible'
p965
F0.9977452085682075
tp966
a(g963
g965
F0.650008235727586
tp967
assg20
(lp968
(lp969
g962
aa(lp970
g963
aa(lp971
g965
aasa(dp972
g2
(dp973
S'prob*'
p974
g5
(g9
S'\xe1\\\xf1\xbb?\x11\xe5?'
p975
tp976
Rp977
sS'link-probs'
p978
(lp979
(S'young'
p980
S'female'
p981
F0.6583555861242553
tp982
assg20
(lp983
(lp984
g980
aa(lp985
g981
aasa(dp986
g2
(dp987
S'prob*'
p988
g5
(g9
S'N3\x1a\xbb\xfd\xa7\xe0?'
p989
tp990
Rp991
sS'link-probs'
p992
(lp993
(S'busy'
p994
S'crowded'
p995
F0.5205067304938014
tp996
assg20
(lp997
(lp998
g994
aa(lp999
g995
aasa(dp1000
g2
(dp1001
S'prob*'
p1002
g5
(g9
S'\xb9\xd8{\xac\xd1\xf9\xdb?'
p1003
tp1004
Rp1005
sS'link-probs'
p1006
(lp1007
(S'nearby'
p1008
S'near'
p1009
F0.6666666666666666
tp1010
a(g1008
S'adjacent'
p1011
F0.6565412194606358
tp1012
a(g1009
g1011
F0.9986945169712794
tp1013
assg20
(lp1014
(lp1015
g1008
aa(lp1016
g1009
aa(lp1017
g1011
aasa(dp1018
g2
(dp1019
S'prob*'
p1020
g5
(g9
S'\x01k\x99A\xf7\x10\xd5?'
p1021
tp1022
Rp1023
sS'link-probs'
p1024
(lp1025
(S'rough'
p1026
S'rude'
p1027
F0.75
tp1028
a(g1026
S'harsh'
p1029
F0.6666666666666666
tp1030
a(g1027
g1029
F0.6583210259662736
tp1031
assg20
(lp1032
(lp1033
g1026
aa(lp1034
g1027
aa(lp1035
g1029
aasa(dp1036
g2
(dp1037
S'prob*'
p1038
g5
(g9
S'\x17\xc7\x89\xfd$\xa3\xaf?'
p1039
tp1040
Rp1041
sS'link-probs'
p1042
(lp1043
(S'quick'
p1044
S'fast'
p1045
F0.625
tp1046
a(g1044
S'early'
p1047
F0.5652802106304843
tp1048
a(g1044
S'timely'
p1049
F0.8
tp1050
a(g1045
g1047
F0.5324721773665488
tp1051
a(g1045
g1049
F0.6454468461548236
tp1052
a(g1047
g1049
F0.636118507771317
tp1053
assg20
(lp1054
(lp1055
g1044
aa(lp1056
g1045
aa(lp1057
g1047
aa(lp1058
g1049
aasa(dp1059
g2
(dp1060
S'prob*'
p1061
g5
(g9
S'\xc2h\xf5\xb4\x0e6\xb2?'
p1062
tp1063
Rp1064
sS'link-probs'
p1065
(lp1066
(S'asian'
p1067
S'eastern'
p1068
F0.6666666666666666
tp1069
a(g1067
S'east'
p1070
F0.6666666666666666
tp1071
a(g1067
S'western'
p1072
F0.6568095028703324
tp1073
a(g1068
g1070
F0.6666666666666666
tp1074
a(g1068
g1072
F0.5513810759493393
tp1075
a(g1070
g1072
F0.66294909677333
tp1076
assg20
(lp1077
(lp1078
g1067
aa(lp1079
g1068
aa(lp1080
g1070
aa(lp1081
g1072
aasa(dp1082
g2
(dp1083
S'prob*'
p1084
g5
(g9
S',\xecP\xf4\xaa\x00\xd5?'
p1085
tp1086
Rp1087
sS'link-probs'
p1088
(lp1089
(S'pleasant'
p1090
S'entertaining'
p1091
F0.75
tp1092
a(g1090
S'enjoyable'
p1093
F0.6666666666666666
tp1094
a(g1091
g1093
F0.6563315173911
tp1095
assg20
(lp1096
(lp1097
g1090
aa(lp1098
g1091
aa(lp1099
g1093
aasa(dp1100
g2
(dp1101
S'prob*'
p1102
g5
(g9
S'\xd9-\xde\x1e\x959G?'
p1103
tp1104
Rp1105
sS'link-probs'
p1106
(lp1107
(S'nervous'
p1108
S'hungry'
p1109
F0.5356855734923806
tp1110
a(g1108
S'upset'
p1111
F0.5555555555555556
tp1112
a(g1108
S'angry'
p1113
F0.6381153887310799
tp1114
a(g1108
S'annoyed'
p1115
F0.4981684063517006
tp1116
a(g1108
S'irritated'
p1117
F0.6598409958068133
tp1118
a(g1109
g1111
F0.5880384487366946
tp1119
a(g1109
g1113
F0.6245247627629903
tp1120
a(g1109
g1115
F0.46257090400543505
tp1121
a(g1109
g1117
F0.6562380719751945
tp1122
a(g1111
g1113
F0.6367896895137668
tp1123
a(g1111
g1115
F0.8
tp1124
a(g1111
g1117
F0.75
tp1125
a(g1113
g1115
F0.6666666666666666
tp1126
a(g1113
g1117
F0.6058515728401903
tp1127
a(g1115
g1117
F0.6599864134353365
tp1128
assg20
(lp1129
(lp1130
g1108
aa(lp1131
g1109
aa(lp1132
g1111
aa(lp1133
g1113
aa(lp1134
g1115
aa(lp1135
g1117
aasa(dp1136
g2
(dp1137
S'prob*'
p1138
g5
(g9
S'z\x8f\xfb}b%\xc9?'
p1139
tp1140
Rp1141
sS'link-probs'
p1142
(lp1143
(S'expensive'
p1144
S'inexpensive'
p1145
F0.8
tp1146
a(g1144
S'cheap'
p1147
F0.8333333333333334
tp1148
a(g1144
S'pricey'
p1149
F0.75
tp1150
a(g1145
g1147
F0.9987012987012988
tp1151
a(g1145
g1149
F0.6634581060739814
tp1152
a(g1147
g1149
F0.5929804936113441
tp1153
assg20
(lp1154
(lp1155
g1144
aa(lp1156
g1145
aa(lp1157
g1147
aa(lp1158
g1149
aasa(dp1159
g2
(dp1160
S'prob*'
p1161
g5
(g9
S'v\xf3\x17\xc1\xa8\xb3\xcc?'
p1162
tp1163
Rp1164
sS'link-probs'
p1165
(lp1166
(S'miserable'
p1167
S'bitter'
p1168
F0.6606637100831053
tp1169
a(g1167
S'desperate'
p1170
F0.6615230626124041
tp1171
a(g1168
g1170
F0.5130664634818463
tp1172
assg20
(lp1173
(lp1174
g1167
aa(lp1175
g1168
aa(lp1176
g1170
aasa(dp1177
g2
(dp1178
S'prob*'
p1179
g5
(g9
S'\xe7\x85A\xe4\xb9\x1d\xe5?'
p1180
tp1181
Rp1182
sS'link-probs'
p1183
(lp1184
(S'dead'
p1185
S'flat'
p1186
F0.6598786790966046
tp1187
assg20
(lp1188
(lp1189
g1185
aa(lp1190
g1186
aasa(dp1191
g2
(dp1192
S'prob*'
p1193
g5
(g9
S'*?\x0eh\r\x18{?'
p1194
tp1195
Rp1196
sS'link-probs'
p1197
(lp1198
(S'true'
p1199
S'real'
p1200
F0.7333333333333333
tp1201
a(g1199
S'genuine'
p1202
F0.7
tp1203
a(g1199
S'authentic'
p1204
F0.3333333333333333
tp1205
a(g1199
S'actual'
p1206
F0.6595135162750458
tp1207
a(g1200
g1202
F0.6
tp1208
a(g1200
g1204
F0.6666666666666666
tp1209
a(g1200
g1206
F0.8
tp1210
a(g1202
g1204
F0.5923762341376451
tp1211
a(g1202
g1206
F0.601624625981327
tp1212
a(g1204
g1206
F0.513969477451141
tp1213
assg20
(lp1214
(lp1215
g1199
aa(lp1216
g1200
aa(lp1217
g1202
aa(lp1218
g1204
aa(lp1219
g1206
aasa(dp1220
g2
(dp1221
S'prob*'
p1222
g5
(g9
S'\x8bZa`\xa7}\x88?'
p1223
tp1224
Rp1225
sS'link-probs'
p1226
(lp1227
(S'generous'
p1228
S'rich'
p1229
F0.5222157978804014
tp1230
a(g1228
S'enough'
p1231
F0.6459473946916333
tp1232
a(g1228
S'ample'
p1233
F0.6528409786028315
tp1234
a(g1228
S'plentiful'
p1235
F0.6622297263211557
tp1236
a(g1229
g1231
F0.6400826236030983
tp1237
a(g1229
g1233
F0.648816076054653
tp1238
a(g1229
g1235
F0.6608886261473775
tp1239
a(g1231
g1233
F0.8333333333333334
tp1240
a(g1231
g1235
F0.6102931357755819
tp1241
a(g1233
g1235
F0.5874450543243337
tp1242
assg20
(lp1243
(lp1244
g1228
aa(lp1245
g1229
aa(lp1246
g1231
aa(lp1247
g1233
aa(lp1248
g1235
aasa(dp1249
g2
(dp1250
S'prob*'
p1251
g5
(g9
S'\xed;O>\x9c\xa6\x04?'
p1252
tp1253
Rp1254
sS'link-probs'
p1255
(lp1256
(S'scary'
p1257
S'awful'
p1258
F0.8
tp1259
a(g1257
S'outrageous'
p1260
F0.5291029307025604
tp1261
a(g1257
S'horrible'
p1262
F0.5760210349771059
tp1263
a(g1257
S'horrendous'
p1264
F0.6595106601991241
tp1265
a(g1257
S'obnoxious'
p1266
F0.6619979293081749
tp1267
a(g1257
S'disgusting'
p1268
F0.6621772408120276
tp1269
a(g1258
g1260
F0.8
tp1270
a(g1258
g1262
F0.46153846153846156
tp1271
a(g1258
g1264
F0.8571428571428571
tp1272
a(g1258
g1266
F0.3333333333333333
tp1273
a(g1258
g1268
F0.6666666666666666
tp1274
a(g1260
g1262
F0.5509784156300974
tp1275
a(g1260
g1264
F0.6565744889026274
tp1276
a(g1260
g1266
F0.6600616401263865
tp1277
a(g1260
g1268
F0.6666666666666666
tp1278
a(g1262
g1264
F0.875
tp1279
a(g1262
g1266
F0.6544538601781339
tp1280
a(g1262
g1268
F0.6
tp1281
a(g1264
g1266
F0.5356619602445122
tp1282
a(g1264
g1268
F0.5388057929494968
tp1283
a(g1266
g1268
F0.5033086708983656
tp1284
assg20
(lp1285
(lp1286
g1257
aa(lp1287
g1258
aa(lp1288
g1260
aa(lp1289
g1262
aa(lp1290
g1264
aa(lp1291
g1266
aa(lp1292
g1268
aasa(dp1293
g2
(dp1294
S'prob*'
p1295
g5
(g9
S'U\x8b#./tm?'
p1296
tp1297
Rp1298
sS'link-probs'
p1299
(lp1300
(S'painful'
p1301
S'unpleasant'
p1302
F0.6666666666666666
tp1303
a(g1301
S'boring'
p1304
F0.5844807223095652
tp1305
a(g1301
S'annoying'
p1306
F0.5145357086353021
tp1307
a(g1301
S'frustrating'
p1308
F0.5803249577316252
tp1309
a(g1302
g1304
F0.5
tp1310
a(g1302
g1306
F0.6666666666666666
tp1311
a(g1302
g1308
F0.4945008272426239
tp1312
a(g1304
g1306
F0.6666666666666666
tp1313
a(g1304
g1308
F0.4945008272426239
tp1314
a(g1306
g1308
F0.5686758952077808
tp1315
assg20
(lp1316
(lp1317
g1301
aa(lp1318
g1302
aa(lp1319
g1304
aa(lp1320
g1306
aa(lp1321
g1308
aasa(dp1322
g2
(dp1323
S'prob*'
p1324
g5
(g9
S'1\x1d\xcb \x19(\xd7?'
p1325
tp1326
Rp1327
sS'link-probs'
p1328
(lp1329
(S'impossible'
p1330
S'incompetent'
p1331
F0.5815002813038429
tp1332
a(g1330
S'unable'
p1333
F0.9333333333333333
tp1334
a(g1331
g1333
F0.6666666666666666
tp1335
assg20
(lp1336
(lp1337
g1330
aa(lp1338
g1331
aa(lp1339
g1333
aasa(dp1340
g2
(dp1341
S'prob*'
p1342
g5
(g9
S'3x\x1e\xe2d\x08\xe2?'
p1343
tp1344
Rp1345
sS'link-probs'
p1346
(lp1347
(S'possible'
p1348
S'likely'
p1349
F0.9660422869634041
tp1350
a(g1348
S'potential'
p1351
F0.875
tp1352
a(g1349
g1351
F0.6666666666666666
tp1353
assg20
(lp1354
(lp1355
g1348
aa(lp1356
g1349
aa(lp1357
g1351
aasa(dp1358
g2
(dp1359
S'prob*'
p1360
g5
(g9
S'\x92h\x17\xf4\xc2)\xd6?'
p1361
tp1362
Rp1363
sS'link-probs'
p1364
(lp1365
(S'definite'
p1366
S'accurate'
p1367
F0.6329053585556069
tp1368
a(g1366
S'exact'
p1369
F0.6565890155749806
tp1370
a(g1367
g1369
F0.8333333333333334
tp1371
assg20
(lp1372
(lp1373
g1366
aa(lp1374
g1367
aa(lp1375
g1369
aasa(dp1376
g2
(dp1377
S'prob*'
p1378
g5
(g9
S'\x07\x0cbLb+k?'
p1379
tp1380
Rp1381
sS'link-probs'
p1382
(lp1383
(S'stupid'
p1384
S'silly'
p1385
F0.6818181818181818
tp1386
a(g1384
S'lame'
p1387
F0.8181818181818182
tp1388
a(g1384
S'dumb'
p1389
F0.7058823529411765
tp1390
a(g1384
S'cheesy'
p1391
F0.75
tp1392
a(g1384
S'pathetic'
p1393
F0.8888888888888888
tp1394
a(g1385
g1387
F0.6
tp1395
a(g1385
g1389
F0.6
tp1396
a(g1385
g1391
F0.75
tp1397
a(g1385
g1393
F0.75
tp1398
a(g1387
g1389
F0.6
tp1399
a(g1387
g1391
F0.6666666666666666
tp1400
a(g1387
g1393
F0.6666666666666666
tp1401
a(g1389
g1391
F0.6477442211178075
tp1402
a(g1389
g1393
F0.6666666666666666
tp1403
a(g1391
g1393
F0.5417833892043379
tp1404
assg20
(lp1405
(lp1406
g1384
aa(lp1407
g1385
aa(lp1408
g1387
aa(lp1409
g1389
aa(lp1410
g1391
aa(lp1411
g1393
aasa(dp1412
g2
(dp1413
S'prob*'
p1414
g5
(g9
S'\xf4\xee\xf4\xc0\x1f\xaay?'
p1415
tp1416
Rp1417
sS'link-probs'
p1418
(lp1419
(S'warm'
p1420
S'hot'
p1421
F0.9741672331747111
tp1422
a(g1420
S'passionate'
p1423
F0.6567398592443823
tp1424
a(g1420
S'enthusiastic'
p1425
F0.6666666666666666
tp1426
a(g1420
S'romantic'
p1427
F0.6611675209107912
tp1428
a(g1421
g1423
F0.5098789949746966
tp1429
a(g1421
g1425
F0.5175416853212441
tp1430
a(g1421
g1427
F0.5577507093272599
tp1431
a(g1423
g1425
F0.5077107948493066
tp1432
a(g1423
g1427
F0.5488755538507681
tp1433
a(g1425
g1427
F0.5417309350024127
tp1434
assg20
(lp1435
(lp1436
g1420
aa(lp1437
g1421
aa(lp1438
g1423
aa(lp1439
g1425
aa(lp1440
g1427
aasa(dp1441
g2
(dp1442
S'prob*'
p1443
g5
(g9
S'ffffff\xe6?'
p1444
tp1445
Rp1446
sS'link-probs'
p1447
(lp1448
(S'lucky'
p1449
S'fortunate'
p1450
F0.7
tp1451
assg20
(lp1452
(lp1453
g1449
aa(lp1454
g1450
aasa(dp1455
g2
(dp1456
S'prob*'
p1457
g5
(g9
S'\x02W\x8c\x02@\xc0\xae?'
p1458
tp1459
Rp1460
sS'link-probs'
p1461
(lp1462
(S'popular'
p1463
S'general'
p1464
F0.5588211021923634
tp1465
a(g1463
S'public'
p1466
F0.662842875860753
tp1467
a(g1463
S'generic'
p1468
F0.6647398907732339
tp1469
a(g1464
g1466
F0.6587705412962244
tp1470
a(g1464
g1468
F0.6666666666666666
tp1471
a(g1466
g1468
F0.5554064389842579
tp1472
assg20
(lp1473
(lp1474
g1463
aa(lp1475
g1464
aa(lp1476
g1466
aa(lp1477
g1468
aasa(dp1478
g2
(dp1479
S'prob*'
p1480
g5
(g9
S'\xdfeV+\x83gp?'
p1481
tp1482
Rp1483
sS'link-probs'
p1484
(lp1485
(S'nice'
p1486
S'cool'
p1487
F0.5294117647058824
tp1488
a(g1486
S'fine'
p1489
F0.625
tp1490
a(g1486
S'okay'
p1491
F0.5714285714285714
tp1492
a(g1486
S'good'
p1493
F0.3076923076923077
tp1494
a(g1487
g1489
F0.75
tp1495
a(g1487
g1491
F0.6666666666666666
tp1496
a(g1487
g1493
F0.4
tp1497
a(g1489
g1491
F0.6
tp1498
a(g1489
g1493
F0.5752577319587628
tp1499
a(g1491
g1493
F0.9972477064220183
tp1500
assg20
(lp1501
(lp1502
g1486
aa(lp1503
g1487
aa(lp1504
g1489
aa(lp1505
g1491
aa(lp1506
g1493
aasa(dp1507
g2
(dp1508
S'prob*'
p1509
g5
(g9
S'\xc78\xc4\xb2\xc7t\xab?'
p1510
tp1511
Rp1512
sS'link-probs'
p1513
(lp1514
(S'well'
p1515
S'alright'
p1516
F0.6666666666666666
tp1517
a(g1515
S'ok'
p1518
F0.6666666666666666
tp1519
a(g1515
S'helpful'
p1520
F0.6666666666666666
tp1521
a(g1516
g1518
F0.5773781276969921
tp1522
a(g1516
g1520
F0.5962224667764301
tp1523
a(g1518
g1520
F0.5257449872437733
tp1524
assg20
(lp1525
(lp1526
g1515
aa(lp1527
g1516
aa(lp1528
g1518
aa(lp1529
g1520
aasa(dp1530
g2
(dp1531
S'prob*'
p1532
g5
(g9
S'\x05\xad\t\xdc\x1c\xed\x81?'
p1533
tp1534
Rp1535
sS'link-probs'
p1536
(lp1537
(S'competitive'
p1538
S'adequate'
p1539
F0.5328793387783418
tp1540
a(g1538
S'effective'
p1541
F0.6589562423612553
tp1542
a(g1538
S'efficient'
p1543
F0.6463046658458139
tp1544
a(g1538
S'successful'
p1545
F0.6086897574737795
tp1546
a(g1539
g1541
F0.655295722520308
tp1547
a(g1539
g1543
F0.6371816866725957
tp1548
a(g1539
g1545
F0.5870035372977801
tp1549
a(g1541
g1543
F0.65
tp1550
a(g1541
g1545
F0.6363636363636364
tp1551
a(g1543
g1545
F0.625
tp1552
assg20
(lp1553
(lp1554
g1538
aa(lp1555
g1539
aa(lp1556
g1541
aa(lp1557
g1543
aa(lp1558
g1545
aasa(dp1559
g2
(dp1560
S'prob*'
p1561
g5
(g9
S'\x88\xdf\x9a\x80)\xc2\xce?'
p1562
tp1563
Rp1564
sS'link-probs'
p1565
(lp1566
(S'delicate'
p1567
S'sophisticated'
p1568
F0.6560306447190284
tp1569
a(g1567
S'subtle'
p1570
F0.6666666666666666
tp1571
a(g1568
g1570
F0.5494416142550719
tp1572
assg20
(lp1573
(lp1574
g1567
aa(lp1575
g1568
aa(lp1576
g1570
aasa(dp1577
g2
(dp1578
S'prob*'
p1579
g5
(g9
S'\t\xde[|\x93E\x8e?'
p1580
tp1581
Rp1582
sS'link-probs'
p1583
(lp1584
(S'equal'
p1585
S'like'
p1586
F0.6401023833012989
tp1587
a(g1585
S'same'
p1588
F0.7264791464597479
tp1589
a(g1585
S'similar'
p1590
F0.6666666666666666
tp1591
a(g1585
S'comparable'
p1592
F0.6666666666666666
tp1593
a(g1586
g1588
F0.9988399071925754
tp1594
a(g1586
g1590
F0.6
tp1595
a(g1586
g1592
F0.6666666666666666
tp1596
a(g1588
g1590
F0.5204690541928464
tp1597
a(g1588
g1592
F0.4814987880392971
tp1598
a(g1590
g1592
F0.7142857142857143
tp1599
assg20
(lp1600
(lp1601
g1585
aa(lp1602
g1586
aa(lp1603
g1588
aa(lp1604
g1590
aa(lp1605
g1592
aasa(dp1606
g2
(dp1607
S'prob*'
p1608
g5
(g9
S'Y\xb88\xe2\xf1h\xa7?'
p1609
tp1610
Rp1611
sS'link-probs'
p1612
(lp1613
(S'off'
p1614
S'free'
p1615
F0.5238916614109009
tp1616
a(g1614
S'out'
p1617
F0.5328382486035929
tp1618
a(g1614
S'complimentary'
p1619
F0.6571353660920706
tp1620
a(g1615
g1617
F0.5092066205619573
tp1621
a(g1615
g1619
F0.75
tp1622
a(g1617
g1619
F0.6526544918628631
tp1623
assg20
(lp1624
(lp1625
g1614
aa(lp1626
g1615
aa(lp1627
g1617
aa(lp1628
g1619
aasa(dp1629
g2
(dp1630
S'prob*'
p1631
g5
(g9
S',\xd3\x03\x1b\x89aG?'
p1632
tp1633
Rp1634
sS'link-probs'
p1635
(lp1636
(S'disappointed'
p1637
S'sad'
p1638
F0.5087862445932497
tp1639
a(g1637
S'sorry'
p1640
F0.5054417724801998
tp1641
a(g1637
S'unhappy'
p1642
F0.6523384246859145
tp1643
a(g1637
S'unfortunate'
p1644
F0.4920708824009701
tp1645
a(g1637
S'disappointing'
p1646
F0.5714285714285714
tp1647
a(g1638
g1640
F0.6923076923076923
tp1648
a(g1638
g1642
F0.75
tp1649
a(g1638
g1644
F0.6666666666666666
tp1650
a(g1638
g1646
F0.6666666666666666
tp1651
a(g1640
g1642
F0.75
tp1652
a(g1640
g1644
F0.6
tp1653
a(g1640
g1646
F0.6666666666666666
tp1654
a(g1642
g1644
F0.5714285714285714
tp1655
a(g1642
g1646
F0.4779615363494161
tp1656
a(g1644
g1646
F0.8
tp1657
assg20
(lp1658
(lp1659
g1637
aa(lp1660
g1638
aa(lp1661
g1640
aa(lp1662
g1642
aa(lp1663
g1644
aa(lp1664
g1646
aasa(dp1665
g2
(dp1666
S'prob*'
p1667
g5
(g9
S'\x11\x9f\x95?E\x83E?'
p1668
tp1669
Rp1670
sS'link-probs'
p1671
(lp1672
(S'full'
p1673
S'deep'
p1674
F0.5276992108389308
tp1675
a(g1673
S'detailed'
p1676
F0.6248626105804166
tp1677
a(g1673
S'extensive'
p1678
F0.6666666666666666
tp1679
a(g1673
S'complete'
p1680
F0.5342194805437996
tp1681
a(g1673
S'thorough'
p1682
F0.6666666666666666
tp1683
a(g1674
g1676
F0.6109816656660464
tp1684
a(g1674
g1678
F0.5166841546201874
tp1685
a(g1674
g1680
F0.5067506190105262
tp1686
a(g1674
g1682
F0.75
tp1687
a(g1676
g1678
F0.75
tp1688
a(g1676
g1680
F0.6666666666666666
tp1689
a(g1676
g1682
F0.43049596482745733
tp1690
a(g1678
g1680
F0.9981220657276996
tp1691
a(g1678
g1682
F0.5421949308388869
tp1692
a(g1680
g1682
F0.6
tp1693
assg20
(lp1694
(lp1695
g1673
aa(lp1696
g1674
aa(lp1697
g1676
aa(lp1698
g1678
aa(lp1699
g1680
aa(lp1700
g1682
aasa(dp1701
g2
(dp1702
S'prob*'
p1703
g5
(g9
S'\x99=\n\xc1\xc49\xd2?'
p1704
tp1705
Rp1706
sS'link-probs'
p1707
(lp1708
(S'intense'
p1709
S'tough'
p1710
F0.6666666666666666
tp1711
a(g1709
S'aggressive'
p1712
F0.6487079260585618
tp1713
a(g1710
g1712
F0.6584841242664837
tp1714
assg20
(lp1715
(lp1716
g1709
aa(lp1717
g1710
aa(lp1718
g1712
aasa(dp1719
g2
(dp1720
S'prob*'
p1721
g5
(g9
S"\x15'D}\xb3[\xe0?"
p1722
tp1723
Rp1724
sS'link-probs'
p1725
(lp1726
(S'afraid'
p1727
S'worried'
p1728
F0.5111939856153379
tp1729
assg20
(lp1730
(lp1731
g1727
aa(lp1732
g1728
aasa(dp1733
g2
(dp1734
S'prob*'
p1735
g5
(g9
S'\x88\x83\x82\xd6\xadz"?'
p1736
tp1737
Rp1738
sS'link-probs'
p1739
(lp1740
(S'clear'
p1741
S'understandable'
p1742
F0.6666666666666666
tp1743
a(g1741
S'obvious'
p1744
F0.4864864864864865
tp1745
a(g1741
S'visible'
p1746
F0.625
tp1747
a(g1741
S'distinct'
p1748
F0.8
tp1749
a(g1741
S'apparent'
p1750
F0.7777777777777778
tp1751
a(g1741
S'plain'
p1752
F0.8636363636363636
tp1753
a(g1742
g1744
F0.6666666666666666
tp1754
a(g1742
g1746
F0.6097189513499854
tp1755
a(g1742
g1748
F0.4105088055357428
tp1756
a(g1742
g1750
F0.6593002493221621
tp1757
a(g1742
g1752
F0.4430576803957669
tp1758
a(g1744
g1746
F0.7272727272727273
tp1759
a(g1744
g1748
F0.75
tp1760
a(g1744
g1750
F0.7777777777777778
tp1761
a(g1744
g1752
F0.875
tp1762
a(g1746
g1748
F0.6666666666666666
tp1763
a(g1746
g1750
F0.5384615384615384
tp1764
a(g1746
g1752
F0.6666666666666666
tp1765
a(g1748
g1750
F0.6644124987952181
tp1766
a(g1748
g1752
F0.5398614646615004
tp1767
a(g1750
g1752
F0.8333333333333334
tp1768
assg20
(lp1769
(lp1770
g1741
aa(lp1771
g1742
aa(lp1772
g1744
aa(lp1773
g1746
aa(lp1774
g1748
aa(lp1775
g1750
aa(lp1776
g1752
aasa(dp1777
g2
(dp1778
S'prob*'
p1779
g5
(g9
S'!\xcf0\\\xc59\x8c?'
p1780
tp1781
Rp1782
sS'link-probs'
p1783
(lp1784
(S'honest'
p1785
S'fair'
p1786
F0.6
tp1787
a(g1785
S'straight'
p1788
F0.8571428571428571
tp1789
a(g1785
S'legit'
p1790
F0.8333333333333334
tp1791
a(g1785
S'loyal'
p1792
F0.8
tp1793
a(g1786
g1788
F0.75
tp1794
a(g1786
g1790
F0.40113868938347297
tp1795
a(g1786
g1792
F0.5031333900259458
tp1796
a(g1788
g1790
F0.6666666666666666
tp1797
a(g1788
g1792
F0.6629381020742714
tp1798
a(g1790
g1792
F0.6008698248063756
tp1799
assg20
(lp1800
(lp1801
g1785
aa(lp1802
g1786
aa(lp1803
g1788
aa(lp1804
g1790
aa(lp1805
g1792
aasa(dp1806
g2
(dp1807
S'prob*'
p1808
g5
(g9
S'333333\xe3?'
p1809
tp1810
Rp1811
sS'link-probs'
p1812
(lp1813
(S'interested'
p1814
S'concerned'
p1815
F0.6
tp1816
assg20
(lp1817
(lp1818
g1814
aa(lp1819
g1815
aasa(dp1820
g2
(dp1821
S'prob*'
p1822
g5
(g9
S'\x00\x00\x00\x00\x00\x00\xe8?'
p1823
tp1824
Rp1825
sS'link-probs'
p1826
(lp1827
(S'comforting'
p1828
S'refreshing'
p1829
F0.75
tp1830
assg20
(lp1831
(lp1832
g1828
aa(lp1833
g1829
aasa(dp1834
g2
(dp1835
S'prob*'
p1836
g5
(g9
S'UUUUUU\xe5?'
p1837
tp1838
Rp1839
sS'link-probs'
p1840
(lp1841
(S'magic'
p1842
S'magical'
p1843
F0.6666666666666666
tp1844
assg20
(lp1845
(lp1846
g1842
aa(lp1847
g1843
aasa(dp1848
g2
(dp1849
S'prob*'
p1850
g5
(g9
S'UUUUUU\xe5?'
p1851
tp1852
Rp1853
sS'link-probs'
p1854
(lp1855
(S'specific'
p1856
S'particular'
p1857
F0.6666666666666666
tp1858
assg20
(lp1859
(lp1860
g1856
aa(lp1861
g1857
aasa(dp1862
g2
(dp1863
S'prob*'
p1864
g5
(g9
S'aI\x10\xd14\x85\xcf?'
p1865
tp1866
Rp1867
sS'link-probs'
p1868
(lp1869
(S'impressed'
p1870
S'overwhelmed'
p1871
F0.6513063238270177
tp1872
a(g1870
S'shocked'
p1873
F0.6604432161551882
tp1874
a(g1871
g1873
F0.5724797196456799
tp1875
assg20
(lp1876
(lp1877
g1870
aa(lp1878
g1871
aa(lp1879
g1873
aasa(dp1880
g2
(dp1881
S'prob*'
p1882
g5
(g9
S'\xec\xa4\xe0A\x14;B?'
p1883
tp1884
Rp1885
sS'link-probs'
p1886
(lp1887
(S'independent'
p1888
S'personal'
p1889
F0.5170429058506589
tp1890
a(g1888
S'lazy'
p1891
F0.5206461420081342
tp1892
a(g1888
S'own'
p1893
F0.5396432552046962
tp1894
a(g1888
S'private'
p1895
F0.6566618045408362
tp1896
a(g1888
S'separate'
p1897
F0.6599851981786095
tp1898
a(g1889
g1891
F0.5036494651335774
tp1899
a(g1889
g1893
F0.5231637592839419
tp1900
a(g1889
g1895
F0.9992223950233281
tp1901
a(g1889
g1897
F0.6585003816891623
tp1902
a(g1891
g1893
F0.5195738627377344
tp1903
a(g1891
g1895
F0.6539406028660931
tp1904
a(g1891
g1897
F0.6581440930499994
tp1905
a(g1893
g1895
F0.6507157248871998
tp1906
a(g1893
g1897
F0.6559488009777673
tp1907
a(g1895
g1897
F0.534012313085442
tp1908
assg20
(lp1909
(lp1910
g1888
aa(lp1911
g1889
aa(lp1912
g1891
aa(lp1913
g1893
aa(lp1914
g1895
aa(lp1915
g1897
aasa(dp1916
g2
(dp1917
S'prob*'
p1918
g5
(g9
S'\xf4a\xdd|\xa8(\xd2?'
p1919
tp1920
Rp1921
sS'link-probs'
p1922
(lp1923
(S'perfect'
p1924
S'flawless'
p1925
F0.9
tp1926
a(g1924
S'absolute'
p1927
F0.477622774727706
tp1928
a(g1925
g1927
F0.6600550147607591
tp1929
assg20
(lp1930
(lp1931
g1924
aa(lp1932
g1925
aa(lp1933
g1927
aasa(dp1934
g2
(dp1935
S'prob*'
p1936
g5
(g9
S'.\xb2\xe7\x907\xbb{?'
p1937
tp1938
Rp1939
sS'link-probs'
p1940
(lp1941
(S'third'
p1942
S'following'
p1943
F0.5836042322376039
tp1944
a(g1942
S'further'
p1945
F0.6569574298585498
tp1946
a(g1942
S'new'
p1947
F0.6582556025696006
tp1948
a(g1942
S'next'
p1949
F0.6609330513755358
tp1950
a(g1943
g1945
F0.6390326270411143
tp1951
a(g1943
g1947
F0.642548826692575
tp1952
a(g1943
g1949
F0.6666666666666666
tp1953
a(g1945
g1947
F0.5122721669877879
tp1954
a(g1945
g1949
F0.5438553639495507
tp1955
a(g1947
g1949
F0.5322072186704078
tp1956
assg20
(lp1957
(lp1958
g1942
aa(lp1959
g1943
aa(lp1960
g1945
aa(lp1961
g1947
aa(lp1962
g1949
aasa(dp1963
g2
(dp1964
S'prob*'
p1965
g5
(g9
S'\xfb\xdcUC\xb7R\xa7?'
p1966
tp1967
Rp1968
sS'link-probs'
p1969
(lp1970
(S'friendly'
p1971
S'polite'
p1972
F0.5531101368816254
tp1973
a(g1971
S'gracious'
p1974
F0.5598549326309407
tp1975
a(g1971
S'courteous'
p1976
F0.6619070387361297
tp1977
a(g1972
g1974
F0.507616423281104
tp1978
a(g1972
g1976
F0.6666666666666666
tp1979
a(g1974
g1976
F0.6567316498339373
tp1980
assg20
(lp1981
(lp1982
g1971
aa(lp1983
g1972
aa(lp1984
g1974
aa(lp1985
g1976
aasa(dp1986
g2
(dp1987
S'prob*'
p1988
g5
(g9
S'W\xe3[\xbf\xa3\x0c\xe5?'
p1989
tp1990
Rp1991
sS'link-probs'
p1992
(lp1993
(S'positive'
p1994
S'active'
p1995
F0.6577929246405841
tp1996
assg20
(lp1997
(lp1998
g1994
aa(lp1999
g1995
aasa(dp2000
g2
(dp2001
S'prob*'
p2002
g5
(g9
S'\x19)\x01\xbei\x9e\xcd?'
p2003
tp2004
Rp2005
sS'link-probs'
p2006
(lp2007
(S'attractive'
p2008
S'sexy'
p2009
F0.956140350877193
tp2010
a(g2008
S'appealing'
p2011
F0.4
tp2012
a(g2009
g2011
F0.6050285467625587
tp2013
assg20
(lp2014
(lp2015
g2008
aa(lp2016
g2009
aa(lp2017
g2011
aasa(dp2018
g2
(dp2019
S'prob*'
p2020
g5
(g9
S'@k\xc2\x11\xf2\xe7\x90?'
p2021
tp2022
Rp2023
sS'link-probs'
p2024
(lp2025
(S'delicious'
p2026
S'tasty'
p2027
F0.7142857142857143
tp2028
a(g2026
S'yummy'
p2029
F0.6666666666666666
tp2030
a(g2026
S'exquisite'
p2031
F0.7142857142857143
tp2032
a(g2026
S'scrumptious'
p2033
F0.8333333333333334
tp2034
a(g2027
g2029
F0.6111565024334914
tp2035
a(g2027
g2031
F0.6666666666666666
tp2036
a(g2027
g2033
F0.6564011971378078
tp2037
a(g2029
g2031
F0.5674109807507325
tp2038
a(g2029
g2033
F0.6666666666666666
tp2039
a(g2031
g2033
F0.5757493108533985
tp2040
assg20
(lp2041
(lp2042
g2026
aa(lp2043
g2027
aa(lp2044
g2029
aa(lp2045
g2031
aa(lp2046
g2033
aasa(dp2047
g2
(dp2048
S'prob*'
p2049
g5
(g9
S'\xee\xca\xb16\x1dh\xb1?'
p2050
tp2051
Rp2052
sS'link-probs'
p2053
(lp2054
(S'loose'
p2055
S'relaxing'
p2056
F0.5868154978483112
tp2057
a(g2055
S'flexible'
p2058
F0.6485485133364222
tp2059
a(g2055
S'relaxed'
p2060
F0.6634249022357906
tp2061
a(g2056
g2058
F0.6152309955714568
tp2062
a(g2056
g2060
F0.6565890155749806
tp2063
a(g2058
g2060
F0.6666666666666666
tp2064
assg20
(lp2065
(lp2066
g2055
aa(lp2067
g2056
aa(lp2068
g2058
aa(lp2069
g2060
aasa(dp2070
g2
(dp2071
S'prob*'
p2072
g5
(g9
S'\x17]t\xd1E\x17\xed?'
p2073
tp2074
Rp2075
sS'link-probs'
p2076
(lp2077
(S'interesting'
p2078
S'informative'
p2079
F0.9090909090909091
tp2080
assg20
(lp2081
(lp2082
g2078
aa(lp2083
g2079
aasa(dp2084
g2
(dp2085
S'prob*'
p2086
g5
(g9
S'\x80\x18)\xd7\x00?\xa5?'
p2087
tp2088
Rp2089
sS'link-probs'
p2090
(lp2091
(S'other'
p2092
S'opposite'
p2093
F0.6465050218310245
tp2094
a(g2092
S'else'
p2095
F0.625
tp2096
a(g2092
S'outside'
p2097
F0.6565412194606358
tp2098
a(g2093
g2095
F0.5330606797162112
tp2099
a(g2093
g2097
F0.5575558136621092
tp2100
a(g2095
g2097
F0.5262964975568062
tp2101
assg20
(lp2102
(lp2103
g2092
aa(lp2104
g2093
aa(lp2105
g2095
aa(lp2106
g2097
aasa(dp2107
g2
(dp2108
S'prob*'
p2109
g5
(g9
S'[\xc0m\x1f\x8e6\xe5?'
p2110
tp2111
Rp2112
sS'link-probs'
p2113
(lp2114
(S'best'
p2115
S'recommended'
p2116
F0.6629095662920109
tp2117
assg20
(lp2118
(lp2119
g2115
aa(lp2120
g2116
aasa(dp2121
g2
(dp2122
S'prob*'
p2123
g5
(g9
S'\xb3|\xe1s\x91I\x98?'
p2124
tp2125
Rp2126
sS'link-probs'
p2127
(lp2128
(S'phenomenal'
p2129
S'gigantic'
p2130
F0.5
tp2131
a(g2129
S'terrible'
p2132
F0.5471386752620443
tp2133
a(g2129
S'extreme'
p2134
F0.556942319604233
tp2135
a(g2130
g2132
F0.5471386752620443
tp2136
a(g2130
g2134
F0.556942319604233
tp2137
a(g2132
g2134
F0.5108523104651865
tp2138
assg20
(lp2139
(lp2140
g2129
aa(lp2141
g2130
aa(lp2142
g2132
aa(lp2143
g2134
aasa(dp2144
g2
(dp2145
S'prob*'
p2146
g5
(g9
S'\x1d?\x0fL\x05\x80\xe0?'
p2147
tp2148
Rp2149
sS'link-probs'
p2150
(lp2151
(S'thick'
p2152
S'dense'
p2153
F0.5156275258577555
tp2154
assg20
(lp2155
(lp2156
g2152
aa(lp2157
g2153
aasa(dp2158
g2
(dp2159
S'prob*'
p2160
g5
(g9
S'\x11\x11\x11\x11\x11\x11\xe1?'
p2161
tp2162
Rp2163
sS'link-probs'
p2164
(lp2165
(S'funny'
p2166
S'fun'
p2167
F0.8
tp2168
a(g2166
S'hilarious'
p2169
F0.8888888888888888
tp2170
a(g2167
g2169
F0.75
tp2171
assg20
(lp2172
(lp2173
g2166
aa(lp2174
g2167
aa(lp2175
g2169
aasa(dp2176
g2
(dp2177
S'prob*'
p2178
g5
(g9
S'+\xfa\x97\x05\x1e\n\xd2?'
p2179
tp2180
Rp2181
sS'link-probs'
p2182
(lp2183
(S'poor'
p2184
S'weak'
p2185
F0.5507020097648764
tp2186
a(g2184
S'mediocre'
p2187
F0.8
tp2188
a(g2185
g2187
F0.6397913579653537
tp2189
assg20
(lp2190
(lp2191
g2184
aa(lp2192
g2185
aa(lp2193
g2187
aasa(dp2194
g2
(dp2195
S'prob*'
p2196
g5
(g9
S'\r\xea\xec\x80\xef\x98\xae?'
p2197
tp2198
Rp2199
sS'link-probs'
p2200
(lp2201
(S'ideal'
p2202
S'fitting'
p2203
F0.6579209018343409
tp2204
a(g2202
S'convenient'
p2205
F0.5511784310134122
tp2206
a(g2202
S'handy'
p2207
F0.6580117173127854
tp2208
a(g2203
g2205
F0.6666666666666666
tp2209
a(g2203
g2207
F0.5008931560536287
tp2210
a(g2205
g2207
F0.75
tp2211
assg20
(lp2212
(lp2213
g2202
aa(lp2214
g2203
aa(lp2215
g2205
aa(lp2216
g2207
aasa(dp2217
g2
(dp2218
S'prob*'
p2219
g5
(g9
S'\xff\x98\xb7\xe3\xc4\xf6D?'
p2220
tp2221
Rp2222
sS'link-probs'
p2223
(lp2224
(S'special'
p2225
S'unique'
p2226
F0.8
tp2227
a(g2225
S'rare'
p2228
F0.5017990629209618
tp2229
a(g2225
S'exceptional'
p2230
F0.8
tp2231
a(g2225
S'extraordinary'
p2232
F0.3584736385691601
tp2233
a(g2225
S'unusual'
p2234
F0.6666666666666666
tp2235
a(g2226
g2228
F0.6378040050190791
tp2236
a(g2226
g2230
F0.4
tp2237
a(g2226
g2232
F0.6666666666666666
tp2238
a(g2226
g2234
F0.5702468775758375
tp2239
a(g2228
g2230
F0.9941520467836257
tp2240
a(g2228
g2232
F0.6666666666666666
tp2241
a(g2228
g2234
F0.3803680981595092
tp2242
a(g2230
g2232
F0.9770114942528736
tp2243
a(g2230
g2234
F0.6
tp2244
a(g2232
g2234
F0.5815830954356536
tp2245
assg20
(lp2246
(lp2247
g2225
aa(lp2248
g2226
aa(lp2249
g2228
aa(lp2250
g2230
aa(lp2251
g2232
aa(lp2252
g2234
aasa(dp2253
g2
(dp2254
S'prob*'
p2255
g5
(g9
S'\x8c\xd2\xfc\xdf&\\\xac?'
p2256
tp2257
Rp2258
sS'link-probs'
p2259
(lp2260
(S'simple'
p2261
S'pure'
p2262
F0.557053360407726
tp2263
a(g2261
S'empty'
p2264
F0.6580054165470552
tp2265
a(g2261
S'naked'
p2266
F0.661095975231912
tp2267
a(g2262
g2264
F0.6494546784677263
tp2268
a(g2262
g2266
F0.6554913414952983
tp2269
a(g2264
g2266
F0.5369442413747946
tp2270
assg20
(lp2271
(lp2272
g2261
aa(lp2273
g2262
aa(lp2274
g2264
aa(lp2275
g2266
aasa(dp2276
g2
(dp2277
S'prob*'
p2278
g5
(g9
S'N\x17\xad\x97\xc3h\xf7>'
p2279
tp2280
Rp2281
sS'link-probs'
p2282
(lp2283
(S'talented'
p2284
S'able'
p2285
F0.5077912575343114
tp2286
a(g2284
S'trained'
p2287
F0.6579289318568303
tp2288
a(g2284
S'skilled'
p2289
F0.75
tp2290
a(g2284
S'competent'
p2291
F0.6580082160589967
tp2292
a(g2284
S'knowledgeable'
p2293
F0.6327827563938674
tp2294
a(g2284
S'responsible'
p2295
F0.6509068157040987
tp2296
a(g2285
g2287
F0.6570965387421897
tp2297
a(g2285
g2289
F0.47310427120374937
tp2298
a(g2285
g2291
F0.6571831552188551
tp2299
a(g2285
g2293
F0.6298267140325325
tp2300
a(g2285
g2295
F0.6494409667622535
tp2301
a(g2287
g2289
F0.8
tp2302
a(g2287
g2291
F0.5007799454391741
tp2303
a(g2287
g2293
F0.3973924519411082
tp2304
a(g2287
g2295
F0.45055826875543703
tp2305
a(g2289
g2291
F0.659764070791593
tp2306
a(g2289
g2293
F0.75
tp2307
a(g2289
g2295
F0.6540467940041333
tp2308
a(g2291
g2293
F0.6666666666666666
tp2309
a(g2291
g2295
F0.44984794573707093
tp2310
a(g2293
g2295
F0.5650450943204103
tp2311
assg20
(lp2312
(lp2313
g2284
aa(lp2314
g2285
aa(lp2315
g2287
aa(lp2316
g2289
aa(lp2317
g2291
aa(lp2318
g2293
aa(lp2319
g2295
aasa(dp2320
g2
(dp2321
S'prob*'
p2322
g5
(g9
S'?~\t\xf2\x1d\xe7Y?'
p2323
tp2324
Rp2325
sS'link-probs'
p2326
(lp2327
(S'wide'
p2328
S'huge'
p2329
F0.6666666666666666
tp2330
a(g2328
S'tall'
p2331
F0.5196139056101162
tp2332
a(g2328
S'vast'
p2333
F0.6666666666666666
tp2334
a(g2328
S'massive'
p2335
F0.6666666666666666
tp2336
a(g2328
S'overwhelming'
p2337
F0.6467140082763452
tp2338
a(g2329
g2331
F0.5757194851837101
tp2339
a(g2329
g2333
F0.6666666666666666
tp2340
a(g2329
g2335
F0.6666666666666666
tp2341
a(g2329
g2337
F0.9987325728770595
tp2342
a(g2331
g2333
F0.6666666666666666
tp2343
a(g2331
g2335
F0.639547161934933
tp2344
a(g2331
g2337
F0.6666666666666666
tp2345
a(g2333
g2335
F0.655633315263371
tp2346
a(g2333
g2337
F0.6565890155749806
tp2347
a(g2335
g2337
F0.5077912575343115
tp2348
assg20
(lp2349
(lp2350
g2328
aa(lp2351
g2329
aa(lp2352
g2331
aa(lp2353
g2333
aa(lp2354
g2335
aa(lp2355
g2337
aasa(dp2356
g2
(dp2357
S'prob*'
p2358
g5
(g9
S'\x98Fc\xb8\xebe\xc7?'
p2359
tp2360
Rp2361
sS'link-probs'
p2362
(lp2363
(S'wise'
p2364
S'thoughtful'
p2365
F0.5447412150568365
tp2366
a(g2364
S'lit'
p2367
F0.5970693083893376
tp2368
a(g2365
g2367
F0.5620256819845201
tp2369
assg20
(lp2370
(lp2371
g2364
aa(lp2372
g2365
aa(lp2373
g2367
aasa(dp2374
g2
(dp2375
S'prob*'
p2376
g5
(g9
S'\x8a\x14\x81\xe4\xe9\xc5\xb6?'
p2377
tp2378
Rp2379
sS'link-probs'
p2380
(lp2381
(S'open'
p2382
S'ready'
p2383
F0.6614551620314408
tp2384
a(g2382
S'prepared'
p2385
F0.6666666666666666
tp2386
a(g2382
S'willing'
p2387
F0.4755092222651038
tp2388
a(g2383
g2385
F0.7272727272727273
tp2389
a(g2383
g2387
F0.875
tp2390
a(g2385
g2387
F0.6666666666666666
tp2391
assg20
(lp2392
(lp2393
g2382
aa(lp2394
g2383
aa(lp2395
g2385
aa(lp2396
g2387
aasa(dp2397
g2
(dp2398
S'prob*'
p2399
g5
(g9
S'\xdc8\xb5t\x19\x12\xb9?'
p2400
tp2401
Rp2402
sS'link-probs'
p2403
(lp2404
(S'sensitive'
p2405
S'careful'
p2406
F0.5598185820815248
tp2407
a(g2405
S'responsive'
p2408
F0.9090909090909091
tp2409
a(g2405
S'attentive'
p2410
F0.6587106607808605
tp2411
a(g2406
g2408
F0.6132999598405018
tp2412
a(g2406
g2410
F0.8
tp2413
a(g2408
g2410
F0.59540745838765
tp2414
assg20
(lp2415
(lp2416
g2405
aa(lp2417
g2406
aa(lp2418
g2408
aa(lp2419
g2410
aasa(dp2420
g2
(dp2421
S'prob*'
p2422
g5
(g9
S'\x01-\xca\xad\x83U\x90?'
p2423
tp2424
Rp2425
sS'link-probs'
p2426
(lp2427
(S'many'
p2428
S'numerous'
p2429
F0.75
tp2430
a(g2428
S'frequent'
p2431
F0.5935630305500479
tp2432
a(g2428
S'multiple'
p2433
F0.8
tp2434
a(g2428
S'countless'
p2435
F0.75
tp2436
a(g2429
g2431
F0.5358365506039232
tp2437
a(g2429
g2433
F0.6666666666666666
tp2438
a(g2429
g2435
F0.6612302192319764
tp2439
a(g2431
g2433
F0.6294975727100551
tp2440
a(g2431
g2435
F0.658326470006451
tp2441
a(g2433
g2435
F0.6100777247966906
tp2442
assg20
(lp2443
(lp2444
g2428
aa(lp2445
g2429
aa(lp2446
g2431
aa(lp2447
g2433
aa(lp2448
g2435
aasa(dp2449
g2
(dp2450
S'prob*'
p2451
g5
(g9
S'\xf9\xeak/\x86\xd1\xce?'
p2452
tp2453
Rp2454
sS'link-probs'
p2455
(lp2456
(S'certain'
p2457
S'several'
p2458
F0.6535796492566268
tp2459
a(g2457
S'partial'
p2460
F0.6602046175420138
tp2461
a(g2458
g2460
F0.5579866354183792
tp2462
assg20
(lp2463
(lp2464
g2457
aa(lp2465
g2458
aa(lp2466
g2460
aasa(dp2467
g2
(dp2468
S'prob*'
p2469
g5
(g9
S'\x07\xd6\x99\xf7\xc6\x02\xe5?'
p2470
tp2471
Rp2472
sS'link-probs'
p2473
(lp2474
(S'top'
p2475
S'superior'
p2476
F0.6565890155749806
tp2477
assg20
(lp2478
(lp2479
g2475
aa(lp2480
g2476
aasa(dp2481
g2
(dp2482
S'prob*'
p2483
g5
(g9
S'w5\xbe\xef\x1d\x02\xcc?'
p2484
tp2485
Rp2486
sS'link-probs'
p2487
(lp2488
(S'calm'
p2489
S'peaceful'
p2490
F0.6078183440685626
tp2491
a(g2489
S'quiet'
p2492
F0.6
tp2493
a(g2490
g2492
F0.6
tp2494
assg20
(lp2495
(lp2496
g2489
aa(lp2497
g2490
aa(lp2498
g2492
aasa(dp2499
g2
(dp2500
S'prob*'
p2501
g5
(g9
S'\x7f5F\r\x95\x1bn?'
p2502
tp2503
Rp2504
sS'link-probs'
p2505
(lp2506
(S'healthy'
p2507
S'clean'
p2508
F0.5250397585803951
tp2509
a(g2507
S'safe'
p2510
F0.6020261372138543
tp2511
a(g2507
S'green'
p2512
F0.5139388665593947
tp2513
a(g2507
S'quality'
p2514
F0.580763761499044
tp2515
a(g2508
g2510
F0.5847839177721026
tp2516
a(g2508
g2512
F0.6666666666666666
tp2517
a(g2508
g2514
F0.5600994199844702
tp2518
a(g2510
g2512
F0.6666666666666666
tp2519
a(g2510
g2514
F0.4697702575959901
tp2520
a(g2512
g2514
F0.5696475129725157
tp2521
assg20
(lp2522
(lp2523
g2507
aa(lp2524
g2508
aa(lp2525
g2510
aa(lp2526
g2512
aa(lp2527
g2514
aasa(dp2528
g2
(dp2529
S'prob*'
p2530
g5
(g9
S'\xf62Aw\x18\xa6\xc1?'
p2531
tp2532
Rp2533
sS'link-probs'
p2534
(lp2535
(S'loud'
p2536
S'sharp'
p2537
F0.5090832458411081
tp2538
a(g2536
S'steep'
p2539
F0.5249210364754571
tp2540
a(g2537
g2539
F0.5159679147755636
tp2541
assg20
(lp2542
(lp2543
g2536
aa(lp2544
g2537
aa(lp2545
g2539
aasa(dp2546
g2
(dp2547
S'prob*'
p2548
g5
(g9
S'hG\xd7\x9b\xb6\x85\x92?'
p2549
tp2550
Rp2551
sS'link-probs'
p2552
(lp2553
(S'bad'
p2554
S'wrong'
p2555
F0.5333333333333333
tp2556
a(g2554
S'fake'
p2557
F0.6461629939515726
tp2558
a(g2554
S'incorrect'
p2559
F0.8888888888888888
tp2560
a(g2554
S'guilty'
p2561
F0.6566572977650696
tp2562
a(g2555
g2557
F0.7142857142857143
tp2563
a(g2555
g2559
F0.875
tp2564
a(g2555
g2561
F0.6568451723290315
tp2565
a(g2557
g2559
F0.6666666666666666
tp2566
a(g2557
g2561
F0.5597319317812466
tp2567
a(g2559
g2561
F0.5869977738453213
tp2568
assg20
(lp2569
(lp2570
g2554
aa(lp2571
g2555
aa(lp2572
g2557
aa(lp2573
g2559
aa(lp2574
g2561
aasa(dp2575
g2
(dp2576
S'prob*'
p2577
g5
(g9
S'\xc5\xc7\xa4\r.7W?'
p2578
tp2579
Rp2580
sS'link-probs'
p2581
(lp2582
(S'modern'
p2583
S'current'
p2584
F0.5383172725448163
tp2585
a(g2583
S'recent'
p2586
F0.6605716148703432
tp2587
a(g2583
S'present'
p2588
F0.5417088037916828
tp2589
a(g2583
S'updated'
p2590
F0.6539828908950026
tp2591
a(g2583
S'contemporary'
p2592
F0.75
tp2593
a(g2584
g2586
F0.6570375237917073
tp2594
a(g2584
g2588
F0.6666666666666666
tp2595
a(g2584
g2590
F0.75
tp2596
a(g2584
g2592
F0.6609870684516227
tp2597
a(g2586
g2588
F0.6666666666666666
tp2598
a(g2586
g2590
F0.75
tp2599
a(g2586
g2592
F0.5439406503406236
tp2600
a(g2588
g2590
F0.6460395987694739
tp2601
a(g2588
g2592
F0.6607408510974115
tp2602
a(g2590
g2592
F0.5948976411265584
tp2603
assg20
(lp2604
(lp2605
g2583
aa(lp2606
g2584
aa(lp2607
g2586
aa(lp2608
g2588
aa(lp2609
g2590
aa(lp2610
g2592
aasa(dp2611
g2
(dp2612
S'prob*'
p2613
g5
(g9
S'\x1b\x101\xa9d\x96\xd1?'
p2614
tp2615
Rp2616
sS'link-probs'
p2617
(lp2618
(S'large'
p2619
S'big'
p2620
F0.5715928875642234
tp2621
a(g2619
S'great'
p2622
F0.625
tp2623
a(g2620
g2622
F0.7692307692307693
tp2624
assg20
(lp2625
(lp2626
g2619
aa(lp2627
g2620
aa(lp2628
g2622
aasa(dp2629
g2
(dp2630
S'prob*'
p2631
g5
(g9
S'W\xc0p\xb0\x9e\x1d\xe5?'
p2632
tp2633
Rp2634
sS'link-probs'
p2635
(lp2636
(S'tired'
p2637
S'kinda'
p2638
F0.6598657079794162
tp2639
assg20
(lp2640
(lp2641
g2637
aa(lp2642
g2638
aasa(dp2643
g2
(dp2644
S'prob*'
p2645
g5
(g9
S'\xc5\xb9\xa3Q\xe4\xdb\xae?'
p2646
tp2647
Rp2648
sS'link-probs'
p2649
(lp2650
(S'alive'
p2651
S'live'
p2652
F0.6
tp2653
a(g2651
S'lively'
p2654
F0.6588925470735872
tp2655
a(g2651
S'vibrant'
p2656
F0.6666666666666666
tp2657
a(g2652
g2654
F0.6555731951756373
tp2658
a(g2652
g2656
F0.6588286341153929
tp2659
a(g2654
g2656
F0.5294719775701178
tp2660
assg20
(lp2661
(lp2662
g2651
aa(lp2663
g2652
aa(lp2664
g2654
aa(lp2665
g2656
aasa(dp2666
g2
(dp2667
S'prob*'
p2668
g5
(g9
S'w\x84\xbfX\xef\x17\xcc?'
p2669
tp2670
Rp2671
sS'link-probs'
p2672
(lp2673
(S'professional'
p2674
S'human'
p2675
F0.5061615738422925
tp2676
a(g2674
S'social'
p2677
F0.6587909982822949
tp2678
a(g2675
g2677
F0.6582016813598912
tp2679
assg20
(lp2680
(lp2681
g2674
aa(lp2682
g2675
aa(lp2683
g2677
aasa(dp2684
g2
(dp2685
S'prob*'
p2686
g5
(g9
S'T}}\x96\x98:\xd2?'
p2687
tp2688
Rp2689
sS'link-probs'
p2690
(lp2691
(S'left'
p2692
S'immediate'
p2693
F0.6544191122458806
tp2694
a(g2692
S'direct'
p2695
F0.6528532255054817
tp2696
a(g2693
g2695
F0.6666666666666666
tp2697
assg20
(lp2698
(lp2699
g2692
aa(lp2700
g2693
aa(lp2701
g2695
aasa(dp2702
g2
(dp2703
S'prob*'
p2704
g5
(g9
S'6\xb3?.%\xf5\xb3?'
p2705
tp2706
Rp2707
sS'link-probs'
p2708
(lp2709
(S'soft'
p2710
S'slow'
p2711
F0.6666666666666666
tp2712
a(g2710
S'gentle'
p2713
F0.6440717456136013
tp2714
a(g2710
S'mild'
p2715
F0.6466168502309517
tp2716
a(g2711
g2713
F0.6479185861843466
tp2717
a(g2711
g2715
F0.6500535467401649
tp2718
a(g2713
g2715
F0.6666666666666666
tp2719
assg20
(lp2720
(lp2721
g2710
aa(lp2722
g2711
aa(lp2723
g2713
aa(lp2724
g2715
aasa(dp2725
g2
(dp2726
S'prob*'
p2727
g5
(g9
S'UUUUUU\xe5?'
p2728
tp2729
Rp2730
sS'link-probs'
p2731
(lp2732
(S'innovative'
p2733
S'creative'
p2734
F0.6666666666666666
tp2735
assg20
(lp2736
(lp2737
g2733
aa(lp2738
g2734
aasa(dp2739
g2
(dp2740
S'prob*'
p2741
g5
(g9
S'_\x9e*\xfbQ\xd6\xe0?'
p2742
tp2743
Rp2744
sS'link-probs'
p2745
(lp2746
(S'only'
p2747
S'just'
p2748
F0.5261621385188383
tp2749
assg20
(lp2750
(lp2751
g2747
aa(lp2752
g2748
aasa(dp2753
g2
(dp2754
S'prob*'
p2755
g5
(g9
S'\x9e]p:\xea\xad\xc5?'
p2756
tp2757
Rp2758
sS'link-probs'
p2759
(lp2760
(S'dangerous'
p2761
S'negative'
p2762
F0.5657150132566956
tp2763
a(g2761
S'questionable'
p2764
F0.5793427983127268
tp2765
a(g2762
g2764
F0.5167768805134437
tp2766
assg20
(lp2767
(lp2768
g2761
aa(lp2769
g2762
aa(lp2770
g2764
aasa(dp2771
g2
(dp2772
S'prob*'
p2773
g5
(g9
S'\x9b\xd3\xa5\xd2\xe6 \xe5?'
p2774
tp2775
Rp2776
sS'link-probs'
p2777
(lp2778
(S'natural'
p2779
S'physical'
p2780
F0.6602663149084153
tp2781
assg20
(lp2782
(lp2783
g2779
aa(lp2784
g2780
aasa(dp2785
g2
(dp2786
S'prob*'
p2787
g5
(g9
S'\xfd\xe5\x83\x10\xcd\x0b\xe0?'
p2788
tp2789
Rp2790
sS'link-probs'
p2791
(lp2792
(S'bold'
p2793
S'noisy'
p2794
F0.5014405558169411
tp2795
assg20
(lp2796
(lp2797
g2793
aa(lp2798
g2794
aasa(dp2799
g2
(dp2800
S'prob*'
p2801
g5
(g9
S'\x97\x00\xc4B\xc5\x0f\xcf?'
p2802
tp2803
Rp2804
sS'link-probs'
p2805
(lp2806
(S'constant'
p2807
S'solid'
p2808
F0.5632833404084701
tp2809
a(g2807
S'consistent'
p2810
F0.6601773758071281
tp2811
a(g2808
g2810
F0.652568883027061
tp2812
assg20
(lp2813
(lp2814
g2807
aa(lp2815
g2808
aa(lp2816
g2810
aasa(dp2817
g2
(dp2818
S'prob*'
p2819
g5
(g9
S"5\xe4'c\xdeM\xa6?"
p2820
tp2821
Rp2822
sS'link-probs'
p2823
(lp2824
(S'comfortable'
p2825
S'embarrassed'
p2826
F0.5253140409056571
tp2827
a(g2825
S'comfy'
p2828
F0.6
tp2829
a(g2825
S'uncomfortable'
p2830
F0.8
tp2831
a(g2826
g2828
F0.6510300717538411
tp2832
a(g2826
g2830
F0.3980578184096726
tp2833
a(g2828
g2830
F0.6666666666666666
tp2834
assg20
(lp2835
(lp2836
g2825
aa(lp2837
g2826
aa(lp2838
g2828
aa(lp2839
g2830
aasa.