(lp0
(dp1
S'raw'
p2
(dp3
S'prob*'
p4
cnumpy.core.multiarray
scalar
p5
(cnumpy
dtype
p6
(S'f8'
p7
I0
I1
tp8
Rp9
(I3
S'<'
p10
NNNI-1
I-1
I0
tp11
bS'\x00\x00\x00\x00\x00\x00\xe8?'
p12
tp13
Rp14
sS'link-probs'
p15
(lp16
(S'good'
p17
S'great'
p18
F0.75
tp19
assS'algo'
p20
(lp21
(lp22
g17
aa(lp23
g18
aasa(dp24
g2
(dp25
g4
g5
(g9
S'm\xc0#\x82!\x8a\xe0?'
p26
tp27
Rp28
sg15
(lp29
(S'great'
p30
S'excellent'
p31
F0.5168616811552177
tp32
assg20
(lp33
(lp34
g30
aa(lp35
g31
aasa(dp36
g2
(dp37
S'prob*'
p38
g5
(g9
S'x\xba\xa8]="\x9f?'
p39
tp40
Rp41
sS'link-probs'
p42
(lp43
(S'wonderful'
p44
S'amazing'
p45
F0.625
tp46
a(g44
S'awesome'
p47
F0.6818181818181818
tp48
a(g44
S'fantastic'
p49
F0.6666666666666666
tp50
a(g44
S'terrific'
p51
F0.8333333333333334
tp52
a(g45
g47
F0.6666666666666666
tp53
a(g45
g49
F0.7272727272727273
tp54
a(g45
g51
F0.8333333333333334
tp55
a(g47
g49
F0.6486859537874955
tp56
a(g47
g51
F0.7
tp57
a(g49
g51
F0.7
tp58
assg20
(lp59
(lp60
g44
aa(lp61
g45
aa(lp62
g47
aa(lp63
g49
aa(lp64
g51
aasa(dp65
g2
(dp66
S'prob*'
p67
g5
(g9
S'e\x93M6\xd9d\xd3?'
p68
tp69
Rp70
sS'link-probs'
p71
(lp72
(S'smart'
p73
S'brilliant'
p74
F0.7272727272727273
tp75
a(g73
S'bright'
p76
F0.6666666666666666
tp77
a(g74
g76
F0.625
tp78
assg20
(lp79
(lp80
g73
aa(lp81
g74
aa(lp82
g76
aasa(dp83
g2
(dp84
S'prob*'
p85
g5
(g9
S'\x0b\xa4\x88}\xe0a\xe2?'
p86
tp87
Rp88
sS'link-probs'
p89
(lp90
(S'welcoming'
p91
S'welcome'
p92
F0.5744478656607738
tp93
assg20
(lp94
(lp95
g91
aa(lp96
g92
aasa(dp97
g2
(dp98
S'prob*'
p99
g5
(g9
S'\x99\xce\xa3\xef\x19\xb8\xe1?'
p100
tp101
Rp102
sS'link-probs'
p103
(lp104
(S'long'
p105
S'far'
p106
F0.5537233047929987
tp107
assg20
(lp108
(lp109
g105
aa(lp110
g106
aasa(dp111
g2
(dp112
S'prob*'
p113
g5
(g9
S'\x05b\xea\x13\xe7T\xe1?'
p114
tp115
Rp116
sS'link-probs'
p117
(lp118
(S'acceptable'
p119
S'unacceptable'
p120
F0.5416140927291627
tp121
assg20
(lp122
(lp123
g119
aa(lp124
g120
aasa(dp125
g2
(dp126
S'prob*'
p127
g5
(g9
S'\x82\x14\x93\xa7\xc9\xbe9?'
p128
tp129
Rp130
sS'link-probs'
p131
(lp132
(S'late'
p133
S'married'
p134
F0.5383065548865891
tp135
a(g133
S'later'
p136
F0.9
tp137
a(g133
S'last'
p138
F0.6035665392025037
tp139
a(g133
S'over'
p140
F0.6212498792132337
tp141
a(g133
S'past'
p142
F0.5901470798780183
tp143
a(g134
g136
F0.559200041241991
tp144
a(g134
g138
F0.5761335254250339
tp145
a(g134
g140
F0.5995966806833973
tp146
a(g134
g142
F0.559200041241991
tp147
a(g136
g138
F0.5202131937756874
tp148
a(g136
g140
F0.5512817298723783
tp149
a(g136
g142
F0.5
tp150
a(g138
g140
F0.532272843450234
tp151
a(g138
g142
F0.6666666666666666
tp152
a(g140
g142
F0.6666666666666666
tp153
assg20
(lp154
(lp155
g133
aa(lp156
g134
aa(lp157
g136
aa(lp158
g138
aa(lp159
g140
aa(lp160
g142
aasa(dp161
g2
(dp162
S'prob*'
p163
g5
(g9
S'\xab@!}\xb0\x9e\xe1?'
p164
tp165
Rp166
sS'link-probs'
p167
(lp168
(S'complex'
p169
S'confusing'
p170
F0.550621265787432
tp171
assg20
(lp172
(lp173
g169
aa(lp174
g170
aasa(dp175
g2
(dp176
S'prob*'
p177
g5
(g9
S'\xf5\x19\xc0Cm\x8f\x95?'
p178
tp179
Rp180
sS'link-probs'
p181
(lp182
(S'different'
p183
S'diverse'
p184
F0.7692307692307693
tp185
a(g183
S'mixed'
p186
F0.75
tp187
a(g183
S'various'
p188
F0.9166666666666666
tp189
a(g183
S'uneven'
p190
F0.6212305261182464
tp191
a(g184
g186
F0.75
tp192
a(g184
g188
F0.8
tp193
a(g184
g190
F0.6435219866611276
tp194
a(g186
g188
F0.5256005602849508
tp195
a(g186
g190
F0.5731451144796214
tp196
a(g188
g190
F0.550981306697388
tp197
assg20
(lp198
(lp199
g183
aa(lp200
g184
aa(lp201
g186
aa(lp202
g188
aa(lp203
g190
aasa(dp204
g2
(dp205
S'prob*'
p206
g5
(g9
S'\x12\x04Y\x9a\xb8\xe9\x95?'
p207
tp208
Rp209
sS'link-probs'
p210
(lp211
(S'cute'
p212
S'gorgeous'
p213
F0.75
tp214
a(g212
S'charming'
p215
F0.6666666666666666
tp216
a(g212
S'adorable'
p217
F0.6666666666666666
tp218
a(g212
S'delightful'
p219
F0.8
tp220
a(g213
g215
F0.6666666666666666
tp221
a(g213
g217
F0.4814862246173239
tp222
a(g213
g219
F0.6666666666666666
tp223
a(g215
g217
F0.6
tp224
a(g215
g219
F0.8333333333333334
tp225
a(g217
g219
F0.75
tp226
assg20
(lp227
(lp228
g212
aa(lp229
g213
aa(lp230
g215
aa(lp231
g217
aa(lp232
g219
aasa(dp233
g2
(dp234
S'prob*'
p235
g5
(g9
S'\xba+\xdb%v\nz?'
p236
tp237
Rp238
sS'link-probs'
p239
(lp240
(S'used'
p241
S'aware'
p242
F0.5206289710257977
tp243
a(g241
S'famous'
p244
F0.5429552938645344
tp245
a(g241
S'familiar'
p246
F0.6066580322090095
tp247
a(g241
S'experienced'
p248
F0.6260524948764677
tp249
a(g242
g244
F0.6666666666666666
tp250
a(g242
g246
F0.6666666666666666
tp251
a(g242
g248
F0.6163116938470071
tp252
a(g244
g246
F0.6666666666666666
tp253
a(g244
g248
F0.6032168984757852
tp254
a(g246
g248
F0.5375863426425848
tp255
assg20
(lp256
(lp257
g241
aa(lp258
g242
aa(lp259
g244
aa(lp260
g246
aa(lp261
g248
aasa(dp262
g2
(dp263
S'prob*'
p264
g5
(g9
S'\x1bS\x91\xac\x90A\xa2?'
p265
tp266
Rp267
sS'link-probs'
p268
(lp269
(S'old'
p270
S'above'
p271
F0.5320714441419733
tp272
a(g270
S'prior'
p273
F0.5648775573614208
tp274
a(g270
S'original'
p275
F0.6243701669206008
tp276
a(g271
g273
F0.5354624573260552
tp277
a(g271
g275
F0.6077745325200024
tp278
a(g273
g275
F0.5838488552315587
tp279
assg20
(lp280
(lp281
g270
aa(lp282
g271
aa(lp283
g273
aa(lp284
g275
aasa(dp285
g2
(dp286
S'prob*'
p287
g5
(g9
S'\xd9\xfe\xd1\xe4\x97\xc4\xc1?'
p288
tp289
Rp290
sS'link-probs'
p291
(lp292
(S'sure'
p293
S'reliable'
p294
F0.8571428571428571
tp295
a(g293
S'confident'
p296
F0.8333333333333334
tp297
a(g293
S'unsure'
p298
F0.75
tp299
a(g294
g296
F0.6456448554529495
tp300
a(g294
g298
F0.66179010822786
tp301
a(g296
g298
F0.6064290281530638
tp302
assg20
(lp303
(lp304
g293
aa(lp305
g294
aa(lp306
g296
aa(lp307
g298
aasa(dp308
g2
(dp309
S'prob*'
p310
g5
(g9
S'\x0eA\x16\xe7_\xe1\xc8?'
p311
tp312
Rp313
sS'link-probs'
p314
(lp315
(S'closed'
p316
S'close'
p317
F0.6126957623205532
tp318
a(g316
S'intimate'
p319
F0.6191160330719946
tp320
a(g317
g319
F0.5124245525121793
tp321
assg20
(lp322
(lp323
g316
aa(lp324
g317
aa(lp325
g319
aasa(dp326
g2
(dp327
S'prob*'
p328
g5
(g9
S'JG\x16\x15\x1d\x04\x7f?'
p329
tp330
Rp331
sS'link-probs'
p332
(lp333
(S'basic'
p334
S'first'
p335
F0.6666666666666666
tp336
a(g334
S'central'
p337
F0.49162430136985974
tp338
a(g334
S'main'
p339
F0.6666666666666666
tp340
a(g334
S'key'
p341
F0.75
tp342
a(g335
g337
F0.6372220767321627
tp343
a(g335
g339
F0.6145148024336212
tp344
a(g335
g341
F0.6376789168535875
tp345
a(g337
g339
F0.6666666666666666
tp346
a(g337
g341
F0.5014282195551345
tp347
a(g339
g341
F0.553569280973173
tp348
assg20
(lp349
(lp350
g334
aa(lp351
g335
aa(lp352
g337
aa(lp353
g339
aa(lp354
g341
aasa(dp355
g2
(dp356
S'prob*'
p357
g5
(g9
S'\x96[\xf5.\xc4\xb6\xaf?'
p358
tp359
Rp360
sS'link-probs'
p361
(lp362
(S'quick'
p363
S'fast'
p364
F0.625
tp365
a(g363
S'hungry'
p366
F0.5961221422605062
tp367
a(g363
S'french'
p368
F0.6540789701752838
tp369
a(g364
g366
F0.6183323391450636
tp370
a(g364
g368
F0.6586020506354987
tp371
a(g366
g368
F0.6241509270295036
tp372
assg20
(lp373
(lp374
g363
aa(lp375
g364
aa(lp376
g366
aa(lp377
g368
aasa(dp378
g2
(dp379
S'prob*'
p380
g5
(g9
S'\xbc!\xb5\xa8}>\xd6?'
p381
tp382
Rp383
sS'link-probs'
p384
(lp385
(S'expensive'
p386
S'cheap'
p387
F0.8333333333333334
tp388
a(g386
S'pricey'
p389
F0.75
tp390
a(g387
g389
F0.556102622609654
tp391
assg20
(lp392
(lp393
g386
aa(lp394
g387
aa(lp395
g389
aasa(dp396
g2
(dp397
S'prob*'
p398
g5
(g9
S'r"\x88\xb4\xe1\xc4N?'
p399
tp400
Rp401
sS'link-probs'
p402
(lp403
(S'cool'
p404
S'amazing'
p405
F0.6666666666666666
tp406
a(g404
S'hot'
p407
F0.5555555555555556
tp408
a(g404
S'awesome'
p409
F0.5714285714285714
tp410
a(g404
S'super'
p411
F0.6666666666666666
tp412
a(g404
S'impressed'
p413
F0.5456887585102002
tp414
a(g405
g407
F0.6178496180141977
tp415
a(g405
g409
F0.6666666666666666
tp416
a(g405
g411
F0.6187016960067295
tp417
a(g405
g413
F0.6361280609474781
tp418
a(g407
g409
F0.75
tp419
a(g407
g411
F0.6666666666666666
tp420
a(g407
g413
F0.6666666666666666
tp421
a(g409
g411
F0.625
tp422
a(g409
g413
F0.6666666666666666
tp423
a(g411
g413
F0.5416610385922883
tp424
assg20
(lp425
(lp426
g404
aa(lp427
g405
aa(lp428
g407
aa(lp429
g409
aa(lp430
g411
aa(lp431
g413
aasa(dp432
g2
(dp433
S'prob*'
p434
g5
(g9
S'\xa5\x7fQ\xfe\xe7/\xe4?'
p435
tp436
Rp437
sS'link-probs'
p438
(lp439
(S'first'
p440
S'top'
p441
F0.6308479277758933
tp442
assg20
(lp443
(lp444
g440
aa(lp445
g441
aasa(dp446
g2
(dp447
S'prob*'
p448
g5
(g9
S'\x9f\x92\x82\x05\x0b\xf6\xcb>'
p449
tp450
Rp451
sS'link-probs'
p452
(lp453
(S'right'
p454
S'good'
p455
F0.6
tp456
a(g454
S'perfect'
p457
F0.75
tp458
a(g454
S'okay'
p459
F0.75
tp460
a(g454
S'bad'
p461
F0.75
tp462
a(g454
S'ok'
p463
F0.8888888888888888
tp464
a(g454
S'fine'
p465
F0.7777777777777778
tp466
a(g454
S'wrong'
p467
F0.75
tp468
a(g455
g457
F0.6666666666666666
tp469
a(g455
g459
F0.75
tp470
a(g455
g461
F0.4937792051011156
tp471
a(g455
g463
F0.75
tp472
a(g455
g465
F0.7692307692307693
tp473
a(g455
g467
F0.6666666666666666
tp474
a(g457
g459
F0.6666666666666666
tp475
a(g457
g461
F0.6219220723534267
tp476
a(g457
g463
F0.3333333333333333
tp477
a(g457
g465
F0.5833333333333334
tp478
a(g457
g467
F0.6136647019839055
tp479
a(g459
g461
F0.614009288637502
tp480
a(g459
g463
F0.9090909090909091
tp481
a(g459
g465
F0.4
tp482
a(g459
g467
F0.6046056862589756
tp483
a(g461
g463
F0.6666666666666666
tp484
a(g461
g465
F0.75
tp485
a(g461
g467
F0.5333333333333333
tp486
a(g463
g465
F0.6
tp487
a(g463
g467
F0.41713686632315866
tp488
a(g465
g467
F0.6
tp489
assg20
(lp490
(lp491
g454
aa(lp492
g455
aa(lp493
g457
aa(lp494
g459
aa(lp495
g461
aa(lp496
g463
aa(lp497
g465
aa(lp498
g467
aasa(dp499
g2
(dp500
S'prob*'
p501
g5
(g9
S'\x83\xc7w\xba\xacE\xaa?'
p502
tp503
Rp504
sS'link-probs'
p505
(lp506
(S'reasonable'
p507
S'decent'
p508
F0.6666666666666666
tp509
a(g507
S'regular'
p510
F0.6310396100166104
tp511
a(g507
S'worth'
p512
F0.6666666666666666
tp513
a(g508
g510
F0.5619427458774817
tp514
a(g508
g512
F0.5972716175029191
tp515
a(g510
g512
F0.5451146876527629
tp516
assg20
(lp517
(lp518
g507
aa(lp519
g508
aa(lp520
g510
aa(lp521
g512
aasa(dp522
g2
(dp523
S'prob*'
p524
g5
(g9
S'\x9d\xfb\x1c\xffbm2?'
p525
tp526
Rp527
sS'link-probs'
p528
(lp529
(S'difficult'
p530
S'picky'
p531
F0.9047619047619048
tp532
a(g530
S'hard'
p533
F0.6410256410256411
tp534
a(g530
S'easy'
p535
F0.6363636363636364
tp536
a(g530
S'tricky'
p537
F0.9166666666666666
tp538
a(g530
S'challenging'
p539
F0.78125
tp540
a(g530
S'stressful'
p541
F0.875
tp542
a(g531
g533
F0.6280658968090177
tp543
a(g531
g535
F0.5499541334438968
tp544
a(g531
g537
F0.6536298192865494
tp545
a(g531
g539
F0.656310569389423
tp546
a(g531
g541
F0.661707705495441
tp547
a(g533
g535
F0.625
tp548
a(g533
g537
F0.8
tp549
a(g533
g539
F0.6666666666666666
tp550
a(g533
g541
F0.6322048523352132
tp551
a(g535
g537
F0.8
tp552
a(g535
g539
F0.6666666666666666
tp553
a(g535
g541
F0.6575784727106315
tp554
a(g537
g539
F0.5197845311898232
tp555
a(g537
g541
F0.5764607566176897
tp556
a(g539
g541
F0.5599405042540319
tp557
assg20
(lp558
(lp559
g530
aa(lp560
g531
aa(lp561
g533
aa(lp562
g535
aa(lp563
g537
aa(lp564
g539
aa(lp565
g541
aasa(dp566
g2
(dp567
S'prob*'
p568
g5
(g9
S'\x1b\x06\xf7\xadm\xae\xe4?'
p569
tp570
Rp571
sS'link-probs'
p572
(lp573
(S'cold'
p574
S'fresh'
p575
F0.64629253366019
tp576
assg20
(lp577
(lp578
g574
aa(lp579
g575
aasa(dp580
g2
(dp581
S'prob*'
p582
g5
(g9
S'{g\xda\xa34_\xa2?'
p583
tp584
Rp585
sS'link-probs'
p586
(lp587
(S'happy'
p588
S'glad'
p589
F0.6363636363636364
tp590
a(g588
S'excited'
p591
F0.6
tp592
a(g588
S'disappointed'
p593
F0.49362562542506866
tp594
a(g589
g591
F0.6020416530260774
tp595
a(g589
g593
F0.6119230504140535
tp596
a(g591
g593
F0.5167808187998838
tp597
assg20
(lp598
(lp599
g588
aa(lp600
g589
aa(lp601
g591
aa(lp602
g593
aasa(dp603
g2
(dp604
S'prob*'
p605
g5
(g9
S'\xd1V3|<\x14\x80?'
p606
tp607
Rp608
sS'link-probs'
p609
(lp610
(S'available'
p611
S'ready'
p612
F0.6666666666666666
tp613
a(g611
S'open'
p614
F0.8333333333333334
tp615
a(g611
S'free'
p616
F0.6666666666666666
tp617
a(g611
S'able'
p618
F0.6179244628844379
tp619
a(g612
g614
F0.5101713729565969
tp620
a(g612
g616
F0.5308019698821892
tp621
a(g612
g618
F0.6302860254283237
tp622
a(g614
g616
F0.5208659384123924
tp623
a(g614
g618
F0.6261320014949536
tp624
a(g616
g618
F0.6162835905661878
tp625
assg20
(lp626
(lp627
g611
aa(lp628
g612
aa(lp629
g614
aa(lp630
g616
aa(lp631
g618
aasa(dp632
g2
(dp633
S'prob*'
p634
g5
(g9
S'\x13\xc6\x12\xcc\x87\xc9\xc7?'
p635
tp636
Rp637
sS'link-probs'
p638
(lp639
(S'rude'
p640
S'horrible'
p641
F0.6666666666666666
tp642
a(g640
S'terrible'
p643
F0.47786842667897017
tp644
a(g641
g643
F0.5833333333333334
tp645
assg20
(lp646
(lp647
g640
aa(lp648
g641
aa(lp649
g643
aasa(dp650
g2
(dp651
S'prob*'
p652
g5
(g9
S'Y\x96eY\x96e\xd9?'
p653
tp654
Rp655
sS'link-probs'
p656
(lp657
(S'delicious'
p658
S'tasty'
p659
F0.7142857142857143
tp660
a(g658
S'sweet'
p661
F0.8333333333333334
tp662
a(g659
g661
F0.6666666666666666
tp663
assg20
(lp664
(lp665
g658
aa(lp666
g659
aa(lp667
g661
aasa(dp668
g2
(dp669
S'prob*'
p670
g5
(g9
S'&\xe4o\xb8\x0b\x141?'
p671
tp672
Rp673
sS'link-probs'
p674
(lp675
(S'small'
p676
S'little'
p677
F0.6875
tp678
a(g676
S'enough'
p679
F0.6209754213277228
tp680
a(g676
S'slow'
p681
F0.6666666666666666
tp682
a(g676
S'few'
p683
F0.625
tp684
a(g676
S'short'
p685
F0.6666666666666666
tp686
a(g677
g679
F0.5415707489918985
tp687
a(g677
g681
F0.4792802632485884
tp688
a(g677
g683
F0.5423322984423238
tp689
a(g677
g685
F0.5188773314851066
tp690
a(g679
g681
F0.75
tp691
a(g679
g683
F0.5008130585579075
tp692
a(g679
g685
F0.4766468366394187
tp693
a(g681
g683
F0.5611220391531367
tp694
a(g681
g685
F0.5390472516870808
tp695
a(g683
g685
F0.5555555555555556
tp696
assg20
(lp697
(lp698
g676
aa(lp699
g677
aa(lp700
g679
aa(lp701
g681
aa(lp702
g683
aa(lp703
g685
aasa(dp704
g2
(dp705
S'prob*'
p706
g5
(g9
S'\xa4\x11W\x837\x06\xe1?'
p707
tp708
Rp709
sS'link-probs'
p710
(lp711
(S'late'
p712
S'old'
p713
F0.5320088925587254
tp714
assg20
(lp715
(lp716
g712
aa(lp717
g713
aasa(dp718
g2
(dp719
S'prob*'
p720
g5
(g9
S'I\x92$I\x92$\xe1?'
p721
tp722
Rp723
sS'link-probs'
p724
(lp725
(S'simple'
p726
S'easy'
p727
F0.5357142857142857
tp728
assg20
(lp729
(lp730
g726
aa(lp731
g727
aasa(dp732
g2
(dp733
S'prob*'
p734
g5
(g9
S'\x1c\x90\x9a 8\x84\xe3?'
p735
tp736
Rp737
sS'link-probs'
p738
(lp739
(S'sure'
p740
S'knowledgeable'
p741
F0.6098900448600975
tp742
assg20
(lp743
(lp744
g740
aa(lp745
g741
aasa(dp746
g2
(dp747
S'prob*'
p748
g5
(g9
S'\x1b\xbd\x01w/Q\xd3?'
p749
tp750
Rp751
sS'link-probs'
p752
(lp753
(S'necessary'
p754
S'unnecessary'
p755
F0.8333333333333334
tp756
a(g754
S'worth'
p757
F0.6532127328275642
tp758
a(g755
g757
F0.5544842878796552
tp759
assg20
(lp760
(lp761
g754
aa(lp762
g755
aa(lp763
g757
aasa(dp764
g2
(dp765
S'prob*'
p766
g5
(g9
S'\x00\x00\x00\x00\x00\x00\xd8?'
p767
tp768
Rp769
sS'link-probs'
p770
(lp771
(S'different'
p772
S'many'
p773
F0.6666666666666666
tp774
a(g772
S'several'
p775
F0.75
tp776
a(g773
g775
F0.75
tp777
assg20
(lp778
(lp779
g772
aa(lp780
g773
aa(lp781
g775
aasa(dp782
g2
(dp783
S'prob*'
p784
g5
(g9
S"\x9e\xa1E\xd8$'\xc9?"
p785
tp786
Rp787
sS'link-probs'
p788
(lp789
(S'busy'
p790
S'close'
p791
F0.5005005141054876
tp792
a(g790
S'attentive'
p793
F0.6267007511382041
tp794
a(g791
g793
F0.6264890061810353
tp795
assg20
(lp796
(lp797
g790
aa(lp798
g791
aa(lp799
g793
aasa(dp800
g2
(dp801
S'prob*'
p802
g5
(g9
S'\x95\xde\x88\xa4J\x03\xac?'
p803
tp804
Rp805
sS'link-probs'
p806
(lp807
(S'other'
p808
S'new'
p809
F0.5958433437650558
tp810
a(g808
S'next'
p811
F0.6666666666666666
tp812
a(g808
S'last'
p813
F0.6561558639388093
tp814
a(g809
g811
F0.5487386401818876
tp815
a(g809
g813
F0.6307713275032507
tp816
a(g811
g813
F0.6064599424489796
tp817
assg20
(lp818
(lp819
g808
aa(lp820
g809
aa(lp821
g811
aa(lp822
g813
aasa(dp823
g2
(dp824
S'prob*'
p825
g5
(g9
S'\xaf\xeeH\xe7>\xb4\xa3?'
p826
tp827
Rp828
sS'link-probs'
p829
(lp830
(S'helpful'
p831
S'pleasant'
p832
F0.5062838441945613
tp833
a(g831
S'friendly'
p834
F0.5295277338008321
tp835
a(g831
S'comfortable'
p836
F0.5965505792509783
tp837
a(g832
g834
F0.5234001962818499
tp838
a(g832
g836
F0.8
tp839
a(g834
g836
F0.5746883425416237
tp840
assg20
(lp841
(lp842
g831
aa(lp843
g832
aa(lp844
g834
aa(lp845
g836
aasa(dp846
g2
(dp847
S'prob*'
p848
g5
(g9
S'UUUUUU\xe5?'
p849
tp850
Rp851
sS'link-probs'
p852
(lp853
(S'clean'
p854
S'green'
p855
F0.6666666666666666
tp856
assg20
(lp857
(lp858
g854
aa(lp859
g855
aasa(dp860
g2
(dp861
S'prob*'
p862
g5
(g9
S'\xdbo7\\\x1b\xa5\xce?'
p863
tp864
Rp865
sS'link-probs'
p866
(lp867
(S'own'
p868
S'only'
p869
F0.6429499720810993
tp870
a(g868
S'same'
p871
F0.6561889541691319
tp872
a(g869
g871
F0.5674699023285213
tp873
assg20
(lp874
(lp875
g868
aa(lp876
g869
aa(lp877
g871
aasa(dp878
g2
(dp879
S'prob*'
p880
g5
(g9
S'g(t\xda\x8c\x8b\xc2?'
p881
tp882
Rp883
sS'link-probs'
p884
(lp885
(S'warm'
p886
S'empty'
p887
F0.5274122413224992
tp888
a(g886
S'dry'
p889
F0.5378035395940933
tp890
a(g887
g889
F0.5107939792270894
tp891
assg20
(lp892
(lp893
g886
aa(lp894
g887
aa(lp895
g889
aasa(dp896
g2
(dp897
S'prob*'
p898
g5
(g9
S'G\x00\xc3w\x15\x04~?'
p899
tp900
Rp901
sS'link-probs'
p902
(lp903
(S'beautiful'
p904
S'nice'
p905
F0.6190476190476191
tp906
a(g904
S'cute'
p907
F0.5625
tp908
a(g904
S'soft'
p909
F0.528316920700949
tp910
a(g904
S'favorite'
p911
F0.6439722553258768
tp912
a(g905
g907
F0.6
tp913
a(g905
g909
F0.6666666666666666
tp914
a(g905
g911
F0.6551107704503846
tp915
a(g907
g909
F0.5571229962537031
tp916
a(g907
g911
F0.6666666666666666
tp917
a(g909
g911
F0.6355494747372251
tp918
assg20
(lp919
(lp920
g904
aa(lp921
g905
aa(lp922
g907
aa(lp923
g909
aa(lp924
g911
aasa(dp925
g2
(dp926
S'prob*'
p927
g5
(g9
S'\xfe\x9e\xd3\x1a\x83!Y?'
p928
tp929
Rp930
sS'link-probs'
p931
(lp932
(S'special'
p933
S'excellent'
p934
F0.6666666666666666
tp935
a(g933
S'wonderful'
p936
F0.75
tp937
a(g933
S'outstanding'
p938
F0.8
tp939
a(g933
S'unique'
p940
F0.8
tp941
a(g933
S'fantastic'
p942
F0.6666666666666666
tp943
a(g934
g936
F0.6666666666666666
tp944
a(g934
g938
F0.625
tp945
a(g934
g940
F0.5905976846708084
tp946
a(g934
g942
F0.8571428571428571
tp947
a(g936
g938
F0.625
tp948
a(g936
g940
F0.38565826963438204
tp949
a(g936
g942
F0.6666666666666666
tp950
a(g938
g940
F0.6666666666666666
tp951
a(g938
g942
F0.5196717796732835
tp952
a(g940
g942
F0.6123031735366997
tp953
assg20
(lp954
(lp955
g933
aa(lp956
g934
aa(lp957
g936
aa(lp958
g938
aa(lp959
g940
aa(lp960
g942
aasa(dp961
g2
(dp962
S'prob*'
p963
g5
(g9
S'\xe8\xc3\xfcLw\xb9\xad?'
p964
tp965
Rp966
sS'link-probs'
p967
(lp968
(S'american'
p969
S'beautiful'
p970
F0.5638130280152688
tp971
a(g969
S'pretty'
p972
F0.615217113798311
tp973
a(g969
S'lovely'
p974
F0.6025363351726974
tp975
a(g970
g972
F0.625
tp976
a(g970
g974
F0.6666666666666666
tp977
a(g972
g974
F0.6666666666666666
tp978
assg20
(lp979
(lp980
g969
aa(lp981
g970
aa(lp982
g972
aa(lp983
g974
aasa(dp984
g2
(dp985
S'prob*'
p986
g5
(g9
S"'\xc2y\xd3\x9d\x87\xac?"
p987
tp988
Rp989
sS'link-probs'
p990
(lp991
(S'elegant'
p992
S'fancy'
p993
F0.6666666666666666
tp994
a(g992
S'stylish'
p995
F0.6666666666666666
tp996
a(g992
S'classy'
p997
F0.6666666666666666
tp998
a(g993
g995
F0.6055451941833335
tp999
a(g993
g997
F0.6105644706952932
tp1000
a(g995
g997
F0.5086554732617626
tp1001
assg20
(lp1002
(lp1003
g992
aa(lp1004
g993
aa(lp1005
g995
aa(lp1006
g997
aasa(dp1007
g2
(dp1008
S'prob*'
p1009
g5
(g9
S'\xb3\x8b4\x9djK\xd2?'
p1010
tp1011
Rp1012
sS'link-probs'
p1013
(lp1014
(S'available'
p1015
S'accessible'
p1016
F0.6
tp1017
a(g1015
S'affordable'
p1018
F0.8333333333333334
tp1019
a(g1016
g1018
F0.5717061109938782
tp1020
assg20
(lp1021
(lp1022
g1015
aa(lp1023
g1016
aa(lp1024
g1018
aasa(dp1025
g2
(dp1026
S'prob*'
p1027
g5
(g9
S'\xbf\x13G\xcdfH\xe0?'
p1028
tp1029
Rp1030
sS'link-probs'
p1031
(lp1032
(S'young'
p1033
S'female'
p1034
F0.5088380822495465
tp1035
assg20
(lp1036
(lp1037
g1033
aa(lp1038
g1034
aasa(dp1039
g2
(dp1040
S'prob*'
p1041
g5
(g9
S'k\xe7\x08J\xc2\xaf\xe3?'
p1042
tp1043
Rp1044
sS'link-probs'
p1045
(lp1046
(S'crowded'
p1047
S'busy'
p1048
F0.6152049489967174
tp1049
assg20
(lp1050
(lp1051
g1047
aa(lp1052
g1048
aasa(dp1053
g2
(dp1054
S'prob*'
p1055
g5
(g9
S'\xce,\x83\x904\x98\xcf?'
p1056
tp1057
Rp1058
sS'link-probs'
p1059
(lp1060
(S'nearby'
p1061
S'near'
p1062
F0.6666666666666666
tp1063
a(g1061
S'adjacent'
p1064
F0.656704332655307
tp1065
a(g1062
g1064
F0.5637981031444926
tp1066
assg20
(lp1067
(lp1068
g1061
aa(lp1069
g1062
aa(lp1070
g1064
aasa(dp1071
g2
(dp1072
S'prob*'
p1073
g5
(g9
S')Qa\x8e\xc1\xb6\xd0?'
p1074
tp1075
Rp1076
sS'link-probs'
p1077
(lp1078
(S'rough'
p1079
S'harsh'
p1080
F0.6666666666666666
tp1081
a(g1079
S'rude'
p1082
F0.75
tp1083
a(g1080
g1082
F0.522309091650219
tp1084
assg20
(lp1085
(lp1086
g1079
aa(lp1087
g1080
aa(lp1088
g1082
aasa(dp1089
g2
(dp1090
S'prob*'
p1091
g5
(g9
S'5\xbb)\xb2\xd7_\xae?'
p1092
tp1093
Rp1094
sS'link-probs'
p1095
(lp1096
(S'quick'
p1097
S'fast'
p1098
F0.625
tp1099
a(g1097
S'timely'
p1100
F0.8
tp1101
a(g1097
S'early'
p1102
F0.59752584385207
tp1103
a(g1098
g1100
F0.5994111260286453
tp1104
a(g1098
g1102
F0.6193736343959575
tp1105
a(g1100
g1102
F0.5348516256418634
tp1106
assg20
(lp1107
(lp1108
g1097
aa(lp1109
g1098
aa(lp1110
g1100
aa(lp1111
g1102
aasa(dp1112
g2
(dp1113
S'prob*'
p1114
g5
(g9
S'2\x9a$\xefC\xa1\xad?'
p1115
tp1116
Rp1117
sS'link-probs'
p1118
(lp1119
(S'asian'
p1120
S'eastern'
p1121
F0.6666666666666666
tp1122
a(g1120
S'east'
p1123
F0.6666666666666666
tp1124
a(g1120
S'western'
p1125
F0.6199773729970026
tp1126
a(g1121
g1123
F0.6666666666666666
tp1127
a(g1121
g1125
F0.5546180084819748
tp1128
a(g1123
g1125
F0.5680215640104014
tp1129
assg20
(lp1130
(lp1131
g1120
aa(lp1132
g1121
aa(lp1133
g1123
aa(lp1134
g1125
aasa(dp1135
g2
(dp1136
S'prob*'
p1137
g5
(g9
S'M>\x9d<\x84\x95\xd0?'
p1138
tp1139
Rp1140
sS'link-probs'
p1141
(lp1142
(S'pleasant'
p1143
S'enjoyable'
p1144
F0.6666666666666666
tp1145
a(g1143
S'entertaining'
p1146
F0.75
tp1147
a(g1144
g1146
F0.5182515319701878
tp1148
assg20
(lp1149
(lp1150
g1143
aa(lp1151
g1144
aa(lp1152
g1146
aasa(dp1153
g2
(dp1154
S'prob*'
p1155
g5
(g9
S'S\xb8a\x87\xa7[K?'
p1156
tp1157
Rp1158
sS'link-probs'
p1159
(lp1160
(S'nervous'
p1161
S'angry'
p1162
F0.6310640042369186
tp1163
a(g1161
S'hungry'
p1164
F0.6323142633050525
tp1165
a(g1161
S'upset'
p1166
F0.5555555555555556
tp1167
a(g1161
S'annoyed'
p1168
F0.6557886459864174
tp1169
a(g1161
S'irritated'
p1170
F0.6601187383379246
tp1171
a(g1162
g1164
F0.503327802858604
tp1172
a(g1162
g1166
F0.5714285714285714
tp1173
a(g1162
g1168
F0.6666666666666666
tp1174
a(g1162
g1170
F0.6188278775537688
tp1175
a(g1164
g1166
F0.617602972976283
tp1176
a(g1164
g1168
F0.5910107277063599
tp1177
a(g1164
g1170
F0.6171680422739323
tp1178
a(g1166
g1168
F0.8
tp1179
a(g1166
g1170
F0.75
tp1180
a(g1168
g1170
F0.5424554370456715
tp1181
assg20
(lp1182
(lp1183
g1161
aa(lp1184
g1162
aa(lp1185
g1164
aa(lp1186
g1166
aa(lp1187
g1168
aa(lp1188
g1170
aasa(dp1189
g2
(dp1190
S'prob*'
p1191
g5
(g9
S'\xea\xa8\x92\xdc\x9fk\xb4?'
p1192
tp1193
Rp1194
sS'link-probs'
p1195
(lp1196
(S'expensive'
p1197
S'inexpensive'
p1198
F0.8
tp1199
a(g1197
S'cheap'
p1200
F0.8333333333333334
tp1201
a(g1197
S'pricey'
p1202
F0.75
tp1203
a(g1198
g1200
F0.5088337302913944
tp1204
a(g1198
g1202
F0.5637981031444926
tp1205
a(g1200
g1202
F0.556102622609654
tp1206
assg20
(lp1207
(lp1208
g1197
aa(lp1209
g1198
aa(lp1210
g1200
aa(lp1211
g1202
aasa(dp1212
g2
(dp1213
S'prob*'
p1214
g5
(g9
S'\x7fE\xf3/\xf5y\xce?'
p1215
tp1216
Rp1217
sS'link-probs'
p1218
(lp1219
(S'desperate'
p1220
S'miserable'
p1221
F0.6315421457852164
tp1222
a(g1220
S'bitter'
p1223
F0.6529062595681437
tp1224
a(g1221
g1223
F0.5774315231690411
tp1225
assg20
(lp1226
(lp1227
g1220
aa(lp1228
g1221
aa(lp1229
g1223
aasa(dp1230
g2
(dp1231
S'prob*'
p1232
g5
(g9
S'\xcd\xec\r\xe23V\xe2?'
p1233
tp1234
Rp1235
sS'link-probs'
p1236
(lp1237
(S'dead'
p1238
S'flat'
p1239
F0.5730227866291898
tp1240
assg20
(lp1241
(lp1242
g1238
aa(lp1243
g1239
aasa(dp1244
g2
(dp1245
S'prob*'
p1246
g5
(g9
S'\xaa\x81\xe2\x17\xef\xd0|?'
p1247
tp1248
Rp1249
sS'link-probs'
p1250
(lp1251
(S'true'
p1252
S'real'
p1253
F0.7333333333333333
tp1254
a(g1252
S'authentic'
p1255
F0.3333333333333333
tp1256
a(g1252
S'genuine'
p1257
F0.7
tp1258
a(g1252
S'actual'
p1259
F0.627105517316435
tp1260
a(g1253
g1255
F0.6666666666666666
tp1261
a(g1253
g1257
F0.6
tp1262
a(g1253
g1259
F0.8
tp1263
a(g1255
g1257
F0.5817250078192938
tp1264
a(g1255
g1259
F0.6232332572175843
tp1265
a(g1257
g1259
F0.5651175781060891
tp1266
assg20
(lp1267
(lp1268
g1252
aa(lp1269
g1253
aa(lp1270
g1255
aa(lp1271
g1257
aa(lp1272
g1259
aasa(dp1273
g2
(dp1274
S'prob*'
p1275
g5
(g9
S'\xd9"\x08;|\x15\x85?'
p1276
tp1277
Rp1278
sS'link-probs'
p1279
(lp1280
(S'rich'
p1281
S'generous'
p1282
F0.6185648627054222
tp1283
a(g1281
S'enough'
p1284
F0.631826770233919
tp1285
a(g1281
S'ample'
p1286
F0.6505551654108933
tp1287
a(g1281
S'plentiful'
p1288
F0.6614709208001058
tp1289
a(g1282
g1284
F0.5303254654343488
tp1290
a(g1282
g1286
F0.589513383267899
tp1291
a(g1282
g1288
F0.638055706753068
tp1292
a(g1284
g1286
F0.8333333333333334
tp1293
a(g1284
g1288
F0.6268485695571204
tp1294
a(g1286
g1288
F0.5874450543243337
tp1295
assg20
(lp1296
(lp1297
g1281
aa(lp1298
g1282
aa(lp1299
g1284
aa(lp1300
g1286
aa(lp1301
g1288
aasa(dp1302
g2
(dp1303
S'prob*'
p1304
g5
(g9
S'-\xdcD\t\xbc\x87\x0e?'
p1305
tp1306
Rp1307
sS'link-probs'
p1308
(lp1309
(S'horrible'
p1310
S'scary'
p1311
F0.5136952253704471
tp1312
a(g1310
S'obnoxious'
p1313
F0.6546027945626723
tp1314
a(g1310
S'awful'
p1315
F0.5384615384615384
tp1316
a(g1310
S'horrendous'
p1317
F0.875
tp1318
a(g1310
S'outrageous'
p1319
F0.6497779873121535
tp1320
a(g1310
S'disgusting'
p1321
F0.6
tp1322
a(g1311
g1313
F0.652534268701693
tp1323
a(g1311
g1315
F0.8
tp1324
a(g1311
g1317
F0.6453325050698048
tp1325
a(g1311
g1319
F0.6469329933520256
tp1326
a(g1311
g1321
F0.6560278725958418
tp1327
a(g1313
g1315
F0.6666666666666666
tp1328
a(g1313
g1317
F0.46433803975548776
tp1329
a(g1313
g1319
F0.47100137726027164
tp1330
a(g1313
g1321
F0.5243942065116477
tp1331
a(g1315
g1317
F0.8571428571428571
tp1332
a(g1315
g1319
F0.8
tp1333
a(g1315
g1321
F0.6666666666666666
tp1334
a(g1317
g1319
F0.5069210016794458
tp1335
a(g1317
g1321
F0.5582324415208589
tp1336
a(g1319
g1321
F0.6666666666666666
tp1337
assg20
(lp1338
(lp1339
g1310
aa(lp1340
g1311
aa(lp1341
g1313
aa(lp1342
g1315
aa(lp1343
g1317
aa(lp1344
g1319
aa(lp1345
g1321
aasa(dp1346
g2
(dp1347
S'prob*'
p1348
g5
(g9
S'\x06\xfe\xb2\x84\x80\x8cj?'
p1349
tp1350
Rp1351
sS'link-probs'
p1352
(lp1353
(S'unpleasant'
p1354
S'frustrating'
p1355
F0.6205690994798347
tp1356
a(g1354
S'boring'
p1357
F0.6231292880485445
tp1358
a(g1354
S'annoying'
p1359
F0.6666666666666666
tp1360
a(g1354
S'painful'
p1361
F0.3333333333333333
tp1362
a(g1355
g1357
F0.505499172757376
tp1363
a(g1355
g1359
F0.5743325857362401
tp1364
a(g1355
g1361
F0.6028248034843946
tp1365
a(g1357
g1359
F0.6666666666666666
tp1366
a(g1357
g1361
F0.599347982995773
tp1367
a(g1359
g1361
F0.5393080907570394
tp1368
assg20
(lp1369
(lp1370
g1354
aa(lp1371
g1355
aa(lp1372
g1357
aa(lp1373
g1359
aa(lp1374
g1361
aasa(dp1375
g2
(dp1376
S'prob*'
p1377
g5
(g9
S'\xe9\xaf\xa9\x14,\x1f\xd9?'
p1378
tp1379
Rp1380
sS'link-probs'
p1381
(lp1382
(S'impossible'
p1383
S'incompetent'
p1384
F0.6308479277758933
tp1385
a(g1383
S'unable'
p1386
F0.9333333333333333
tp1387
a(g1384
g1386
F0.6666666666666666
tp1388
assg20
(lp1389
(lp1390
g1383
aa(lp1391
g1384
aa(lp1392
g1386
aasa(dp1393
g2
(dp1394
S'prob*'
p1395
g5
(g9
S'ffffff\xd6?'
p1396
tp1397
Rp1398
sS'link-probs'
p1399
(lp1400
(S'possible'
p1401
S'likely'
p1402
F0.6
tp1403
a(g1401
S'potential'
p1404
F0.875
tp1405
a(g1402
g1404
F0.6666666666666666
tp1406
assg20
(lp1407
(lp1408
g1401
aa(lp1409
g1402
aa(lp1410
g1404
aasa(dp1411
g2
(dp1412
S'prob*'
p1413
g5
(g9
S'V\xee\t\xd6q\xc6\xcb?'
p1414
tp1415
Rp1416
sS'link-probs'
p1417
(lp1418
(S'definite'
p1419
S'accurate'
p1420
F0.5250977592450834
tp1421
a(g1419
S'exact'
p1422
F0.49589291967274196
tp1423
a(g1420
g1422
F0.8333333333333334
tp1424
assg20
(lp1425
(lp1426
g1419
aa(lp1427
g1420
aa(lp1428
g1422
aasa(dp1429
g2
(dp1430
S'prob*'
p1431
g5
(g9
S'\xe2<%\xf1\xf2Id?'
p1432
tp1433
Rp1434
sS'link-probs'
p1435
(lp1436
(S'stupid'
p1437
S'silly'
p1438
F0.6818181818181818
tp1439
a(g1437
S'lame'
p1440
F0.8181818181818182
tp1441
a(g1437
S'dumb'
p1442
F0.7058823529411765
tp1443
a(g1437
S'cheesy'
p1444
F0.75
tp1445
a(g1437
S'pathetic'
p1446
F0.8888888888888888
tp1447
a(g1438
g1440
F0.6
tp1448
a(g1438
g1442
F0.6
tp1449
a(g1438
g1444
F0.75
tp1450
a(g1438
g1446
F0.75
tp1451
a(g1440
g1442
F0.6
tp1452
a(g1440
g1444
F0.6666666666666666
tp1453
a(g1440
g1446
F0.6666666666666666
tp1454
a(g1442
g1444
F0.513578320940454
tp1455
a(g1442
g1446
F0.6666666666666666
tp1456
a(g1444
g1446
F0.5102689231187397
tp1457
assg20
(lp1458
(lp1459
g1437
aa(lp1460
g1438
aa(lp1461
g1440
aa(lp1462
g1442
aa(lp1463
g1444
aa(lp1464
g1446
aasa(dp1465
g2
(dp1466
S'prob*'
p1467
g5
(g9
S'5\xb5\x88\x9ffVp?'
p1468
tp1469
Rp1470
sS'link-probs'
p1471
(lp1472
(S'hot'
p1473
S'warm'
p1474
F0.5003684014024024
tp1475
a(g1473
S'romantic'
p1476
F0.5463713601853022
tp1477
a(g1473
S'enthusiastic'
p1478
F0.6147403001909897
tp1479
a(g1473
S'passionate'
p1480
F0.6157934920775665
tp1481
a(g1474
g1476
F0.5460312679145493
tp1482
a(g1474
g1478
F0.6666666666666666
tp1483
a(g1474
g1480
F0.6156026222528089
tp1484
a(g1476
g1478
F0.5845672878197271
tp1485
a(g1476
g1480
F0.5860571580026975
tp1486
a(g1478
g1480
F0.5020187787926744
tp1487
assg20
(lp1488
(lp1489
g1473
aa(lp1490
g1474
aa(lp1491
g1476
aa(lp1492
g1478
aa(lp1493
g1480
aasa(dp1494
g2
(dp1495
S'prob*'
p1496
g5
(g9
S'ffffff\xe6?'
p1497
tp1498
Rp1499
sS'link-probs'
p1500
(lp1501
(S'lucky'
p1502
S'fortunate'
p1503
F0.7
tp1504
assg20
(lp1505
(lp1506
g1502
aa(lp1507
g1503
aasa(dp1508
g2
(dp1509
S'prob*'
p1510
g5
(g9
S'fR\xdfO6^\xa3?'
p1511
tp1512
Rp1513
sS'link-probs'
p1514
(lp1515
(S'popular'
p1516
S'public'
p1517
F0.5066654098593658
tp1518
a(g1516
S'general'
p1519
F0.5153564036606332
tp1520
a(g1516
S'generic'
p1521
F0.6540819556349283
tp1522
a(g1517
g1519
F0.5087231371842081
tp1523
a(g1517
g1521
F0.653076185332243
tp1524
a(g1519
g1521
F0.6666666666666666
tp1525
assg20
(lp1526
(lp1527
g1516
aa(lp1528
g1517
aa(lp1529
g1519
aa(lp1530
g1521
aasa(dp1531
g2
(dp1532
S'prob*'
p1533
g5
(g9
S'|\xe2\x11\xcd\xce\xd6\x8b?'
p1534
tp1535
Rp1536
sS'link-probs'
p1537
(lp1538
(S'good'
p1539
S'nice'
p1540
F0.6923076923076923
tp1541
a(g1539
S'cool'
p1542
F0.6
tp1543
a(g1539
S'fine'
p1544
F0.7692307692307693
tp1545
a(g1539
S'okay'
p1546
F0.75
tp1547
a(g1540
g1542
F0.5294117647058824
tp1548
a(g1540
g1544
F0.625
tp1549
a(g1540
g1546
F0.5714285714285714
tp1550
a(g1542
g1544
F0.75
tp1551
a(g1542
g1546
F0.6666666666666666
tp1552
a(g1544
g1546
F0.6
tp1553
assg20
(lp1554
(lp1555
g1539
aa(lp1556
g1540
aa(lp1557
g1542
aa(lp1558
g1544
aa(lp1559
g1546
aasa(dp1560
g2
(dp1561
S'prob*'
p1562
g5
(g9
S't7&\xf6\xbb]\xa8?'
p1563
tp1564
Rp1565
sS'link-probs'
p1566
(lp1567
(S'well'
p1568
S'helpful'
p1569
F0.6666666666666666
tp1570
a(g1568
S'alright'
p1571
F0.6666666666666666
tp1572
a(g1568
S'ok'
p1573
F0.6666666666666666
tp1574
a(g1569
g1571
F0.5349482070757303
tp1575
a(g1569
g1573
F0.5643650221890634
tp1576
a(g1571
g1573
F0.5320088925587254
tp1577
assg20
(lp1578
(lp1579
g1568
aa(lp1580
g1569
aa(lp1581
g1571
aa(lp1582
g1573
aasa(dp1583
g2
(dp1584
S'prob*'
p1585
g5
(g9
S'\xef(\xed\n\\\x00w?'
p1586
tp1587
Rp1588
sS'link-probs'
p1589
(lp1590
(S'adequate'
p1591
S'effective'
p1592
F0.6238669884437683
tp1593
a(g1591
S'efficient'
p1594
F0.639344352095658
tp1595
a(g1591
S'successful'
p1596
F0.6240843224211005
tp1597
a(g1591
S'competitive'
p1598
F0.6357652437190292
tp1599
a(g1592
g1594
F0.65
tp1600
a(g1592
g1596
F0.6363636363636364
tp1601
a(g1592
g1598
F0.5301531541078031
tp1602
a(g1594
g1596
F0.625
tp1603
a(g1594
g1598
F0.48877838413630154
tp1604
a(g1596
g1598
F0.5296822788963337
tp1605
assg20
(lp1606
(lp1607
g1591
aa(lp1608
g1592
aa(lp1609
g1594
aa(lp1610
g1596
aa(lp1611
g1598
aasa(dp1612
g2
(dp1613
S'prob*'
p1614
g5
(g9
S'l\xc8\x9f,@\x11\xcc?'
p1615
tp1616
Rp1617
sS'link-probs'
p1618
(lp1619
(S'delicate'
p1620
S'sophisticated'
p1621
F0.65067799403185
tp1622
a(g1620
S'subtle'
p1623
F0.6666666666666666
tp1624
a(g1621
g1623
F0.5054953087709532
tp1625
assg20
(lp1626
(lp1627
g1620
aa(lp1628
g1621
aa(lp1629
g1623
aasa(dp1630
g2
(dp1631
S'prob*'
p1632
g5
(g9
S'y\x11l36\x18}?'
p1633
tp1634
Rp1635
sS'link-probs'
p1636
(lp1637
(S'like'
p1638
S'equal'
p1639
F0.6355223983764767
tp1640
a(g1638
S'similar'
p1641
F0.6
tp1642
a(g1638
S'comparable'
p1643
F0.6666666666666666
tp1644
a(g1638
S'same'
p1645
F0.6399554192960293
tp1646
a(g1639
g1641
F0.6666666666666666
tp1647
a(g1639
g1643
F0.6666666666666666
tp1648
a(g1639
g1645
F0.3333333333333333
tp1649
a(g1641
g1643
F0.7142857142857143
tp1650
a(g1641
g1645
F0.6415431642323502
tp1651
a(g1643
g1645
F0.6431576694666142
tp1652
assg20
(lp1653
(lp1654
g1638
aa(lp1655
g1639
aa(lp1656
g1641
aa(lp1657
g1643
aa(lp1658
g1645
aasa(dp1659
g2
(dp1660
S'prob*'
p1661
g5
(g9
S'\xe1\xca\xb6\x02\x13\xcc\xb0?'
p1662
tp1663
Rp1664
sS'link-probs'
p1665
(lp1666
(S'off'
p1667
S'out'
p1668
F0.5350671562312033
tp1669
a(g1667
S'free'
p1670
F0.6322383823100468
tp1671
a(g1667
S'complimentary'
p1672
F0.651398846642851
tp1673
a(g1668
g1670
F0.6166437394610116
tp1674
a(g1668
g1672
F0.6438197548194169
tp1675
a(g1670
g1672
F0.75
tp1676
assg20
(lp1677
(lp1678
g1667
aa(lp1679
g1668
aa(lp1680
g1670
aa(lp1681
g1672
aasa(dp1682
g2
(dp1683
S'prob*'
p1684
g5
(g9
S'?{\x84\x18\x84\xefI?'
p1685
tp1686
Rp1687
sS'link-probs'
p1688
(lp1689
(S'sad'
p1690
S'disappointed'
p1691
F0.5435231449049801
tp1692
a(g1690
S'sorry'
p1693
F0.6923076923076923
tp1694
a(g1690
S'unhappy'
p1695
F0.75
tp1696
a(g1690
S'unfortunate'
p1697
F0.6666666666666666
tp1698
a(g1690
S'disappointing'
p1699
F0.6666666666666666
tp1700
a(g1691
g1693
F0.5219709177057141
tp1701
a(g1691
g1695
F0.607767095736409
tp1702
a(g1691
g1697
F0.530433684040877
tp1703
a(g1691
g1699
F0.5714285714285714
tp1704
a(g1693
g1695
F0.75
tp1705
a(g1693
g1697
F0.6
tp1706
a(g1693
g1699
F0.6666666666666666
tp1707
a(g1695
g1697
F0.5714285714285714
tp1708
a(g1695
g1699
F0.4785208294544265
tp1709
a(g1697
g1699
F0.8
tp1710
assg20
(lp1711
(lp1712
g1690
aa(lp1713
g1691
aa(lp1714
g1693
aa(lp1715
g1695
aa(lp1716
g1697
aa(lp1717
g1699
aasa(dp1718
g2
(dp1719
S'prob*'
p1720
g5
(g9
S'\x10\xc3\xd9\xeaX\xe4@?'
p1721
tp1722
Rp1723
sS'link-probs'
p1724
(lp1725
(S'detailed'
p1726
S'full'
p1727
F0.6209277584935774
tp1728
a(g1726
S'complete'
p1729
F0.6666666666666666
tp1730
a(g1726
S'extensive'
p1731
F0.75
tp1732
a(g1726
S'deep'
p1733
F0.6068054784317062
tp1734
a(g1726
S'thorough'
p1735
F0.5522163182414895
tp1736
a(g1727
g1729
F0.5107819364746494
tp1737
a(g1727
g1731
F0.6666666666666666
tp1738
a(g1727
g1733
F0.47360484809774506
tp1739
a(g1727
g1735
F0.6666666666666666
tp1740
a(g1729
g1731
F0.6666666666666666
tp1741
a(g1729
g1733
F0.46319993821556343
tp1742
a(g1729
g1735
F0.6
tp1743
a(g1731
g1733
F0.6044783683503585
tp1744
a(g1731
g1735
F0.5486826117208228
tp1745
a(g1733
g1735
F0.75
tp1746
assg20
(lp1747
(lp1748
g1726
aa(lp1749
g1727
aa(lp1750
g1729
aa(lp1751
g1731
aa(lp1752
g1733
aa(lp1753
g1735
aasa(dp1754
g2
(dp1755
S'prob*'
p1756
g5
(g9
S'`\x94\x06\x1cC!\xcf?'
p1757
tp1758
Rp1759
sS'link-probs'
p1760
(lp1761
(S'aggressive'
p1762
S'intense'
p1763
F0.6382782788619438
tp1764
a(g1762
S'tough'
p1765
F0.5715436077144321
tp1766
a(g1763
g1765
F0.6666666666666666
tp1767
assg20
(lp1768
(lp1769
g1762
aa(lp1770
g1763
aa(lp1771
g1765
aasa(dp1772
g2
(dp1773
S'prob*'
p1774
g5
(g9
S'\xb6\xb7$\x91\xd3\x81\xe0?'
p1775
tp1776
Rp1777
sS'link-probs'
p1778
(lp1779
(S'worried'
p1780
S'afraid'
p1781
F0.5158479533035834
tp1782
assg20
(lp1783
(lp1784
g1780
aa(lp1785
g1781
aasa(dp1786
g2
(dp1787
S'prob*'
p1788
g5
(g9
S'*\x87\xc9\x12\x97c&?'
p1789
tp1790
Rp1791
sS'link-probs'
p1792
(lp1793
(S'clear'
p1794
S'understandable'
p1795
F0.6666666666666666
tp1796
a(g1794
S'obvious'
p1797
F0.4864864864864865
tp1798
a(g1794
S'visible'
p1799
F0.625
tp1800
a(g1794
S'apparent'
p1801
F0.7777777777777778
tp1802
a(g1794
S'plain'
p1803
F0.8636363636363636
tp1804
a(g1794
S'distinct'
p1805
F0.8
tp1806
a(g1795
g1797
F0.6666666666666666
tp1807
a(g1795
g1799
F0.46074076432723804
tp1808
a(g1795
g1801
F0.6316145251762778
tp1809
a(g1795
g1803
F0.6366668507817219
tp1810
a(g1795
g1805
F0.6399696330989502
tp1811
a(g1797
g1799
F0.7272727272727273
tp1812
a(g1797
g1801
F0.7777777777777778
tp1813
a(g1797
g1803
F0.875
tp1814
a(g1797
g1805
F0.75
tp1815
a(g1799
g1801
F0.5384615384615384
tp1816
a(g1799
g1803
F0.6666666666666666
tp1817
a(g1799
g1805
F0.6666666666666666
tp1818
a(g1801
g1803
F0.8333333333333334
tp1819
a(g1801
g1805
F0.5248068359013062
tp1820
a(g1803
g1805
F0.5106079925126165
tp1821
assg20
(lp1822
(lp1823
g1794
aa(lp1824
g1795
aa(lp1825
g1797
aa(lp1826
g1799
aa(lp1827
g1801
aa(lp1828
g1803
aa(lp1829
g1805
aasa(dp1830
g2
(dp1831
S'prob*'
p1832
g5
(g9
S'\xca*\xddQ7\xd5\x89?'
p1833
tp1834
Rp1835
sS'link-probs'
p1836
(lp1837
(S'honest'
p1838
S'fair'
p1839
F0.6
tp1840
a(g1838
S'loyal'
p1841
F0.8
tp1842
a(g1838
S'straight'
p1843
F0.8571428571428571
tp1844
a(g1838
S'legit'
p1845
F0.8333333333333334
tp1846
a(g1839
g1841
F0.5080689771231007
tp1847
a(g1839
g1843
F0.75
tp1848
a(g1839
g1845
F0.5304043777727295
tp1849
a(g1841
g1843
F0.5225344237843627
tp1850
a(g1841
g1845
F0.5225344237843627
tp1851
a(g1843
g1845
F0.6666666666666666
tp1852
assg20
(lp1853
(lp1854
g1838
aa(lp1855
g1839
aa(lp1856
g1841
aa(lp1857
g1843
aa(lp1858
g1845
aasa(dp1859
g2
(dp1860
S'prob*'
p1861
g5
(g9
S'333333\xe3?'
p1862
tp1863
Rp1864
sS'link-probs'
p1865
(lp1866
(S'interested'
p1867
S'concerned'
p1868
F0.6
tp1869
assg20
(lp1870
(lp1871
g1867
aa(lp1872
g1868
aasa(dp1873
g2
(dp1874
S'prob*'
p1875
g5
(g9
S'\x00\x00\x00\x00\x00\x00\xe8?'
p1876
tp1877
Rp1878
sS'link-probs'
p1879
(lp1880
(S'comforting'
p1881
S'refreshing'
p1882
F0.75
tp1883
assg20
(lp1884
(lp1885
g1881
aa(lp1886
g1882
aasa(dp1887
g2
(dp1888
S'prob*'
p1889
g5
(g9
S'UUUUUU\xe5?'
p1890
tp1891
Rp1892
sS'link-probs'
p1893
(lp1894
(S'magic'
p1895
S'magical'
p1896
F0.6666666666666666
tp1897
assg20
(lp1898
(lp1899
g1895
aa(lp1900
g1896
aasa(dp1901
g2
(dp1902
S'prob*'
p1903
g5
(g9
S'UUUUUU\xe5?'
p1904
tp1905
Rp1906
sS'link-probs'
p1907
(lp1908
(S'specific'
p1909
S'particular'
p1910
F0.6666666666666666
tp1911
assg20
(lp1912
(lp1913
g1909
aa(lp1914
g1910
aasa(dp1915
g2
(dp1916
S'prob*'
p1917
g5
(g9
S' M?)u]\xc3?'
p1918
tp1919
Rp1920
sS'link-probs'
p1921
(lp1922
(S'impressed'
p1923
S'shocked'
p1924
F0.5380796951186254
tp1925
a(g1923
S'overwhelmed'
p1926
F0.5492151365163754
tp1927
a(g1924
g1926
F0.5119410760177181
tp1928
assg20
(lp1929
(lp1930
g1923
aa(lp1931
g1924
aa(lp1932
g1926
aasa(dp1933
g2
(dp1934
S'prob*'
p1935
g5
(g9
S'\xdc`\xc9\x9a+j8?'
p1936
tp1937
Rp1938
sS'link-probs'
p1939
(lp1940
(S'own'
p1941
S'private'
p1942
F0.511025359700302
tp1943
a(g1941
S'personal'
p1944
F0.5834456176421107
tp1945
a(g1941
S'independent'
p1946
F0.5872903194506615
tp1947
a(g1941
S'lazy'
p1948
F0.6231709985664984
tp1949
a(g1941
S'separate'
p1950
F0.655633315263371
tp1951
a(g1942
g1944
F0.5749010284033514
tp1952
a(g1942
g1946
F0.5790021191646599
tp1953
a(g1942
g1948
F0.6179100444938278
tp1954
a(g1942
g1950
F0.6541289440439063
tp1955
a(g1944
g1946
F0.5052112033996544
tp1956
a(g1944
g1948
F0.5630572493698124
tp1957
a(g1944
g1950
F0.6355711479194307
tp1958
a(g1946
g1948
F0.5585385422601604
tp1959
a(g1946
g1950
F0.6337619932530312
tp1960
a(g1948
g1950
F0.604751749341546
tp1961
assg20
(lp1962
(lp1963
g1941
aa(lp1964
g1942
aa(lp1965
g1944
aa(lp1966
g1946
aa(lp1967
g1948
aa(lp1968
g1950
aasa(dp1969
g2
(dp1970
S'prob*'
p1971
g5
(g9
S'\x93\xa9\xab\xb0`[\xa3>'
p1972
tp1973
Rp1974
sS'link-probs'
p1975
(lp1976
(S'cold'
p1977
S'korean'
p1978
F0.6066136267416051
tp1979
a(g1977
S'wet'
p1980
F0.6116846545147542
tp1981
a(g1977
S'dry'
p1982
F0.6147710603056327
tp1983
a(g1977
S'fresh'
p1984
F0.64629253366019
tp1985
a(g1977
S'chilly'
p1986
F0.8333333333333334
tp1987
a(g1977
S'moist'
p1988
F0.6562763767808635
tp1989
a(g1977
S'frozen'
p1990
F0.75
tp1991
a(g1978
g1980
F0.5088756093739466
tp1992
a(g1978
g1982
F0.5145799082957585
tp1993
a(g1978
g1984
F0.5904845120137053
tp1994
a(g1978
g1986
F0.6232347086948381
tp1995
a(g1978
g1988
F0.6240957228650911
tp1996
a(g1978
g1990
F0.624978206400966
tp1997
a(g1980
g1982
F0.5057309973491959
tp1998
a(g1980
g1984
F0.5840386089674565
tp1999
a(g1980
g1986
F0.619046705353172
tp2000
a(g1980
g1988
F0.75
tp2001
a(g1980
g1990
F0.6209318003062684
tp2002
a(g1982
g1984
F0.579689304758552
tp2003
a(g1982
g1986
F0.6161689604085444
tp2004
a(g1982
g1988
F0.6171461217422346
tp2005
a(g1982
g1990
F0.6181486294292348
tp2006
a(g1984
g1986
F0.5547140601753212
tp2007
a(g1984
g1988
F0.5564168630633095
tp2008
a(g1984
g1990
F0.558178843291414
tp2009
a(g1986
g1988
F0.5019156824122674
tp2010
a(g1986
g1990
F0.5039132193764065
tp2011
a(g1988
g1990
F0.5019980761919128
tp2012
assg20
(lp2013
(lp2014
g1977
aa(lp2015
g1978
aa(lp2016
g1980
aa(lp2017
g1982
aa(lp2018
g1984
aa(lp2019
g1986
aa(lp2020
g1988
aa(lp2021
g1990
aasa(dp2022
g2
(dp2023
S'prob*'
p2024
g5
(g9
S'~\xaao\xedy\xce\xd3?'
p2025
tp2026
Rp2027
sS'link-probs'
p2028
(lp2029
(S'perfect'
p2030
S'flawless'
p2031
F0.9
tp2032
a(g2030
S'absolute'
p2033
F0.6466975662118735
tp2034
a(g2031
g2033
F0.5317225515098692
tp2035
assg20
(lp2036
(lp2037
g2030
aa(lp2038
g2031
aa(lp2039
g2033
aasa(dp2040
g2
(dp2041
S'prob*'
p2042
g5
(g9
S'all\x01\x1a\xa7~?'
p2043
tp2044
Rp2045
sS'link-probs'
p2046
(lp2047
(S'following'
p2048
S'new'
p2049
F0.5518839435193404
tp2050
a(g2048
S'next'
p2051
F0.6666666666666666
tp2052
a(g2048
S'further'
p2053
F0.6500178841581251
tp2054
a(g2048
S'third'
p2055
F0.6563888825059685
tp2056
a(g2049
g2051
F0.5487386401818876
tp2057
a(g2049
g2053
F0.6363362795413331
tp2058
a(g2049
g2055
F0.6476280715767216
tp2059
a(g2051
g2053
F0.6151410346527973
tp2060
a(g2051
g2055
F0.6334588670064546
tp2061
a(g2053
g2055
F0.5409975877293453
tp2062
assg20
(lp2063
(lp2064
g2048
aa(lp2065
g2049
aa(lp2066
g2051
aa(lp2067
g2053
aa(lp2068
g2055
aasa(dp2069
g2
(dp2070
S'prob*'
p2071
g5
(g9
S'\xa7\x99\xbd3)\x12\xab?'
p2072
tp2073
Rp2074
sS'link-probs'
p2075
(lp2076
(S'polite'
p2077
S'friendly'
p2078
F0.6326446693368769
tp2079
a(g2077
S'courteous'
p2080
F0.6666666666666666
tp2081
a(g2077
S'gracious'
p2082
F0.6596510624211657
tp2083
a(g2078
g2080
F0.6088465329547014
tp2084
a(g2078
g2082
F0.6136475081012779
tp2085
a(g2080
g2082
F0.5086554732617626
tp2086
assg20
(lp2087
(lp2088
g2077
aa(lp2089
g2078
aa(lp2090
g2080
aa(lp2091
g2082
aasa(dp2092
g2
(dp2093
S'prob*'
p2094
g5
(g9
S'\x90\x841LyK\xc9?'
p2095
tp2096
Rp2097
sS'link-probs'
p2098
(lp2099
(S'appealing'
p2100
S'sexy'
p2101
F0.5269754084366424
tp2102
a(g2100
S'attractive'
p2103
F0.6
tp2104
a(g2101
g2103
F0.625
tp2105
assg20
(lp2106
(lp2107
g2100
aa(lp2108
g2101
aa(lp2109
g2103
aasa(dp2110
g2
(dp2111
S'prob*'
p2112
g5
(g9
S'\xd7\xb8%9\xa9\xf7\x8a?'
p2113
tp2114
Rp2115
sS'link-probs'
p2116
(lp2117
(S'delicious'
p2118
S'yummy'
p2119
F0.6666666666666666
tp2120
a(g2118
S'tasty'
p2121
F0.7142857142857143
tp2122
a(g2118
S'exquisite'
p2123
F0.7142857142857143
tp2124
a(g2118
S'scrumptious'
p2125
F0.8333333333333334
tp2126
a(g2119
g2121
F0.602662027330145
tp2127
a(g2119
g2123
F0.5533476324160497
tp2128
a(g2119
g2125
F0.6666666666666666
tp2129
a(g2121
g2123
F0.6666666666666666
tp2130
a(g2121
g2125
F0.5330304869196797
tp2131
a(g2123
g2125
F0.5880262347187873
tp2132
assg20
(lp2133
(lp2134
g2118
aa(lp2135
g2119
aa(lp2136
g2121
aa(lp2137
g2123
aa(lp2138
g2125
aasa(dp2139
g2
(dp2140
S'prob*'
p2141
g5
(g9
S'\xe0:\xe9\x87\x19u\xa0?'
p2142
tp2143
Rp2144
sS'link-probs'
p2145
(lp2146
(S'flexible'
p2147
S'relaxing'
p2148
F0.5079416972279925
tp2149
a(g2147
S'relaxed'
p2150
F0.6666666666666666
tp2151
a(g2147
S'loose'
p2152
F0.5781843528483682
tp2153
a(g2148
g2150
F0.5077912575343114
tp2154
a(g2148
g2152
F0.5718486888226466
tp2155
a(g2150
g2152
F0.565374898870641
tp2156
assg20
(lp2157
(lp2158
g2147
aa(lp2159
g2148
aa(lp2160
g2150
aa(lp2161
g2152
aasa(dp2162
g2
(dp2163
S'prob*'
p2164
g5
(g9
S'\x17]t\xd1E\x17\xed?'
p2165
tp2166
Rp2167
sS'link-probs'
p2168
(lp2169
(S'interesting'
p2170
S'informative'
p2171
F0.9090909090909091
tp2172
assg20
(lp2173
(lp2174
g2170
aa(lp2175
g2171
aasa(dp2176
g2
(dp2177
S'prob*'
p2178
g5
(g9
S')\xb0\x9c\xcb\x94>\xa5?'
p2179
tp2180
Rp2181
sS'link-probs'
p2182
(lp2183
(S'opposite'
p2184
S'other'
p2185
F0.5024314140233389
tp2186
a(g2184
S'outside'
p2187
F0.5526513926614075
tp2188
a(g2184
S'else'
p2189
F0.6614152221429189
tp2190
a(g2185
g2187
F0.5504524952204574
tp2191
a(g2185
g2189
F0.625
tp2192
a(g2187
g2189
F0.6567099422489927
tp2193
assg20
(lp2194
(lp2195
g2184
aa(lp2196
g2185
aa(lp2197
g2187
aa(lp2198
g2189
aasa(dp2199
g2
(dp2200
S'prob*'
p2201
g5
(g9
S'O%$%\x0c\x85\xe4?'
p2202
tp2203
Rp2204
sS'link-probs'
p2205
(lp2206
(S'best'
p2207
S'recommended'
p2208
F0.6412411427892638
tp2209
assg20
(lp2210
(lp2211
g2207
aa(lp2212
g2208
aasa(dp2213
g2
(dp2214
S'prob*'
p2215
g5
(g9
S'\x1d\xa0\x1c\xf9g\xc6\x9c?'
p2216
tp2217
Rp2218
sS'link-probs'
p2219
(lp2220
(S'phenomenal'
p2221
S'gigantic'
p2222
F0.5
tp2223
a(g2221
S'terrible'
p2224
F0.5403488304332872
tp2225
a(g2221
S'extreme'
p2226
F0.5886687013310224
tp2227
a(g2222
g2224
F0.5403488304332872
tp2228
a(g2222
g2226
F0.5886687013310224
tp2229
a(g2224
g2226
F0.5554633522285978
tp2230
assg20
(lp2231
(lp2232
g2221
aa(lp2233
g2222
aa(lp2234
g2224
aa(lp2235
g2226
aasa(dp2236
g2
(dp2237
S'prob*'
p2238
g5
(g9
S'\xc5\xf9\xeb\xbfG\xf8\xe4?'
p2239
tp2240
Rp2241
sS'link-probs'
p2242
(lp2243
(S'dense'
p2244
S'thick'
p2245
F0.6553076504204048
tp2246
assg20
(lp2247
(lp2248
g2244
aa(lp2249
g2245
aasa(dp2250
g2
(dp2251
S'prob*'
p2252
g5
(g9
S'\xc6W|\xc5W|\xe1?'
p2253
tp2254
Rp2255
sS'link-probs'
p2256
(lp2257
(S'funny'
p2258
S'fun'
p2259
F0.8095238095238095
tp2260
a(g2258
S'hilarious'
p2261
F0.9
tp2262
a(g2259
g2261
F0.75
tp2263
assg20
(lp2264
(lp2265
g2258
aa(lp2266
g2259
aa(lp2267
g2261
aasa(dp2268
g2
(dp2269
S'prob*'
p2270
g5
(g9
S'\xee\x1bg\x8e2-\xd0?'
p2271
tp2272
Rp2273
sS'link-probs'
p2274
(lp2275
(S'poor'
p2276
S'weak'
p2277
F0.5001750963712728
tp2278
a(g2276
S'mediocre'
p2279
F0.8
tp2280
a(g2277
g2279
F0.6316753808237893
tp2281
assg20
(lp2282
(lp2283
g2276
aa(lp2284
g2277
aa(lp2285
g2279
aasa(dp2286
g2
(dp2287
S'prob*'
p2288
g5
(g9
S'\x8b&4%\xd1\x80\xab?'
p2289
tp2290
Rp2291
sS'link-probs'
p2292
(lp2293
(S'ideal'
p2294
S'fitting'
p2295
F0.626499328673273
tp2296
a(g2294
S'convenient'
p2297
F0.6219023175302503
tp2298
a(g2294
S'handy'
p2299
F0.6036786773546008
tp2300
a(g2295
g2297
F0.6666666666666666
tp2301
a(g2295
g2299
F0.4567667716664965
tp2302
a(g2297
g2299
F0.75
tp2303
assg20
(lp2304
(lp2305
g2294
aa(lp2306
g2295
aa(lp2307
g2297
aa(lp2308
g2299
aasa(dp2309
g2
(dp2310
S'prob*'
p2311
g5
(g9
S'XR\x8d\xb1\x98V[?'
p2312
tp2313
Rp2314
sS'link-probs'
p2315
(lp2316
(S'rare'
p2317
S'special'
p2318
F0.529484665343169
tp2319
a(g2317
S'exceptional'
p2320
F0.6666666666666666
tp2321
a(g2317
S'unusual'
p2322
F0.8
tp2323
a(g2317
S'unique'
p2324
F0.5070110741955883
tp2325
a(g2317
S'extraordinary'
p2326
F0.6666666666666666
tp2327
a(g2318
g2320
F0.8
tp2328
a(g2318
g2322
F0.6666666666666666
tp2329
a(g2318
g2324
F0.8
tp2330
a(g2318
g2326
F0.5711431551195205
tp2331
a(g2320
g2322
F0.6
tp2332
a(g2320
g2324
F0.6
tp2333
a(g2320
g2326
F0.7142857142857143
tp2334
a(g2322
g2324
F0.6369437659099032
tp2335
a(g2322
g2326
F0.6569839477068552
tp2336
a(g2324
g2326
F0.6666666666666666
tp2337
assg20
(lp2338
(lp2339
g2317
aa(lp2340
g2318
aa(lp2341
g2320
aa(lp2342
g2322
aa(lp2343
g2324
aa(lp2344
g2326
aasa(dp2345
g2
(dp2346
S'prob*'
p2347
g5
(g9
S't\x81p\xa1\x9dt\xa0?'
p2348
tp2349
Rp2350
sS'link-probs'
p2351
(lp2352
(S'simple'
p2353
S'empty'
p2354
F0.6251291025146081
tp2355
a(g2353
S'pure'
p2356
F0.6255628197420606
tp2357
a(g2353
S'naked'
p2358
F0.6296688969572551
tp2359
a(g2354
g2356
F0.5009984656272134
tp2360
a(g2354
g2358
F0.5109159246079608
tp2361
a(g2356
g2358
F0.5099213518247216
tp2362
assg20
(lp2363
(lp2364
g2353
aa(lp2365
g2354
aa(lp2366
g2356
aa(lp2367
g2358
aasa(dp2368
g2
(dp2369
S'prob*'
p2370
g5
(g9
S'\xcb\x9f\xa6\x8cM\x8d\x0c?'
p2371
tp2372
Rp2373
sS'link-probs'
p2374
(lp2375
(S'talented'
p2376
S'responsible'
p2377
F0.5262848829673781
tp2378
a(g2376
S'competent'
p2379
F0.632348331889281
tp2380
a(g2376
S'trained'
p2381
F0.6350668283796981
tp2382
a(g2376
S'skilled'
p2383
F0.75
tp2384
a(g2376
S'knowledgeable'
p2385
F0.6426257515377204
tp2386
a(g2376
S'able'
p2387
F0.6599909091319425
tp2388
a(g2377
g2379
F0.6212479858945434
tp2389
a(g2377
g2381
F0.6247224423888693
tp2390
a(g2377
g2383
F0.6519146685274714
tp2391
a(g2377
g2385
F0.6344919635111751
tp2392
a(g2377
g2387
F0.657559293751217
tp2393
a(g2379
g2381
F0.5076261856548685
tp2394
a(g2379
g2383
F0.5910251268615253
tp2395
a(g2379
g2385
F0.6666666666666666
tp2396
a(g2379
g2387
F0.6162835905661878
tp2397
a(g2381
g2383
F0.8
tp2398
a(g2381
g2385
F0.5246624105269531
tp2399
a(g2381
g2387
F0.612240666760791
tp2400
a(g2383
g2385
F0.75
tp2401
a(g2383
g2387
F0.5408085839722654
tp2402
a(g2385
g2387
F0.5972716175029191
tp2403
assg20
(lp2404
(lp2405
g2376
aa(lp2406
g2377
aa(lp2407
g2379
aa(lp2408
g2381
aa(lp2409
g2383
aa(lp2410
g2385
aa(lp2411
g2387
aasa(dp2412
g2
(dp2413
S'prob*'
p2414
g5
(g9
S'\xd2\xf9|k\x9f\x91E?'
p2415
tp2416
Rp2417
sS'link-probs'
p2418
(lp2419
(S'tall'
p2420
S'wide'
p2421
F0.5401804624520764
tp2422
a(g2420
S'huge'
p2423
F0.6463476858240552
tp2424
a(g2420
S'vast'
p2425
F0.6666666666666666
tp2426
a(g2420
S'overwhelming'
p2427
F0.6666666666666666
tp2428
a(g2420
S'massive'
p2429
F0.6312191530143143
tp2430
a(g2421
g2423
F0.6666666666666666
tp2431
a(g2421
g2425
F0.6666666666666666
tp2432
a(g2421
g2427
F0.6123668190612248
tp2433
a(g2421
g2429
F0.6666666666666666
tp2434
a(g2423
g2425
F0.6666666666666666
tp2435
a(g2423
g2427
F0.6666666666666666
tp2436
a(g2423
g2429
F0.6666666666666666
tp2437
a(g2425
g2427
F0.5
tp2438
a(g2425
g2429
F0.5
tp2439
a(g2427
g2429
F0.5
tp2440
assg20
(lp2441
(lp2442
g2420
aa(lp2443
g2421
aa(lp2444
g2423
aa(lp2445
g2425
aa(lp2446
g2427
aa(lp2447
g2429
aasa(dp2448
g2
(dp2449
S'prob*'
p2450
g5
(g9
S'\xfbi\xc2\x13[\x9b\xcb?'
p2451
tp2452
Rp2453
sS'link-probs'
p2454
(lp2455
(S'lit'
p2456
S'wise'
p2457
F0.6466799081484308
tp2458
a(g2456
S'thoughtful'
p2459
F0.6495178561570434
tp2460
a(g2457
g2459
F0.5134835751876831
tp2461
assg20
(lp2462
(lp2463
g2456
aa(lp2464
g2457
aa(lp2465
g2459
aasa(dp2466
g2
(dp2467
S'prob*'
p2468
g5
(g9
S'$\x1f,\xd9\xef`\xb4?'
p2469
tp2470
Rp2471
sS'link-probs'
p2472
(lp2473
(S'ready'
p2474
S'open'
p2475
F0.5101713729565969
tp2476
a(g2474
S'prepared'
p2477
F0.7272727272727273
tp2478
a(g2474
S'willing'
p2479
F0.875
tp2480
a(g2475
g2477
F0.6666666666666666
tp2481
a(g2475
g2479
F0.551692057412548
tp2482
a(g2477
g2479
F0.6666666666666666
tp2483
assg20
(lp2484
(lp2485
g2474
aa(lp2486
g2475
aa(lp2487
g2477
aa(lp2488
g2479
aasa(dp2489
g2
(dp2490
S'prob*'
p2491
g5
(g9
S'\xdeI\x14\x03\xd0E\xb8?'
p2492
tp2493
Rp2494
sS'link-probs'
p2495
(lp2496
(S'sensitive'
p2497
S'careful'
p2498
F0.55799544521211
tp2499
a(g2497
S'responsive'
p2500
F0.9090909090909091
tp2501
a(g2497
S'attentive'
p2502
F0.6557476199843423
tp2503
a(g2498
g2500
F0.59841058612975
tp2504
a(g2498
g2502
F0.8
tp2505
a(g2500
g2502
F0.59540745838765
tp2506
assg20
(lp2507
(lp2508
g2497
aa(lp2509
g2498
aa(lp2510
g2500
aa(lp2511
g2502
aasa(dp2512
g2
(dp2513
S'prob*'
p2514
g5
(g9
S'\x84`\x0f\x90\xdf\xf5\x8d?'
p2515
tp2516
Rp2517
sS'link-probs'
p2518
(lp2519
(S'many'
p2520
S'numerous'
p2521
F0.75
tp2522
a(g2520
S'multiple'
p2523
F0.8
tp2524
a(g2520
S'frequent'
p2525
F0.6542767772282823
tp2526
a(g2520
S'countless'
p2527
F0.75
tp2528
a(g2521
g2523
F0.6666666666666666
tp2529
a(g2521
g2525
F0.6598736373162419
tp2530
a(g2521
g2527
F0.6614346181975089
tp2531
a(g2523
g2525
F0.5630181572386574
tp2532
a(g2523
g2527
F0.580996544106754
tp2533
a(g2525
g2527
F0.5220256726322455
tp2534
assg20
(lp2535
(lp2536
g2520
aa(lp2537
g2521
aa(lp2538
g2523
aa(lp2539
g2525
aa(lp2540
g2527
aasa(dp2541
g2
(dp2542
S'prob*'
p2543
g5
(g9
S'\x86\xbe&\xf7\x8e\xc2\xc9?'
p2544
tp2545
Rp2546
sS'link-probs'
p2547
(lp2548
(S'certain'
p2549
S'partial'
p2550
F0.6342920951428659
tp2551
a(g2549
S'several'
p2552
F0.6343512831977812
tp2553
a(g2550
g2552
F0.5001688787400974
tp2554
assg20
(lp2555
(lp2556
g2549
aa(lp2557
g2550
aa(lp2558
g2552
aasa(dp2559
g2
(dp2560
S'prob*'
p2561
g5
(g9
S'\x00\x00\x00\x00\x00\x00\xe0?'
p2562
tp2563
Rp2564
sS'link-probs'
p2565
(lp2566
(S'top'
p2567
S'superior'
p2568
F0.5
tp2569
assg20
(lp2570
(lp2571
g2567
aa(lp2572
g2568
aasa(dp2573
g2
(dp2574
S'prob*'
p2575
g5
(g9
S'_\xf0\xdb\xc0\x9fA\xc7?'
p2576
tp2577
Rp2578
sS'link-probs'
p2579
(lp2580
(S'calm'
p2581
S'peaceful'
p2582
F0.5046949629505483
tp2583
a(g2581
S'quiet'
p2584
F0.6
tp2585
a(g2582
g2584
F0.6
tp2586
assg20
(lp2587
(lp2588
g2581
aa(lp2589
g2582
aa(lp2590
g2584
aasa(dp2591
g2
(dp2592
S'prob*'
p2593
g5
(g9
S'\xfa\x10\x1b\x14\xef\xc7w?'
p2594
tp2595
Rp2596
sS'link-probs'
p2597
(lp2598
(S'quality'
p2599
S'clean'
p2600
F0.5849747106845928
tp2601
a(g2599
S'safe'
p2602
F0.6129603891058006
tp2603
a(g2599
S'healthy'
p2604
F0.6337604964333342
tp2605
a(g2599
S'green'
p2606
F0.6403560287815729
tp2607
a(g2600
g2602
F0.5427625224987104
tp2608
a(g2600
g2604
F0.5825737564985896
tp2609
a(g2600
g2606
F0.6666666666666666
tp2610
a(g2602
g2604
F0.545608965219023
tp2611
a(g2602
g2606
F0.6666666666666666
tp2612
a(g2604
g2606
F0.5203482482832503
tp2613
assg20
(lp2614
(lp2615
g2599
aa(lp2616
g2600
aa(lp2617
g2602
aa(lp2618
g2604
aa(lp2619
g2606
aasa(dp2620
g2
(dp2621
S'prob*'
p2622
g5
(g9
S'\x19.\x05\r\xe4\xd9\xc2?'
p2623
tp2624
Rp2625
sS'link-probs'
p2626
(lp2627
(S'sharp'
p2628
S'loud'
p2629
F0.5114430626213594
tp2630
a(g2628
S'steep'
p2631
F0.5420966059745852
tp2632
a(g2629
g2631
F0.5311945094122856
tp2633
assg20
(lp2634
(lp2635
g2628
aa(lp2636
g2629
aa(lp2637
g2631
aasa(dp2638
g2
(dp2639
S'prob*'
p2640
g5
(g9
S'\x04\x06\xb1\xb2i\t\x99>'
p2641
tp2642
Rp2643
sS'link-probs'
p2644
(lp2645
(S'surprising'
p2646
S'strange'
p2647
F0.5555555555555556
tp2648
a(g2646
S'surprised'
p2649
F0.5555555555555556
tp2650
a(g2646
S'weird'
p2651
F0.513968589165425
tp2652
a(g2646
S'curious'
p2653
F0.5111771636805961
tp2654
a(g2646
S'unexpected'
p2655
F0.75
tp2656
a(g2646
S'odd'
p2657
F0.625
tp2658
a(g2646
S'awkward'
p2659
F0.47894460066769334
tp2660
a(g2647
g2649
F0.75
tp2661
a(g2647
g2651
F0.4827586206896552
tp2662
a(g2647
g2653
F0.6111111111111112
tp2663
a(g2647
g2655
F0.5008804003576538
tp2664
a(g2647
g2657
F0.6666666666666666
tp2665
a(g2647
g2659
F0.8181818181818182
tp2666
a(g2649
g2651
F0.6055949057571491
tp2667
a(g2649
g2653
F0.6038964171074515
tp2668
a(g2649
g2655
F0.6128513509354856
tp2669
a(g2649
g2657
F0.6666666666666666
tp2670
a(g2649
g2659
F0.581701732562402
tp2671
a(g2651
g2653
F0.5833333333333334
tp2672
a(g2651
g2655
F0.5127081990056523
tp2673
a(g2651
g2657
F0.5384615384615384
tp2674
a(g2651
g2659
F0.75
tp2675
a(g2653
g2655
F0.5154955022075481
tp2676
a(g2653
g2657
F0.5632435367658334
tp2677
a(g2653
g2659
F0.7142857142857143
tp2678
a(g2655
g2657
F0.5494941717681665
tp2679
a(g2655
g2659
F0.4533740395567379
tp2680
a(g2657
g2659
F0.625
tp2681
assg20
(lp2682
(lp2683
g2646
aa(lp2684
g2647
aa(lp2685
g2649
aa(lp2686
g2651
aa(lp2687
g2653
aa(lp2688
g2655
aa(lp2689
g2657
aa(lp2690
g2659
aasa(dp2691
g2
(dp2692
S'prob*'
p2693
g5
(g9
S'0\x19["/\x16\x86?'
p2694
tp2695
Rp2696
sS'link-probs'
p2697
(lp2698
(S'bad'
p2699
S'wrong'
p2700
F0.5333333333333333
tp2701
a(g2699
S'fake'
p2702
F0.5711250087582461
tp2703
a(g2699
S'incorrect'
p2704
F0.8888888888888888
tp2705
a(g2699
S'guilty'
p2706
F0.5801045047491028
tp2707
a(g2700
g2702
F0.7142857142857143
tp2708
a(g2700
g2704
F0.875
tp2709
a(g2700
g2706
F0.5922014897146043
tp2710
a(g2702
g2704
F0.6666666666666666
tp2711
a(g2702
g2706
F0.5112964925819611
tp2712
a(g2704
g2706
F0.5442335867010919
tp2713
assg20
(lp2714
(lp2715
g2699
aa(lp2716
g2700
aa(lp2717
g2702
aa(lp2718
g2704
aa(lp2719
g2706
aasa(dp2720
g2
(dp2721
S'prob*'
p2722
g5
(g9
S'\x9b=\x83\x7fO\xfaS?'
p2723
tp2724
Rp2725
sS'link-probs'
p2726
(lp2727
(S'modern'
p2728
S'recent'
p2729
F0.6227173326271922
tp2730
a(g2728
S'current'
p2731
F0.6576057906803018
tp2732
a(g2728
S'present'
p2733
F0.6512585065243297
tp2734
a(g2728
S'updated'
p2735
F0.6608398723620216
tp2736
a(g2728
S'contemporary'
p2737
F0.75
tp2738
a(g2729
g2731
F0.614868439441539
tp2739
a(g2729
g2733
F0.6666666666666666
tp2740
a(g2729
g2735
F0.75
tp2741
a(g2729
g2737
F0.6355698007240278
tp2742
a(g2731
g2733
F0.6666666666666666
tp2743
a(g2731
g2735
F0.75
tp2744
a(g2731
g2737
F0.5471146043299893
tp2745
a(g2733
g2735
F0.5771585433694372
tp2746
a(g2733
g2737
F0.5853965124748113
tp2747
a(g2735
g2737
F0.51079973743902
tp2748
assg20
(lp2749
(lp2750
g2728
aa(lp2751
g2729
aa(lp2752
g2731
aa(lp2753
g2733
aa(lp2754
g2735
aa(lp2755
g2737
aasa(dp2756
g2
(dp2757
S'prob*'
p2758
g5
(g9
S'\x1e\x92\x0b \xcd7\xd1?'
p2759
tp2760
Rp2761
sS'link-probs'
p2762
(lp2763
(S'big'
p2764
S'large'
p2765
F0.5595841456335154
tp2766
a(g2764
S'great'
p2767
F0.7692307692307693
tp2768
a(g2765
g2767
F0.625
tp2769
assg20
(lp2770
(lp2771
g2764
aa(lp2772
g2765
aa(lp2773
g2767
aasa(dp2774
g2
(dp2775
S'prob*'
p2776
g5
(g9
S'T*\xdc*\xc2D\xe4?'
p2777
tp2778
Rp2779
sS'link-probs'
p2780
(lp2781
(S'tired'
p2782
S'kinda'
p2783
F0.6333933674917014
tp2784
assg20
(lp2785
(lp2786
g2782
aa(lp2787
g2783
aasa(dp2788
g2
(dp2789
S'prob*'
p2790
g5
(g9
S'\x01E\x8f\x7fV\xee\xae?'
p2791
tp2792
Rp2793
sS'link-probs'
p2794
(lp2795
(S'alive'
p2796
S'live'
p2797
F0.6
tp2798
a(g2796
S'lively'
p2799
F0.6544116515463659
tp2800
a(g2796
S'vibrant'
p2801
F0.6666666666666666
tp2802
a(g2797
g2799
F0.6530958635526869
tp2803
a(g2797
g2801
F0.6579096722231091
tp2804
a(g2799
g2801
F0.5371182198032848
tp2805
assg20
(lp2806
(lp2807
g2796
aa(lp2808
g2797
aa(lp2809
g2799
aa(lp2810
g2801
aasa(dp2811
g2
(dp2812
S'prob*'
p2813
g5
(g9
S'\x96\xaa\x04\xb9\xeb\xcd\xc8?'
p2814
tp2815
Rp2816
sS'link-probs'
p2817
(lp2818
(S'human'
p2819
S'professional'
p2820
F0.612790795856975
tp2821
a(g2819
S'social'
p2822
F0.6186003232138831
tp2823
a(g2820
g2822
F0.5112060640619499
tp2824
assg20
(lp2825
(lp2826
g2819
aa(lp2827
g2820
aa(lp2828
g2822
aasa(dp2829
g2
(dp2830
S'prob*'
p2831
g5
(g9
S'\xe8\xfc/P\xf3\x8f\xcd?'
p2832
tp2833
Rp2834
sS'link-probs'
p2835
(lp2836
(S'immediate'
p2837
S'direct'
p2838
F0.6666666666666666
tp2839
a(g2837
S'left'
p2840
F0.6403356500536318
tp2841
a(g2838
g2840
F0.5410182585884867
tp2842
assg20
(lp2843
(lp2844
g2837
aa(lp2845
g2838
aa(lp2846
g2840
aasa(dp2847
g2
(dp2848
S'prob*'
p2849
g5
(g9
S'\xb0i\x08x\xe3\x87\xa2?'
p2850
tp2851
Rp2852
sS'link-probs'
p2853
(lp2854
(S'soft'
p2855
S'slow'
p2856
F0.6666666666666666
tp2857
a(g2855
S'gentle'
p2858
F0.5749125365203646
tp2859
a(g2855
S'mild'
p2860
F0.4817253101447887
tp2861
a(g2856
g2858
F0.5885335497737761
tp2862
a(g2856
g2860
F0.49961400074160434
tp2863
a(g2858
g2860
F0.6666666666666666
tp2864
assg20
(lp2865
(lp2866
g2855
aa(lp2867
g2856
aa(lp2868
g2858
aa(lp2869
g2860
aasa(dp2870
g2
(dp2871
S'prob*'
p2872
g5
(g9
S'UUUUUU\xe5?'
p2873
tp2874
Rp2875
sS'link-probs'
p2876
(lp2877
(S'innovative'
p2878
S'creative'
p2879
F0.6666666666666666
tp2880
assg20
(lp2881
(lp2882
g2878
aa(lp2883
g2879
aasa(dp2884
g2
(dp2885
S'prob*'
p2886
g5
(g9
S'\xd9\xe8df\x01p\xe0?'
p2887
tp2888
Rp2889
sS'link-probs'
p2890
(lp2891
(S'only'
p2892
S'just'
p2893
F0.5136725425611771
tp2894
assg20
(lp2895
(lp2896
g2892
aa(lp2897
g2893
aasa(dp2898
g2
(dp2899
S'prob*'
p2900
g5
(g9
S'\xcf\xe1\xad\x07LB\xc2?'
p2901
tp2902
Rp2903
sS'link-probs'
p2904
(lp2905
(S'questionable'
p2906
S'negative'
p2907
F0.5079025957765184
tp2908
a(g2906
S'dangerous'
p2909
F0.533799238968787
tp2910
a(g2907
g2909
F0.5261480742369309
tp2911
assg20
(lp2912
(lp2913
g2906
aa(lp2914
g2907
aa(lp2915
g2909
aasa(dp2916
g2
(dp2917
S'prob*'
p2918
g5
(g9
S'\xe5\xbb\x8e\xeaN\xbf\xe0?'
p2919
tp2920
Rp2921
sS'link-probs'
p2922
(lp2923
(S'natural'
p2924
S'physical'
p2925
F0.523353059883331
tp2926
assg20
(lp2927
(lp2928
g2924
aa(lp2929
g2925
aasa(dp2930
g2
(dp2931
S'prob*'
p2932
g5
(g9
S't\xc4\xd9J\xd1n\xe1?'
p2933
tp2934
Rp2935
sS'link-probs'
p2936
(lp2937
(S'bold'
p2938
S'noisy'
p2939
F0.5447775327612718
tp2940
assg20
(lp2941
(lp2942
g2938
aa(lp2943
g2939
aasa(dp2944
g2
(dp2945
S'prob*'
p2946
g5
(g9
S'\xc1\x83\xf6\xb2\xdc&\xca?'
p2947
tp2948
Rp2949
sS'link-probs'
p2950
(lp2951
(S'solid'
p2952
S'consistent'
p2953
F0.5808379159252839
tp2954
a(g2952
S'constant'
p2955
F0.6226165783480769
tp2956
a(g2953
g2955
F0.5649578694264813
tp2957
assg20
(lp2958
(lp2959
g2952
aa(lp2960
g2953
aa(lp2961
g2955
aasa(dp2962
g2
(dp2963
S'prob*'
p2964
g5
(g9
S'E-\xbc\x99\xbe\xcc\xda>'
p2965
tp2966
Rp2967
sS'link-probs'
p2968
(lp2969
(S'appropriate'
p2970
S'right'
p2971
F0.6058911250148297
tp2972
a(g2970
S'reasonable'
p2973
F0.5647537730988712
tp2974
a(g2970
S'sound'
p2975
F0.6666666666666666
tp2976
a(g2970
S'smooth'
p2977
F0.6395166628604506
tp2978
a(g2970
S'correct'
p2979
F0.8
tp2980
a(g2970
S'proper'
p2981
F0.8
tp2982
a(g2970
S'decent'
p2983
F0.6666666666666666
tp2984
a(g2971
g2973
F0.8
tp2985
a(g2971
g2975
F0.8333333333333334
tp2986
a(g2971
g2977
F0.5718262267694344
tp2987
a(g2971
g2979
F0.75
tp2988
a(g2971
g2981
F0.8181818181818182
tp2989
a(g2971
g2983
F0.75
tp2990
a(g2973
g2975
F0.6666666666666666
tp2991
a(g2973
g2977
F0.6107979662681022
tp2992
a(g2973
g2979
F0.6262451419259651
tp2993
a(g2973
g2981
F0.6230804954405408
tp2994
a(g2973
g2983
F0.6666666666666666
tp2995
a(g2975
g2977
F0.5993978091282596
tp2996
a(g2975
g2979
F0.6174377749785895
tp2997
a(g2975
g2981
F0.6137082583363304
tp2998
a(g2975
g2983
F0.5843327032093648
tp2999
a(g2977
g2979
F0.5311157322304014
tp3000
a(g2977
g2981
F0.524127599343103
tp3001
a(g2977
g2983
F0.47842387895751015
tp3002
a(g2979
g2981
F0.625
tp3003
a(g2979
g2983
F0.75
tp3004
a(g2981
g2983
F0.6666666666666666
tp3005
assg20
(lp3006
(lp3007
g2970
aa(lp3008
g2971
aa(lp3009
g2973
aa(lp3010
g2975
aa(lp3011
g2977
aa(lp3012
g2979
aa(lp3013
g2981
aa(lp3014
g2983
aasa(dp3015
g2
(dp3016
S'prob*'
p3017
g5
(g9
S'5\tl\xd5\x9f\xe7\xae?'
p3018
tp3019
Rp3020
sS'link-probs'
p3021
(lp3022
(S'embarrassed'
p3023
S'comfortable'
p3024
F0.5945378993379263
tp3025
a(g3023
S'comfy'
p3026
F0.5823508199459465
tp3027
a(g3023
S'uncomfortable'
p3028
F0.5448055438597422
tp3029
a(g3024
g3026
F0.6
tp3030
a(g3024
g3028
F0.8
tp3031
a(g3026
g3028
F0.6666666666666666
tp3032
assg20
(lp3033
(lp3034
g3023
aa(lp3035
g3024
aa(lp3036
g3026
aa(lp3037
g3028
aasa(dp3038
g2
(dp3039
S'prob*'
p3040
g5
(g9
S'S\x99\xfe\xf2#4\xe0?'
p3041
tp3042
Rp3043
sS'link-probs'
p3044
(lp3045
(S'active'
p3046
S'positive'
p3047
F0.5063647981631142
tp3048
assg20
(lp3049
(lp3050
g3046
aa(lp3051
g3047
aasa.