(lp0
(dp1
S'raw'
p2
(dp3
S'prob*'
p4
cnumpy.core.multiarray
scalar
p5
(cnumpy
dtype
p6
(S'f8'
p7
I0
I1
tp8
Rp9
(I3
S'<'
p10
NNNI-1
I-1
I0
tp11
bS'\x00\x00\x00\x00\x00\x00\xe8?'
p12
tp13
Rp14
sS'link-probs'
p15
(lp16
(S'good'
p17
S'great'
p18
F0.75
tp19
assS'algo'
p20
(lp21
(lp22
g17
aa(lp23
g18
aasa(dp24
g2
(dp25
g4
g5
(g9
S'm\xc0#\x82!\x8a\xe0?'
p26
tp27
Rp28
sg15
(lp29
(S'great'
p30
S'excellent'
p31
F0.5168616811552177
tp32
assg20
(lp33
(lp34
g30
aa(lp35
g31
aasa(dp36
g2
(dp37
S'prob*'
p38
g5
(g9
S'x\xba\xa8]="\x9f?'
p39
tp40
Rp41
sS'link-probs'
p42
(lp43
(S'wonderful'
p44
S'amazing'
p45
F0.625
tp46
a(g44
S'awesome'
p47
F0.6818181818181818
tp48
a(g44
S'fantastic'
p49
F0.6666666666666666
tp50
a(g44
S'terrific'
p51
F0.8333333333333334
tp52
a(g45
g47
F0.6666666666666666
tp53
a(g45
g49
F0.7272727272727273
tp54
a(g45
g51
F0.8333333333333334
tp55
a(g47
g49
F0.6486859537874955
tp56
a(g47
g51
F0.7
tp57
a(g49
g51
F0.7
tp58
assg20
(lp59
(lp60
g44
aa(lp61
g45
aa(lp62
g47
aa(lp63
g49
aa(lp64
g51
aasa(dp65
g2
(dp66
S'prob*'
p67
g5
(g9
S'e\x93M6\xd9d\xd3?'
p68
tp69
Rp70
sS'link-probs'
p71
(lp72
(S'smart'
p73
S'brilliant'
p74
F0.7272727272727273
tp75
a(g73
S'bright'
p76
F0.6666666666666666
tp77
a(g74
g76
F0.625
tp78
assg20
(lp79
(lp80
g73
aa(lp81
g74
aa(lp82
g76
aasa(dp83
g2
(dp84
S'prob*'
p85
g5
(g9
S'\x0b\xa4\x88}\xe0a\xe2?'
p86
tp87
Rp88
sS'link-probs'
p89
(lp90
(S'welcoming'
p91
S'welcome'
p92
F0.5744478656607738
tp93
assg20
(lp94
(lp95
g91
aa(lp96
g92
aasa(dp97
g2
(dp98
S'prob*'
p99
g5
(g9
S'\x99\xce\xa3\xef\x19\xb8\xe1?'
p100
tp101
Rp102
sS'link-probs'
p103
(lp104
(S'long'
p105
S'far'
p106
F0.5537233047929987
tp107
assg20
(lp108
(lp109
g105
aa(lp110
g106
aasa(dp111
g2
(dp112
S'prob*'
p113
g5
(g9
S'\x05b\xea\x13\xe7T\xe1?'
p114
tp115
Rp116
sS'link-probs'
p117
(lp118
(S'acceptable'
p119
S'unacceptable'
p120
F0.5416140927291627
tp121
assg20
(lp122
(lp123
g119
aa(lp124
g120
aasa(dp125
g2
(dp126
S'prob*'
p127
g5
(g9
S'\x82\x14\x93\xa7\xc9\xbe9?'
p128
tp129
Rp130
sS'link-probs'
p131
(lp132
(S'late'
p133
S'married'
p134
F0.5383065548865891
tp135
a(g133
S'later'
p136
F0.9
tp137
a(g133
S'last'
p138
F0.6035665392025037
tp139
a(g133
S'over'
p140
F0.6212498792132337
tp141
a(g133
S'past'
p142
F0.5901470798780183
tp143
a(g134
g136
F0.559200041241991
tp144
a(g134
g138
F0.5761335254250339
tp145
a(g134
g140
F0.5995966806833973
tp146
a(g134
g142
F0.559200041241991
tp147
a(g136
g138
F0.5202131937756874
tp148
a(g136
g140
F0.5512817298723783
tp149
a(g136
g142
F0.5
tp150
a(g138
g140
F0.532272843450234
tp151
a(g138
g142
F0.6666666666666666
tp152
a(g140
g142
F0.6666666666666666
tp153
assg20
(lp154
(lp155
g133
aa(lp156
g134
aa(lp157
g136
aa(lp158
g138
aa(lp159
g140
aa(lp160
g142
aasa(dp161
g2
(dp162
S'prob*'
p163
g5
(g9
S'\xab@!}\xb0\x9e\xe1?'
p164
tp165
Rp166
sS'link-probs'
p167
(lp168
(S'complex'
p169
S'confusing'
p170
F0.550621265787432
tp171
assg20
(lp172
(lp173
g169
aa(lp174
g170
aasa(dp175
g2
(dp176
S'prob*'
p177
g5
(g9
S'\xf5\x19\xc0Cm\x8f\x95?'
p178
tp179
Rp180
sS'link-probs'
p181
(lp182
(S'different'
p183
S'diverse'
p184
F0.7692307692307693
tp185
a(g183
S'mixed'
p186
F0.75
tp187
a(g183
S'various'
p188
F0.9166666666666666
tp189
a(g183
S'uneven'
p190
F0.6212305261182464
tp191
a(g184
g186
F0.75
tp192
a(g184
g188
F0.8
tp193
a(g184
g190
F0.6435219866611276
tp194
a(g186
g188
F0.5256005602849508
tp195
a(g186
g190
F0.5731451144796214
tp196
a(g188
g190
F0.550981306697388
tp197
assg20
(lp198
(lp199
g183
aa(lp200
g184
aa(lp201
g186
aa(lp202
g188
aa(lp203
g190
aasa(dp204
g2
(dp205
S'prob*'
p206
g5
(g9
S'\x12\x04Y\x9a\xb8\xe9\x95?'
p207
tp208
Rp209
sS'link-probs'
p210
(lp211
(S'cute'
p212
S'gorgeous'
p213
F0.75
tp214
a(g212
S'charming'
p215
F0.6666666666666666
tp216
a(g212
S'adorable'
p217
F0.6666666666666666
tp218
a(g212
S'delightful'
p219
F0.8
tp220
a(g213
g215
F0.6666666666666666
tp221
a(g213
g217
F0.4814862246173239
tp222
a(g213
g219
F0.6666666666666666
tp223
a(g215
g217
F0.6
tp224
a(g215
g219
F0.8333333333333334
tp225
a(g217
g219
F0.75
tp226
assg20
(lp227
(lp228
g212
aa(lp229
g213
aa(lp230
g215
aa(lp231
g217
aa(lp232
g219
aasa(dp233
g2
(dp234
S'prob*'
p235
g5
(g9
S'\xba+\xdb%v\nz?'
p236
tp237
Rp238
sS'link-probs'
p239
(lp240
(S'used'
p241
S'aware'
p242
F0.5206289710257977
tp243
a(g241
S'famous'
p244
F0.5429552938645344
tp245
a(g241
S'familiar'
p246
F0.6066580322090095
tp247
a(g241
S'experienced'
p248
F0.6260524948764677
tp249
a(g242
g244
F0.6666666666666666
tp250
a(g242
g246
F0.6666666666666666
tp251
a(g242
g248
F0.6163116938470071
tp252
a(g244
g246
F0.6666666666666666
tp253
a(g244
g248
F0.6032168984757852
tp254
a(g246
g248
F0.5375863426425848
tp255
assg20
(lp256
(lp257
g241
aa(lp258
g242
aa(lp259
g244
aa(lp260
g246
aa(lp261
g248
aasa(dp262
g2
(dp263
S'prob*'
p264
g5
(g9
S'\x1bS\x91\xac\x90A\xa2?'
p265
tp266
Rp267
sS'link-probs'
p268
(lp269
(S'old'
p270
S'above'
p271
F0.5320714441419733
tp272
a(g270
S'prior'
p273
F0.5648775573614208
tp274
a(g270
S'original'
p275
F0.6243701669206008
tp276
a(g271
g273
F0.5354624573260552
tp277
a(g271
g275
F0.6077745325200024
tp278
a(g273
g275
F0.5838488552315587
tp279
assg20
(lp280
(lp281
g270
aa(lp282
g271
aa(lp283
g273
aa(lp284
g275
aasa(dp285
g2
(dp286
S'prob*'
p287
g5
(g9
S'\xd9\xfe\xd1\xe4\x97\xc4\xc1?'
p288
tp289
Rp290
sS'link-probs'
p291
(lp292
(S'sure'
p293
S'reliable'
p294
F0.8571428571428571
tp295
a(g293
S'confident'
p296
F0.8333333333333334
tp297
a(g293
S'unsure'
p298
F0.75
tp299
a(g294
g296
F0.6456448554529495
tp300
a(g294
g298
F0.66179010822786
tp301
a(g296
g298
F0.6064290281530638
tp302
assg20
(lp303
(lp304
g293
aa(lp305
g294
aa(lp306
g296
aa(lp307
g298
aasa(dp308
g2
(dp309
S'prob*'
p310
g5
(g9
S'\x0eA\x16\xe7_\xe1\xc8?'
p311
tp312
Rp313
sS'link-probs'
p314
(lp315
(S'closed'
p316
S'close'
p317
F0.6126957623205532
tp318
a(g316
S'intimate'
p319
F0.6191160330719946
tp320
a(g317
g319
F0.5124245525121793
tp321
assg20
(lp322
(lp323
g316
aa(lp324
g317
aa(lp325
g319
aasa(dp326
g2
(dp327
S'prob*'
p328
g5
(g9
S'JG\x16\x15\x1d\x04\x7f?'
p329
tp330
Rp331
sS'link-probs'
p332
(lp333
(S'basic'
p334
S'first'
p335
F0.6666666666666666
tp336
a(g334
S'central'
p337
F0.49162430136985974
tp338
a(g334
S'main'
p339
F0.6666666666666666
tp340
a(g334
S'key'
p341
F0.75
tp342
a(g335
g337
F0.6372220767321627
tp343
a(g335
g339
F0.6145148024336212
tp344
a(g335
g341
F0.6376789168535875
tp345
a(g337
g339
F0.6666666666666666
tp346
a(g337
g341
F0.5014282195551345
tp347
a(g339
g341
F0.553569280973173
tp348
assg20
(lp349
(lp350
g334
aa(lp351
g335
aa(lp352
g337
aa(lp353
g339
aa(lp354
g341
aasa(dp355
g2
(dp356
S'prob*'
p357
g5
(g9
S'\x96[\xf5.\xc4\xb6\xaf?'
p358
tp359
Rp360
sS'link-probs'
p361
(lp362
(S'quick'
p363
S'fast'
p364
F0.625
tp365
a(g363
S'hungry'
p366
F0.5961221422605062
tp367
a(g363
S'french'
p368
F0.6540789701752838
tp369
a(g364
g366
F0.6183323391450636
tp370
a(g364
g368
F0.6586020506354987
tp371
a(g366
g368
F0.6241509270295036
tp372
assg20
(lp373
(lp374
g363
aa(lp375
g364
aa(lp376
g366
aa(lp377
g368
aasa(dp378
g2
(dp379
S'prob*'
p380
g5
(g9
S'\xbc!\xb5\xa8}>\xd6?'
p381
tp382
Rp383
sS'link-probs'
p384
(lp385
(S'expensive'
p386
S'cheap'
p387
F0.8333333333333334
tp388
a(g386
S'pricey'
p389
F0.75
tp390
a(g387
g389
F0.556102622609654
tp391
assg20
(lp392
(lp393
g386
aa(lp394
g387
aa(lp395
g389
aasa(dp396
g2
(dp397
S'prob*'
p398
g5
(g9
S'r"\x88\xb4\xe1\xc4N?'
p399
tp400
Rp401
sS'link-probs'
p402
(lp403
(S'cool'
p404
S'amazing'
p405
F0.6666666666666666
tp406
a(g404
S'hot'
p407
F0.5555555555555556
tp408
a(g404
S'awesome'
p409
F0.5714285714285714
tp410
a(g404
S'super'
p411
F0.6666666666666666
tp412
a(g404
S'impressed'
p413
F0.5456887585102002
tp414
a(g405
g407
F0.6178496180141977
tp415
a(g405
g409
F0.6666666666666666
tp416
a(g405
g411
F0.6187016960067295
tp417
a(g405
g413
F0.6361280609474781
tp418
a(g407
g409
F0.75
tp419
a(g407
g411
F0.6666666666666666
tp420
a(g407
g413
F0.6666666666666666
tp421
a(g409
g411
F0.625
tp422
a(g409
g413
F0.6666666666666666
tp423
a(g411
g413
F0.5416610385922883
tp424
assg20
(lp425
(lp426
g404
aa(lp427
g405
aa(lp428
g407
aa(lp429
g409
aa(lp430
g411
aa(lp431
g413
aasa(dp432
g2
(dp433
S'prob*'
p434
g5
(g9
S'\xa5\x7fQ\xfe\xe7/\xe4?'
p435
tp436
Rp437
sS'link-probs'
p438
(lp439
(S'first'
p440
S'top'
p441
F0.6308479277758933
tp442
assg20
(lp443
(lp444
g440
aa(lp445
g441
aasa(dp446
g2
(dp447
S'prob*'
p448
g5
(g9
S'\x9f\x92\x82\x05\x0b\xf6\xcb>'
p449
tp450
Rp451
sS'link-probs'
p452
(lp453
(S'right'
p454
S'good'
p455
F0.6
tp456
a(g454
S'perfect'
p457
F0.75
tp458
a(g454
S'okay'
p459
F0.75
tp460
a(g454
S'bad'
p461
F0.75
tp462
a(g454
S'ok'
p463
F0.8888888888888888
tp464
a(g454
S'fine'
p465
F0.7777777777777778
tp466
a(g454
S'wrong'
p467
F0.75
tp468
a(g455
g457
F0.6666666666666666
tp469
a(g455
g459
F0.75
tp470
a(g455
g461
F0.4937792051011156
tp471
a(g455
g463
F0.75
tp472
a(g455
g465
F0.7692307692307693
tp473
a(g455
g467
F0.6666666666666666
tp474
a(g457
g459
F0.6666666666666666
tp475
a(g457
g461
F0.6219220723534267
tp476
a(g457
g463
F0.3333333333333333
tp477
a(g457
g465
F0.5833333333333334
tp478
a(g457
g467
F0.6136647019839055
tp479
a(g459
g461
F0.614009288637502
tp480
a(g459
g463
F0.9090909090909091
tp481
a(g459
g465
F0.4
tp482
a(g459
g467
F0.6046056862589756
tp483
a(g461
g463
F0.6666666666666666
tp484
a(g461
g465
F0.75
tp485
a(g461
g467
F0.5333333333333333
tp486
a(g463
g465
F0.6
tp487
a(g463
g467
F0.41713686632315866
tp488
a(g465
g467
F0.6
tp489
assg20
(lp490
(lp491
g454
aa(lp492
g455
aa(lp493
g457
aa(lp494
g459
aa(lp495
g461
aa(lp496
g463
aa(lp497
g465
aa(lp498
g467
aasa(dp499
g2
(dp500
S'prob*'
p501
g5
(g9
S'\x83\xc7w\xba\xacE\xaa?'
p502
tp503
Rp504
sS'link-probs'
p505
(lp506
(S'reasonable'
p507
S'decent'
p508
F0.6666666666666666
tp509
a(g507
S'regular'
p510
F0.6310396100166104
tp511
a(g507
S'worth'
p512
F0.6666666666666666
tp513
a(g508
g510
F0.5619427458774817
tp514
a(g508
g512
F0.5972716175029191
tp515
a(g510
g512
F0.5451146876527629
tp516
assg20
(lp517
(lp518
g507
aa(lp519
g508
aa(lp520
g510
aa(lp521
g512
aasa(dp522
g2
(dp523
S'prob*'
p524
g5
(g9
S'\x9d\xfb\x1c\xffbm2?'
p525
tp526
Rp527
sS'link-probs'
p528
(lp529
(S'difficult'
p530
S'picky'
p531
F0.9047619047619048
tp532
a(g530
S'hard'
p533
F0.6410256410256411
tp534
a(g530
S'easy'
p535
F0.6363636363636364
tp536
a(g530
S'tricky'
p537
F0.9166666666666666
tp538
a(g530
S'challenging'
p539
F0.78125
tp540
a(g530
S'stressful'
p541
F0.875
tp542
a(g531
g533
F0.6280658968090177
tp543
a(g531
g535
F0.5499541334438968
tp544
a(g531
g537
F0.6536298192865494
tp545
a(g531
g539
F0.656310569389423
tp546
a(g531
g541
F0.661707705495441
tp547
a(g533
g535
F0.625
tp548
a(g533
g537
F0.8
tp549
a(g533
g539
F0.6666666666666666
tp550
a(g533
g541
F0.6322048523352132
tp551
a(g535
g537
F0.8
tp552
a(g535
g539
F0.6666666666666666
tp553
a(g535
g541
F0.6575784727106315
tp554
a(g537
g539
F0.5197845311898232
tp555
a(g537
g541
F0.5764607566176897
tp556
a(g539
g541
F0.5599405042540319
tp557
assg20
(lp558
(lp559
g530
aa(lp560
g531
aa(lp561
g533
aa(lp562
g535
aa(lp563
g537
aa(lp564
g539
aa(lp565
g541
aasa(dp566
g2
(dp567
S'prob*'
p568
g5
(g9
S'\x1b\x06\xf7\xadm\xae\xe4?'
p569
tp570
Rp571
sS'link-probs'
p572
(lp573
(S'cold'
p574
S'fresh'
p575
F0.64629253366019
tp576
assg20
(lp577
(lp578
g574
aa(lp579
g575
aasa(dp580
g2
(dp581
S'prob*'
p582
g5
(g9
S'{g\xda\xa34_\xa2?'
p583
tp584
Rp585
sS'link-probs'
p586
(lp587
(S'happy'
p588
S'glad'
p589
F0.6363636363636364
tp590
a(g588
S'excited'
p591
F0.6
tp592
a(g588
S'disappointed'
p593
F0.49362562542506866
tp594
a(g589
g591
F0.6020416530260774
tp595
a(g589
g593
F0.6119230504140535
tp596
a(g591
g593
F0.5167808187998838
tp597
assg20
(lp598
(lp599
g588
aa(lp600
g589
aa(lp601
g591
aa(lp602
g593
aasa(dp603
g2
(dp604
S'prob*'
p605
g5
(g9
S'\xd1V3|<\x14\x80?'
p606
tp607
Rp608
sS'link-probs'
p609
(lp610
(S'available'
p611
S'ready'
p612
F0.6666666666666666
tp613
a(g611
S'open'
p614
F0.8333333333333334
tp615
a(g611
S'free'
p616
F0.6666666666666666
tp617
a(g611
S'able'
p618
F0.6179244628844379
tp619
a(g612
g614
F0.5101713729565969
tp620
a(g612
g616
F0.5308019698821892
tp621
a(g612
g618
F0.6302860254283237
tp622
a(g614
g616
F0.5208659384123924
tp623
a(g614
g618
F0.6261320014949536
tp624
a(g616
g618
F0.6162835905661878
tp625
assg20
(lp626
(lp627
g611
aa(lp628
g612
aa(lp629
g614
aa(lp630
g616
aa(lp631
g618
aasa(dp632
g2
(dp633
S'prob*'
p634
g5
(g9
S'\x13\xc6\x12\xcc\x87\xc9\xc7?'
p635
tp636
Rp637
sS'link-probs'
p638
(lp639
(S'rude'
p640
S'horrible'
p641
F0.6666666666666666
tp642
a(g640
S'terrible'
p643
F0.47786842667897017
tp644
a(g641
g643
F0.5833333333333334
tp645
assg20
(lp646
(lp647
g640
aa(lp648
g641
aa(lp649
g643
aasa(dp650
g2
(dp651
S'prob*'
p652
g5
(g9
S'Y\x96eY\x96e\xd9?'
p653
tp654
Rp655
sS'link-probs'
p656
(lp657
(S'delicious'
p658
S'tasty'
p659
F0.7142857142857143
tp660
a(g658
S'sweet'
p661
F0.8333333333333334
tp662
a(g659
g661
F0.6666666666666666
tp663
assg20
(lp664
(lp665
g658
aa(lp666
g659
aa(lp667
g661
aasa(dp668
g2
(dp669
S'prob*'
p670
g5
(g9
S'&\xe4o\xb8\x0b\x141?'
p671
tp672
Rp673
sS'link-probs'
p674
(lp675
(S'small'
p676
S'little'
p677
F0.6875
tp678
a(g676
S'enough'
p679
F0.6209754213277228
tp680
a(g676
S'slow'
p681
F0.6666666666666666
tp682
a(g676
S'few'
p683
F0.625
tp684
a(g676
S'short'
p685
F0.6666666666666666
tp686
a(g677
g679
F0.5415707489918985
tp687
a(g677
g681
F0.4792802632485884
tp688
a(g677
g683
F0.5423322984423238
tp689
a(g677
g685
F0.5188773314851066
tp690
a(g679
g681
F0.75
tp691
a(g679
g683
F0.5008130585579075
tp692
a(g679
g685
F0.4766468366394187
tp693
a(g681
g683
F0.5611220391531367
tp694
a(g681
g685
F0.5390472516870808
tp695
a(g683
g685
F0.5555555555555556
tp696
assg20
(lp697
(lp698
g676
aa(lp699
g677
aa(lp700
g679
aa(lp701
g681
aa(lp702
g683
aa(lp703
g685
aasa(dp704
g2
(dp705
S'prob*'
p706
g5
(g9
S'\xa4\x11W\x837\x06\xe1?'
p707
tp708
Rp709
sS'link-probs'
p710
(lp711
(S'late'
p712
S'old'
p713
F0.5320088925587254
tp714
assg20
(lp715
(lp716
g712
aa(lp717
g713
aasa(dp718
g2
(dp719
S'prob*'
p720
g5
(g9
S'I\x92$I\x92$\xe1?'
p721
tp722
Rp723
sS'link-probs'
p724
(lp725
(S'simple'
p726
S'easy'
p727
F0.5357142857142857
tp728
assg20
(lp729
(lp730
g726
aa(lp731
g727
aasa(dp732
g2
(dp733
S'prob*'
p734
g5
(g9
S'\x1c\x90\x9a 8\x84\xe3?'
p735
tp736
Rp737
sS'link-probs'
p738
(lp739
(S'sure'
p740
S'knowledgeable'
p741
F0.6098900448600975
tp742
assg20
(lp743
(lp744
g740
aa(lp745
g741
aasa(dp746
g2
(dp747
S'prob*'
p748
g5
(g9
S'\x1b\xbd\x01w/Q\xd3?'
p749
tp750
Rp751
sS'link-probs'
p752
(lp753
(S'necessary'
p754
S'unnecessary'
p755
F0.8333333333333334
tp756
a(g754
S'worth'
p757
F0.6532127328275642
tp758
a(g755
g757
F0.5544842878796552
tp759
assg20
(lp760
(lp761
g754
aa(lp762
g755
aa(lp763
g757
aasa(dp764
g2
(dp765
S'prob*'
p766
g5
(g9
S'\x00\x00\x00\x00\x00\x00\xd8?'
p767
tp768
Rp769
sS'link-probs'
p770
(lp771
(S'different'
p772
S'many'
p773
F0.6666666666666666
tp774
a(g772
S'several'
p775
F0.75
tp776
a(g773
g775
F0.75
tp777
assg20
(lp778
(lp779
g772
aa(lp780
g773
aa(lp781
g775
aasa(dp782
g2
(dp783
S'prob*'
p784
g5
(g9
S"\x9e\xa1E\xd8$'\xc9?"
p785
tp786
Rp787
sS'link-probs'
p788
(lp789
(S'busy'
p790
S'close'
p791
F0.5005005141054876
tp792
a(g790
S'attentive'
p793
F0.6267007511382041
tp794
a(g791
g793
F0.6264890061810353
tp795
assg20
(lp796
(lp797
g790
aa(lp798
g791
aa(lp799
g793
aasa(dp800
g2
(dp801
S'prob*'
p802
g5
(g9
S'\x95\xde\x88\xa4J\x03\xac?'
p803
tp804
Rp805
sS'link-probs'
p806
(lp807
(S'other'
p808
S'new'
p809
F0.5958433437650558
tp810
a(g808
S'next'
p811
F0.6666666666666666
tp812
a(g808
S'last'
p813
F0.6561558639388093
tp814
a(g809
g811
F0.5487386401818876
tp815
a(g809
g813
F0.6307713275032507
tp816
a(g811
g813
F0.6064599424489796
tp817
assg20
(lp818
(lp819
g808
aa(lp820
g809
aa(lp821
g811
aa(lp822
g813
aasa(dp823
g2
(dp824
S'prob*'
p825
g5
(g9
S'\xaf\xeeH\xe7>\xb4\xa3?'
p826
tp827
Rp828
sS'link-probs'
p829
(lp830
(S'helpful'
p831
S'pleasant'
p832
F0.5062838441945613
tp833
a(g831
S'friendly'
p834
F0.5295277338008321
tp835
a(g831
S'comfortable'
p836
F0.5965505792509783
tp837
a(g832
g834
F0.5234001962818499
tp838
a(g832
g836
F0.8
tp839
a(g834
g836
F0.5746883425416237
tp840
assg20
(lp841
(lp842
g831
aa(lp843
g832
aa(lp844
g834
aa(lp845
g836
aasa(dp846
g2
(dp847
S'prob*'
p848
g5
(g9
S'UUUUUU\xe5?'
p849
tp850
Rp851
sS'link-probs'
p852
(lp853
(S'clean'
p854
S'green'
p855
F0.6666666666666666
tp856
assg20
(lp857
(lp858
g854
aa(lp859
g855
aasa(dp860
g2
(dp861
S'prob*'
p862
g5
(g9
S'\xdbo7\\\x1b\xa5\xce?'
p863
tp864
Rp865
sS'link-probs'
p866
(lp867
(S'own'
p868
S'only'
p869
F0.6429499720810993
tp870
a(g868
S'same'
p871
F0.6561889541691319
tp872
a(g869
g871
F0.5674699023285213
tp873
assg20
(lp874
(lp875
g868
aa(lp876
g869
aa(lp877
g871
aasa(dp878
g2
(dp879
S'prob*'
p880
g5
(g9
S'g(t\xda\x8c\x8b\xc2?'
p881
tp882
Rp883
sS'link-probs'
p884
(lp885
(S'warm'
p886
S'empty'
p887
F0.5274122413224992
tp888
a(g886
S'dry'
p889
F0.5378035395940933
tp890
a(g887
g889
F0.5107939792270894
tp891
assg20
(lp892
(lp893
g886
aa(lp894
g887
aa(lp895
g889
aasa(dp896
g2
(dp897
S'prob*'
p898
g5
(g9
S'G\x00\xc3w\x15\x04~?'
p899
tp900
Rp901
sS'link-probs'
p902
(lp903
(S'beautiful'
p904
S'nice'
p905
F0.6190476190476191
tp906
a(g904
S'cute'
p907
F0.5625
tp908
a(g904
S'soft'
p909
F0.528316920700949
tp910
a(g904
S'favorite'
p911
F0.6439722553258768
tp912
a(g905
g907
F0.6
tp913
a(g905
g909
F0.6666666666666666
tp914
a(g905
g911
F0.6551107704503846
tp915
a(g907
g909
F0.5571229962537031
tp916
a(g907
g911
F0.6666666666666666
tp917
a(g909
g911
F0.6355494747372251
tp918
assg20
(lp919
(lp920
g904
aa(lp921
g905
aa(lp922
g907
aa(lp923
g909
aa(lp924
g911
aasa(dp925
g2
(dp926
S'prob*'
p927
g5
(g9
S'\xfe\x9e\xd3\x1a\x83!Y?'
p928
tp929
Rp930
sS'link-probs'
p931
(lp932
(S'special'
p933
S'excellent'
p934
F0.6666666666666666
tp935
a(g933
S'wonderful'
p936
F0.75
tp937
a(g933
S'outstanding'
p938
F0.8
tp939
a(g933
S'unique'
p940
F0.8
tp941
a(g933
S'fantastic'
p942
F0.6666666666666666
tp943
a(g934
g936
F0.6666666666666666
tp944
a(g934
g938
F0.625
tp945
a(g934
g940
F0.5905976846708084
tp946
a(g934
g942
F0.8571428571428571
tp947
a(g936
g938
F0.625
tp948
a(g936
g940
F0.38565826963438204
tp949
a(g936
g942
F0.6666666666666666
tp950
a(g938
g940
F0.6666666666666666
tp951
a(g938
g942
F0.5196717796732835
tp952
a(g940
g942
F0.6123031735366997
tp953
assg20
(lp954
(lp955
g933
aa(lp956
g934
aa(lp957
g936
aa(lp958
g938
aa(lp959
g940
aa(lp960
g942
aasa(dp961
g2
(dp962
S'prob*'
p963
g5
(g9
S'\xe8\xc3\xfcLw\xb9\xad?'
p964
tp965
Rp966
sS'link-probs'
p967
(lp968
(S'american'
p969
S'beautiful'
p970
F0.5638130280152688
tp971
a(g969
S'pretty'
p972
F0.615217113798311
tp973
a(g969
S'lovely'
p974
F0.6025363351726974
tp975
a(g970
g972
F0.625
tp976
a(g970
g974
F0.6666666666666666
tp977
a(g972
g974
F0.6666666666666666
tp978
assg20
(lp979
(lp980
g969
aa(lp981
g970
aa(lp982
g972
aa(lp983
g974
aasa(dp984
g2
(dp985
S'prob*'
p986
g5
(g9
S"'\xc2y\xd3\x9d\x87\xac?"
p987
tp988
Rp989
sS'link-probs'
p990
(lp991
(S'elegant'
p992
S'fancy'
p993
F0.6666666666666666
tp994
a(g992
S'stylish'
p995
F0.6666666666666666
tp996
a(g992
S'classy'
p997
F0.6666666666666666
tp998
a(g993
g995
F0.6055451941833335
tp999
a(g993
g997
F0.6105644706952932
tp1000
a(g995
g997
F0.5086554732617626
tp1001
assg20
(lp1002
(lp1003
g992
aa(lp1004
g993
aa(lp1005
g995
aa(lp1006
g997
aasa(dp1007
g2
(dp1008
S'prob*'
p1009
g5
(g9
S'\xb3\x8b4\x9djK\xd2?'
p1010
tp1011
Rp1012
sS'link-probs'
p1013
(lp1014
(S'available'
p1015
S'accessible'
p1016
F0.6
tp1017
a(g1015
S'affordable'
p1018
F0.8333333333333334
tp1019
a(g1016
g1018
F0.5717061109938782
tp1020
assg20
(lp1021
(lp1022
g1015
aa(lp1023
g1016
aa(lp1024
g1018
aasa(dp1025
g2
(dp1026
S'prob*'
p1027
g5
(g9
S'\xbf\x13G\xcdfH\xe0?'
p1028
tp1029
Rp1030
sS'link-probs'
p1031
(lp1032
(S'young'
p1033
S'female'
p1034
F0.5088380822495465
tp1035
assg20
(lp1036
(lp1037
g1033
aa(lp1038
g1034
aasa(dp1039
g2
(dp1040
S'prob*'
p1041
g5
(g9
S'k\xe7\x08J\xc2\xaf\xe3?'
p1042
tp1043
Rp1044
sS'link-probs'
p1045
(lp1046
(S'crowded'
p1047
S'busy'
p1048
F0.6152049489967174
tp1049
assg20
(lp1050
(lp1051
g1047
aa(lp1052
g1048
aasa(dp1053
g2
(dp1054
S'prob*'
p1055
g5
(g9
S'\xce,\x83\x904\x98\xcf?'
p1056
tp1057
Rp1058
sS'link-probs'
p1059
(lp1060
(S'nearby'
p1061
S'near'
p1062
F0.6666666666666666
tp1063
a(g1061
S'adjacent'
p1064
F0.656704332655307
tp1065
a(g1062
g1064
F0.5637981031444926
tp1066
assg20
(lp1067
(lp1068
g1061
aa(lp1069
g1062
aa(lp1070
g1064
aasa(dp1071
g2
(dp1072
S'prob*'
p1073
g5
(g9
S')Qa\x8e\xc1\xb6\xd0?'
p1074
tp1075
Rp1076
sS'link-probs'
p1077
(lp1078
(S'rough'
p1079
S'harsh'
p1080
F0.6666666666666666
tp1081
a(g1079
S'rude'
p1082
F0.75
tp1083
a(g1080
g1082
F0.522309091650219
tp1084
assg20
(lp1085
(lp1086
g1079
aa(lp1087
g1080
aa(lp1088
g1082
aasa(dp1089
g2
(dp1090
S'prob*'
p1091
g5
(g9
S'5\xbb)\xb2\xd7_\xae?'
p1092
tp1093
Rp1094
sS'link-probs'
p1095
(lp1096
(S'quick'
p1097
S'fast'
p1098
F0.625
tp1099
a(g1097
S'timely'
p1100
F0.8
tp1101
a(g1097
S'early'
p1102
F0.59752584385207
tp1103
a(g1098
g1100
F0.5994111260286453
tp1104
a(g1098
g1102
F0.6193736343959575
tp1105
a(g1100
g1102
F0.5348516256418634
tp1106
assg20
(lp1107
(lp1108
g1097
aa(lp1109
g1098
aa(lp1110
g1100
aa(lp1111
g1102
aasa(dp1112
g2
(dp1113
S'prob*'
p1114
g5
(g9
S'2\x9a$\xefC\xa1\xad?'
p1115
tp1116
Rp1117
sS'link-probs'
p1118
(lp1119
(S'asian'
p1120
S'eastern'
p1121
F0.6666666666666666
tp1122
a(g1120
S'east'
p1123
F0.6666666666666666
tp1124
a(g1120
S'western'
p1125
F0.6199773729970026
tp1126
a(g1121
g1123
F0.6666666666666666
tp1127
a(g1121
g1125
F0.5546180084819748
tp1128
a(g1123
g1125
F0.5680215640104014
tp1129
assg20
(lp1130
(lp1131
g1120
aa(lp1132
g1121
aa(lp1133
g1123
aa(lp1134
g1125
aasa(dp1135
g2
(dp1136
S'prob*'
p1137
g5
(g9
S'M>\x9d<\x84\x95\xd0?'
p1138
tp1139
Rp1140
sS'link-probs'
p1141
(lp1142
(S'pleasant'
p1143
S'enjoyable'
p1144
F0.6666666666666666
tp1145
a(g1143
S'entertaining'
p1146
F0.75
tp1147
a(g1144
g1146
F0.5182515319701878
tp1148
assg20
(lp1149
(lp1150
g1143
aa(lp1151
g1144
aa(lp1152
g1146
aasa(dp1153
g2
(dp1154
S'prob*'
p1155
g5
(g9
S'S\xb8a\x87\xa7[K?'
p1156
tp1157
Rp1158
sS'link-probs'
p1159
(lp1160
(S'nervous'
p1161
S'angry'
p1162
F0.6310640042369186
tp1163
a(g1161
S'hungry'
p1164
F0.6323142633050525
tp1165
a(g1161
S'upset'
p1166
F0.5555555555555556
tp1167
a(g1161
S'annoyed'
p1168
F0.6557886459864174
tp1169
a(g1161
S'irritated'
p1170
F0.6601187383379246
tp1171
a(g1162
g1164
F0.503327802858604
tp1172
a(g1162
g1166
F0.5714285714285714
tp1173
a(g1162
g1168
F0.6666666666666666
tp1174
a(g1162
g1170
F0.6188278775537688
tp1175
a(g1164
g1166
F0.617602972976283
tp1176
a(g1164
g1168
F0.5910107277063599
tp1177
a(g1164
g1170
F0.6171680422739323
tp1178
a(g1166
g1168
F0.8
tp1179
a(g1166
g1170
F0.75
tp1180
a(g1168
g1170
F0.5424554370456715
tp1181
assg20
(lp1182
(lp1183
g1161
aa(lp1184
g1162
aa(lp1185
g1164
aa(lp1186
g1166
aa(lp1187
g1168
aa(lp1188
g1170
aasa(dp1189
g2
(dp1190
S'prob*'
p1191
g5
(g9
S'\xea\xa8\x92\xdc\x9fk\xb4?'
p1192
tp1193
Rp1194
sS'link-probs'
p1195
(lp1196
(S'expensive'
p1197
S'inexpensive'
p1198
F0.8
tp1199
a(g1197
S'cheap'
p1200
F0.8333333333333334
tp1201
a(g1197
S'pricey'
p1202
F0.75
tp1203
a(g1198
g1200
F0.5088337302913944
tp1204
a(g1198
g1202
F0.5637981031444926
tp1205
a(g1200
g1202
F0.556102622609654
tp1206
assg20
(lp1207
(lp1208
g1197
aa(lp1209
g1198
aa(lp1210
g1200
aa(lp1211
g1202
aasa(dp1212
g2
(dp1213
S'prob*'
p1214
g5
(g9
S'\x7fE\xf3/\xf5y\xce?'
p1215
tp1216
Rp1217
sS'link-probs'
p1218
(lp1219
(S'desperate'
p1220
S'miserable'
p1221
F0.6315421457852164
tp1222
a(g1220
S'bitter'
p1223
F0.6529062595681437
tp1224
a(g1221
g1223
F0.5774315231690411
tp1225
assg20
(lp1226
(lp1227
g1220
aa(lp1228
g1221
aa(lp1229
g1223
aasa(dp1230
g2
(dp1231
S'prob*'
p1232
g5
(g9
S'\xcd\xec\r\xe23V\xe2?'
p1233
tp1234
Rp1235
sS'link-probs'
p1236
(lp1237
(S'dead'
p1238
S'flat'
p1239
F0.5730227866291898
tp1240
assg20
(lp1241
(lp1242
g1238
aa(lp1243
g1239
aasa(dp1244
g2
(dp1245
S'prob*'
p1246
g5
(g9
S'\xaa\x81\xe2\x17\xef\xd0|?'
p1247
tp1248
Rp1249
sS'link-probs'
p1250
(lp1251
(S'true'
p1252
S'real'
p1253
F0.7333333333333333
tp1254
a(g1252
S'authentic'
p1255
F0.3333333333333333
tp1256
a(g1252
S'genuine'
p1257
F0.7
tp1258
a(g1252
S'actual'
p1259
F0.627105517316435
tp1260
a(g1253
g1255
F0.6666666666666666
tp1261
a(g1253
g1257
F0.6
tp1262
a(g1253
g1259
F0.8
tp1263
a(g1255
g1257
F0.5817250078192938
tp1264
a(g1255
g1259
F0.6232332572175843
tp1265
a(g1257
g1259
F0.5651175781060891
tp1266
assg20
(lp1267
(lp1268
g1252
aa(lp1269
g1253
aa(lp1270
g1255
aa(lp1271
g1257
aa(lp1272
g1259
aasa(dp1273
g2
(dp1274
S'prob*'
p1275
g5
(g9
S'\xd9"\x08;|\x15\x85?'
p1276
tp1277
Rp1278
sS'link-probs'
p1279
(lp1280
(S'rich'
p1281
S'generous'
p1282
F0.6185648627054222
tp1283
a(g1281
S'enough'
p1284
F0.631826770233919
tp1285
a(g1281
S'ample'
p1286
F0.6505551654108933
tp1287
a(g1281
S'plentiful'
p1288
F0.6614709208001058
tp1289
a(g1282
g1284
F0.5303254654343488
tp1290
a(g1282
g1286
F0.589513383267899
tp1291
a(g1282
g1288
F0.638055706753068
tp1292
a(g1284
g1286
F0.8333333333333334
tp1293
a(g1284
g1288
F0.6268485695571204
tp1294
a(g1286
g1288
F0.5874450543243337
tp1295
assg20
(lp1296
(lp1297
g1281
aa(lp1298
g1282
aa(lp1299
g1284
aa(lp1300
g1286
aa(lp1301
g1288
aasa(dp1302
g2
(dp1303
S'prob*'
p1304
g5
(g9
S'-\xdcD\t\xbc\x87\x0e?'
p1305
tp1306
Rp1307
sS'link-probs'
p1308
(lp1309
(S'horrible'
p1310
S'scary'
p1311
F0.5136952253704471
tp1312
a(g1310
S'obnoxious'
p1313
F0.6546027945626723
tp1314
a(g1310
S'awful'
p1315
F0.5384615384615384
tp1316
a(g1310
S'horrendous'
p1317
F0.875
tp1318
a(g1310
S'outrageous'
p1319
F0.6497779873121535
tp1320
a(g1310
S'disgusting'
p1321
F0.6
tp1322
a(g1311
g1313
F0.652534268701693
tp1323
a(g1311
g1315
F0.8
tp1324
a(g1311
g1317
F0.6453325050698048
tp1325
a(g1311
g1319
F0.6469329933520256
tp1326
a(g1311
g1321
F0.6560278725958418
tp1327
a(g1313
g1315
F0.6666666666666666
tp1328
a(g1313
g1317
F0.46433803975548776
tp1329
a(g1313
g1319
F0.47100137726027164
tp1330
a(g1313
g1321
F0.5243942065116477
tp1331
a(g1315
g1317
F0.8571428571428571
tp1332
a(g1315
g1319
F0.8
tp1333
a(g1315
g1321
F0.6666666666666666
tp1334
a(g1317
g1319
F0.5069210016794458
tp1335
a(g1317
g1321
F0.5582324415208589
tp1336
a(g1319
g1321
F0.6666666666666666
tp1337
assg20
(lp1338
(lp1339
g1310
aa(lp1340
g1311
aa(lp1341
g1313
aa(lp1342
g1315
aa(lp1343
g1317
aa(lp1344
g1319
aa(lp1345
g1321
aasa(dp1346
g2
(dp1347
S'prob*'
p1348
g5
(g9
S'\x06\xfe\xb2\x84\x80\x8cj?'
p1349
tp1350
Rp1351
sS'link-probs'
p1352
(lp1353
(S'unpleasant'
p1354
S'frustrating'
p1355
F0.6205690994798347
tp1356
a(g1354
S'boring'
p1357
F0.6231292880485445
tp1358
a(g1354
S'annoying'
p1359
F0.6666666666666666
tp1360
a(g1354
S'painful'
p1361
F0.3333333333333333
tp1362
a(g1355
g1357
F0.505499172757376
tp1363
a(g1355
g1359
F0.5743325857362401
tp1364
a(g1355
g1361
F0.6028248034843946
tp1365
a(g1357
g1359
F0.6666666666666666
tp1366
a(g1357
g1361
F0.599347982995773
tp1367
a(g1359
g1361
F0.5393080907570394
tp1368
assg20
(lp1369
(lp1370
g1354
aa(lp1371
g1355
aa(lp1372
g1357
aa(lp1373
g1359
aa(lp1374
g1361
aasa(dp1375
g2
(dp1376
S'prob*'
p1377
g5
(g9
S'\xe9\xaf\xa9\x14,\x1f\xd9?'
p1378
tp1379
Rp1380
sS'link-probs'
p1381
(lp1382
(S'impossible'
p1383
S'incompetent'
p1384
F0.6308479277758933
tp1385
a(g1383
S'unable'
p1386
F0.9333333333333333
tp1387
a(g1384
g1386
F0.6666666666666666
tp1388
assg20
(lp1389
(lp1390
g1383
aa(lp1391
g1384
aa(lp1392
g1386
aasa(dp1393
g2
(dp1394
S'prob*'
p1395
g5
(g9
S'ffffff\xd6?'
p1396
tp1397
Rp1398
sS'link-probs'
p1399
(lp1400
(S'possible'
p1401
S'likely'
p1402
F0.6
tp1403
a(g1401
S'potential'
p1404
F0.875
tp1405
a(g1402
g1404
F0.6666666666666666
tp1406
assg20
(lp1407
(lp1408
g1401
aa(lp1409
g1402
aa(lp1410
g1404
aasa(dp1411
g2
(dp1412
S'prob*'
p1413
g5
(g9
S'V\xee\t\xd6q\xc6\xcb?'
p1414
tp1415
Rp1416
sS'link-probs'
p1417
(lp1418
(S'definite'
p1419
S'accurate'
p1420
F0.5250977592450834
tp1421
a(g1419
S'exact'
p1422
F0.49589291967274196
tp1423
a(g1420
g1422
F0.8333333333333334
tp1424
assg20
(lp1425
(lp1426
g1419
aa(lp1427
g1420
aa(lp1428
g1422
aasa(dp1429
g2
(dp1430
S'prob*'
p1431
g5
(g9
S'\xe2<%\xf1\xf2Id?'
p1432
tp1433
Rp1434
sS'link-probs'
p1435
(lp1436
(S'stupid'
p1437
S'silly'
p1438
F0.6818181818181818
tp1439
a(g1437
S'lame'
p1440
F0.8181818181818182
tp1441
a(g1437
S'dumb'
p1442
F0.7058823529411765
tp1443
a(g1437
S'cheesy'
p1444
F0.75
tp1445
a(g1437
S'pathetic'
p1446
F0.8888888888888888
tp1447
a(g1438
g1440
F0.6
tp1448
a(g1438
g1442
F0.6
tp1449
a(g1438
g1444
F0.75
tp1450
a(g1438
g1446
F0.75
tp1451
a(g1440
g1442
F0.6
tp1452
a(g1440
g1444
F0.6666666666666666
tp1453
a(g1440
g1446
F0.6666666666666666
tp1454
a(g1442
g1444
F0.513578320940454
tp1455
a(g1442
g1446
F0.6666666666666666
tp1456
a(g1444
g1446
F0.5102689231187397
tp1457
assg20
(lp1458
(lp1459
g1437
aa(lp1460
g1438
aa(lp1461
g1440
aa(lp1462
g1442
aa(lp1463
g1444
aa(lp1464
g1446
aasa(dp1465
g2
(dp1466
S'prob*'
p1467
g5
(g9
S'5\xb5\x88\x9ffVp?'
p1468
tp1469
Rp1470
sS'link-probs'
p1471
(lp1472
(S'hot'
p1473
S'warm'
p1474
F0.5003684014024024
tp1475
a(g1473
S'romantic'
p1476
F0.5463713601853022
tp1477
a(g1473
S'enthusiastic'
p1478
F0.6147403001909897
tp1479
a(g1473
S'passionate'
p1480
F0.6157934920775665
tp1481
a(g1474
g1476
F0.5460312679145493
tp1482
a(g1474
g1478
F0.6666666666666666
tp1483
a(g1474
g1480
F0.6156026222528089
tp1484
a(g1476
g1478
F0.5845672878197271
tp1485
a(g1476
g1480
F0.5860571580026975
tp1486
a(g1478
g1480
F0.5020187787926744
tp1487
assg20
(lp1488
(lp1489
g1473
aa(lp1490
g1474
aa(lp1491
g1476
aa(lp1492
g1478
aa(lp1493
g1480
aasa(dp1494
g2
(dp1495
S'prob*'
p1496
g5
(g9
S'ffffff\xe6?'
p1497
tp1498
Rp1499
sS'link-probs'
p1500
(lp1501
(S'lucky'
p1502
S'fortunate'
p1503
F0.7
tp1504
assg20
(lp1505
(lp1506
g1502
aa(lp1507
g1503
aasa(dp1508
g2
(dp1509
S'prob*'
p1510
g5
(g9
S'fR\xdfO6^\xa3?'
p1511
tp1512
Rp1513
sS'link-probs'
p1514
(lp1515
(S'popular'
p1516
S'public'
p1517
F0.5066654098593658
tp1518
a(g1516
S'general'
p1519
F0.5153564036606332
tp1520
a(g1516
S'generic'
p1521
F0.6540819556349283
tp1522
a(g1517
g1519
F0.5087231371842081
tp1523
a(g1517
g1521
F0.653076185332243
tp1524
a(g1519
g1521
F0.6666666666666666
tp1525
assg20
(lp1526
(lp1527
g1516
aa(lp1528
g1517
aa(lp1529
g1519
aa(lp1530
g1521
aasa(dp1531
g2
(dp1532
S'prob*'
p1533
g5
(g9
S'|\xe2\x11\xcd\xce\xd6\x8b?'
p1534
tp1535
Rp1536
sS'link-probs'
p1537
(lp1538
(S'good'
p1539
S'nice'
p1540
F0.6923076923076923
tp1541
a(g1539
S'cool'
p1542
F0.6
tp1543
a(g1539
S'fine'
p1544
F0.7692307692307693
tp1545
a(g1539
S'okay'
p1546
F0.75
tp1547
a(g1540
g1542
F0.5294117647058824
tp1548
a(g1540
g1544
F0.625
tp1549
a(g1540
g1546
F0.5714285714285714
tp1550
a(g1542
g1544
F0.75
tp1551
a(g1542
g1546
F0.6666666666666666
tp1552
a(g1544
g1546
F0.6
tp1553
assg20
(lp1554
(lp1555
g1539
aa(lp1556
g1540
aa(lp1557
g1542
aa(lp1558
g1544
aa(lp1559
g1546
aasa(dp1560
g2
(dp1561
S'prob*'
p1562
g5
(g9
S't7&\xf6\xbb]\xa8?'
p1563
tp1564
Rp1565
sS'link-probs'
p1566
(lp1567
(S'well'
p1568
S'helpful'
p1569
F0.6666666666666666
tp1570
a(g1568
S'alright'
p1571
F0.6666666666666666
tp1572
a(g1568
S'ok'
p1573
F0.6666666666666666
tp1574
a(g1569
g1571
F0.5349482070757303
tp1575
a(g1569
g1573
F0.5643650221890634
tp1576
a(g1571
g1573
F0.5320088925587254
tp1577
assg20
(lp1578
(lp1579
g1568
aa(lp1580
g1569
aa(lp1581
g1571
aa(lp1582
g1573
aasa(dp1583
g2
(dp1584
S'prob*'
p1585
g5
(g9
S'\xef(\xed\n\\\x00w?'
p1586
tp1587
Rp1588
sS'link-probs'
p1589
(lp1590
(S'adequate'
p1591
S'effective'
p1592
F0.6238669884437683
tp1593
a(g1591
S'efficient'
p1594
F0.639344352095658
tp1595
a(g1591
S'successful'
p1596
F0.6240843224211005
tp1597
a(g1591
S'competitive'
p1598
F0.6357652437190292
tp1599
a(g1592
g1594
F0.65
tp1600
a(g1592
g1596
F0.6363636363636364
tp1601
a(g1592
g1598
F0.5301531541078031
tp1602
a(g1594
g1596
F0.625
tp1603
a(g1594
g1598
F0.48877838413630154
tp1604
a(g1596
g1598
F0.5296822788963337
tp1605
assg20
(lp1606
(lp1607
g1591
aa(lp1608
g1592
aa(lp1609
g1594
aa(lp1610
g1596
aa(lp1611
g1598
aasa(dp1612
g2
(dp1613
S'prob*'
p1614
g5
(g9
S'l\xc8\x9f,@\x11\xcc?'
p1615
tp1616
Rp1617
sS'link-probs'
p1618
(lp1619
(S'delicate'
p1620
S'sophisticated'
p1621
F0.65067799403185
tp1622
a(g1620
S'subtle'
p1623
F0.6666666666666666
tp1624
a(g1621
g1623
F0.5054953087709532
tp1625
assg20
(lp1626
(lp1627
g1620
aa(lp1628
g1621
aa(lp1629
g1623
aasa(dp1630
g2
(dp1631
S'prob*'
p1632
g5
(g9
S'y\x11l36\x18}?'
p1633
tp1634
Rp1635
sS'link-probs'
p1636
(lp1637
(S'like'
p1638
S'equal'
p1639
F0.6355223983764767
tp1640
a(g1638
S'similar'
p1641
F0.6
tp1642
a(g1638
S'comparable'
p1643
F0.6666666666666666
tp1644
a(g1638
S'same'
p1645
F0.6399554192960293
tp1646
a(g1639
g1641
F0.6666666666666666
tp1647
a(g1639
g1643
F0.6666666666666666
tp1648
a(g1639
g1645
F0.3333333333333333
tp1649
a(g1641
g1643
F0.7142857142857143
tp1650
a(g1641
g1645
F0.6415431642323502
tp1651
a(g1643
g1645
F0.6431576694666142
tp1652
assg20
(lp1653
(lp1654
g1638
aa(lp1655
g1639
aa(lp1656
g1641
aa(lp1657
g1643
aa(lp1658
g1645
aasa(dp1659
g2
(dp1660
S'prob*'
p1661
g5
(g9
S'\xe1\xca\xb6\x02\x13\xcc\xb0?'
p1662
tp1663
Rp1664
sS'link-probs'
p1665
(lp1666
(S'off'
p1667
S'out'
p1668
F0.5350671562312033
tp1669
a(g1667
S'free'
p1670
F0.6322383823100468
tp1671
a(g1667
S'complimentary'
p1672
F0.651398846642851
tp1673
a(g1668
g1670
F0.6166437394610116
tp1674
a(g1668
g1672
F0.6438197548194169
tp1675
a(g1670
g1672
F0.75
tp1676
assg20
(lp1677
(lp1678
g1667
aa(lp1679
g1668
aa(lp1680
g1670
aa(lp1681
g1672
aasa(dp1682
g2
(dp1683
S'prob*'
p1684
g5
(g9
S'?{\x84\x18\x84\xefI?'
p1685
tp1686
Rp1687
sS'link-probs'
p1688
(lp1689
(S'sad'
p1690
S'disappointed'
p1691
F0.5435231449049801
tp1692
a(g1690
S'sorry'
p1693
F0.6923076923076923
tp1694
a(g1690
S'unhappy'
p1695
F0.75
tp1696
a(g1690
S'unfortunate'
p1697
F0.6666666666666666
tp1698
a(g1690
S'disappointing'
p1699
F0.6666666666666666
tp1700
a(g1691
g1693
F0.5219709177057141
tp1701
a(g1691
g1695
F0.607767095736409
tp1702
a(g1691
g1697
F0.530433684040877
tp1703
a(g1691
g1699
F0.5714285714285714
tp1704
a(g1693
g1695
F0.75
tp1705
a(g1693
g1697
F0.6
tp1706
a(g1693
g1699
F0.6666666666666666
tp1707
a(g1695
g1697
F0.5714285714285714
tp1708
a(g1695
g1699
F0.4785208294544265
tp1709
a(g1697
g1699
F0.8
tp1710
assg20
(lp1711
(lp1712
g1690
aa(lp1713
g1691
aa(lp1714
g1693
aa(lp1715
g1695
aa(lp1716
g1697
aa(lp1717
g1699
aasa(dp1718
g2
(dp1719
S'prob*'
p1720
g5
(g9
S'\x10\xc3\xd9\xeaX\xe4@?'
p1721
tp1722
Rp1723
sS'link-probs'
p1724
(lp1725
(S'detailed'
p1726
S'full'
p1727
F0.6209277584935774
tp1728
a(g1726
S'complete'
p1729
F0.6666666666666666
tp1730
a(g1726
S'extensive'
p1731
F0.75
tp1732
a(g1726
S'deep'
p1733
F0.6068054784317062
tp1734
a(g1726
S'thorough'
p1735
F0.5522163182414895
tp1736
a(g1727
g1729
F0.5107819364746494
tp1737
a(g1727
g1731
F0.6666666666666666
tp1738
a(g1727
g1733
F0.47360484809774506
tp1739
a(g1727
g1735
F0.6666666666666666
tp1740
a(g1729
g1731
F0.6666666666666666
tp1741
a(g1729
g1733
F0.46319993821556343
tp1742
a(g1729
g1735
F0.6
tp1743
a(g1731
g1733
F0.6044783683503585
tp1744
a(g1731
g1735
F0.5486826117208228
tp1745
a(g1733
g1735
F0.75
tp1746
assg20
(lp1747
(lp1748
g1726
aa(lp1749
g1727
aa(lp1750
g1729
aa(lp1751
g1731
aa(lp1752
g1733
aa(lp1753
g1735
aasa(dp1754
g2
(dp1755
S'prob*'
p1756
g5
(g9
S'`\x94\x06\x1cC!\xcf?'
p1757
tp1758
Rp1759
sS'link-probs'
p1760
(lp1761
(S'aggressive'
p1762
S'intense'
p1763
F0.6382782788619438
tp1764
a(g1762
S'tough'
p1765
F0.5715436077144321
tp1766
a(g1763
g1765
F0.6666666666666666
tp1767
assg20
(lp1768
(lp1769
g1762
aa(lp1770
g1763
aa(lp1771
g1765
aasa(dp1772
g2
(dp1773
S'prob*'
p1774
g5
(g9
S'\xb6\xb7$\x91\xd3\x81\xe0?'
p1775
tp1776
Rp1777
sS'link-probs'
p1778
(lp1779
(S'worried'
p1780
S'afraid'
p1781
F0.5158479533035834
tp1782
assg20
(lp1783
(lp1784
g1780
aa(lp1785
g1781
aasa(dp1786
g2
(dp1787
S'prob*'
p1788
g5
(g9
S'*\x87\xc9\x12\x97c&?'
p1789
tp1790
Rp1791
sS'link-probs'
p1792
(lp1793
(S'clear'
p1794
S'understandable'
p1795
F0.6666666666666666
tp1796
a(g1794
S'obvious'
p1797
F0.4864864864864865
tp1798
a(g1794
S'visible'
p1799
F0.625
tp1800
a(g1794
S'apparent'
p1801
F0.7777777777777778
tp1802
a(g1794
S'plain'
p1803
F0.8636363636363636
tp1804
a(g1794
S'distinct'
p1805
F0.8
tp1806
a(g1795
g1797
F0.6666666666666666
tp1807
a(g1795
g1799
F0.46074076432723804
tp1808
a(g1795
g1801
F0.6316145251762778
tp1809
a(g1795
g1803
F0.6366668507817219
tp1810
a(g1795
g1805
F0.6399696330989502
tp1811
a(g1797
g1799
F0.7272727272727273
tp1812
a(g1797
g1801
F0.7777777777777778
tp1813
a(g1797
g1803
F0.875
tp1814
a(g1797
g1805
F0.75
tp1815
a(g1799
g1801
F0.5384615384615384
tp1816
a(g1799
g1803
F0.6666666666666666
tp1817
a(g1799
g1805
F0.6666666666666666
tp1818
a(g1801
g1803
F0.8333333333333334
tp1819
a(g1801
g1805
F0.5248068359013062
tp1820
a(g1803
g1805
F0.5106079925126165
tp1821
assg20
(lp1822
(lp1823
g1794
aa(lp1824
g1795
aa(lp1825
g1797
aa(lp1826
g1799
aa(lp1827
g1801
aa(lp1828
g1803
aa(lp1829
g1805
aasa(dp1830
g2
(dp1831
S'prob*'
p1832
g5
(g9
S'\xca*\xddQ7\xd5\x89?'
p1833
tp1834
Rp1835
sS'link-probs'
p1836
(lp1837
(S'honest'
p1838
S'fair'
p1839
F0.6
tp1840
a(g1838
S'loyal'
p1841
F0.8
tp1842
a(g1838
S'straight'
p1843
F0.8571428571428571
tp1844
a(g1838
S'legit'
p1845
F0.8333333333333334
tp1846
a(g1839
g1841
F0.5080689771231007
tp1847
a(g1839
g1843
F0.75
tp1848
a(g1839
g1845
F0.5304043777727295
tp1849
a(g1841
g1843
F0.5225344237843627
tp1850
a(g1841
g1845
F0.5225344237843627
tp1851
a(g1843
g1845
F0.6666666666666666
tp1852
assg20
(lp1853
(lp1854
g1838
aa(lp1855
g1839
aa(lp1856
g1841
aa(lp1857
g1843
aa(lp1858
g1845
aasa(dp1859
g2
(dp1860
S'prob*'
p1861
g5
(g9
S'333333\xe3?'
p1862
tp1863
Rp1864
sS'link-probs'
p1865
(lp1866
(S'interested'
p1867
S'concerned'
p1868
F0.6
tp1869
assg20
(lp1870
(lp1871
g1867
aa(lp1872
g1868
aasa(dp1873
g2
(dp1874
S'prob*'
p1875
g5
(g9
S'\x00\x00\x00\x00\x00\x00\xe8?'
p1876
tp1877
Rp1878
sS'link-probs'
p1879
(lp1880
(S'comforting'
p1881
S'refreshing'
p1882
F0.75
tp1883
assg20
(lp1884
(lp1885
g1881
aa(lp1886
g1882
aasa(dp1887
g2
(dp1888
S'prob*'
p1889
g5
(g9
S'UUUUUU\xe5?'
p1890
tp1891
Rp1892
sS'link-probs'
p1893
(lp1894
(S'magic'
p1895
S'magical'
p1896
F0.6666666666666666
tp1897
assg20
(lp1898
(lp1899
g1895
aa(lp1900
g1896
aasa(dp1901
g2
(dp1902
S'prob*'
p1903
g5
(g9
S'UUUUUU\xe5?'
p1904
tp1905
Rp1906
sS'link-probs'
p1907
(lp1908
(S'specific'
p1909
S'particular'
p1910
F0.6666666666666666
tp1911
assg20
(lp1912
(lp1913
g1909
aa(lp1914
g1910
aasa(dp1915
g2
(dp1916
S'prob*'
p1917
g5
(g9
S' M?)u]\xc3?'
p1918
tp1919
Rp1920
sS'link-probs'
p1921
(lp1922
(S'impressed'
p1923
S'shocked'
p1924
F0.5380796951186254
tp1925
a(g1923
S'overwhelmed'
p1926
F0.5492151365163754
tp1927
a(g1924
g1926
F0.5119410760177181
tp1928
assg20
(lp1929
(lp1930
g1923
aa(lp1931
g1924
aa(lp1932
g1926
aasa(dp1933
g2
(dp1934
S'prob*'
p1935
g5
(g9
S'\xdc`\xc9\x9a+j8?'
p1936
tp1937
Rp1938
sS'link-probs'
p1939
(lp1940
(S'own'
p1941
S'private'
p1942
F0.511025359700302
tp1943
a(g1941
S'personal'
p1944
F0.5834456176421107
tp1945
a(g1941
S'independent'
p1946
F0.5872903194506615
tp1947
a(g1941
S'lazy'
p1948
F0.6231709985664984
tp1949
a(g1941
S'separate'
p1950
F0.655633315263371
tp1951
a(g1942
g1944
F0.5749010284033514
tp1952
a(g1942
g1946
F0.5790021191646599
tp1953
a(g1942
g1948
F0.6179100444938278
tp1954
a(g1942
g1950
F0.6541289440439063
tp1955
a(g1944
g1946
F0.5052112033996544
tp1956
a(g1944
g1948
F0.5630572493698124
tp1957
a(g1944
g1950
F0.6355711479194307
tp1958
a(g1946
g1948
F0.5585385422601604
tp1959
a(g1946
g1950
F0.6337619932530312
tp1960
a(g1948
g1950
F0.604751749341546
tp1961
assg20
(lp1962
(lp1963
g1941
aa(lp1964
g1942
aa(lp1965
g1944
aa(lp1966
g1946
aa(lp1967
g1948
aa(lp1968
g1950
aasa(dp1969
g2
(dp1970
S'prob*'
p1971
g5
(g9
S'~\xaao\xedy\xce\xd3?'
p1972
tp1973
Rp1974
sS'link-probs'
p1975
(lp1976
(S'perfect'
p1977
S'flawless'
p1978
F0.9
tp1979
a(g1977
S'absolute'
p1980
F0.6466975662118735
tp1981
a(g1978
g1980
F0.5317225515098692
tp1982
assg20
(lp1983
(lp1984
g1977
aa(lp1985
g1978
aa(lp1986
g1980
aasa(dp1987
g2
(dp1988
S'prob*'
p1989
g5
(g9
S'all\x01\x1a\xa7~?'
p1990
tp1991
Rp1992
sS'link-probs'
p1993
(lp1994
(S'following'
p1995
S'new'
p1996
F0.5518839435193404
tp1997
a(g1995
S'next'
p1998
F0.6666666666666666
tp1999
a(g1995
S'further'
p2000
F0.6500178841581251
tp2001
a(g1995
S'third'
p2002
F0.6563888825059685
tp2003
a(g1996
g1998
F0.5487386401818876
tp2004
a(g1996
g2000
F0.6363362795413331
tp2005
a(g1996
g2002
F0.6476280715767216
tp2006
a(g1998
g2000
F0.6151410346527973
tp2007
a(g1998
g2002
F0.6334588670064546
tp2008
a(g2000
g2002
F0.5409975877293453
tp2009
assg20
(lp2010
(lp2011
g1995
aa(lp2012
g1996
aa(lp2013
g1998
aa(lp2014
g2000
aa(lp2015
g2002
aasa(dp2016
g2
(dp2017
S'prob*'
p2018
g5
(g9
S'\xa7\x99\xbd3)\x12\xab?'
p2019
tp2020
Rp2021
sS'link-probs'
p2022
(lp2023
(S'polite'
p2024
S'friendly'
p2025
F0.6326446693368769
tp2026
a(g2024
S'courteous'
p2027
F0.6666666666666666
tp2028
a(g2024
S'gracious'
p2029
F0.6596510624211657
tp2030
a(g2025
g2027
F0.6088465329547014
tp2031
a(g2025
g2029
F0.6136475081012779
tp2032
a(g2027
g2029
F0.5086554732617626
tp2033
assg20
(lp2034
(lp2035
g2024
aa(lp2036
g2025
aa(lp2037
g2027
aa(lp2038
g2029
aasa(dp2039
g2
(dp2040
S'prob*'
p2041
g5
(g9
S'\x90\x841LyK\xc9?'
p2042
tp2043
Rp2044
sS'link-probs'
p2045
(lp2046
(S'appealing'
p2047
S'sexy'
p2048
F0.5269754084366424
tp2049
a(g2047
S'attractive'
p2050
F0.6
tp2051
a(g2048
g2050
F0.625
tp2052
assg20
(lp2053
(lp2054
g2047
aa(lp2055
g2048
aa(lp2056
g2050
aasa(dp2057
g2
(dp2058
S'prob*'
p2059
g5
(g9
S'\xd7\xb8%9\xa9\xf7\x8a?'
p2060
tp2061
Rp2062
sS'link-probs'
p2063
(lp2064
(S'delicious'
p2065
S'yummy'
p2066
F0.6666666666666666
tp2067
a(g2065
S'tasty'
p2068
F0.7142857142857143
tp2069
a(g2065
S'exquisite'
p2070
F0.7142857142857143
tp2071
a(g2065
S'scrumptious'
p2072
F0.8333333333333334
tp2073
a(g2066
g2068
F0.602662027330145
tp2074
a(g2066
g2070
F0.5533476324160497
tp2075
a(g2066
g2072
F0.6666666666666666
tp2076
a(g2068
g2070
F0.6666666666666666
tp2077
a(g2068
g2072
F0.5330304869196797
tp2078
a(g2070
g2072
F0.5880262347187873
tp2079
assg20
(lp2080
(lp2081
g2065
aa(lp2082
g2066
aa(lp2083
g2068
aa(lp2084
g2070
aa(lp2085
g2072
aasa(dp2086
g2
(dp2087
S'prob*'
p2088
g5
(g9
S'\xe0:\xe9\x87\x19u\xa0?'
p2089
tp2090
Rp2091
sS'link-probs'
p2092
(lp2093
(S'flexible'
p2094
S'relaxing'
p2095
F0.5079416972279925
tp2096
a(g2094
S'relaxed'
p2097
F0.6666666666666666
tp2098
a(g2094
S'loose'
p2099
F0.5781843528483682
tp2100
a(g2095
g2097
F0.5077912575343114
tp2101
a(g2095
g2099
F0.5718486888226466
tp2102
a(g2097
g2099
F0.565374898870641
tp2103
assg20
(lp2104
(lp2105
g2094
aa(lp2106
g2095
aa(lp2107
g2097
aa(lp2108
g2099
aasa(dp2109
g2
(dp2110
S'prob*'
p2111
g5
(g9
S'\x17]t\xd1E\x17\xed?'
p2112
tp2113
Rp2114
sS'link-probs'
p2115
(lp2116
(S'interesting'
p2117
S'informative'
p2118
F0.9090909090909091
tp2119
assg20
(lp2120
(lp2121
g2117
aa(lp2122
g2118
aasa(dp2123
g2
(dp2124
S'prob*'
p2125
g5
(g9
S')\xb0\x9c\xcb\x94>\xa5?'
p2126
tp2127
Rp2128
sS'link-probs'
p2129
(lp2130
(S'opposite'
p2131
S'other'
p2132
F0.5024314140233389
tp2133
a(g2131
S'outside'
p2134
F0.5526513926614075
tp2135
a(g2131
S'else'
p2136
F0.6614152221429189
tp2137
a(g2132
g2134
F0.5504524952204574
tp2138
a(g2132
g2136
F0.625
tp2139
a(g2134
g2136
F0.6567099422489927
tp2140
assg20
(lp2141
(lp2142
g2131
aa(lp2143
g2132
aa(lp2144
g2134
aa(lp2145
g2136
aasa(dp2146
g2
(dp2147
S'prob*'
p2148
g5
(g9
S'O%$%\x0c\x85\xe4?'
p2149
tp2150
Rp2151
sS'link-probs'
p2152
(lp2153
(S'best'
p2154
S'recommended'
p2155
F0.6412411427892638
tp2156
assg20
(lp2157
(lp2158
g2154
aa(lp2159
g2155
aasa(dp2160
g2
(dp2161
S'prob*'
p2162
g5
(g9
S'\x1d\xa0\x1c\xf9g\xc6\x9c?'
p2163
tp2164
Rp2165
sS'link-probs'
p2166
(lp2167
(S'phenomenal'
p2168
S'gigantic'
p2169
F0.5
tp2170
a(g2168
S'terrible'
p2171
F0.5403488304332872
tp2172
a(g2168
S'extreme'
p2173
F0.5886687013310224
tp2174
a(g2169
g2171
F0.5403488304332872
tp2175
a(g2169
g2173
F0.5886687013310224
tp2176
a(g2171
g2173
F0.5554633522285978
tp2177
assg20
(lp2178
(lp2179
g2168
aa(lp2180
g2169
aa(lp2181
g2171
aa(lp2182
g2173
aasa(dp2183
g2
(dp2184
S'prob*'
p2185
g5
(g9
S'\xc5\xf9\xeb\xbfG\xf8\xe4?'
p2186
tp2187
Rp2188
sS'link-probs'
p2189
(lp2190
(S'dense'
p2191
S'thick'
p2192
F0.6553076504204048
tp2193
assg20
(lp2194
(lp2195
g2191
aa(lp2196
g2192
aasa(dp2197
g2
(dp2198
S'prob*'
p2199
g5
(g9
S'\xc6W|\xc5W|\xe1?'
p2200
tp2201
Rp2202
sS'link-probs'
p2203
(lp2204
(S'funny'
p2205
S'fun'
p2206
F0.8095238095238095
tp2207
a(g2205
S'hilarious'
p2208
F0.9
tp2209
a(g2206
g2208
F0.75
tp2210
assg20
(lp2211
(lp2212
g2205
aa(lp2213
g2206
aa(lp2214
g2208
aasa(dp2215
g2
(dp2216
S'prob*'
p2217
g5
(g9
S'\xee\x1bg\x8e2-\xd0?'
p2218
tp2219
Rp2220
sS'link-probs'
p2221
(lp2222
(S'poor'
p2223
S'weak'
p2224
F0.5001750963712728
tp2225
a(g2223
S'mediocre'
p2226
F0.8
tp2227
a(g2224
g2226
F0.6316753808237893
tp2228
assg20
(lp2229
(lp2230
g2223
aa(lp2231
g2224
aa(lp2232
g2226
aasa(dp2233
g2
(dp2234
S'prob*'
p2235
g5
(g9
S'\x8b&4%\xd1\x80\xab?'
p2236
tp2237
Rp2238
sS'link-probs'
p2239
(lp2240
(S'ideal'
p2241
S'fitting'
p2242
F0.626499328673273
tp2243
a(g2241
S'convenient'
p2244
F0.6219023175302503
tp2245
a(g2241
S'handy'
p2246
F0.6036786773546008
tp2247
a(g2242
g2244
F0.6666666666666666
tp2248
a(g2242
g2246
F0.4567667716664965
tp2249
a(g2244
g2246
F0.75
tp2250
assg20
(lp2251
(lp2252
g2241
aa(lp2253
g2242
aa(lp2254
g2244
aa(lp2255
g2246
aasa(dp2256
g2
(dp2257
S'prob*'
p2258
g5
(g9
S'XR\x8d\xb1\x98V[?'
p2259
tp2260
Rp2261
sS'link-probs'
p2262
(lp2263
(S'rare'
p2264
S'special'
p2265
F0.529484665343169
tp2266
a(g2264
S'exceptional'
p2267
F0.6666666666666666
tp2268
a(g2264
S'unusual'
p2269
F0.8
tp2270
a(g2264
S'unique'
p2271
F0.5070110741955883
tp2272
a(g2264
S'extraordinary'
p2273
F0.6666666666666666
tp2274
a(g2265
g2267
F0.8
tp2275
a(g2265
g2269
F0.6666666666666666
tp2276
a(g2265
g2271
F0.8
tp2277
a(g2265
g2273
F0.5711431551195205
tp2278
a(g2267
g2269
F0.6
tp2279
a(g2267
g2271
F0.6
tp2280
a(g2267
g2273
F0.7142857142857143
tp2281
a(g2269
g2271
F0.6369437659099032
tp2282
a(g2269
g2273
F0.6569839477068552
tp2283
a(g2271
g2273
F0.6666666666666666
tp2284
assg20
(lp2285
(lp2286
g2264
aa(lp2287
g2265
aa(lp2288
g2267
aa(lp2289
g2269
aa(lp2290
g2271
aa(lp2291
g2273
aasa(dp2292
g2
(dp2293
S'prob*'
p2294
g5
(g9
S't\x81p\xa1\x9dt\xa0?'
p2295
tp2296
Rp2297
sS'link-probs'
p2298
(lp2299
(S'simple'
p2300
S'empty'
p2301
F0.6251291025146081
tp2302
a(g2300
S'pure'
p2303
F0.6255628197420606
tp2304
a(g2300
S'naked'
p2305
F0.6296688969572551
tp2306
a(g2301
g2303
F0.5009984656272134
tp2307
a(g2301
g2305
F0.5109159246079608
tp2308
a(g2303
g2305
F0.5099213518247216
tp2309
assg20
(lp2310
(lp2311
g2300
aa(lp2312
g2301
aa(lp2313
g2303
aa(lp2314
g2305
aasa(dp2315
g2
(dp2316
S'prob*'
p2317
g5
(g9
S'\xcb\x9f\xa6\x8cM\x8d\x0c?'
p2318
tp2319
Rp2320
sS'link-probs'
p2321
(lp2322
(S'talented'
p2323
S'responsible'
p2324
F0.5262848829673781
tp2325
a(g2323
S'competent'
p2326
F0.632348331889281
tp2327
a(g2323
S'trained'
p2328
F0.6350668283796981
tp2329
a(g2323
S'skilled'
p2330
F0.75
tp2331
a(g2323
S'knowledgeable'
p2332
F0.6426257515377204
tp2333
a(g2323
S'able'
p2334
F0.6599909091319425
tp2335
a(g2324
g2326
F0.6212479858945434
tp2336
a(g2324
g2328
F0.6247224423888693
tp2337
a(g2324
g2330
F0.6519146685274714
tp2338
a(g2324
g2332
F0.6344919635111751
tp2339
a(g2324
g2334
F0.657559293751217
tp2340
a(g2326
g2328
F0.5076261856548685
tp2341
a(g2326
g2330
F0.5910251268615253
tp2342
a(g2326
g2332
F0.6666666666666666
tp2343
a(g2326
g2334
F0.6162835905661878
tp2344
a(g2328
g2330
F0.8
tp2345
a(g2328
g2332
F0.5246624105269531
tp2346
a(g2328
g2334
F0.612240666760791
tp2347
a(g2330
g2332
F0.75
tp2348
a(g2330
g2334
F0.5408085839722654
tp2349
a(g2332
g2334
F0.5972716175029191
tp2350
assg20
(lp2351
(lp2352
g2323
aa(lp2353
g2324
aa(lp2354
g2326
aa(lp2355
g2328
aa(lp2356
g2330
aa(lp2357
g2332
aa(lp2358
g2334
aasa(dp2359
g2
(dp2360
S'prob*'
p2361
g5
(g9
S'\xd2\xf9|k\x9f\x91E?'
p2362
tp2363
Rp2364
sS'link-probs'
p2365
(lp2366
(S'tall'
p2367
S'wide'
p2368
F0.5401804624520764
tp2369
a(g2367
S'huge'
p2370
F0.6463476858240552
tp2371
a(g2367
S'vast'
p2372
F0.6666666666666666
tp2373
a(g2367
S'overwhelming'
p2374
F0.6666666666666666
tp2375
a(g2367
S'massive'
p2376
F0.6312191530143143
tp2377
a(g2368
g2370
F0.6666666666666666
tp2378
a(g2368
g2372
F0.6666666666666666
tp2379
a(g2368
g2374
F0.6123668190612248
tp2380
a(g2368
g2376
F0.6666666666666666
tp2381
a(g2370
g2372
F0.6666666666666666
tp2382
a(g2370
g2374
F0.6666666666666666
tp2383
a(g2370
g2376
F0.6666666666666666
tp2384
a(g2372
g2374
F0.5
tp2385
a(g2372
g2376
F0.5
tp2386
a(g2374
g2376
F0.5
tp2387
assg20
(lp2388
(lp2389
g2367
aa(lp2390
g2368
aa(lp2391
g2370
aa(lp2392
g2372
aa(lp2393
g2374
aa(lp2394
g2376
aasa(dp2395
g2
(dp2396
S'prob*'
p2397
g5
(g9
S'\xfbi\xc2\x13[\x9b\xcb?'
p2398
tp2399
Rp2400
sS'link-probs'
p2401
(lp2402
(S'lit'
p2403
S'wise'
p2404
F0.6466799081484308
tp2405
a(g2403
S'thoughtful'
p2406
F0.6495178561570434
tp2407
a(g2404
g2406
F0.5134835751876831
tp2408
assg20
(lp2409
(lp2410
g2403
aa(lp2411
g2404
aa(lp2412
g2406
aasa(dp2413
g2
(dp2414
S'prob*'
p2415
g5
(g9
S'$\x1f,\xd9\xef`\xb4?'
p2416
tp2417
Rp2418
sS'link-probs'
p2419
(lp2420
(S'ready'
p2421
S'open'
p2422
F0.5101713729565969
tp2423
a(g2421
S'prepared'
p2424
F0.7272727272727273
tp2425
a(g2421
S'willing'
p2426
F0.875
tp2427
a(g2422
g2424
F0.6666666666666666
tp2428
a(g2422
g2426
F0.551692057412548
tp2429
a(g2424
g2426
F0.6666666666666666
tp2430
assg20
(lp2431
(lp2432
g2421
aa(lp2433
g2422
aa(lp2434
g2424
aa(lp2435
g2426
aasa(dp2436
g2
(dp2437
S'prob*'
p2438
g5
(g9
S'\xdeI\x14\x03\xd0E\xb8?'
p2439
tp2440
Rp2441
sS'link-probs'
p2442
(lp2443
(S'sensitive'
p2444
S'careful'
p2445
F0.55799544521211
tp2446
a(g2444
S'responsive'
p2447
F0.9090909090909091
tp2448
a(g2444
S'attentive'
p2449
F0.6557476199843423
tp2450
a(g2445
g2447
F0.59841058612975
tp2451
a(g2445
g2449
F0.8
tp2452
a(g2447
g2449
F0.59540745838765
tp2453
assg20
(lp2454
(lp2455
g2444
aa(lp2456
g2445
aa(lp2457
g2447
aa(lp2458
g2449
aasa(dp2459
g2
(dp2460
S'prob*'
p2461
g5
(g9
S'\x84`\x0f\x90\xdf\xf5\x8d?'
p2462
tp2463
Rp2464
sS'link-probs'
p2465
(lp2466
(S'many'
p2467
S'numerous'
p2468
F0.75
tp2469
a(g2467
S'multiple'
p2470
F0.8
tp2471
a(g2467
S'frequent'
p2472
F0.6542767772282823
tp2473
a(g2467
S'countless'
p2474
F0.75
tp2475
a(g2468
g2470
F0.6666666666666666
tp2476
a(g2468
g2472
F0.6598736373162419
tp2477
a(g2468
g2474
F0.6614346181975089
tp2478
a(g2470
g2472
F0.5630181572386574
tp2479
a(g2470
g2474
F0.580996544106754
tp2480
a(g2472
g2474
F0.5220256726322455
tp2481
assg20
(lp2482
(lp2483
g2467
aa(lp2484
g2468
aa(lp2485
g2470
aa(lp2486
g2472
aa(lp2487
g2474
aasa(dp2488
g2
(dp2489
S'prob*'
p2490
g5
(g9
S'\x86\xbe&\xf7\x8e\xc2\xc9?'
p2491
tp2492
Rp2493
sS'link-probs'
p2494
(lp2495
(S'certain'
p2496
S'partial'
p2497
F0.6342920951428659
tp2498
a(g2496
S'several'
p2499
F0.6343512831977812
tp2500
a(g2497
g2499
F0.5001688787400974
tp2501
assg20
(lp2502
(lp2503
g2496
aa(lp2504
g2497
aa(lp2505
g2499
aasa(dp2506
g2
(dp2507
S'prob*'
p2508
g5
(g9
S'\x00\x00\x00\x00\x00\x00\xe0?'
p2509
tp2510
Rp2511
sS'link-probs'
p2512
(lp2513
(S'top'
p2514
S'superior'
p2515
F0.5
tp2516
assg20
(lp2517
(lp2518
g2514
aa(lp2519
g2515
aasa(dp2520
g2
(dp2521
S'prob*'
p2522
g5
(g9
S'_\xf0\xdb\xc0\x9fA\xc7?'
p2523
tp2524
Rp2525
sS'link-probs'
p2526
(lp2527
(S'calm'
p2528
S'peaceful'
p2529
F0.5046949629505483
tp2530
a(g2528
S'quiet'
p2531
F0.6
tp2532
a(g2529
g2531
F0.6
tp2533
assg20
(lp2534
(lp2535
g2528
aa(lp2536
g2529
aa(lp2537
g2531
aasa(dp2538
g2
(dp2539
S'prob*'
p2540
g5
(g9
S'\xfa\x10\x1b\x14\xef\xc7w?'
p2541
tp2542
Rp2543
sS'link-probs'
p2544
(lp2545
(S'quality'
p2546
S'clean'
p2547
F0.5849747106845928
tp2548
a(g2546
S'safe'
p2549
F0.6129603891058006
tp2550
a(g2546
S'healthy'
p2551
F0.6337604964333342
tp2552
a(g2546
S'green'
p2553
F0.6403560287815729
tp2554
a(g2547
g2549
F0.5427625224987104
tp2555
a(g2547
g2551
F0.5825737564985896
tp2556
a(g2547
g2553
F0.6666666666666666
tp2557
a(g2549
g2551
F0.545608965219023
tp2558
a(g2549
g2553
F0.6666666666666666
tp2559
a(g2551
g2553
F0.5203482482832503
tp2560
assg20
(lp2561
(lp2562
g2546
aa(lp2563
g2547
aa(lp2564
g2549
aa(lp2565
g2551
aa(lp2566
g2553
aasa(dp2567
g2
(dp2568
S'prob*'
p2569
g5
(g9
S'\x19.\x05\r\xe4\xd9\xc2?'
p2570
tp2571
Rp2572
sS'link-probs'
p2573
(lp2574
(S'sharp'
p2575
S'loud'
p2576
F0.5114430626213594
tp2577
a(g2575
S'steep'
p2578
F0.5420966059745852
tp2579
a(g2576
g2578
F0.5311945094122856
tp2580
assg20
(lp2581
(lp2582
g2575
aa(lp2583
g2576
aa(lp2584
g2578
aasa(dp2585
g2
(dp2586
S'prob*'
p2587
g5
(g9
S'0\x19["/\x16\x86?'
p2588
tp2589
Rp2590
sS'link-probs'
p2591
(lp2592
(S'bad'
p2593
S'wrong'
p2594
F0.5333333333333333
tp2595
a(g2593
S'fake'
p2596
F0.5711250087582461
tp2597
a(g2593
S'incorrect'
p2598
F0.8888888888888888
tp2599
a(g2593
S'guilty'
p2600
F0.5801045047491028
tp2601
a(g2594
g2596
F0.7142857142857143
tp2602
a(g2594
g2598
F0.875
tp2603
a(g2594
g2600
F0.5922014897146043
tp2604
a(g2596
g2598
F0.6666666666666666
tp2605
a(g2596
g2600
F0.5112964925819611
tp2606
a(g2598
g2600
F0.5442335867010919
tp2607
assg20
(lp2608
(lp2609
g2593
aa(lp2610
g2594
aa(lp2611
g2596
aa(lp2612
g2598
aa(lp2613
g2600
aasa(dp2614
g2
(dp2615
S'prob*'
p2616
g5
(g9
S'\x9b=\x83\x7fO\xfaS?'
p2617
tp2618
Rp2619
sS'link-probs'
p2620
(lp2621
(S'modern'
p2622
S'recent'
p2623
F0.6227173326271922
tp2624
a(g2622
S'current'
p2625
F0.6576057906803018
tp2626
a(g2622
S'present'
p2627
F0.6512585065243297
tp2628
a(g2622
S'updated'
p2629
F0.6608398723620216
tp2630
a(g2622
S'contemporary'
p2631
F0.75
tp2632
a(g2623
g2625
F0.614868439441539
tp2633
a(g2623
g2627
F0.6666666666666666
tp2634
a(g2623
g2629
F0.75
tp2635
a(g2623
g2631
F0.6355698007240278
tp2636
a(g2625
g2627
F0.6666666666666666
tp2637
a(g2625
g2629
F0.75
tp2638
a(g2625
g2631
F0.5471146043299893
tp2639
a(g2627
g2629
F0.5771585433694372
tp2640
a(g2627
g2631
F0.5853965124748113
tp2641
a(g2629
g2631
F0.51079973743902
tp2642
assg20
(lp2643
(lp2644
g2622
aa(lp2645
g2623
aa(lp2646
g2625
aa(lp2647
g2627
aa(lp2648
g2629
aa(lp2649
g2631
aasa(dp2650
g2
(dp2651
S'prob*'
p2652
g5
(g9
S'\x1e\x92\x0b \xcd7\xd1?'
p2653
tp2654
Rp2655
sS'link-probs'
p2656
(lp2657
(S'big'
p2658
S'large'
p2659
F0.5595841456335154
tp2660
a(g2658
S'great'
p2661
F0.7692307692307693
tp2662
a(g2659
g2661
F0.625
tp2663
assg20
(lp2664
(lp2665
g2658
aa(lp2666
g2659
aa(lp2667
g2661
aasa(dp2668
g2
(dp2669
S'prob*'
p2670
g5
(g9
S'T*\xdc*\xc2D\xe4?'
p2671
tp2672
Rp2673
sS'link-probs'
p2674
(lp2675
(S'tired'
p2676
S'kinda'
p2677
F0.6333933674917014
tp2678
assg20
(lp2679
(lp2680
g2676
aa(lp2681
g2677
aasa(dp2682
g2
(dp2683
S'prob*'
p2684
g5
(g9
S'\x01E\x8f\x7fV\xee\xae?'
p2685
tp2686
Rp2687
sS'link-probs'
p2688
(lp2689
(S'alive'
p2690
S'live'
p2691
F0.6
tp2692
a(g2690
S'lively'
p2693
F0.6544116515463659
tp2694
a(g2690
S'vibrant'
p2695
F0.6666666666666666
tp2696
a(g2691
g2693
F0.6530958635526869
tp2697
a(g2691
g2695
F0.6579096722231091
tp2698
a(g2693
g2695
F0.5371182198032848
tp2699
assg20
(lp2700
(lp2701
g2690
aa(lp2702
g2691
aa(lp2703
g2693
aa(lp2704
g2695
aasa(dp2705
g2
(dp2706
S'prob*'
p2707
g5
(g9
S'\x96\xaa\x04\xb9\xeb\xcd\xc8?'
p2708
tp2709
Rp2710
sS'link-probs'
p2711
(lp2712
(S'human'
p2713
S'professional'
p2714
F0.612790795856975
tp2715
a(g2713
S'social'
p2716
F0.6186003232138831
tp2717
a(g2714
g2716
F0.5112060640619499
tp2718
assg20
(lp2719
(lp2720
g2713
aa(lp2721
g2714
aa(lp2722
g2716
aasa(dp2723
g2
(dp2724
S'prob*'
p2725
g5
(g9
S'\xe8\xfc/P\xf3\x8f\xcd?'
p2726
tp2727
Rp2728
sS'link-probs'
p2729
(lp2730
(S'immediate'
p2731
S'direct'
p2732
F0.6666666666666666
tp2733
a(g2731
S'left'
p2734
F0.6403356500536318
tp2735
a(g2732
g2734
F0.5410182585884867
tp2736
assg20
(lp2737
(lp2738
g2731
aa(lp2739
g2732
aa(lp2740
g2734
aasa(dp2741
g2
(dp2742
S'prob*'
p2743
g5
(g9
S'\xb0i\x08x\xe3\x87\xa2?'
p2744
tp2745
Rp2746
sS'link-probs'
p2747
(lp2748
(S'soft'
p2749
S'slow'
p2750
F0.6666666666666666
tp2751
a(g2749
S'gentle'
p2752
F0.5749125365203646
tp2753
a(g2749
S'mild'
p2754
F0.4817253101447887
tp2755
a(g2750
g2752
F0.5885335497737761
tp2756
a(g2750
g2754
F0.49961400074160434
tp2757
a(g2752
g2754
F0.6666666666666666
tp2758
assg20
(lp2759
(lp2760
g2749
aa(lp2761
g2750
aa(lp2762
g2752
aa(lp2763
g2754
aasa(dp2764
g2
(dp2765
S'prob*'
p2766
g5
(g9
S'UUUUUU\xe5?'
p2767
tp2768
Rp2769
sS'link-probs'
p2770
(lp2771
(S'innovative'
p2772
S'creative'
p2773
F0.6666666666666666
tp2774
assg20
(lp2775
(lp2776
g2772
aa(lp2777
g2773
aasa(dp2778
g2
(dp2779
S'prob*'
p2780
g5
(g9
S'\xd9\xe8df\x01p\xe0?'
p2781
tp2782
Rp2783
sS'link-probs'
p2784
(lp2785
(S'only'
p2786
S'just'
p2787
F0.5136725425611771
tp2788
assg20
(lp2789
(lp2790
g2786
aa(lp2791
g2787
aasa(dp2792
g2
(dp2793
S'prob*'
p2794
g5
(g9
S'\xcf\xe1\xad\x07LB\xc2?'
p2795
tp2796
Rp2797
sS'link-probs'
p2798
(lp2799
(S'questionable'
p2800
S'negative'
p2801
F0.5079025957765184
tp2802
a(g2800
S'dangerous'
p2803
F0.533799238968787
tp2804
a(g2801
g2803
F0.5261480742369309
tp2805
assg20
(lp2806
(lp2807
g2800
aa(lp2808
g2801
aa(lp2809
g2803
aasa(dp2810
g2
(dp2811
S'prob*'
p2812
g5
(g9
S'\xe5\xbb\x8e\xeaN\xbf\xe0?'
p2813
tp2814
Rp2815
sS'link-probs'
p2816
(lp2817
(S'natural'
p2818
S'physical'
p2819
F0.523353059883331
tp2820
assg20
(lp2821
(lp2822
g2818
aa(lp2823
g2819
aasa(dp2824
g2
(dp2825
S'prob*'
p2826
g5
(g9
S't\xc4\xd9J\xd1n\xe1?'
p2827
tp2828
Rp2829
sS'link-probs'
p2830
(lp2831
(S'bold'
p2832
S'noisy'
p2833
F0.5447775327612718
tp2834
assg20
(lp2835
(lp2836
g2832
aa(lp2837
g2833
aasa(dp2838
g2
(dp2839
S'prob*'
p2840
g5
(g9
S'\xc1\x83\xf6\xb2\xdc&\xca?'
p2841
tp2842
Rp2843
sS'link-probs'
p2844
(lp2845
(S'solid'
p2846
S'consistent'
p2847
F0.5808379159252839
tp2848
a(g2846
S'constant'
p2849
F0.6226165783480769
tp2850
a(g2847
g2849
F0.5649578694264813
tp2851
assg20
(lp2852
(lp2853
g2846
aa(lp2854
g2847
aa(lp2855
g2849
aasa(dp2856
g2
(dp2857
S'prob*'
p2858
g5
(g9
S'5\tl\xd5\x9f\xe7\xae?'
p2859
tp2860
Rp2861
sS'link-probs'
p2862
(lp2863
(S'embarrassed'
p2864
S'comfortable'
p2865
F0.5945378993379263
tp2866
a(g2864
S'comfy'
p2867
F0.5823508199459465
tp2868
a(g2864
S'uncomfortable'
p2869
F0.5448055438597422
tp2870
a(g2865
g2867
F0.6
tp2871
a(g2865
g2869
F0.8
tp2872
a(g2867
g2869
F0.6666666666666666
tp2873
assg20
(lp2874
(lp2875
g2864
aa(lp2876
g2865
aa(lp2877
g2867
aa(lp2878
g2869
aasa(dp2879
g2
(dp2880
S'prob*'
p2881
g5
(g9
S'S\x99\xfe\xf2#4\xe0?'
p2882
tp2883
Rp2884
sS'link-probs'
p2885
(lp2886
(S'active'
p2887
S'positive'
p2888
F0.5063647981631142
tp2889
assg20
(lp2890
(lp2891
g2887
aa(lp2892
g2888
aasa.