(dp0
S'tau'
p1
F0.625925925925926
sS'|tau|'
p2
F0.8238095238095234
sS'pairwise'
p3
F0.8129629629629629
sS'ranking'
p4
(dp5
I0
(dp6
g1
F1.0
sS'gold'
p7
(lp8
(lp9
S'small'
p10
aa(lp11
S'minute'
p12
aa(lp13
S'miniscule'
p14
aasS'raw'
p15
(dp16
S'prob*'
p17
cnumpy.core.multiarray
scalar
p18
(cnumpy
dtype
p19
(S'f8'
p20
I0
I1
tp21
Rp22
(I3
S'<'
p23
NNNI-1
I-1
I0
tp24
bS'a\x95\xe3\xe2+\x08\xe0?'
p25
tp26
Rp27
sS'link-probs'
p28
(lp29
(g10
g12
F0.9999999882214372
tp30
a(g10
g14
F0.9999950000249999
tp31
a(g12
g14
F0.501
tp32
assg3
F1.0
sS'algo'
p33
(lp34
(lp35
g10
aa(lp36
g12
aa(lp37
g14
aasg2
F1.0
ssI1
(dp38
g1
F1.0
sg7
(lp39
(lp40
S'upset'
p41
aa(lp42
S'angry'
p43
aa(lp44
S'enraged'
p45
aasg15
(dp46
g17
g18
(g22
S'\xcc9\xc7<\xd1a\xe4?'
p47
tp48
Rp49
sg28
(lp50
(g41
g43
F0.636950146627566
tp51
a(g41
g45
F0.9999950000249999
tp52
a(g43
g45
F0.9999900000999989
tp53
assg3
F1.0
sg33
(lp54
(lp55
g41
aa(lp56
g43
aa(lp57
g45
aasg2
F1.0
ssI2
(dp58
g1
F1.0
sg7
(lp59
(lp60
S'positive'
p61
aa(lp62
S'terrific'
p63
aasg15
(dp64
g17
g18
(g22
S'\x835X\x07\xeb\xff\xef?'
p65
tp66
Rp67
sg28
(lp68
(g61
g63
F0.9999900000999989
tp69
assg3
F1.0
sg33
(lp70
(lp71
g61
aa(lp72
g63
aasg2
F1.0
ssI3
(dp73
g1
F1.0
sg7
(lp74
(lp75
S'valuable'
p76
aa(lp77
S'immeasurable'
p78
aasg15
(dp79
g17
g18
(g22
S')\xab\xa8\x83\xf5\xff\xef?'
p80
tp81
Rp82
sg28
(lp83
(g76
g78
F0.9999950000249999
tp84
assg3
F1.0
sg33
(lp85
(lp86
g76
aa(lp87
g78
aasg2
F1.0
ssI4
(dp88
g1
F0.3333333333333333
sg7
(lp89
(lp90
S'useful'
p91
aa(lp92
S'worthwhile'
p93
aa(lp94
S'valuable'
p95
aasg15
(dp96
g17
g18
(g22
S'\xec\\y@\xb2\xce\xe5?'
p97
tp98
Rp99
sg28
(lp100
(g91
g95
F0.9583333333333334
tp101
a(g91
g93
F0.8888888888888888
tp102
a(g95
g93
F0.8
tp103
assg3
F0.6666666666666666
sg33
(lp104
(lp105
g91
aa(lp106
g95
aa(lp107
g93
aasg2
F0.3333333333333333
ssI5
(dp108
g1
F1.0
sg7
(lp109
(lp110
S'functioning'
p111
aa(lp112
S'efficient'
p113
aasg15
(dp114
g17
g18
(g22
S')\xab\xa8\x83\xf5\xff\xef?'
p115
tp116
Rp117
sg28
(lp118
(g111
g113
F0.9999950000249999
tp119
assg3
F1.0
sg33
(lp120
(lp121
g111
aa(lp122
g113
aasg2
F1.0
ssI6
(dp123
g1
F1.0
sg7
(lp124
(lp125
S'low'
p126
aa(lp127
S'limited'
p128
aa(lp129
S'scarce'
p130
aasg15
(dp131
g17
g18
(g22
S'\x9c\x05G\x8b$\x08\xe0?'
p132
tp133
Rp134
sg28
(lp135
(g126
g128
F0.501
tp136
a(g126
g130
F0.9999900000999989
tp137
a(g128
g130
F0.9999980000040001
tp138
assg3
F1.0
sg33
(lp139
(lp140
g126
aa(lp141
g128
aa(lp142
g130
aasg2
F1.0
ssI7
(dp143
g1
F0.8
sg7
(lp144
(lp145
S'cute'
p146
aa(lp147
S'pretty'
p148
aa(lp149
S'lovely'
p150
aa(lp151
S'lovelier'
p152
aa(lp153
S'breathtaking'
p154
aasg15
(dp155
g17
g18
(g22
S'\\\x86\x9a\x0fa\x88\xb4?'
p156
tp157
Rp158
sg28
(lp159
(g146
g148
F0.625
tp160
a(g146
g150
F0.7333333333333333
tp161
a(g146
g154
F0.499
tp162
a(g146
g152
F0.9999950000249999
tp163
a(g148
g150
F0.7
tp164
a(g148
g154
F0.9999950000249999
tp165
a(g148
g152
F0.9999980000040001
tp166
a(g150
g154
F0.9999966666777778
tp167
a(g150
g152
F0.9999900000999989
tp168
a(g154
g152
F0.501
tp169
assg3
F0.9
sg33
(lp170
(lp171
g146
aa(lp172
g148
aa(lp173
g150
aa(lp174
g154
aa(lp175
g152
aasg2
F0.8
ssI8
(dp176
g1
F0.3333333333333333
sg7
(lp177
(lp178
S'costly'
p179
aa(lp180
S'expensive'
p181
aa(lp182
S'exorbitant'
p183
aasg15
(dp184
g17
g18
(g22
S'h}\x84:c\xdb\xe6?'
p185
tp186
Rp187
sg28
(lp188
(g181
g179
F0.7142857142857143
tp189
a(g181
g183
F0.9999980000040001
tp190
a(g179
g183
F0.9999950000249999
tp191
assg3
F0.6666666666666666
sg33
(lp192
(lp193
g181
aa(lp194
g179
aa(lp195
g183
aasg2
F0.3333333333333333
ssI9
(dp196
g1
F0.3333333333333333
sg7
(lp197
(lp198
S'lousy'
p199
aa(lp200
S'miserable'
p201
aa(lp202
S'horrible'
p203
aasg15
(dp204
g17
g18
(g22
S'\xc63\xfa\x8f\xd2\xff\xef?'
p205
tp206
Rp207
sg28
(lp208
(g199
g203
F0.9999900000999989
tp209
a(g199
g201
F0.9999900000999989
tp210
a(g203
g201
F0.9999983333361112
tp211
assg3
F0.6666666666666666
sg33
(lp212
(lp213
g199
aa(lp214
g203
aa(lp215
g201
aasg2
F0.3333333333333333
ssI10
(dp216
g1
F0.3333333333333333
sg7
(lp217
(lp218
S'fine'
p219
aa(lp220
S'adequate'
p221
aa(lp222
S'good'
p223
aasg15
(dp224
g17
g18
(g22
S'\xcd\xd2\xf6\xa6d%\xc6?'
p225
tp226
Rp227
sg28
(lp228
(g219
g223
F0.5755693581780539
tp229
a(g219
g221
F0.501
tp230
a(g223
g221
F0.6
tp231
assg3
F0.6666666666666666
sg33
(lp232
(lp233
g219
aa(lp234
g223
aa(lp235
g221
aasg2
F0.3333333333333333
ssI11
(dp236
g1
F1.0
sg7
(lp237
(lp238
S'bad'
p239
aa(lp240
S'ludicrous'
p241
aasg15
(dp242
g17
g18
(g22
S'\x835X\x07\xeb\xff\xef?'
p243
tp244
Rp245
sg28
(lp246
(g239
g241
F0.9999900000999989
tp247
assg3
F1.0
sg33
(lp248
(lp249
g239
aa(lp250
g241
aasg2
F1.0
ssI12
(dp251
g1
F0.3333333333333333
sg7
(lp252
(lp253
S'useful'
p254
aa(lp255
S'relevant'
p256
aa(lp257
S'necessary'
p258
aasg15
(dp259
g17
g18
(g22
S'Z\x19\xe2\xe8\xcf\x93\xed?'
p260
tp261
Rp262
sg28
(lp263
(g254
g258
F0.9407987156331528
tp264
a(g254
g256
F0.9894736842105263
tp265
a(g258
g256
F0.9929078014184397
tp266
assg3
F0.6666666666666666
sg33
(lp267
(lp268
g254
aa(lp269
g258
aa(lp270
g256
aasg2
F0.3333333333333333
ssI13
(dp271
g1
F-0.3333333333333333
sg7
(lp272
(lp273
S'fine'
p274
aa(lp275
S'satisfactory'
p276
aa(lp277
S'excellent'
p278
aasg15
(dp279
g17
g18
(g22
S'y\x11\xc4\x82\xa3R\xd4?'
p280
tp281
Rp282
sg28
(lp283
(g276
g278
F0.9999950000249999
tp284
a(g276
g274
F0.499
tp285
a(g278
g274
F0.6363636363636364
tp286
assg3
F0.3333333333333333
sg33
(lp287
(lp288
g276
aa(lp289
g278
aa(lp290
g274
aasg2
F0.3333333333333333
ssI14
(dp291
g1
F-1.0
sg7
(lp292
(lp293
S'uncomfortable'
p294
aa(lp295
S'embarrassing'
p296
aasg15
(dp297
g17
g18
(g22
S'\x00\x00\x00\x00\x00\x00\xe8?'
p298
tp299
Rp300
sg28
(lp301
(g296
g294
F0.75
tp302
assg3
F0.0
sg33
(lp303
(lp304
g296
aa(lp305
g294
aasg2
F1.0
ssI15
(dp306
g1
F1.0
sg7
(lp307
(lp308
S'big'
p309
aa(lp310
S'substantial'
p311
aa(lp312
S'tremendous'
p313
aasg15
(dp314
g17
g18
(g22
S'%\x98@\x03LU\xe5?'
p315
tp316
Rp317
sg28
(lp318
(g309
g311
F0.6666666666666666
tp319
a(g309
g313
F0.9999966666777778
tp320
a(g311
g313
F0.9999966666777778
tp321
assg3
F1.0
sg33
(lp322
(lp323
g309
aa(lp324
g311
aa(lp325
g313
aasg2
F1.0
ssI16
(dp326
g1
F1.0
sg7
(lp327
(lp328
S'big'
p329
aa(lp330
S'substantial'
p331
aa(lp332
S'staggering'
p333
aasg15
(dp334
g17
g18
(g22
S'\xedp)_9U\xe5?'
p335
tp336
Rp337
sg28
(lp338
(g329
g331
F0.6666666666666666
tp339
a(g329
g333
F0.9999900000999989
tp340
a(g331
g333
F0.9999900000999989
tp341
assg3
F1.0
sg33
(lp342
(lp343
g329
aa(lp344
g331
aa(lp345
g333
aasg2
F1.0
ssI17
(dp346
g1
F0.6666666666666666
sg7
(lp347
(lp348
S'clear'
p349
aa(lp350
S'accurate'
p351
aa(lp352
S'precise'
p353
aa(lp354
S'exact'
p355
aasg15
(dp356
g17
g18
(g22
S'5ye\x18$E\xd0?'
p357
tp358
Rp359
sg28
(lp360
(g349
g353
F0.6
tp361
a(g349
g351
F0.9999900000999989
tp362
a(g349
g355
F0.9999900000999989
tp363
a(g353
g351
F0.5649461145774248
tp364
a(g353
g355
F0.75
tp365
a(g351
g355
F0.9999975000062501
tp366
assg3
F0.8333333333333334
sg33
(lp367
(lp368
g349
aa(lp369
g353
aa(lp370
g351
aa(lp371
g355
aasg2
F0.6666666666666666
ssI18
(dp372
g1
F0.6
sg7
(lp373
(lp374
S'pleased'
p375
aa(lp376
S'happy'
p377
aa(lp378
S'excited'
p379
aa(lp380
S'delighted'
p381
aa(lp382
S'overwhelmed'
p383
aasg15
(dp384
g17
g18
(g22
S'\xef6\xe9\x1c\xd0\x85\xa0?'
p385
tp386
Rp387
sg28
(lp388
(g377
g379
F0.6666666666666666
tp389
a(g377
g375
F0.7142857142857143
tp390
a(g377
g381
F0.9
tp391
a(g377
g383
F0.9999900000999989
tp392
a(g379
g375
F0.6
tp393
a(g379
g381
F0.6666666666666666
tp394
a(g379
g383
F0.9999900000999989
tp395
a(g375
g381
F0.75
tp396
a(g375
g383
F0.501
tp397
a(g381
g383
F0.501
tp398
assg3
F0.8
sg33
(lp399
(lp400
g377
aa(lp401
g379
aa(lp402
g375
aa(lp403
g381
aa(lp404
g383
aasg2
F0.6
ssI19
(dp405
g1
F1.0
sg7
(lp406
(lp407
S'bad'
p408
aa(lp409
S'horrific'
p410
aa(lp411
S'horrendous'
p412
aasg15
(dp413
g17
g18
(g22
S'2\x10\xcb\x04$\x08\xe0?'
p414
tp415
Rp416
sg28
(lp417
(g408
g410
F0.501
tp418
a(g408
g412
F0.9999975000062501
tp419
a(g410
g412
F0.9999900000999989
tp420
assg3
F1.0
sg33
(lp421
(lp422
g408
aa(lp423
g410
aa(lp424
g412
aasg2
F1.0
ssI20
(dp425
g1
F1.0
sg7
(lp426
(lp427
S'qualified'
p428
aa(lp429
S'excellent'
p430
aa(lp431
S'outstanding'
p432
aasg15
(dp433
g17
g18
(g22
S'\xa1\x8d\xa9\xeb4\x92\xe4?'
p434
tp435
Rp436
sg28
(lp437
(g428
g430
F0.9999900000999989
tp438
a(g428
g432
F0.9999950000249999
tp439
a(g430
g432
F0.6428571428571429
tp440
assg3
F1.0
sg33
(lp441
(lp442
g428
aa(lp443
g430
aa(lp444
g432
aasg2
F1.0
ssI21
(dp445
g1
F1.0
sg7
(lp446
(lp447
S'high'
p448
aa(lp449
S'higher'
p450
aasg15
(dp451
g17
g18
(g22
S'\x98I-\x08\x05\xc8\xee?'
p452
tp453
Rp454
sg28
(lp455
(g448
g450
F0.961916461916462
tp456
assg3
F1.0
sg33
(lp457
(lp458
g448
aa(lp459
g450
aasg2
F1.0
ssI22
(dp460
g1
F0.3333333333333333
sg7
(lp461
(lp462
S'fine'
p463
aa(lp464
S'remarkable'
p465
aa(lp466
S'spectacular'
p467
aasg15
(dp468
g17
g18
(g22
S'\xd6?\xf6\xe2+\x08\xe0?'
p469
tp470
Rp471
sg28
(lp472
(g463
g467
F0.9999999884925203
tp473
a(g463
g465
F0.9999950000249999
tp474
a(g467
g465
F0.501
tp475
assg3
F0.6666666666666666
sg33
(lp476
(lp477
g463
aa(lp478
g467
aa(lp479
g465
aasg2
F0.3333333333333333
ssI23
(dp480
g1
F-0.3333333333333333
sg7
(lp481
(lp482
S'a-okay'
p483
aa(lp484
S'appropriate'
p485
aa(lp486
S'faultless'
p487
aa(lp488
S'perfect'
p489
aasg15
(dp490
g17
g18
(g22
S'?9\x9e2\xef\xc0\xb9?'
p491
tp492
Rp493
sg28
(lp494
(g485
g489
F0.9999950000249999
tp495
a(g485
g487
F0.501
tp496
a(g485
g483
F0.501
tp497
a(g489
g487
F0.8
tp498
a(g489
g483
F0.9999950000249999
tp499
a(g487
g483
F0.501
tp500
assg3
F0.3333333333333333
sg33
(lp501
(lp502
g485
aa(lp503
g489
aa(lp504
g487
aa(lp505
g483
aasg2
F0.3333333333333333
ssI24
(dp506
g1
F0.3333333333333333
sg7
(lp507
(lp508
S'okay'
p509
aa(lp510
S'appropriate'
p511
aa(lp512
S'faultless'
p513
aa(lp514
S'perfect'
p515
aasg15
(dp516
g17
g18
(g22
S'tF\x00\xc5\xdc\xb0\xc9?'
p517
tp518
Rp519
sg28
(lp520
(g511
g509
F0.9999900000999989
tp521
a(g511
g515
F0.9999950000249999
tp522
a(g511
g513
F0.501
tp523
a(g509
g515
F0.999562363238512
tp524
a(g509
g513
F0.501
tp525
a(g515
g513
F0.8
tp526
assg3
F0.6666666666666666
sg33
(lp527
(lp528
g511
aa(lp529
g509
aa(lp530
g515
aa(lp531
g513
aasg2
F0.3333333333333333
ssI25
(dp532
g1
F0.0
sg7
(lp533
(lp534
S'fine'
p535
aa(lp536
S'appropriate'
p537
aa(lp538
S'faultless'
p539
aa(lp540
S'perfect'
p541
aasg15
(dp542
g17
g18
(g22
S'\x03\x058\x05\xda\xc7\xce?'
p543
tp544
Rp545
sg28
(lp546
(g537
g541
F0.9999950000249999
tp547
a(g537
g535
F0.9999900000999989
tp548
a(g537
g539
F0.501
tp549
a(g541
g535
F0.6
tp550
a(g541
g539
F0.8
tp551
a(g535
g539
F0.9999900000999989
tp552
assg3
F0.5
sg33
(lp553
(lp554
g537
aa(lp555
g541
aa(lp556
g535
aa(lp557
g539
aasg2
F0.0
ssI26
(dp558
g1
F-0.3333333333333333
sg7
(lp559
(lp560
S'graver'
p561
aa(lp562
S'critical'
p563
aa(lp564
S'life-threatening'
p565
aasg15
(dp566
g17
g18
(g22
S'\xa4\xd0\x8b#\x1c\x08\xe0?'
p567
tp568
Rp569
sg28
(lp570
(g563
g565
F0.9999900000999989
tp571
a(g563
g561
F0.9999900000999989
tp572
a(g565
g561
F0.501
tp573
assg3
F0.3333333333333333
sg33
(lp574
(lp575
g563
aa(lp576
g565
aa(lp577
g561
aasg2
F0.3333333333333333
ssI27
(dp578
g1
F1.0
sg7
(lp579
(lp580
S'odd'
p581
aa(lp582
S'bizarre'
p583
aasg15
(dp584
g17
g18
(g22
S'f4@\xf1\xff\xff\xef?'
p585
tp586
Rp587
sg28
(lp588
(g581
g583
F0.9999999725274733
tp589
assg3
F1.0
sg33
(lp590
(lp591
g581
aa(lp592
g583
aasg2
F1.0
ssI28
(dp593
g1
F1.0
sg7
(lp594
(lp595
S'unfortunate'
p596
aa(lp597
S'reprehensible'
p598
aasg15
(dp599
g17
g18
(g22
S')\xab\xa8\x83\xf5\xff\xef?'
p600
tp601
Rp602
sg28
(lp603
(g596
g598
F0.9999950000249999
tp604
assg3
F1.0
sg33
(lp605
(lp606
g596
aa(lp607
g598
aasg2
F1.0
ssI29
(dp608
g1
F0.3333333333333333
sg7
(lp609
(lp610
S'plenty'
p611
aa(lp612
S'vast'
p613
aa(lp614
S'abundant'
p615
aasg15
(dp616
g17
g18
(g22
S'\x84\xe4\x1b\x0c\xa0\x18\xc0?'
p617
tp618
Rp619
sg28
(lp620
(g613
g611
F0.501
tp621
a(g613
g615
F0.501
tp622
a(g611
g615
F0.501
tp623
assg3
F0.6666666666666666
sg33
(lp624
(lp625
g613
aa(lp626
g611
aa(lp627
g615
aasg2
F0.3333333333333333
ssI30
(dp628
g1
F1.0
sg7
(lp629
(lp630
S'pleased'
p631
aa(lp632
S'delighted'
p633
aasg15
(dp634
g17
g18
(g22
S'\x00\x00\x00\x00\x00\x00\xe8?'
p635
tp636
Rp637
sg28
(lp638
(g631
g633
F0.75
tp639
assg3
F1.0
sg33
(lp640
(lp641
g631
aa(lp642
g633
aasg2
F1.0
ssI31
(dp643
g1
F1.0
sg7
(lp644
(lp645
S'uncomfortable'
p646
aa(lp647
S'embarrassed'
p648
aasg15
(dp649
g17
g18
(g22
S'\xd5x\xe9&1\x08\xe0?'
p650
tp651
Rp652
sg28
(lp653
(g646
g648
F0.501
tp654
assg3
F1.0
sg33
(lp655
(lp656
g646
aa(lp657
g648
aasg2
F1.0
ssI32
(dp658
g1
F1.0
sg7
(lp659
(lp660
S'efficient'
p661
aa(lp662
S'optimum'
p663
aasg15
(dp664
g17
g18
(g22
S'\x835X\x07\xeb\xff\xef?'
p665
tp666
Rp667
sg28
(lp668
(g661
g663
F0.9999900000999989
tp669
assg3
F1.0
sg33
(lp670
(lp671
g661
aa(lp672
g663
aasg2
F1.0
ssI33
(dp673
g1
F1.0
sg7
(lp674
(lp675
S'satisfactory'
p676
aa(lp677
S'excellent'
p678
aasg15
(dp679
g17
g18
(g22
S')\xab\xa8\x83\xf5\xff\xef?'
p680
tp681
Rp682
sg28
(lp683
(g676
g678
F0.9999950000249999
tp684
assg3
F1.0
sg33
(lp685
(lp686
g676
aa(lp687
g678
aasg2
F1.0
ssI34
(dp688
g1
F-1.0
sg7
(lp689
(lp690
S'fine'
p691
aa(lp692
S'excellent'
p693
aasg15
(dp694
g17
g18
(g22
S']t\xd1E\x17]\xe4?'
p695
tp696
Rp697
sg28
(lp698
(g693
g691
F0.6363636363636364
tp699
assg3
F0.0
sg33
(lp700
(lp701
g693
aa(lp702
g691
aasg2
F1.0
ssI35
(dp703
g1
F1.0
sg7
(lp704
(lp705
S'appropriate'
p706
aa(lp707
S'excellent'
p708
aasg15
(dp709
g17
g18
(g22
S'\x835X\x07\xeb\xff\xef?'
p710
tp711
Rp712
sg28
(lp713
(g706
g708
F0.9999900000999989
tp714
assg3
F1.0
sg33
(lp715
(lp716
g706
aa(lp717
g708
aasg2
F1.0
ssI36
(dp718
g1
F1.0
sg7
(lp719
(lp720
S'clear'
p721
aa(lp722
S'prominent'
p723
aasg15
(dp724
g17
g18
(g22
S'\x835X\x07\xeb\xff\xef?'
p725
tp726
Rp727
sg28
(lp728
(g721
g723
F0.9999900000999989
tp729
assg3
F1.0
sg33
(lp730
(lp731
g721
aa(lp732
g723
aasg2
F1.0
ssI37
(dp733
g1
F-0.3333333333333333
sg7
(lp734
(lp735
S'tough'
p736
aa(lp737
S'formidable'
p738
aa(lp739
S'daunting'
p740
aasg15
(dp741
g17
g18
(g22
S'\x84\xe4\x1b\x0c\xa0\x18\xc0?'
p742
tp743
Rp744
sg28
(lp745
(g740
g736
F0.501
tp746
a(g740
g738
F0.501
tp747
a(g736
g738
F0.501
tp748
assg3
F0.3333333333333333
sg33
(lp749
(lp750
g740
aa(lp751
g736
aa(lp752
g738
aasg2
F0.3333333333333333
ssI38
(dp753
g1
F1.0
sg7
(lp754
(lp755
S'capable'
p756
aa(lp757
S'skilled'
p758
aasg15
(dp759
g17
g18
(g22
S'\x835X\x07\xeb\xff\xef?'
p760
tp761
Rp762
sg28
(lp763
(g756
g758
F0.9999900000999989
tp764
assg3
F1.0
sg33
(lp765
(lp766
g756
aa(lp767
g758
aasg2
F1.0
ssI39
(dp768
g1
F1.0
sg7
(lp769
(lp770
S'qualified'
p771
aa(lp772
S'proficient'
p773
aasg15
(dp774
g17
g18
(g22
S'\x835X\x07\xeb\xff\xef?'
p775
tp776
Rp777
sg28
(lp778
(g771
g773
F0.9999900000999989
tp779
assg3
F1.0
sg33
(lp780
(lp781
g771
aa(lp782
g773
aasg2
F1.0
ssI40
(dp783
g1
F1.0
sg7
(lp784
(lp785
S'capable'
p786
aa(lp787
S'skilled'
p788
aasg15
(dp789
g17
g18
(g22
S'\x835X\x07\xeb\xff\xef?'
p790
tp791
Rp792
sg28
(lp793
(g786
g788
F0.9999900000999989
tp794
assg3
F1.0
sg33
(lp795
(lp796
g786
aa(lp797
g788
aasg2
F1.0
ssI41
(dp798
g1
F1.0
sg7
(lp799
(lp800
S'qualified'
p801
aa(lp802
S'proficient'
p803
aasg15
(dp804
g17
g18
(g22
S'\x835X\x07\xeb\xff\xef?'
p805
tp806
Rp807
sg28
(lp808
(g801
g803
F0.9999900000999989
tp809
assg3
F1.0
sg33
(lp810
(lp811
g801
aa(lp812
g803
aasg2
F1.0
ssI42
(dp813
g1
F1.0
sg7
(lp814
(lp815
S'okay'
p816
aa(lp817
S'incredible'
p818
aasg15
(dp819
g17
g18
(g22
S'\x835X\x07\xeb\xff\xef?'
p820
tp821
Rp822
sg28
(lp823
(g816
g818
F0.9999900000999989
tp824
assg3
F1.0
sg33
(lp825
(lp826
g816
aa(lp827
g818
aasg2
F1.0
ssI43
(dp828
g1
F1.0
sg7
(lp829
(lp830
S'okay'
p831
aa(lp832
S'awesome'
p833
aasg15
(dp834
g17
g18
(g22
S')\xab\xa8\x83\xf5\xff\xef?'
p835
tp836
Rp837
sg28
(lp838
(g831
g833
F0.9999950000249999
tp839
assg3
F1.0
sg33
(lp840
(lp841
g831
aa(lp842
g833
aasg2
F1.0
ssI44
(dp843
g1
F1.0
sg7
(lp844
(lp845
S'okay'
p846
aa(lp847
S'terrific'
p848
aasg15
(dp849
g17
g18
(g22
S')\xab\xa8\x83\xf5\xff\xef?'
p850
tp851
Rp852
sg28
(lp853
(g846
g848
F0.9999950000249999
tp854
assg3
F1.0
sg33
(lp855
(lp856
g846
aa(lp857
g848
aasg2
F1.0
ssI45
(dp858
g1
F1.0
sg7
(lp859
(lp860
S'okay'
p861
aa(lp862
S'marvelous'
p863
aasg15
(dp864
g17
g18
(g22
S'\x835X\x07\xeb\xff\xef?'
p865
tp866
Rp867
sg28
(lp868
(g861
g863
F0.9999900000999989
tp869
assg3
F1.0
sg33
(lp870
(lp871
g861
aa(lp872
g863
aasg2
F1.0
ssI46
(dp873
g1
F1.0
sg7
(lp874
(lp875
S'awful'
p876
aa(lp877
S'shitty'
p878
aasg15
(dp879
g17
g18
(g22
S'\xd5x\xe9&1\x08\xe0?'
p880
tp881
Rp882
sg28
(lp883
(g876
g878
F0.501
tp884
assg3
F1.0
sg33
(lp885
(lp886
g876
aa(lp887
g878
aasg2
F1.0
ssI47
(dp888
g1
F-1.0
sg7
(lp889
(lp890
S'content'
p891
aa(lp892
S'pleased'
p893
aasg15
(dp894
g17
g18
(g22
S',R\x06\x9en\xcd\xef?'
p895
tp896
Rp897
sg28
(lp898
(g893
g891
F0.9938271604938271
tp899
assg3
F0.0
sg33
(lp900
(lp901
g893
aa(lp902
g891
aasg2
F1.0
ssI48
(dp903
g1
F-1.0
sg7
(lp904
(lp905
S'satisfied'
p906
aa(lp907
S'pleased'
p908
aasg15
(dp909
g17
g18
(g22
S'Y\xf7_o\x0c\xe6\xef?'
p910
tp911
Rp912
sg28
(lp913
(g908
g906
F0.996832101372756
tp914
assg3
F0.0
sg33
(lp915
(lp916
g908
aa(lp917
g906
aasg2
F1.0
ssI49
(dp918
g1
F-1.0
sg7
(lp919
(lp920
S'adequate'
p921
aa(lp922
S'good'
p923
aasg15
(dp924
g17
g18
(g22
S'333333\xe3?'
p925
tp926
Rp927
sg28
(lp928
(g923
g921
F0.6
tp929
assg3
F0.0
sg33
(lp930
(lp931
g923
aa(lp932
g921
aasg2
F1.0
ssI50
(dp933
g1
F1.0
sg7
(lp934
(lp935
S'fine'
p936
aa(lp937
S'good'
p938
aasg15
(dp939
g17
g18
(g22
S'\xde\x8a>n\x10k\xe2?'
p940
tp941
Rp942
sg28
(lp943
(g936
g938
F0.5755693581780539
tp944
assg3
F1.0
sg33
(lp945
(lp946
g936
aa(lp947
g938
aasg2
F1.0
ssI51
(dp948
g1
F-1.0
sg7
(lp949
(lp950
S'fitting'
p951
aa(lp952
S'good'
p953
aasg15
(dp954
g17
g18
(g22
S'\x835X\x07\xeb\xff\xef?'
p955
tp956
Rp957
sg28
(lp958
(g953
g951
F0.9999900000999989
tp959
assg3
F0.0
sg33
(lp960
(lp961
g953
aa(lp962
g951
aasg2
F1.0
ssI52
(dp963
g1
F1.0
sg7
(lp964
(lp965
S'poor'
p966
aa(lp967
S'indigent'
p968
aa(lp969
S'bankrupt'
p970
aasg15
(dp971
g17
g18
(g22
S'\x80\xb1d\xd6s\xef\xdf?'
p972
tp973
Rp974
sg28
(lp975
(g966
g968
F0.9999900000999989
tp976
a(g966
g970
F0.9999900000999989
tp977
a(g968
g970
F0.499
tp978
assg3
F1.0
sg33
(lp979
(lp980
g966
aa(lp981
g968
aa(lp982
g970
aasg2
F1.0
ssI53
(dp983
g1
F1.0
sg7
(lp984
(lp985
S'pretty'
p986
aa(lp987
S'marvellous'
p988
aasg15
(dp989
g17
g18
(g22
S')\xab\xa8\x83\xf5\xff\xef?'
p990
tp991
Rp992
sg28
(lp993
(g986
g988
F0.9999950000249999
tp994
assg3
F1.0
sg33
(lp995
(lp996
g986
aa(lp997
g988
aasg2
F1.0
ssI54
(dp998
g1
F1.0
sg7
(lp999
(lp1000
S'pretty'
p1001
aa(lp1002
S'breathtaking'
p1003
aasg15
(dp1004
g17
g18
(g22
S')\xab\xa8\x83\xf5\xff\xef?'
p1005
tp1006
Rp1007
sg28
(lp1008
(g1001
g1003
F0.9999950000249999
tp1009
assg3
F1.0
sg33
(lp1010
(lp1011
g1001
aa(lp1012
g1003
aasg2
F1.0
ssI55
(dp1013
g1
F1.0
sg7
(lp1014
(lp1015
S'pretty'
p1016
aa(lp1017
S'spectacular'
p1018
aasg15
(dp1019
g17
g18
(g22
S'\xc45%\xe1\xff\xff\xef?'
p1020
tp1021
Rp1022
sg28
(lp1023
(g1016
g1018
F0.9999999425287389
tp1024
assg3
F1.0
sg33
(lp1025
(lp1026
g1016
aa(lp1027
g1018
aasg2
F1.0
ssI56
(dp1028
g1
F1.0
sg7
(lp1029
(lp1030
S'considerable'
p1031
aa(lp1032
S'abundant'
p1033
aasg15
(dp1034
g17
g18
(g22
S'\x835X\x07\xeb\xff\xef?'
p1035
tp1036
Rp1037
sg28
(lp1038
(g1031
g1033
F0.9999900000999989
tp1039
assg3
F1.0
sg33
(lp1040
(lp1041
g1031
aa(lp1042
g1033
aasg2
F1.0
ssI57
(dp1043
g1
F1.0
sg7
(lp1044
(lp1045
S'fine'
p1046
aa(lp1047
S'remarkable'
p1048
aa(lp1049
S'impressive'
p1050
aasg15
(dp1051
g17
g18
(g22
S'\xf2\xf0T\xb8Wf\xe6?'
p1052
tp1053
Rp1054
sg28
(lp1055
(g1046
g1048
F0.9999950000249999
tp1056
a(g1046
g1050
F0.9999950000249999
tp1057
a(g1048
g1050
F0.7
tp1058
assg3
F1.0
sg33
(lp1059
(lp1060
g1046
aa(lp1061
g1048
aa(lp1062
g1050
aasg2
F1.0
ssI58
(dp1063
g1
F1.0
sg7
(lp1064
(lp1065
S'fine'
p1066
aa(lp1067
S'admirable'
p1068
aasg15
(dp1069
g17
g18
(g22
S')\xab\xa8\x83\xf5\xff\xef?'
p1070
tp1071
Rp1072
sg28
(lp1073
(g1066
g1068
F0.9999950000249999
tp1074
assg3
F1.0
sg33
(lp1075
(lp1076
g1066
aa(lp1077
g1068
aasg2
F1.0
ssI59
(dp1078
g1
F-1.0
sg7
(lp1079
(lp1080
S'fine'
p1081
aa(lp1082
S'upstanding'
p1083
aasg15
(dp1084
g17
g18
(g22
S'\x835X\x07\xeb\xff\xef?'
p1085
tp1086
Rp1087
sg28
(lp1088
(g1083
g1081
F0.9999900000999989
tp1089
assg3
F0.0
sg33
(lp1090
(lp1091
g1083
aa(lp1092
g1081
aasg2
F1.0
ssI60
(dp1093
g1
F1.0
sg7
(lp1094
(lp1095
S'bad'
p1096
aa(lp1097
S'distressing'
p1098
aasg15
(dp1099
g17
g18
(g22
S')\xab\xa8\x83\xf5\xff\xef?'
p1100
tp1101
Rp1102
sg28
(lp1103
(g1096
g1098
F0.9999950000249999
tp1104
assg3
F1.0
sg33
(lp1105
(lp1106
g1096
aa(lp1107
g1098
aasg2
F1.0
ssI61
(dp1108
g1
F1.0
sg7
(lp1109
(lp1110
S'much'
p1111
aa(lp1112
S'excessive'
p1113
aasg15
(dp1114
g17
g18
(g22
S'\x835X\x07\xeb\xff\xef?'
p1115
tp1116
Rp1117
sg28
(lp1118
(g1111
g1113
F0.9999900000999989
tp1119
assg3
F1.0
sg33
(lp1120
(lp1121
g1111
aa(lp1122
g1113
aasg2
F1.0
ssI62
(dp1123
g1
F1.0
sg7
(lp1124
(lp1125
S'much'
p1126
aa(lp1127
S'huge'
p1128
aasg15
(dp1129
g17
g18
(g22
S'\x835X\x07\xeb\xff\xef?'
p1130
tp1131
Rp1132
sg28
(lp1133
(g1126
g1128
F0.9999900000999989
tp1134
assg3
F1.0
sg33
(lp1135
(lp1136
g1126
aa(lp1137
g1128
aasg2
F1.0
ssI63
(dp1138
g1
F1.0
sg7
(lp1139
(lp1140
S'scary'
p1141
aa(lp1142
S'terrifying'
p1143
aasg15
(dp1144
g17
g18
(g22
S'UUUUUU\xe5?'
p1145
tp1146
Rp1147
sg28
(lp1148
(g1141
g1143
F0.6666666666666666
tp1149
assg3
F1.0
sg33
(lp1150
(lp1151
g1141
aa(lp1152
g1143
aasg2
F1.0
ssI64
(dp1153
g1
F1.0
sg7
(lp1154
(lp1155
S'frightening'
p1156
aa(lp1157
S'terrifying'
p1158
aasg15
(dp1159
g17
g18
(g22
S'`\xa0_\xa0_\xa0\xef?'
p1160
tp1161
Rp1162
sg28
(lp1163
(g1156
g1158
F0.9883268482490273
tp1164
assg3
F1.0
sg33
(lp1165
(lp1166
g1156
aa(lp1167
g1158
aasg2
F1.0
ssI65
(dp1168
g1
F-0.8
sg7
(lp1169
(lp1170
S'tough'
p1171
aa(lp1172
S'tougher'
p1173
aa(lp1174
S'rigorous'
p1175
aa(lp1176
S'stringent'
p1177
aa(lp1178
S'severe'
p1179
aasg15
(dp1180
g17
g18
(g22
S'Dd\x7f\xf8`\xa6\xd9?'
p1181
tp1182
Rp1183
sg28
(lp1184
(g1179
g1177
F0.501
tp1185
a(g1179
g1175
F0.9999900000999989
tp1186
a(g1179
g1171
F0.9999900000999989
tp1187
a(g1179
g1173
F0.9999950000249999
tp1188
a(g1177
g1175
F0.8
tp1189
a(g1177
g1171
F0.9999950000249999
tp1190
a(g1177
g1173
F0.9999950000249999
tp1191
a(g1175
g1171
F0.9999950000249999
tp1192
a(g1175
g1173
F0.9999900000999989
tp1193
a(g1171
g1173
F0.9999999874529487
tp1194
assg3
F0.1
sg33
(lp1195
(lp1196
g1179
aa(lp1197
g1177
aa(lp1198
g1175
aa(lp1199
g1171
aa(lp1200
g1173
aasg2
F0.8
ssI66
(dp1201
g1
F1.0
sg7
(lp1202
(lp1203
S'low'
p1204
aa(lp1205
S'limited'
p1206
aa(lp1207
S'scarce'
p1208
aasg15
(dp1209
g17
g18
(g22
S'\x9c\x05G\x8b$\x08\xe0?'
p1210
tp1211
Rp1212
sg28
(lp1213
(g1204
g1206
F0.501
tp1214
a(g1204
g1208
F0.9999900000999989
tp1215
a(g1206
g1208
F0.9999980000040001
tp1216
assg3
F1.0
sg33
(lp1217
(lp1218
g1204
aa(lp1219
g1206
aa(lp1220
g1208
aasg2
F1.0
ssI67
(dp1221
g1
F1.0
sg7
(lp1222
(lp1223
S'good'
p1224
aa(lp1225
S'better'
p1226
aa(lp1227
S'remarkable'
p1228
aa(lp1229
S'exceptional'
p1230
aa(lp1231
S'perfect'
p1232
aasg15
(dp1233
g17
g18
(g22
S'\xe2\xc3<\xbd-W\xa9?'
p1234
tp1235
Rp1236
sg28
(lp1237
(g1224
g1226
F0.8870207416719045
tp1238
a(g1224
g1228
F0.9999999808795416
tp1239
a(g1224
g1230
F0.999999998977296
tp1240
a(g1224
g1232
F0.9806916426512968
tp1241
a(g1226
g1228
F0.501
tp1242
a(g1226
g1230
F0.501
tp1243
a(g1226
g1232
F0.9067071798334458
tp1244
a(g1228
g1230
F0.9999975000062501
tp1245
a(g1228
g1232
F0.499
tp1246
a(g1230
g1232
F0.501
tp1247
assg3
F1.0
sg33
(lp1248
(lp1249
g1224
aa(lp1250
g1226
aa(lp1251
g1228
aa(lp1252
g1230
aa(lp1253
g1232
aasg2
F1.0
ssI68
(dp1254
g1
F1.0
sg7
(lp1255
(lp1256
S'few'
p1257
aa(lp1258
S'least'
p1259
aasg15
(dp1260
g17
g18
(g22
S'\x835X\x07\xeb\xff\xef?'
p1261
tp1262
Rp1263
sg28
(lp1264
(g1257
g1259
F0.9999900000999989
tp1265
assg3
F1.0
sg33
(lp1266
(lp1267
g1257
aa(lp1268
g1259
aasg2
F1.0
ssI69
(dp1269
g1
F1.0
sg7
(lp1270
(lp1271
S'little'
p1272
aa(lp1273
S'least'
p1274
aasg15
(dp1275
g17
g18
(g22
S'UUUUUU\xe5?'
p1276
tp1277
Rp1278
sg28
(lp1279
(g1272
g1274
F0.6666666666666666
tp1280
assg3
F1.0
sg33
(lp1281
(lp1282
g1272
aa(lp1283
g1274
aasg2
F1.0
ssI70
(dp1284
g1
F1.0
sg7
(lp1285
(lp1286
S'unhappy'
p1287
aa(lp1288
S'miserable'
p1289
aasg15
(dp1290
g17
g18
(g22
S')\xab\xa8\x83\xf5\xff\xef?'
p1291
tp1292
Rp1293
sg28
(lp1294
(g1287
g1289
F0.9999950000249999
tp1295
assg3
F1.0
sg33
(lp1296
(lp1297
g1287
aa(lp1298
g1289
aasg2
F1.0
ssI71
(dp1299
g1
F1.0
sg7
(lp1300
(lp1301
S'sad'
p1302
aa(lp1303
S'miserable'
p1304
aasg15
(dp1305
g17
g18
(g22
S'\x19/!\xe7\xfd\xff\xef?'
p1306
tp1307
Rp1308
sg28
(lp1309
(g1302
g1304
F0.9999990000010001
tp1310
assg3
F1.0
sg33
(lp1311
(lp1312
g1302
aa(lp1313
g1304
aasg2
F1.0
ssI72
(dp1314
g1
F1.0
sg7
(lp1315
(lp1316
S'competent'
p1317
aa(lp1318
S'impressive'
p1319
aasg15
(dp1320
g17
g18
(g22
S'\x835X\x07\xeb\xff\xef?'
p1321
tp1322
Rp1323
sg28
(lp1324
(g1317
g1319
F0.9999900000999989
tp1325
assg3
F1.0
sg33
(lp1326
(lp1327
g1317
aa(lp1328
g1319
aasg2
F1.0
ssI73
(dp1329
g1
F1.0
sg7
(lp1330
(lp1331
S'relevant'
p1332
aa(lp1333
S'crucial'
p1334
aasg15
(dp1335
g17
g18
(g22
S')\xab\xa8\x83\xf5\xff\xef?'
p1336
tp1337
Rp1338
sg28
(lp1339
(g1332
g1334
F0.9999950000249999
tp1340
assg3
F1.0
sg33
(lp1341
(lp1342
g1332
aa(lp1343
g1334
aasg2
F1.0
ssI74
(dp1344
g1
F1.0
sg7
(lp1345
(lp1346
S'effective'
p1347
aa(lp1348
S'potent'
p1349
aasg15
(dp1350
g17
g18
(g22
S')\xab\xa8\x83\xf5\xff\xef?'
p1351
tp1352
Rp1353
sg28
(lp1354
(g1347
g1349
F0.9999950000249999
tp1355
assg3
F1.0
sg33
(lp1356
(lp1357
g1347
aa(lp1358
g1349
aasg2
F1.0
ssI75
(dp1359
g1
F0.6
sg7
(lp1360
(lp1361
S'general'
p1362
aa(lp1363
S'broad'
p1364
aa(lp1365
S'broader'
p1366
aa(lp1367
S'wide-ranging'
p1368
aa(lp1369
S'diverse'
p1370
aasg15
(dp1371
g17
g18
(g22
S'\xbeq\x12K\r1\xa8?'
p1372
tp1373
Rp1374
sg28
(lp1375
(g1362
g1364
F0.501
tp1376
a(g1362
g1370
F0.501
tp1377
a(g1362
g1366
F0.9999900000999989
tp1378
a(g1362
g1368
F0.501
tp1379
a(g1364
g1370
F0.501
tp1380
a(g1364
g1366
F0.9999900000999989
tp1381
a(g1364
g1368
F0.75
tp1382
a(g1370
g1366
F0.9999950000249999
tp1383
a(g1370
g1368
F0.9999950000249999
tp1384
a(g1366
g1368
F0.9999900000999989
tp1385
assg3
F0.8
sg33
(lp1386
(lp1387
g1362
aa(lp1388
g1364
aa(lp1389
g1370
aa(lp1390
g1366
aa(lp1391
g1368
aasg2
F0.6
ssI76
(dp1392
g1
F0.3333333333333333
sg7
(lp1393
(lp1394
S'costly'
p1395
aa(lp1396
S'expensive'
p1397
aa(lp1398
S'excessive'
p1399
aasg15
(dp1400
g17
g18
(g22
S'\xd7$\xe1\xa2\x12\xe7\xd6?'
p1401
tp1402
Rp1403
sg28
(lp1404
(g1397
g1395
F0.7142857142857143
tp1405
a(g1397
g1399
F0.9999900000999989
tp1406
a(g1395
g1399
F0.501
tp1407
assg3
F0.6666666666666666
sg33
(lp1408
(lp1409
g1397
aa(lp1410
g1395
aa(lp1411
g1399
aasg2
F0.3333333333333333
ssI77
(dp1412
g1
F0.3333333333333333
sg7
(lp1413
(lp1414
S'costly'
p1415
aa(lp1416
S'expensive'
p1417
aa(lp1418
S'exorbitant'
p1419
aasg15
(dp1420
g17
g18
(g22
S'h}\x84:c\xdb\xe6?'
p1421
tp1422
Rp1423
sg28
(lp1424
(g1417
g1415
F0.7142857142857143
tp1425
a(g1417
g1419
F0.9999980000040001
tp1426
a(g1415
g1419
F0.9999950000249999
tp1427
assg3
F0.6666666666666666
sg33
(lp1428
(lp1429
g1417
aa(lp1430
g1415
aa(lp1431
g1419
aasg2
F0.3333333333333333
ssI78
(dp1432
g1
F1.0
sg7
(lp1433
(lp1434
S'big'
p1435
aa(lp1436
S'substantial'
p1437
aa(lp1438
S'tremendous'
p1439
aasg15
(dp1440
g17
g18
(g22
S'%\x98@\x03LU\xe5?'
p1441
tp1442
Rp1443
sg28
(lp1444
(g1435
g1437
F0.6666666666666666
tp1445
a(g1435
g1439
F0.9999966666777778
tp1446
a(g1437
g1439
F0.9999966666777778
tp1447
assg3
F1.0
sg33
(lp1448
(lp1449
g1435
aa(lp1450
g1437
aa(lp1451
g1439
aasg2
F1.0
ssI79
(dp1452
g1
F1.0
sg7
(lp1453
(lp1454
S'big'
p1455
aa(lp1456
S'major'
p1457
aa(lp1458
S'staggering'
p1459
aasg15
(dp1460
g17
g18
(g22
S'\x10\xa4\xa8,\xfb<\xd3?'
p1461
tp1462
Rp1463
sg28
(lp1464
(g1455
g1457
F0.6
tp1465
a(g1455
g1459
F0.9999900000999989
tp1466
a(g1457
g1459
F0.501
tp1467
assg3
F1.0
sg33
(lp1468
(lp1469
g1455
aa(lp1470
g1457
aa(lp1471
g1459
aasg2
F1.0
ssI80
(dp1472
g1
F1.0
sg7
(lp1473
(lp1474
S'big'
p1475
aa(lp1476
S'substantial'
p1477
aa(lp1478
S'tremendous'
p1479
aasg15
(dp1480
g17
g18
(g22
S'%\x98@\x03LU\xe5?'
p1481
tp1482
Rp1483
sg28
(lp1484
(g1475
g1477
F0.6666666666666666
tp1485
a(g1475
g1479
F0.9999966666777778
tp1486
a(g1477
g1479
F0.9999966666777778
tp1487
assg3
F1.0
sg33
(lp1488
(lp1489
g1475
aa(lp1490
g1477
aa(lp1491
g1479
aasg2
F1.0
ssI81
(dp1492
g1
F1.0
sg7
(lp1493
(lp1494
S'big'
p1495
aa(lp1496
S'major'
p1497
aa(lp1498
S'staggering'
p1499
aasg15
(dp1500
g17
g18
(g22
S'\x10\xa4\xa8,\xfb<\xd3?'
p1501
tp1502
Rp1503
sg28
(lp1504
(g1495
g1497
F0.6
tp1505
a(g1495
g1499
F0.9999900000999989
tp1506
a(g1497
g1499
F0.501
tp1507
assg3
F1.0
sg33
(lp1508
(lp1509
g1495
aa(lp1510
g1497
aa(lp1511
g1499
aasg2
F1.0
ssI82
(dp1512
g1
F0.6
sg7
(lp1513
(lp1514
S'sizeable'
p1515
aa(lp1516
S'huge'
p1517
aa(lp1518
S'major'
p1519
aa(lp1520
S'immense'
p1521
aa(lp1522
S'colossal'
p1523
aasg15
(dp1524
g17
g18
(g22
S'Dk\xd2tp\x18\xc0?'
p1525
tp1526
Rp1527
sg28
(lp1528
(g1519
g1515
F0.9999900000999989
tp1529
a(g1519
g1517
F0.9999900000999989
tp1530
a(g1519
g1521
F0.9999900000999989
tp1531
a(g1519
g1523
F0.9999900000999989
tp1532
a(g1515
g1517
F0.9999999418604685
tp1533
a(g1515
g1521
F0.501
tp1534
a(g1515
g1523
F0.501
tp1535
a(g1517
g1521
F0.9999950000249999
tp1536
a(g1517
g1523
F0.9999999418604685
tp1537
a(g1521
g1523
F0.501
tp1538
assg3
F0.8
sg33
(lp1539
(lp1540
g1519
aa(lp1541
g1515
aa(lp1542
g1517
aa(lp1543
g1521
aa(lp1544
g1523
aasg2
F0.6
ssI83
(dp1545
g1
F0.4
sg7
(lp1546
(lp1547
S'sizeable'
p1548
aa(lp1549
S'huge'
p1550
aa(lp1551
S'major'
p1552
aa(lp1553
S'formidable'
p1554
aa(lp1555
S'overwhelming'
p1556
aasg15
(dp1557
g17
g18
(g22
S'\xf0\x1f\xeb:k\x18\xc0?'
p1558
tp1559
Rp1560
sg28
(lp1561
(g1552
g1548
F0.9999900000999989
tp1562
a(g1552
g1550
F0.9999900000999989
tp1563
a(g1552
g1556
F0.9999900000999989
tp1564
a(g1552
g1554
F0.9999900000999989
tp1565
a(g1548
g1550
F0.9999999418604685
tp1566
a(g1548
g1556
F0.501
tp1567
a(g1548
g1554
F0.501
tp1568
a(g1550
g1556
F0.9999999872935199
tp1569
a(g1550
g1554
F0.9999900000999989
tp1570
a(g1556
g1554
F0.501
tp1571
assg3
F0.7
sg33
(lp1572
(lp1573
g1552
aa(lp1574
g1548
aa(lp1575
g1550
aa(lp1576
g1556
aa(lp1577
g1554
aasg2
F0.4
ssI84
(dp1578
g1
F0.4
sg7
(lp1579
(lp1580
S'sizeable'
p1581
aa(lp1582
S'huge'
p1583
aa(lp1584
S'major'
p1585
aa(lp1586
S'immense'
p1587
aa(lp1588
S'tremendous'
p1589
aasg15
(dp1590
g17
g18
(g22
S"?*\xd7E'\x10\xd0?"
p1591
tp1592
Rp1593
sg28
(lp1594
(g1585
g1581
F0.9999900000999989
tp1595
a(g1585
g1583
F0.9999900000999989
tp1596
a(g1585
g1589
F0.9999900000999989
tp1597
a(g1585
g1587
F0.9999900000999989
tp1598
a(g1581
g1583
F0.9999999418604685
tp1599
a(g1581
g1589
F0.9999900000999989
tp1600
a(g1581
g1587
F0.501
tp1601
a(g1583
g1589
F0.9999950000249999
tp1602
a(g1583
g1587
F0.9999950000249999
tp1603
a(g1589
g1587
F0.501
tp1604
assg3
F0.7
sg33
(lp1605
(lp1606
g1585
aa(lp1607
g1581
aa(lp1608
g1583
aa(lp1609
g1589
aa(lp1610
g1587
aasg2
F0.4
ssI85
(dp1611
g1
F0.6
sg7
(lp1612
(lp1613
S'sizeable'
p1614
aa(lp1615
S'huge'
p1616
aa(lp1617
S'major'
p1618
aa(lp1619
S'formidable'
p1620
aa(lp1621
S'colossal'
p1622
aasg15
(dp1623
g17
g18
(g22
S'M`\xa6.k\x18\xc0?'
p1624
tp1625
Rp1626
sg28
(lp1627
(g1618
g1614
F0.9999900000999989
tp1628
a(g1618
g1616
F0.9999900000999989
tp1629
a(g1618
g1620
F0.9999900000999989
tp1630
a(g1618
g1622
F0.9999900000999989
tp1631
a(g1614
g1616
F0.9999999418604685
tp1632
a(g1614
g1620
F0.501
tp1633
a(g1614
g1622
F0.501
tp1634
a(g1616
g1620
F0.9999900000999989
tp1635
a(g1616
g1622
F0.9999999418604685
tp1636
a(g1620
g1622
F0.501
tp1637
assg3
F0.8
sg33
(lp1638
(lp1639
g1618
aa(lp1640
g1614
aa(lp1641
g1616
aa(lp1642
g1620
aa(lp1643
g1622
aasg2
F0.6
ssI86
(dp1644
g1
F0.4
sg7
(lp1645
(lp1646
S'sizeable'
p1647
aa(lp1648
S'huge'
p1649
aa(lp1650
S'major'
p1651
aa(lp1652
S'immense'
p1653
aa(lp1654
S'overwhelming'
p1655
aasg15
(dp1656
g17
g18
(g22
S'\xa5X\x97\x98\xfd\x07\xc0?'
p1657
tp1658
Rp1659
sg28
(lp1660
(g1651
g1647
F0.9999900000999989
tp1661
a(g1651
g1649
F0.9999900000999989
tp1662
a(g1651
g1655
F0.9999900000999989
tp1663
a(g1651
g1653
F0.9999900000999989
tp1664
a(g1647
g1649
F0.9999999418604685
tp1665
a(g1647
g1655
F0.501
tp1666
a(g1647
g1653
F0.501
tp1667
a(g1649
g1655
F0.9999999872935199
tp1668
a(g1649
g1653
F0.9999950000249999
tp1669
a(g1655
g1653
F0.499
tp1670
assg3
F0.7
sg33
(lp1671
(lp1672
g1651
aa(lp1673
g1647
aa(lp1674
g1649
aa(lp1675
g1655
aa(lp1676
g1653
aasg2
F0.4
ssI87
(dp1677
g1
F0.6
sg7
(lp1678
(lp1679
S'sizeable'
p1680
aa(lp1681
S'huge'
p1682
aa(lp1683
S'major'
p1684
aa(lp1685
S'formidable'
p1686
aa(lp1687
S'tremendous'
p1688
aasg15
(dp1689
g17
g18
(g22
S'\x88f4K\xe2\x07\xe0?'
p1690
tp1691
Rp1692
sg28
(lp1693
(g1684
g1680
F0.9999900000999989
tp1694
a(g1684
g1682
F0.9999900000999989
tp1695
a(g1684
g1686
F0.9999900000999989
tp1696
a(g1684
g1688
F0.9999900000999989
tp1697
a(g1680
g1682
F0.9999999418604685
tp1698
a(g1680
g1686
F0.501
tp1699
a(g1680
g1688
F0.9999900000999989
tp1700
a(g1682
g1686
F0.9999900000999989
tp1701
a(g1682
g1688
F0.9999950000249999
tp1702
a(g1686
g1688
F0.9999900000999989
tp1703
assg3
F0.8
sg33
(lp1704
(lp1705
g1684
aa(lp1706
g1680
aa(lp1707
g1682
aa(lp1708
g1686
aa(lp1709
g1688
aasg2
F0.6
ssI88
(dp1710
g1
F-0.3333333333333333
sg7
(lp1711
(lp1712
S'fine'
p1713
aa(lp1714
S'terrific'
p1715
aa(lp1716
S'perfect'
p1717
aasg15
(dp1718
g17
g18
(g22
S'{\x99zl\xcb\xcc\xe0?'
p1719
tp1720
Rp1721
sg28
(lp1722
(g1717
g1713
F0.6
tp1723
a(g1717
g1715
F0.875
tp1724
a(g1713
g1715
F0.9999987500015626
tp1725
assg3
F0.3333333333333333
sg33
(lp1726
(lp1727
g1717
aa(lp1728
g1713
aa(lp1729
g1715
aasg2
F0.3333333333333333
ssI89
(dp1730
g1
F1.0
sg7
(lp1731
(lp1732
S'well'
p1733
aa(lp1734
S'awesome'
p1735
aa(lp1736
S'perfect'
p1737
aasg15
(dp1738
g17
g18
(g22
S'\x0f\xfa\xd5\x92/\xef\xef?'
p1739
tp1740
Rp1741
sg28
(lp1742
(g1733
g1735
F0.9999966666777778
tp1743
a(g1733
g1737
F0.9999999963490325
tp1744
a(g1735
g1737
F0.9979508196721312
tp1745
assg3
F1.0
sg33
(lp1746
(lp1747
g1733
aa(lp1748
g1735
aa(lp1749
g1737
aasg2
F1.0
ssI90
(dp1750
g1
F-0.3333333333333333
sg7
(lp1751
(lp1752
S'fine'
p1753
aa(lp1754
S'terrific'
p1755
aa(lp1756
S'perfect'
p1757
aasg15
(dp1758
g17
g18
(g22
S'{\x99zl\xcb\xcc\xe0?'
p1759
tp1760
Rp1761
sg28
(lp1762
(g1757
g1753
F0.6
tp1763
a(g1757
g1755
F0.875
tp1764
a(g1753
g1755
F0.9999987500015626
tp1765
assg3
F0.3333333333333333
sg33
(lp1766
(lp1767
g1757
aa(lp1768
g1753
aa(lp1769
g1755
aasg2
F0.3333333333333333
ssI91
(dp1770
g1
F1.0
sg7
(lp1771
(lp1772
S'well'
p1773
aa(lp1774
S'awesome'
p1775
aa(lp1776
S'perfect'
p1777
aasg15
(dp1778
g17
g18
(g22
S'\x0f\xfa\xd5\x92/\xef\xef?'
p1779
tp1780
Rp1781
sg28
(lp1782
(g1773
g1775
F0.9999966666777778
tp1783
a(g1773
g1777
F0.9999999963490325
tp1784
a(g1775
g1777
F0.9979508196721312
tp1785
assg3
F1.0
sg33
(lp1786
(lp1787
g1773
aa(lp1788
g1775
aa(lp1789
g1777
aasg2
F1.0
ssI92
(dp1790
g1
F1.0
sg7
(lp1791
(lp1792
S'little'
p1793
aa(lp1794
S'feeble'
p1795
aasg15
(dp1796
g17
g18
(g22
S'\x835X\x07\xeb\xff\xef?'
p1797
tp1798
Rp1799
sg28
(lp1800
(g1793
g1795
F0.9999900000999989
tp1801
assg3
F1.0
sg33
(lp1802
(lp1803
g1793
aa(lp1804
g1795
aasg2
F1.0
ssI93
(dp1805
g1
F-1.0
sg7
(lp1806
(lp1807
S'improper'
p1808
aa(lp1809
S'incorrect'
p1810
aasg15
(dp1811
g17
g18
(g22
S'\xd5x\xe9&1\x08\xe0?'
p1812
tp1813
Rp1814
sg28
(lp1815
(g1810
g1808
F0.501
tp1816
assg3
F0.0
sg33
(lp1817
(lp1818
g1810
aa(lp1819
g1808
aasg2
F1.0
ssI94
(dp1820
g1
F1.0
sg7
(lp1821
(lp1822
S'poor'
p1823
aa(lp1824
S'unsatisfactory'
p1825
aasg15
(dp1826
g17
g18
(g22
S'\x835X\x07\xeb\xff\xef?'
p1827
tp1828
Rp1829
sg28
(lp1830
(g1823
g1825
F0.9999900000999989
tp1831
assg3
F1.0
sg33
(lp1832
(lp1833
g1823
aa(lp1834
g1825
aasg2
F1.0
ssI95
(dp1835
g1
F-1.0
sg7
(lp1836
(lp1837
S'improper'
p1838
aa(lp1839
S'incorrect'
p1840
aasg15
(dp1841
g17
g18
(g22
S'\xd5x\xe9&1\x08\xe0?'
p1842
tp1843
Rp1844
sg28
(lp1845
(g1840
g1838
F0.501
tp1846
assg3
F0.0
sg33
(lp1847
(lp1848
g1840
aa(lp1849
g1838
aasg2
F1.0
ssI96
(dp1850
g1
F1.0
sg7
(lp1851
(lp1852
S'poor'
p1853
aa(lp1854
S'unsatisfactory'
p1855
aasg15
(dp1856
g17
g18
(g22
S'\x835X\x07\xeb\xff\xef?'
p1857
tp1858
Rp1859
sg28
(lp1860
(g1853
g1855
F0.9999900000999989
tp1861
assg3
F1.0
sg33
(lp1862
(lp1863
g1853
aa(lp1864
g1855
aasg2
F1.0
ssI97
(dp1865
g1
F1.0
sg7
(lp1866
(lp1867
S'unusual'
p1868
aa(lp1869
S'rare'
p1870
aasg15
(dp1871
g17
g18
(g22
S'\xde\xa7\xb8d\x08\xd6\xe3?'
p1872
tp1873
Rp1874
sg28
(lp1875
(g1868
g1870
F0.6198770491803278
tp1876
assg3
F1.0
sg33
(lp1877
(lp1878
g1868
aa(lp1879
g1870
aasg2
F1.0
ssI98
(dp1880
g1
F0.6666666666666666
sg7
(lp1881
(lp1882
S'sizeable'
p1883
aa(lp1884
S'big'
p1885
aa(lp1886
S'huge'
p1887
aa(lp1888
S'immense'
p1889
aasg15
(dp1890
g17
g18
(g22
S'?td\x99\xd4\x05\xe0?'
p1891
tp1892
Rp1893
sg28
(lp1894
(g1885
g1883
F0.9999900000999989
tp1895
a(g1885
g1887
F0.9994416527079844
tp1896
a(g1885
g1889
F0.9999980000040001
tp1897
a(g1883
g1887
F0.9999999418604685
tp1898
a(g1883
g1889
F0.501
tp1899
a(g1887
g1889
F0.9999950000249999
tp1900
assg3
F0.8333333333333334
sg33
(lp1901
(lp1902
g1885
aa(lp1903
g1883
aa(lp1904
g1887
aa(lp1905
g1889
aasg2
F0.6666666666666666
ssI99
(dp1906
g1
F0.3333333333333333
sg7
(lp1907
(lp1908
S'sizeable'
p1909
aa(lp1910
S'big'
p1911
aa(lp1912
S'huge'
p1913
aa(lp1914
S'enormous'
p1915
aasg15
(dp1916
g17
g18
(g22
S't,\x9a\xd9\xb7\xa6\xda?'
p1917
tp1918
Rp1919
sg28
(lp1920
(g1911
g1909
F0.9999900000999989
tp1921
a(g1911
g1915
F0.625
tp1922
a(g1911
g1913
F0.9994416527079844
tp1923
a(g1909
g1915
F0.9999900000999989
tp1924
a(g1909
g1913
F0.9999999418604685
tp1925
a(g1915
g1913
F0.6666666666666666
tp1926
assg3
F0.6666666666666666
sg33
(lp1927
(lp1928
g1911
aa(lp1929
g1909
aa(lp1930
g1915
aa(lp1931
g1913
aasg2
F0.3333333333333333
ssI100
(dp1932
g1
F0.6666666666666666
sg7
(lp1933
(lp1934
S'sizeable'
p1935
aa(lp1936
S'big'
p1937
aa(lp1938
S'huge'
p1939
aa(lp1940
S'tremendous'
p1941
aasg15
(dp1942
g17
g18
(g22
S'\x90~\xd0\x8d1\xfb\xef?'
p1943
tp1944
Rp1945
sg28
(lp1946
(g1937
g1935
F0.9999900000999989
tp1947
a(g1937
g1939
F0.9994416527079844
tp1948
a(g1937
g1941
F0.9999966666777778
tp1949
a(g1935
g1939
F0.9999999418604685
tp1950
a(g1935
g1941
F0.9999900000999989
tp1951
a(g1939
g1941
F0.9999950000249999
tp1952
assg3
F0.8333333333333334
sg33
(lp1953
(lp1954
g1937
aa(lp1955
g1935
aa(lp1956
g1939
aa(lp1957
g1941
aasg2
F0.6666666666666666
ssI101
(dp1958
g1
F-0.3333333333333333
sg7
(lp1959
(lp1960
S'weak'
p1961
aa(lp1962
S'shaky'
p1963
aa(lp1964
S'vulnerable'
p1965
aasg15
(dp1966
g17
g18
(g22
S'\xe6\xcfEh\xe8\xff\xe7?'
p1967
tp1968
Rp1969
sg28
(lp1970
(g1965
g1961
F0.75
tp1971
a(g1965
g1963
F0.9999950000249999
tp1972
a(g1961
g1963
F0.9999900000999989
tp1973
assg3
F0.3333333333333333
sg33
(lp1974
(lp1975
g1965
aa(lp1976
g1961
aa(lp1977
g1963
aasg2
F0.3333333333333333
ssI102
(dp1978
g1
F0.3333333333333333
sg7
(lp1979
(lp1980
S'few'
p1981
aa(lp1982
S'limited'
p1983
aa(lp1984
S'scant'
p1985
aasg15
(dp1986
g17
g18
(g22
S'\x90)~\x99\xfd\x9c\xda?'
p1987
tp1988
Rp1989
sg28
(lp1990
(g1983
g1981
F0.8333333333333334
tp1991
a(g1983
g1985
F0.499
tp1992
a(g1981
g1985
F0.9999966666777778
tp1993
assg3
F0.6666666666666666
sg33
(lp1994
(lp1995
g1983
aa(lp1996
g1981
aa(lp1997
g1985
aasg2
F0.3333333333333333
ssI103
(dp1998
g1
F0.3333333333333333
sg7
(lp1999
(lp2000
S'few'
p2001
aa(lp2002
S'limited'
p2003
aa(lp2004
S'meagre'
p2005
aasg15
(dp2006
g17
g18
(g22
S'\x90)~\x99\xfd\x9c\xda?'
p2007
tp2008
Rp2009
sg28
(lp2010
(g2003
g2001
F0.8333333333333334
tp2011
a(g2003
g2005
F0.499
tp2012
a(g2001
g2005
F0.9999966666777778
tp2013
assg3
F0.6666666666666666
sg33
(lp2014
(lp2015
g2003
aa(lp2016
g2001
aa(lp2017
g2005
aasg2
F0.3333333333333333
ssI104
(dp2018
g1
F1.0
sg7
(lp2019
(lp2020
S'small'
p2021
aa(lp2022
S'minute'
p2023
aa(lp2024
S'miniscule'
p2025
aasg15
(dp2026
g17
g18
(g22
S'a\x95\xe3\xe2+\x08\xe0?'
p2027
tp2028
Rp2029
sg28
(lp2030
(g2021
g2023
F0.9999999882214372
tp2031
a(g2021
g2025
F0.9999950000249999
tp2032
a(g2023
g2025
F0.501
tp2033
assg3
F1.0
sg33
(lp2034
(lp2035
g2021
aa(lp2036
g2023
aa(lp2037
g2025
aasg2
F1.0
ssI105
(dp2038
g1
F1.0
sg7
(lp2039
(lp2040
S'general'
p2041
aa(lp2042
S'comprehensive'
p2043
aasg15
(dp2044
g17
g18
(g22
S'\xd5x\xe9&1\x08\xe0?'
p2045
tp2046
Rp2047
sg28
(lp2048
(g2041
g2043
F0.501
tp2049
assg3
F1.0
sg33
(lp2050
(lp2051
g2041
aa(lp2052
g2043
aasg2
F1.0
ssI106
(dp2053
g1
F1.0
sg7
(lp2054
(lp2055
S'commonplace'
p2056
aa(lp2057
S'universal'
p2058
aasg15
(dp2059
g17
g18
(g22
S'\xd5x\xe9&1\x08\xe0?'
p2060
tp2061
Rp2062
sg28
(lp2063
(g2056
g2058
F0.501
tp2064
assg3
F1.0
sg33
(lp2065
(lp2066
g2056
aa(lp2067
g2058
aasg2
F1.0
ssI107
(dp2068
g1
F1.0
sg7
(lp2069
(lp2070
S'general'
p2071
aa(lp2072
S'global'
p2073
aasg15
(dp2074
g17
g18
(g22
S')\xab\xa8\x83\xf5\xff\xef?'
p2075
tp2076
Rp2077
sg28
(lp2078
(g2071
g2073
F0.9999950000249999
tp2079
assg3
F1.0
sg33
(lp2080
(lp2081
g2071
aa(lp2082
g2073
aasg2
F1.0
ssI108
(dp2083
g1
F1.0
sg7
(lp2084
(lp2085
S'commonplace'
p2086
aa(lp2087
S'comprehensive'
p2088
aasg15
(dp2089
g17
g18
(g22
S'\xd5x\xe9&1\x08\xe0?'
p2090
tp2091
Rp2092
sg28
(lp2093
(g2086
g2088
F0.501
tp2094
assg3
F1.0
sg33
(lp2095
(lp2096
g2086
aa(lp2097
g2088
aasg2
F1.0
ssI109
(dp2098
g1
F1.0
sg7
(lp2099
(lp2100
S'general'
p2101
aa(lp2102
S'universal'
p2103
aasg15
(dp2104
g17
g18
(g22
S'\xbc8\xf2\x1cBw\xee?'
p2105
tp2106
Rp2107
sg28
(lp2108
(g2101
g2103
F0.9520578923563998
tp2109
assg3
F1.0
sg33
(lp2110
(lp2111
g2101
aa(lp2112
g2103
aasg2
F1.0
ssI110
(dp2113
g1
F1.0
sg7
(lp2114
(lp2115
S'commonplace'
p2116
aa(lp2117
S'global'
p2118
aasg15
(dp2119
g17
g18
(g22
S'\xd5x\xe9&1\x08\xe0?'
p2120
tp2121
Rp2122
sg28
(lp2123
(g2116
g2118
F0.501
tp2124
assg3
F1.0
sg33
(lp2125
(lp2126
g2116
aa(lp2127
g2118
aasg2
F1.0
ssI111
(dp2128
g1
F1.0
sg7
(lp2129
(lp2130
S'awful'
p2131
aa(lp2132
S'dreadful'
p2133
aasg15
(dp2134
g17
g18
(g22
S'\xde\x85\xe9`\xfd\xff\xef?'
p2135
tp2136
Rp2137
sg28
(lp2138
(g2131
g2133
F0.9999987500015626
tp2139
assg3
F1.0
sg33
(lp2140
(lp2141
g2131
aa(lp2142
g2133
aasg2
F1.0
ssI112
(dp2143
g1
F0.0
sg7
(lp2144
(lp2145
S'low'
p2146
aa(lp2147
S'scarce'
p2148
aa(lp2149
S'inadequate'
p2150
aa(lp2151
S'unacceptable'
p2152
aasg15
(dp2153
g17
g18
(g22
S'B>u\x89V\xef\xbf?'
p2154
tp2155
Rp2156
sg28
(lp2157
(g2150
g2146
F0.9999900000999989
tp2158
a(g2150
g2152
F0.499
tp2159
a(g2150
g2148
F0.499
tp2160
a(g2146
g2152
F0.9999900000999989
tp2161
a(g2146
g2148
F0.9999900000999989
tp2162
a(g2152
g2148
F0.501
tp2163
assg3
F0.5
sg33
(lp2164
(lp2165
g2150
aa(lp2166
g2146
aa(lp2167
g2152
aa(lp2168
g2148
aasg2
F0.0
ssI113
(dp2169
g1
F1.0
sg7
(lp2170
(lp2171
S'little'
p2172
aa(lp2173
S'tiny'
p2174
aasg15
(dp2175
g17
g18
(g22
S'\xa4\xaeo\x02\xf9\xff\xef?'
p2176
tp2177
Rp2178
sg28
(lp2179
(g2172
g2174
F0.9999966666777778
tp2180
assg3
F1.0
sg33
(lp2181
(lp2182
g2172
aa(lp2183
g2174
aasg2
F1.0
ssI114
(dp2184
g1
F-0.3333333333333333
sg7
(lp2185
(lp2186
S'hardworking'
p2187
aa(lp2188
S'tenacious'
p2189
aa(lp2190
S'tough'
p2191
aasg15
(dp2192
g17
g18
(g22
S'\x9b\x05G\x8b$\x08\xe0?'
p2193
tp2194
Rp2195
sg28
(lp2196
(g2191
g2187
F0.9999980000040001
tp2197
a(g2191
g2189
F0.9999900000999989
tp2198
a(g2187
g2189
F0.501
tp2199
assg3
F0.3333333333333333
sg33
(lp2200
(lp2201
g2191
aa(lp2202
g2187
aa(lp2203
g2189
aasg2
F0.3333333333333333
ssI115
(dp2204
g1
F1.0
sg7
(lp2205
(lp2206
S'cute'
p2207
aa(lp2208
S'gorgeous'
p2209
aasg15
(dp2210
g17
g18
(g22
S'\xab\xaa\xaa\xaa\xaa\xaa\xea?'
p2211
tp2212
Rp2213
sg28
(lp2214
(g2207
g2209
F0.8333333333333334
tp2215
assg3
F1.0
sg33
(lp2216
(lp2217
g2207
aa(lp2218
g2209
aasg2
F1.0
ssI116
(dp2219
g1
F1.0
sg7
(lp2220
(lp2221
S'known'
p2222
aa(lp2223
S'noteworthy'
p2224
aasg15
(dp2225
g17
g18
(g22
S'\x835X\x07\xeb\xff\xef?'
p2226
tp2227
Rp2228
sg28
(lp2229
(g2222
g2224
F0.9999900000999989
tp2230
assg3
F1.0
sg33
(lp2231
(lp2232
g2222
aa(lp2233
g2224
aasg2
F1.0
ssI117
(dp2234
g1
F1.0
sg7
(lp2235
(lp2236
S'known'
p2237
aa(lp2238
S'celebrated'
p2239
aasg15
(dp2240
g17
g18
(g22
S'\x835X\x07\xeb\xff\xef?'
p2241
tp2242
Rp2243
sg28
(lp2244
(g2237
g2239
F0.9999900000999989
tp2245
assg3
F1.0
sg33
(lp2246
(lp2247
g2237
aa(lp2248
g2239
aasg2
F1.0
ssI118
(dp2249
g1
F1.0
sg7
(lp2250
(lp2251
S'intact'
p2252
aa(lp2253
S'sturdy'
p2254
aasg15
(dp2255
g17
g18
(g22
S'\xd5x\xe9&1\x08\xe0?'
p2256
tp2257
Rp2258
sg28
(lp2259
(g2252
g2254
F0.501
tp2260
assg3
F1.0
sg33
(lp2261
(lp2262
g2252
aa(lp2263
g2254
aasg2
F1.0
ssI119
(dp2264
g1
F1.0
sg7
(lp2265
(lp2266
S'big'
p2267
aa(lp2268
S'vast'
p2269
aasg15
(dp2270
g17
g18
(g22
S'\x90\xa4B\xce\xfb\xff\xef?'
p2271
tp2272
Rp2273
sg28
(lp2274
(g2267
g2269
F0.9999980000040001
tp2275
assg3
F1.0
sg33
(lp2276
(lp2277
g2267
aa(lp2278
g2269
aasg2
F1.0
ssI120
(dp2279
g1
F1.0
sg7
(lp2280
(lp2281
S'big'
p2282
aa(lp2283
S'extensive'
p2284
aasg15
(dp2285
g17
g18
(g22
S'UUUUUU\xe5?'
p2286
tp2287
Rp2288
sg28
(lp2289
(g2282
g2284
F0.6666666666666666
tp2290
assg3
F1.0
sg33
(lp2291
(lp2292
g2282
aa(lp2293
g2284
aasg2
F1.0
ssI121
(dp2294
g1
F1.0
sg7
(lp2295
(lp2296
S'hard'
p2297
aa(lp2298
S'problematic'
p2299
aasg15
(dp2300
g17
g18
(g22
S'\xafy\xd3\xc1\xfa\xff\xef?'
p2301
tp2302
Rp2303
sg28
(lp2304
(g2297
g2299
F0.9999975000062501
tp2305
assg3
F1.0
sg33
(lp2306
(lp2307
g2297
aa(lp2308
g2299
aasg2
F1.0
ssI122
(dp2309
g1
F1.0
sg7
(lp2310
(lp2311
S'annoying'
p2312
aa(lp2313
S'obnoxious'
p2314
aasg15
(dp2315
g17
g18
(g22
S'\x835X\x07\xeb\xff\xef?'
p2316
tp2317
Rp2318
sg28
(lp2319
(g2312
g2314
F0.9999900000999989
tp2320
assg3
F1.0
sg33
(lp2321
(lp2322
g2312
aa(lp2323
g2314
aasg2
F1.0
ssI123
(dp2324
g1
F1.0
sg7
(lp2325
(lp2326
S'sad'
p2327
aa(lp2328
S'miserable'
p2329
aasg15
(dp2330
g17
g18
(g22
S'\x19/!\xe7\xfd\xff\xef?'
p2331
tp2332
Rp2333
sg28
(lp2334
(g2327
g2329
F0.9999990000010001
tp2335
assg3
F1.0
sg33
(lp2336
(lp2337
g2327
aa(lp2338
g2329
aasg2
F1.0
ssI124
(dp2339
g1
F1.0
sg7
(lp2340
(lp2341
S'sad'
p2342
aa(lp2343
S'terrible'
p2344
aasg15
(dp2345
g17
g18
(g22
S'\xafy\xd3\xc1\xfa\xff\xef?'
p2346
tp2347
Rp2348
sg28
(lp2349
(g2342
g2344
F0.9999975000062501
tp2350
assg3
F1.0
sg33
(lp2351
(lp2352
g2342
aa(lp2353
g2344
aasg2
F1.0
ssI125
(dp2354
g1
F0.0
sg7
(lp2355
(lp2356
S'fair'
p2357
aa(lp2358
S'fairer'
p2359
aa(lp2360
S'fairest'
p2361
aa(lp2362
S'beautiful'
p2363
aasg15
(dp2364
g17
g18
(g22
S'\xdd\xb5\xea-L\x10\xd0?'
p2365
tp2366
Rp2367
sg28
(lp2368
(g2363
g2357
F0.9999950000249999
tp2369
a(g2363
g2359
F0.9999950000249999
tp2370
a(g2363
g2361
F0.501
tp2371
a(g2357
g2359
F0.9999950000249999
tp2372
a(g2357
g2361
F0.9999900000999989
tp2373
a(g2359
g2361
F0.501
tp2374
assg3
F0.5
sg33
(lp2375
(lp2376
g2363
aa(lp2377
g2357
aa(lp2378
g2359
aa(lp2379
g2361
aasg2
F0.0
sss.