(dp0
S'tau'
p1
F0.5268911959887439
sS'|tau|'
p2
F0.6777138880467989
sS'pairwise'
p3
F0.7038461538461539
sS'ranking'
p4
(dp5
I0
(dp6
g1
F0.6666666666666666
sS'gold'
p7
(lp8
(lp9
S'dim'
p10
aa(lp11
S'gloomy'
p12
aa(lp13
S'dark'
p14
aa(lp15
S'black'
p16
aasS'raw'
p17
(dp18
S'prob*'
p19
cnumpy.core.multiarray
scalar
p20
(cnumpy
dtype
p21
(S'f8'
p22
I0
I1
tp23
Rp24
(I3
S'<'
p25
NNNI-1
I-1
I0
tp26
bS'\xd4\x9e\x97\xac0\x10\xd0?'
p27
tp28
Rp29
sS'link-probs'
p30
(lp31
(g10
g14
F0.9999999647887338
tp32
a(g10
g12
F0.9999999731182804
tp33
a(g10
g16
F0.501
tp34
a(g14
g12
F0.9999900000999989
tp35
a(g14
g16
F0.9999589356110381
tp36
a(g12
g16
F0.501
tp37
assg3
F0.8333333333333334
sS'algo'
p38
(lp39
(lp40
g10
aa(lp41
g14
aa(lp42
g12
aa(lp43
g16
aasg2
F0.6666666666666666
ssI1
(dp44
g1
F1.0
sg7
(lp45
(lp46
S'close'
p47
aa(lp48
S'near'
p49
aa(lp50
S'intimate'
p51
aasg17
(dp52
g19
g20
(g24
S'@\xa7\xc7[/\x08\xe0?'
p53
tp54
Rp55
sg30
(lp56
(g47
g49
F0.9999983333361112
tp57
a(g47
g51
F0.999999959677421
tp58
a(g49
g51
F0.501
tp59
assg3
F1.0
sg38
(lp60
(lp61
g47
aa(lp62
g49
aa(lp63
g51
aasg2
F1.0
ssI2
(dp64
g1
F0.5477225575051661
sg7
(lp65
(lp66
S'nearby'
p67
aS'near'
p68
aa(lp69
S'close'
p70
aa(lp71
S'adjacent'
p72
aasg17
(dp73
g19
g20
(g24
S'B_f\xcc$\x08\xe0?'
p74
tp75
Rp76
sg30
(lp77
(g67
g70
F0.9999999375000039
tp78
a(g67
g68
F0.9999900000999989
tp79
a(g67
g72
F0.501
tp80
a(g70
g68
F0.9999983333361112
tp81
a(g70
g72
F0.9999999843750003
tp82
a(g68
g72
F0.999999986910995
tp83
assg3
F0.6666666666666666
sg38
(lp84
(lp85
g67
aa(lp86
g70
aa(lp87
g68
aa(lp88
g72
aasg2
F0.5477225575051661
ssI3
(dp89
g1
F-0.5477225575051661
sg7
(lp90
(lp91
S'sufficient'
p92
aa(lp93
S'good'
p94
aS'wide'
p95
aa(lp96
S'full'
p97
aasg17
(dp98
g19
g20
(g24
S'\xe3\xbc\\\xda\x9f\x18\xc0?'
p99
tp100
Rp101
sg30
(lp102
(g94
g97
F0.9999999019607939
tp103
a(g94
g95
F0.9999999253731399
tp104
a(g94
g92
F0.999999988452656
tp105
a(g97
g95
F0.501
tp106
a(g97
g92
F0.501
tp107
a(g95
g92
F0.501
tp108
assg3
F0.16666666666666666
sg38
(lp109
(lp110
g94
aa(lp111
g97
aa(lp112
g95
aa(lp113
g92
aasg2
F0.5477225575051661
ssI4
(dp114
g1
F0.35805743701971643
sg7
(lp115
(lp116
S'interesting'
p117
aa(lp118
S'intriguing'
p119
aa(lp120
S'amusing'
p121
aS'entertaining'
p122
aa(lp123
S'fascinating'
p124
aS'exciting'
p125
aasg17
(dp126
g19
g20
(g24
S'EQb\x9f\x82P\x8d?'
p127
tp128
Rp129
sg30
(lp130
(g117
g122
F0.9999999910714287
tp131
a(g117
g124
F0.9993706733794839
tp132
a(g117
g121
F0.9999999866666669
tp133
a(g117
g119
F0.991304347826087
tp134
a(g117
g125
F0.879564606741573
tp135
a(g122
g124
F0.501
tp136
a(g122
g121
F0.9777777777777777
tp137
a(g122
g119
F0.501
tp138
a(g122
g125
F0.9999999473684238
tp139
a(g124
g121
F0.501
tp140
a(g124
g119
F0.6666666666666666
tp141
a(g124
g125
F0.4
tp142
a(g121
g119
F0.501
tp143
a(g121
g125
F0.9999900000999989
tp144
a(g119
g125
F0.9999900000999989
tp145
assg3
F0.6
sg38
(lp146
(lp147
g117
aa(lp148
g122
aa(lp149
g124
aa(lp150
g121
aa(lp151
g119
aa(lp152
g125
aasg2
F0.35805743701971643
ssI5
(dp153
g1
F-0.18257418583505536
sg7
(lp154
(lp155
S'far'
p156
aa(lp157
S'further'
p158
aS'farther'
p159
aa(lp160
S'removed'
p161
aasg17
(dp162
g19
g20
(g24
S'\xf9\xe0\xc9ZQ\x10\xd0?'
p163
tp164
Rp165
sg30
(lp166
(g161
g156
F0.9999900000999989
tp167
a(g161
g158
F0.501
tp168
a(g161
g159
F0.501
tp169
a(g156
g158
F0.9999999600000016
tp170
a(g156
g159
F0.9999999559471385
tp171
a(g158
g159
F0.9999900000999989
tp172
assg3
F0.3333333333333333
sg38
(lp173
(lp174
g161
aa(lp175
g156
aa(lp176
g158
aa(lp177
g159
aasg2
F0.18257418583505536
ssI6
(dp178
g1
F0.7071067811865476
sg7
(lp179
(lp180
S'acceptable'
p181
aS'okay'
p182
aS'alright'
p183
aa(lp184
S'right'
p185
aasg17
(dp186
g19
g20
(g24
S'\xe5\x923\xfcewH?'
p187
tp188
Rp189
sg30
(lp190
(g182
g183
F0.9999985714306123
tp191
a(g182
g181
F0.501
tp192
a(g182
g185
F0.0030120481927710845
tp193
a(g183
g181
F0.501
tp194
a(g183
g185
F0.9971014492753624
tp195
a(g181
g185
F0.9904761904761905
tp196
assg3
F0.5
sg38
(lp197
(lp198
g182
aa(lp199
g183
aa(lp200
g181
aa(lp201
g185
aasg2
F0.7071067811865476
ssI7
(dp202
g1
F1.0
sg7
(lp203
(lp204
S'unstable'
p205
aa(lp206
S'crazy'
p207
aa(lp208
S'insane'
p209
aasg17
(dp210
g19
g20
(g24
S'\xb2\xe7Q\xb2\xcd\x00\xe0?'
p211
tp212
Rp213
sg30
(lp214
(g205
g207
F0.9999999479166694
tp215
a(g205
g209
F0.501
tp216
a(g207
g209
F0.9981998199819982
tp217
assg3
F1.0
sg38
(lp218
(lp219
g205
aa(lp220
g207
aa(lp221
g209
aasg2
F1.0
ssI8
(dp222
g1
F1.0
sg7
(lp223
(lp224
S'good'
p225
aa(lp226
S'real'
p227
aa(lp228
S'authentic'
p229
aasg17
(dp230
g19
g20
(g24
S'\x8a_\x92\xe5\xea\xff\xef?'
p231
tp232
Rp233
sg30
(lp234
(g225
g227
F0.9999999672131159
tp235
a(g225
g229
F0.999999969879519
tp236
a(g227
g229
F0.9999900000999989
tp237
assg3
F1.0
sg38
(lp238
(lp239
g225
aa(lp240
g227
aa(lp241
g229
aasg2
F1.0
ssI9
(dp242
g1
F-0.3333333333333333
sg7
(lp243
(lp244
S'possible'
p245
aa(lp246
S'realistic'
p247
aa(lp248
S'feasible'
p249
aa(lp250
S'practical'
p251
aasg17
(dp252
g19
g20
(g24
S'J\xa1\x88\xefB\xaa\xb1?'
p253
tp254
Rp255
sg30
(lp256
(g247
g251
F0.501
tp257
a(g247
g249
F0.9999900000999989
tp258
a(g247
g245
F0.44660194174757284
tp259
a(g251
g249
F0.9951690821256038
tp260
a(g251
g245
F0.5087325349301397
tp261
a(g249
g245
F0.6091655858192823
tp262
assg3
F0.3333333333333333
sg38
(lp263
(lp264
g247
aa(lp265
g251
aa(lp266
g249
aa(lp267
g245
aasg2
F0.3333333333333333
ssI10
(dp268
g1
F0.9128709291752769
sg7
(lp269
(lp270
S'sick'
p271
aS'ill'
p272
aa(lp273
S'impaired'
p274
aa(lp275
S'disabled'
p276
aasg17
(dp277
g19
g20
(g24
S'\xacB#\x00\xdc\xac\xbf?'
p278
tp279
Rp280
sg30
(lp281
(g272
g271
F0.9839357429718876
tp282
a(g272
g274
F0.501
tp283
a(g272
g276
F0.9999998863636492
tp284
a(g271
g274
F0.501
tp285
a(g271
g276
F0.501
tp286
a(g274
g276
F0.9999999375000039
tp287
assg3
F0.8333333333333334
sg38
(lp288
(lp289
g272
aa(lp290
g271
aa(lp291
g274
aa(lp292
g276
aasg2
F0.9128709291752769
ssI11
(dp293
g1
F-0.6
sg7
(lp294
(lp295
S'uncommon'
p296
aa(lp297
S'unusual'
p298
aa(lp299
S'rare'
p300
aa(lp301
S'extraordinary'
p302
aa(lp303
S'exceptional'
p304
aasg17
(dp305
g19
g20
(g24
S'\xd2\x95\xd2\xf8\xa5Nm?'
p306
tp307
Rp308
sg30
(lp309
(g300
g304
F0.9999999408284058
tp310
a(g300
g302
F0.9999900000999989
tp311
a(g300
g298
F0.3801229508196721
tp312
a(g300
g296
F0.05714285714285714
tp313
a(g304
g302
F0.9882352941176471
tp314
a(g304
g298
F0.6666666666666666
tp315
a(g304
g296
F0.9999900000999989
tp316
a(g302
g298
F0.501
tp317
a(g302
g296
F0.499
tp318
a(g298
g296
F0.999999946524067
tp319
assg3
F0.2
sg38
(lp320
(lp321
g300
aa(lp322
g304
aa(lp323
g302
aa(lp324
g298
aa(lp325
g296
aasg2
F0.6
ssI12
(dp326
g1
F1.0
sg7
(lp327
(lp328
S'impractical'
p329
aa(lp330
S'unrealistic'
p331
aa(lp332
S'impossible'
p333
aasg17
(dp334
g19
g20
(g24
S'n-\x9aZ\xc2\x02\xe0?'
p335
tp336
Rp337
sg30
(lp338
(g329
g331
F0.501
tp339
a(g329
g333
F0.9986763058751654
tp340
a(g331
g333
F0.9999999731182804
tp341
assg3
F1.0
sg38
(lp342
(lp343
g329
aa(lp344
g331
aa(lp345
g333
aasg2
F1.0
ssI13
(dp346
g1
F1.0
sg7
(lp347
(lp348
S'concerned'
p349
aa(lp350
S'preoccupied'
p351
aa(lp352
S'obsessed'
p353
aasg17
(dp354
g19
g20
(g24
S'\xb9\x1cb:N\xe9\xef?'
p355
tp356
Rp357
sg30
(lp358
(g349
g351
F0.997229916897507
tp359
a(g349
g353
F0.9999998809523951
tp360
a(g351
g353
F0.9999998863636492
tp361
assg3
F1.0
sg38
(lp362
(lp363
g349
aa(lp364
g351
aa(lp365
g353
aasg2
F1.0
ssI14
(dp366
g1
F-0.3333333333333333
sg7
(lp367
(lp368
S'low'
p369
aa(lp370
S'subdued'
p371
aa(lp372
S'quiet'
p373
aasg17
(dp374
g19
g20
(g24
S'X\x8cTof\x10\xd0?'
p375
tp376
Rp377
sg30
(lp378
(g373
g369
F0.501
tp379
a(g373
g371
F0.9999999397590398
tp380
a(g369
g371
F0.501
tp381
assg3
F0.3333333333333333
sg38
(lp382
(lp383
g373
aa(lp384
g369
aa(lp385
g371
aasg2
F0.3333333333333333
ssI15
(dp386
g1
F0.8
sg7
(lp387
(lp388
S'strong'
p389
aa(lp390
S'intense'
p391
aa(lp392
S'terrible'
p393
aa(lp394
S'overwhelming'
p395
aa(lp396
S'violent'
p397
aasg17
(dp398
g19
g20
(g24
S'\xe9\xd8\xf0\xe8\x1c)\xa0?'
p399
tp400
Rp401
sg30
(lp402
(g389
g391
F0.9999975000062501
tp403
a(g389
g395
F0.999999993614304
tp404
a(g389
g393
F0.501
tp405
a(g389
g397
F0.999999974358975
tp406
a(g391
g395
F0.9999998936170326
tp407
a(g391
g393
F0.501
tp408
a(g391
g397
F0.9999999218750061
tp409
a(g395
g393
F0.501
tp410
a(g395
g397
F0.501
tp411
a(g393
g397
F0.501
tp412
assg3
F0.9
sg38
(lp413
(lp414
g389
aa(lp415
g391
aa(lp416
g395
aa(lp417
g393
aa(lp418
g397
aasg2
F0.8
ssI16
(dp419
g1
F0.8164965809277261
sg7
(lp420
(lp421
S'bleak'
p422
aS'desperate'
p423
aa(lp424
S'hopeless'
p425
aasg17
(dp426
g19
g20
(g24
S'\x9d\x91\xb2\xc1q\xf0\xdf?'
p427
tp428
Rp429
sg30
(lp430
(g422
g423
F0.501
tp431
a(g422
g425
F0.9999999509803945
tp432
a(g423
g425
F0.9961089494163424
tp433
assg3
F0.6666666666666666
sg38
(lp434
(lp435
g422
aa(lp436
g423
aa(lp437
g425
aasg2
F0.8164965809277261
ssI17
(dp438
g1
F1.0
sg7
(lp439
(lp440
S'unfortunate'
p441
aa(lp442
S'disastrous'
p443
aa(lp444
S'fatal'
p445
aasg17
(dp446
g19
g20
(g24
S'ndq\xbf\xea\xff\xef?'
p447
tp448
Rp449
sg30
(lp450
(g441
g443
F0.9999900000999989
tp451
a(g441
g445
F0.9999999553571448
tp452
a(g443
g445
F0.9999999107142936
tp453
assg3
F1.0
sg38
(lp454
(lp455
g441
aa(lp456
g443
aa(lp457
g445
aasg2
F1.0
ssI18
(dp458
g1
F0.5270462766947299
sg7
(lp459
(lp460
S'strange'
p461
aS'funny'
p462
aa(lp463
S'unusual'
p464
aa(lp465
S'weird'
p466
aa(lp467
S'eerie'
p468
aasg17
(dp469
g19
g20
(g24
S'\x0b\x0e\xa1D\x13\x8e\xd4?'
p470
tp471
Rp472
sg30
(lp473
(g461
g466
F0.994776119402985
tp474
a(g461
g462
F0.9824561403508771
tp475
a(g461
g464
F0.9993498049414824
tp476
a(g461
g468
F0.9999999295774697
tp477
a(g466
g462
F0.9845559845559846
tp478
a(g466
g464
F0.6666666666666666
tp479
a(g466
g468
F0.9999966666777778
tp480
a(g462
g464
F0.9999950000249999
tp481
a(g462
g468
F0.501
tp482
a(g464
g468
F0.9999950000249999
tp483
assg3
F0.7
sg38
(lp484
(lp485
g461
aa(lp486
g466
aa(lp487
g462
aa(lp488
g464
aa(lp489
g468
aasg2
F0.5270462766947299
ssI19
(dp490
g1
F-0.3333333333333333
sg7
(lp491
(lp492
S'reasonable'
p493
aa(lp494
S'valid'
p495
aa(lp496
S'sound'
p497
aasg17
(dp498
g19
g20
(g24
S'\x95\xbe\xd2\xc9\x840\xdf?'
p499
tp500
Rp501
sg30
(lp502
(g495
g497
F0.9999999652777791
tp503
a(g495
g493
F0.501
tp504
a(g497
g493
F0.9727272727272728
tp505
assg3
F0.3333333333333333
sg38
(lp506
(lp507
g495
aa(lp508
g497
aa(lp509
g493
aasg2
F0.3333333333333333
ssI20
(dp510
g1
F1.0
sg7
(lp511
(lp512
S'affordable'
p513
aa(lp514
S'inexpensive'
p515
aa(lp516
S'cheap'
p517
aasg17
(dp518
g19
g20
(g24
S'\x82\xd9@\x151\x08\xe0?'
p519
tp520
Rp521
sg30
(lp522
(g513
g515
F0.501
tp523
a(g513
g517
F0.9999999473684238
tp524
a(g515
g517
F0.9999999869791669
tp525
assg3
F1.0
sg38
(lp526
(lp527
g513
aa(lp528
g515
aa(lp529
g517
aasg2
F1.0
ssI21
(dp530
g1
F0.3333333333333333
sg7
(lp531
(lp532
S'available'
p533
aa(lp534
S'accessible'
p535
aa(lp536
S'visible'
p537
aasg17
(dp538
g19
g20
(g24
S'\xd7\xed\x80bfF\xd6?'
p539
tp540
Rp541
sg30
(lp542
(g533
g537
F0.501
tp543
a(g533
g535
F0.9980259447264523
tp544
a(g537
g535
F0.696078431372549
tp545
assg3
F0.6666666666666666
sg38
(lp546
(lp547
g533
aa(lp548
g537
aa(lp549
g535
aasg2
F0.3333333333333333
ssI22
(dp550
g1
F-0.8164965809277261
sg7
(lp551
(lp552
S'content'
p553
aS'satisfied'
p554
aa(lp555
S'pleased'
p556
aS'happy'
p557
aasg17
(dp558
g19
g20
(g24
S'\xf1\t.\x00\xcb\x7f\xd5?'
p559
tp560
Rp561
sg30
(lp562
(g557
g556
F0.7142857142857143
tp563
a(g557
g553
F0.49379932356257045
tp564
a(g557
g554
F0.9613713182037663
tp565
a(g556
g553
F0.9938271604938271
tp566
a(g556
g554
F0.996832101372756
tp567
a(g553
g554
F0.9999900000999989
tp568
assg3
F0.0
sg38
(lp569
(lp570
g557
aa(lp571
g556
aa(lp572
g553
aa(lp573
g554
aasg2
F0.8164965809277261
ssI23
(dp574
g1
F0.18257418583505536
sg7
(lp575
(lp576
S'misleading'
p577
aa(lp578
S'deceptive'
p579
aS'fraudulent'
p580
aa(lp581
S'false'
p582
aasg17
(dp583
g19
g20
(g24
S'\xa8\xab\x05\x0f\xed\xff\xcf?'
p584
tp585
Rp586
sg30
(lp587
(g577
g582
F0.9999999959709911
tp588
a(g577
g580
F0.9999999796747973
tp589
a(g577
g579
F0.9999999923838538
tp590
a(g582
g580
F0.9999950000249999
tp591
a(g582
g579
F0.501
tp592
a(g580
g579
F0.499
tp593
assg3
F0.5
sg38
(lp594
(lp595
g577
aa(lp596
g582
aa(lp597
g580
aa(lp598
g579
aasg2
F0.18257418583505536
ssI24
(dp599
g1
F0.7378647873726218
sg7
(lp600
(lp601
S'needed'
p602
aa(lp603
S'necessary'
p604
aa(lp605
S'required'
p606
aS'essential'
p607
aa(lp608
S'indispensable'
p609
aasg17
(dp610
g19
g20
(g24
S'\xca\xc0\x98C\xb8\x81\xd0?'
p611
tp612
Rp613
sg30
(lp614
(g602
g606
F0.9981818181818182
tp615
a(g602
g604
F0.9567307692307693
tp616
a(g602
g607
F0.9999975000062501
tp617
a(g602
g609
F0.9999980000040001
tp618
a(g606
g604
F0.9844054580896686
tp619
a(g606
g607
F0.9999999736842113
tp620
a(g606
g609
F0.501
tp621
a(g604
g607
F0.9126838235294118
tp622
a(g604
g609
F0.9999999588477383
tp623
a(g607
g609
F0.6
tp624
assg3
F0.8
sg38
(lp625
(lp626
g602
aa(lp627
g606
aa(lp628
g604
aa(lp629
g607
aa(lp630
g609
aasg2
F0.7378647873726218
ssI25
(dp631
g1
F0.6666666666666666
sg7
(lp632
(lp633
S'wrong'
p634
aa(lp635
S'immoral'
p636
aa(lp637
S'sinful'
p638
aa(lp639
S'evil'
p640
aasg17
(dp641
g19
g20
(g24
S'}Zb5f\x10\xd0?'
p642
tp643
Rp644
sg30
(lp645
(g634
g636
F0.9999998924731298
tp646
a(g634
g640
F0.9999999709302335
tp647
a(g634
g638
F0.9999999655172427
tp648
a(g636
g640
F0.9999998958333441
tp649
a(g636
g638
F0.501
tp650
a(g640
g638
F0.501
tp651
assg3
F0.8333333333333334
sg38
(lp652
(lp653
g634
aa(lp654
g636
aa(lp655
g640
aa(lp656
g638
aasg2
F0.6666666666666666
ssI26
(dp657
g1
F0.3333333333333333
sg7
(lp658
(lp659
S'plain'
p660
aa(lp661
S'unattractive'
p662
aa(lp663
S'ugly'
p664
aasg17
(dp665
g19
g20
(g24
S'#\x9a#\x151\x08\xe0?'
p666
tp667
Rp668
sg30
(lp669
(g660
g664
F0.9999999839228298
tp670
a(g660
g662
F0.9999999500000025
tp671
a(g664
g662
F0.501
tp672
assg3
F0.6666666666666666
sg38
(lp673
(lp674
g660
aa(lp675
g664
aa(lp676
g662
aasg2
F0.3333333333333333
ssI27
(dp677
g1
F0.3333333333333333
sg7
(lp678
(lp679
S'like'
p680
aa(lp681
S'equal'
p682
aa(lp683
S'same'
p684
aasg17
(dp685
g19
g20
(g24
S'\\\xb9\xb7?\xd5N\xd7?'
p686
tp687
Rp688
sg30
(lp689
(g682
g680
F0.501
tp690
a(g682
g684
F0.7269193391642371
tp691
a(g680
g684
F0.9999999883720931
tp692
assg3
F0.6666666666666666
sg38
(lp693
(lp694
g682
aa(lp695
g680
aa(lp696
g684
aasg2
F0.3333333333333333
ssI28
(dp697
g1
F0.18257418583505536
sg7
(lp698
(lp699
S'broad'
p700
aS'widespread'
p701
aa(lp702
S'general'
p703
aa(lp704
S'universal'
p705
aasg17
(dp706
g19
g20
(g24
S'\x1f\xf1\xc0*\xdaY\xd4?'
p707
tp708
Rp709
sg30
(lp710
(g703
g700
F0.501
tp711
a(g703
g701
F0.6666666666666666
tp712
a(g703
g705
F0.9520578923563998
tp713
a(g700
g701
F0.9999900000999989
tp714
a(g700
g705
F0.9999999645390084
tp715
a(g701
g705
F0.9999999969951923
tp716
assg3
F0.5
sg38
(lp717
(lp718
g703
aa(lp719
g700
aa(lp720
g701
aa(lp721
g705
aasg2
F0.18257418583505536
ssI29
(dp722
g1
F0.5477225575051661
sg7
(lp723
(lp724
S'cheap'
p725
aS'mediocre'
p726
aa(lp727
S'bad'
p728
aa(lp729
S'worst'
p730
aasg17
(dp731
g19
g20
(g24
S'\x90?\x1b0\xcb\xaa\xb1?'
p732
tp733
Rp734
sg30
(lp735
(g725
g728
F0.9999999397590398
tp736
a(g725
g726
F0.499
tp737
a(g725
g730
F0.499
tp738
a(g728
g726
F0.5532075471698114
tp739
a(g728
g730
F0.999999909909918
tp740
a(g726
g730
F0.501
tp741
assg3
F0.6666666666666666
sg38
(lp742
(lp743
g725
aa(lp744
g728
aa(lp745
g726
aa(lp746
g730
aasg2
F0.5477225575051661
ssI30
(dp747
g1
F-0.7745966692414834
sg7
(lp748
(lp749
S'handsome'
p750
aS'lovely'
p751
aS'gorgeous'
p752
aa(lp753
S'beautiful'
p754
aS'pretty'
p755
aS'attractive'
p756
aasg17
(dp757
g19
g20
(g24
S'ZpS\xfe{\xdf\x90?'
p758
tp759
Rp760
sg30
(lp761
(g755
g756
F0.8333333333333334
tp762
a(g755
g754
F0.9073170731707317
tp763
a(g755
g751
F0.7
tp764
a(g755
g750
F0.967032967032967
tp765
a(g755
g752
F0.9891304347826086
tp766
a(g756
g754
F0.9931623931623932
tp767
a(g756
g751
F0.501
tp768
a(g756
g750
F0.4
tp769
a(g756
g752
F0.9999900000999989
tp770
a(g754
g751
F0.6842105263157895
tp771
a(g754
g750
F0.7333333333333333
tp772
a(g754
g752
F0.7692307692307693
tp773
a(g751
g750
F0.5714285714285714
tp774
a(g751
g752
F0.9886363636363636
tp775
a(g750
g752
F0.75
tp776
assg3
F0.0
sg38
(lp777
(lp778
g755
aa(lp779
g756
aa(lp780
g754
aa(lp781
g751
aa(lp782
g750
aa(lp783
g752
aasg2
F0.7745966692414834
ssI31
(dp784
g1
F1.0
sg7
(lp785
(lp786
S'thick'
p787
aa(lp788
S'dense'
p789
aa(lp790
S'impenetrable'
p791
aasg17
(dp792
g19
g20
(g24
S'"\xcb\xb8\x141\x08\xe0?'
p793
tp794
Rp795
sg30
(lp796
(g787
g789
F0.501
tp797
a(g787
g791
F0.9999999494949521
tp798
a(g789
g791
F0.9999999828767127
tp799
assg3
F1.0
sg38
(lp800
(lp801
g787
aa(lp802
g789
aa(lp803
g791
aasg2
F1.0
ssI32
(dp804
g1
F1.0
sg7
(lp805
(lp806
S'soft'
p807
aa(lp808
S'quiet'
p809
aa(lp810
S'inaudible'
p811
aa(lp812
S'silent'
p813
aasg17
(dp814
g19
g20
(g24
S'\xdb;f\xde,\x08\xc0?'
p815
tp816
Rp817
sg30
(lp818
(g807
g809
F0.501
tp819
a(g807
g811
F0.9999999717514133
tp820
a(g807
g813
F0.501
tp821
a(g809
g811
F0.999999959677421
tp822
a(g809
g813
F0.9999999918962724
tp823
a(g811
g813
F0.499
tp824
assg3
F1.0
sg38
(lp825
(lp826
g807
aa(lp827
g809
aa(lp828
g811
aa(lp829
g813
aasg2
F1.0
ssI33
(dp830
g1
F0.5270462766947299
sg7
(lp831
(lp832
S'sizeable'
p833
aa(lp834
S'big'
p835
aS'large'
p836
aa(lp837
S'huge'
p838
aa(lp839
S'colossal'
p840
aasg17
(dp841
g19
g20
(g24
S'6\xba\n>H\x11\xc8?'
p842
tp843
Rp844
sg30
(lp845
(g836
g835
F0.501
tp846
a(g836
g833
F0.75
tp847
a(g836
g838
F0.999395039322444
tp848
a(g836
g840
F0.9999966666777778
tp849
a(g835
g833
F0.9999900000999989
tp850
a(g835
g838
F0.9994416527079844
tp851
a(g835
g840
F0.9999900000999989
tp852
a(g833
g838
F0.9999999418604685
tp853
a(g833
g840
F0.501
tp854
a(g838
g840
F0.9999999418604685
tp855
assg3
F0.7
sg38
(lp856
(lp857
g836
aa(lp858
g835
aa(lp859
g833
aa(lp860
g838
aa(lp861
g840
aasg2
F0.5270462766947299
ssI34
(dp862
g1
F0.31622776601683794
sg7
(lp863
(lp864
S'creepy'
p865
aa(lp866
S'scary'
p867
aS'frightening'
p868
aa(lp869
S'terrifying'
p870
aa(lp871
S'sinister'
p872
aasg17
(dp873
g19
g20
(g24
S'\xbe;\x8a\x10\xd2\xfcd?'
p874
tp875
Rp876
sg30
(lp877
(g867
g868
F0.9894736842105263
tp878
a(g867
g870
F0.6666666666666666
tp879
a(g867
g865
F0.03125
tp880
a(g867
g872
F0.9999999744897966
tp881
a(g868
g870
F0.9883268482490273
tp882
a(g868
g865
F0.9999950000249999
tp883
a(g868
g872
F0.501
tp884
a(g870
g865
F0.9999950000249999
tp885
a(g870
g872
F0.501
tp886
a(g865
g872
F0.501
tp887
assg3
F0.6
sg38
(lp888
(lp889
g867
aa(lp890
g868
aa(lp891
g870
aa(lp892
g865
aa(lp893
g872
aasg2
F0.31622776601683794
ssI35
(dp894
g1
F0.3333333333333333
sg7
(lp895
(lp896
S'some'
p897
aa(lp898
S'few'
p899
aa(lp900
S'fewer'
p901
aasg17
(dp902
g19
g20
(g24
S'RR\x87\xb1}\x13\xd0?'
p903
tp904
Rp905
sg30
(lp906
(g899
g897
F0.5052631578947369
tp907
a(g899
g901
F0.9923076923076923
tp908
a(g897
g901
F0.501
tp909
assg3
F0.6666666666666666
sg38
(lp910
(lp911
g899
aa(lp912
g897
aa(lp913
g901
aasg2
F0.3333333333333333
ssI36
(dp914
g1
F0.8164965809277261
sg7
(lp915
(lp916
S'old'
p917
aa(lp918
S'obsolete'
p919
aS'outdated'
p920
aasg17
(dp921
g19
g20
(g24
S'\xad\x88\xd5\xc6\xea\xff\xef?'
p922
tp923
Rp924
sg30
(lp925
(g917
g919
F0.9999999000000099
tp926
a(g917
g920
F0.9999999798387101
tp927
a(g919
g920
F0.9999900000999989
tp928
assg3
F0.6666666666666666
sg38
(lp929
(lp930
g917
aa(lp931
g919
aa(lp932
g920
aasg2
F0.8164965809277261
ssI37
(dp933
g1
F0.6666666666666666
sg7
(lp934
(lp935
S'necessary'
p936
aa(lp937
S'vital'
p938
aa(lp939
S'indispensable'
p940
aa(lp941
S'critical'
p942
aasg17
(dp943
g19
g20
(g24
S"J\x84'N\x85\xac\xc4?"
p944
tp945
Rp946
sg30
(lp947
(g936
g938
F0.9978586723768736
tp948
a(g936
g942
F0.9999998850574845
tp949
a(g936
g940
F0.9999999588477383
tp950
a(g938
g942
F0.5384615384615384
tp951
a(g938
g940
F0.6
tp952
a(g942
g940
F0.501
tp953
assg3
F0.8333333333333334
sg38
(lp954
(lp955
g936
aa(lp956
g938
aa(lp957
g942
aa(lp958
g940
aasg2
F0.6666666666666666
ssI38
(dp959
g1
F0.8164965809277261
sg7
(lp960
(lp961
S'unexpected'
p962
aa(lp963
S'astonishing'
p964
aS'stunning'
p965
aasg17
(dp966
g19
g20
(g24
S'\xc8\xde\xbd\xe8\xea\xff\xef?'
p967
tp968
Rp969
sg30
(lp970
(g962
g964
F0.9999999872448981
tp971
a(g962
g965
F0.9999999557522143
tp972
a(g964
g965
F0.9999900000999989
tp973
assg3
F0.6666666666666666
sg38
(lp974
(lp975
g962
aa(lp976
g964
aa(lp977
g965
aasg2
F0.8164965809277261
ssI39
(dp978
g1
F1.0
sg7
(lp979
(lp980
S'attractive'
p981
aa(lp982
S'sexy'
p983
aa(lp984
S'seductive'
p985
aasg17
(dp986
g19
g20
(g24
S'\xdeyG\x08:\xeb\xde?'
p987
tp988
Rp989
sg30
(lp990
(g981
g983
F0.9642857142857143
tp991
a(g981
g985
F0.9999999065420648
tp992
a(g983
g985
F0.501
tp993
assg3
F1.0
sg38
(lp994
(lp995
g981
aa(lp996
g983
aa(lp997
g985
aasg2
F1.0
ssI40
(dp998
g1
F0.31622776601683794
sg7
(lp999
(lp1000
S'bright'
p1001
aS'intelligent'
p1002
aS'smart'
p1003
aS'clever'
p1004
aa(lp1005
S'brilliant'
p1006
aasg17
(dp1007
g19
g20
(g24
S'\xd4\xca\x03v\xbf.\xbd?'
p1008
tp1009
Rp1010
sg30
(lp1011
(g1003
g1002
F0.5555555555555556
tp1012
a(g1003
g1004
F0.625
tp1013
a(g1003
g1006
F0.9898477157360406
tp1014
a(g1003
g1001
F0.9999900000999989
tp1015
a(g1002
g1004
F0.75
tp1016
a(g1002
g1006
F0.9999999107142936
tp1017
a(g1002
g1001
F0.6666666666666666
tp1018
a(g1004
g1006
F0.999999887640462
tp1019
a(g1004
g1001
F0.9950248756218906
tp1020
a(g1006
g1001
F0.6666666666666666
tp1021
assg3
F0.3
sg38
(lp1022
(lp1023
g1003
aa(lp1024
g1002
aa(lp1025
g1004
aa(lp1026
g1006
aa(lp1027
g1001
aasg2
F0.31622776601683794
ssI41
(dp1028
g1
F1.0
sg7
(lp1029
(lp1030
S'personal'
p1031
aa(lp1032
S'private'
p1033
aa(lp1034
S'secret'
p1035
aasg17
(dp1036
g19
g20
(g24
S"\xbc'\xa9\x161\x08\xe0?"
p1037
tp1038
Rp1039
sg30
(lp1040
(g1031
g1033
F0.9999999922118381
tp1041
a(g1031
g1035
F0.501
tp1042
a(g1033
g1035
F0.9999999473684238
tp1043
assg3
F1.0
sg38
(lp1044
(lp1045
g1031
aa(lp1046
g1033
aa(lp1047
g1035
aasg2
F1.0
ssI42
(dp1048
g1
F1.0
sg7
(lp1049
(lp1050
S'harmful'
p1051
aa(lp1052
S'toxic'
p1053
aa(lp1054
S'deadly'
p1055
aasg17
(dp1056
g19
g20
(g24
S'F[\x11\xc1\xff\xff\xef?'
p1057
tp1058
Rp1059
sg30
(lp1060
(g1051
g1053
F0.9999999473684238
tp1061
a(g1051
g1055
F0.9999999956521738
tp1062
a(g1053
g1055
F0.9999999397590398
tp1063
assg3
F1.0
sg38
(lp1064
(lp1065
g1051
aa(lp1066
g1053
aa(lp1067
g1055
aasg2
F1.0
ssI43
(dp1068
g1
F0.9486832980505138
sg7
(lp1069
(lp1070
S'impractical'
p1071
aS'impracticable'
p1072
aa(lp1073
S'unrealistic'
p1074
aa(lp1075
S'infeasible'
p1076
aa(lp1077
S'impossible'
p1078
aasg17
(dp1079
g19
g20
(g24
S'\x05W\x97\xbct\xc0\x8b?'
p1080
tp1081
Rp1082
sg30
(lp1083
(g1071
g1072
F0.501
tp1084
a(g1071
g1074
F0.501
tp1085
a(g1071
g1076
F0.501
tp1086
a(g1071
g1078
F0.9986763058751654
tp1087
a(g1072
g1074
F0.501
tp1088
a(g1072
g1076
F0.501
tp1089
a(g1072
g1078
F0.9792899408284024
tp1090
a(g1074
g1076
F0.501
tp1091
a(g1074
g1078
F0.9999999731182804
tp1092
a(g1076
g1078
F0.8761904761904762
tp1093
assg3
F0.9
sg38
(lp1094
(lp1095
g1071
aa(lp1096
g1072
aa(lp1097
g1074
aa(lp1098
g1076
aa(lp1099
g1078
aasg2
F0.9486832980505138
ssI44
(dp1100
g1
F1.0
sg7
(lp1101
(lp1102
S'uncomfortable'
p1103
aa(lp1104
S'uneasy'
p1105
aa(lp1106
S'painful'
p1107
aasg17
(dp1108
g19
g20
(g24
S'\xec\xb1\xd1\xb4\x11\xff\xef?'
p1109
tp1110
Rp1111
sg30
(lp1112
(g1103
g1105
F0.9999900000999989
tp1113
a(g1103
g1107
F0.9998964696138316
tp1114
a(g1105
g1107
F0.9999999019607939
tp1115
assg3
F1.0
sg38
(lp1116
(lp1117
g1103
aa(lp1118
g1105
aa(lp1119
g1107
aasg2
F1.0
ssI45
(dp1120
g1
F0.18257418583505536
sg7
(lp1121
(lp1122
S'friendly'
p1123
aS'cordial'
p1124
aa(lp1125
S'warm'
p1126
aa(lp1127
S'intimate'
p1128
aasg17
(dp1129
g19
g20
(g24
S'\xa5{\xdb\x0f\x1c\x08\xe0?'
p1130
tp1131
Rp1132
sg30
(lp1133
(g1126
g1124
F0.9999900000999989
tp1134
a(g1126
g1123
F0.9999900000999989
tp1135
a(g1126
g1128
F0.9999999767441866
tp1136
a(g1124
g1123
F0.999999977678572
tp1137
a(g1124
g1128
F0.501
tp1138
a(g1123
g1128
F0.9999999723756915
tp1139
assg3
F0.5
sg38
(lp1140
(lp1141
g1126
aa(lp1142
g1124
aa(lp1143
g1123
aa(lp1144
g1128
aasg2
F0.18257418583505536
ssI46
(dp1145
g1
F0.9486832980505138
sg7
(lp1146
(lp1147
S'general'
p1148
aa(lp1149
S'extensive'
p1150
aa(lp1151
S'complete'
p1152
aS'comprehensive'
p1153
aa(lp1154
S'universal'
p1155
aasg17
(dp1156
g19
g20
(g24
S'\xd1e\xc4\xa858\x9e?'
p1157
tp1158
Rp1159
sg30
(lp1160
(g1148
g1150
F0.501
tp1161
a(g1148
g1153
F0.501
tp1162
a(g1148
g1152
F0.501
tp1163
a(g1148
g1155
F0.9520578923563998
tp1164
a(g1150
g1153
F0.9883720930232558
tp1165
a(g1150
g1152
F0.9990592662276576
tp1166
a(g1150
g1155
F0.9999998979591941
tp1167
a(g1153
g1152
F0.9945454545454545
tp1168
a(g1153
g1155
F0.501
tp1169
a(g1152
g1155
F0.501
tp1170
assg3
F0.9
sg38
(lp1171
(lp1172
g1148
aa(lp1173
g1150
aa(lp1174
g1153
aa(lp1175
g1152
aa(lp1176
g1155
aasg2
F0.9486832980505138
ssI47
(dp1177
g1
F0.5477225575051661
sg7
(lp1178
(lp1179
S'alive'
p1180
aa(lp1181
S'awake'
p1182
aa(lp1183
S'aware'
p1184
aS'conscious'
p1185
aasg17
(dp1186
g19
g20
(g24
S'Go\n\xd86\xad\xe3?'
p1187
tp1188
Rp1189
sg30
(lp1190
(g1182
g1180
F0.99999997461929
tp1191
a(g1182
g1185
F0.9999999593495952
tp1192
a(g1182
g1184
F0.9991876523151909
tp1193
a(g1180
g1185
F0.697560975609756
tp1194
a(g1180
g1184
F0.9999999778761067
tp1195
a(g1185
g1184
F0.8822085889570552
tp1196
assg3
F0.6666666666666666
sg38
(lp1197
(lp1198
g1182
aa(lp1199
g1180
aa(lp1200
g1185
aa(lp1201
g1184
aasg2
F0.5477225575051661
ssI48
(dp1202
g1
F1.0
sg7
(lp1203
(lp1204
S'interested'
p1205
aa(lp1206
S'concerned'
p1207
aa(lp1208
S'involved'
p1209
aasg17
(dp1210
g19
g20
(g24
S'\xd9\x95\xb8L\x9c"\xde?'
p1211
tp1212
Rp1213
sg30
(lp1214
(g1205
g1207
F0.6666666666666666
tp1215
a(g1205
g1209
F0.7062937062937062
tp1216
a(g1207
g1209
F0.9999999770642207
tp1217
assg3
F1.0
sg38
(lp1218
(lp1219
g1205
aa(lp1220
g1207
aa(lp1221
g1209
aasg2
F1.0
ssI49
(dp1222
g1
F1.0
sg7
(lp1223
(lp1224
S'critical'
p1225
aa(lp1226
S'negative'
p1227
aa(lp1228
S'hostile'
p1229
aasg17
(dp1230
g19
g20
(g24
S'\xe2\x83\xe1\x1d1\x08\xe0?'
p1231
tp1232
Rp1233
sg30
(lp1234
(g1225
g1227
F0.501
tp1235
a(g1225
g1229
F0.9999999797570854
tp1236
a(g1227
g1229
F0.9999999866666669
tp1237
assg3
F1.0
sg38
(lp1238
(lp1239
g1225
aa(lp1240
g1227
aa(lp1241
g1229
aasg2
F1.0
ssI50
(dp1242
g1
F0.3333333333333333
sg7
(lp1243
(lp1244
S'hard'
p1245
aa(lp1246
S'painful'
p1247
aa(lp1248
S'hopeless'
p1249
aasg17
(dp1250
g19
g20
(g24
S'$Z\x9c\r1\x08\xe0?'
p1251
tp1252
Rp1253
sg30
(lp1254
(g1245
g1249
F0.9999999822695039
tp1255
a(g1245
g1247
F0.9999999236641279
tp1256
a(g1249
g1247
F0.501
tp1257
assg3
F0.6666666666666666
sg38
(lp1258
(lp1259
g1245
aa(lp1260
g1249
aa(lp1261
g1247
aasg2
F0.3333333333333333
ssI51
(dp1262
g1
F0.9128709291752769
sg7
(lp1263
(lp1264
S'unreliable'
p1265
aa(lp1266
S'dangerous'
p1267
aS'risky'
p1268
aa(lp1269
S'suicidal'
p1270
aasg17
(dp1271
g19
g20
(g24
S'\xef\x90fJvO\xbf?'
p1272
tp1273
Rp1274
sg30
(lp1275
(g1265
g1268
F0.501
tp1276
a(g1265
g1267
F0.9999999342105306
tp1277
a(g1265
g1270
F0.501
tp1278
a(g1268
g1267
F0.9726027397260274
tp1279
a(g1268
g1270
F0.501
tp1280
a(g1267
g1270
F0.9999999890109892
tp1281
assg3
F0.8333333333333334
sg38
(lp1282
(lp1283
g1265
aa(lp1284
g1268
aa(lp1285
g1267
aa(lp1286
g1270
aasg2
F0.9128709291752769
sss.