(dp0
S'tau'
p1
F-0.20727272727272728
sS'|tau|'
p2
F1.0
sS'pairwise'
p3
F0.39636363636363636
sS'ranking'
p4
(dp5
I0
(dp6
g1
F1.0
sS'gold'
p7
(lp8
(lp9
S'attractive'
p10
aa(lp11
S'pretty'
p12
aasS'raw'
p13
(dp14
S'prob*'
p15
cnumpy.core.multiarray
scalar
p16
(cnumpy
dtype
p17
(S'f8'
p18
I0
I1
tp19
Rp20
(I3
S'<'
p21
NNNI-1
I-1
I0
tp22
bS'\xd5x\xe9&1\x08\xe0?'
p23
tp24
Rp25
sS'link-probs'
p26
(lp27
(g10
g12
F0.501
tp28
assg3
F1.0
sS'algo'
p29
(lp30
(lp31
g10
aa(lp32
g12
aasg2
F1.0
ssI1
(dp33
g1
F-1.0
sg7
(lp34
(lp35
S'chilly'
p36
aa(lp37
S'unfriendly'
p38
aasg13
(dp39
g15
g16
(g20
S'\xd5x\xe9&1\x08\xe0?'
p40
tp41
Rp42
sg26
(lp43
(g38
g36
F0.501
tp44
assg3
F0.0
sg29
(lp45
(lp46
g38
aa(lp47
g36
aasg2
F1.0
ssI2
(dp48
g1
F1.0
sg7
(lp49
(lp50
S'fifth'
p51
aa(lp52
S'seventh'
p53
aasg13
(dp54
g15
g16
(g20
S'\xd5x\xe9&1\x08\xe0?'
p55
tp56
Rp57
sg26
(lp58
(g51
g53
F0.501
tp59
assg3
F1.0
sg29
(lp60
(lp61
g51
aa(lp62
g53
aasg2
F1.0
ssI3
(dp63
g1
F-1.0
sg7
(lp64
(lp65
S'ill'
p66
aa(lp67
S'impaired'
p68
aasg13
(dp69
g15
g16
(g20
S'\xd5x\xe9&1\x08\xe0?'
p70
tp71
Rp72
sg26
(lp73
(g68
g66
F0.501
tp74
assg3
F0.0
sg29
(lp75
(lp76
g68
aa(lp77
g66
aasg2
F1.0
ssI4
(dp78
g1
F1.0
sg7
(lp79
(lp80
S'big'
p81
aa(lp82
S'large'
p83
aasg13
(dp84
g15
g16
(g20
S'\xd5x\xe9&1\x08\xe0?'
p85
tp86
Rp87
sg26
(lp88
(g81
g83
F0.501
tp89
assg3
F1.0
sg29
(lp90
(lp91
g81
aa(lp92
g83
aasg2
F1.0
ssI5
(dp93
g1
F1.0
sg7
(lp94
(lp95
S'minute'
p96
aa(lp97
S'tiny'
p98
aasg13
(dp99
g15
g16
(g20
S'\xd5x\xe9&1\x08\xe0?'
p100
tp101
Rp102
sg26
(lp103
(g96
g98
F0.501
tp104
assg3
F1.0
sg29
(lp105
(lp106
g96
aa(lp107
g98
aasg2
F1.0
ssI6
(dp108
g1
F1.0
sg7
(lp109
(lp110
S'shut'
p111
aa(lp112
S'sealed'
p113
aasg13
(dp114
g15
g16
(g20
S'V\x0e-\xb2\x9d\xef\xdf?'
p115
tp116
Rp117
sg26
(lp118
(g111
g113
F0.499
tp119
assg3
F1.0
sg29
(lp120
(lp121
g111
aa(lp122
g113
aasg2
F1.0
ssI7
(dp123
g1
F-1.0
sg7
(lp124
(lp125
S'farther'
p126
aa(lp127
S'removed'
p128
aasg13
(dp129
g15
g16
(g20
S'\xd5x\xe9&1\x08\xe0?'
p130
tp131
Rp132
sg26
(lp133
(g128
g126
F0.501
tp134
assg3
F0.0
sg29
(lp135
(lp136
g128
aa(lp137
g126
aasg2
F1.0
ssI8
(dp138
g1
F1.0
sg7
(lp139
(lp140
S'mature'
p141
aa(lp142
S'ripe'
p143
aasg13
(dp144
g15
g16
(g20
S'\xd5x\xe9&1\x08\xe0?'
p145
tp146
Rp147
sg26
(lp148
(g141
g143
F0.501
tp149
assg3
F1.0
sg29
(lp150
(lp151
g141
aa(lp152
g143
aasg2
F1.0
ssI9
(dp153
g1
F1.0
sg7
(lp154
(lp155
S'sufficient'
p156
aa(lp157
S'wide'
p158
aasg13
(dp159
g15
g16
(g20
S'\xd5x\xe9&1\x08\xe0?'
p160
tp161
Rp162
sg26
(lp163
(g156
g158
F0.501
tp164
assg3
F1.0
sg29
(lp165
(lp166
g156
aa(lp167
g158
aasg2
F1.0
ssI10
(dp168
g1
F-1.0
sg7
(lp169
(lp170
S'overweight'
p171
aa(lp172
S'chubby'
p173
aasg13
(dp174
g15
g16
(g20
S'\xd5x\xe9&1\x08\xe0?'
p175
tp176
Rp177
sg26
(lp178
(g173
g171
F0.501
tp179
assg3
F0.0
sg29
(lp180
(lp181
g173
aa(lp182
g171
aasg2
F1.0
ssI11
(dp183
g1
F-1.0
sg7
(lp184
(lp185
S'third'
p186
aa(lp187
S'eighth'
p188
aasg13
(dp189
g15
g16
(g20
S'\xd5x\xe9&1\x08\xe0?'
p190
tp191
Rp192
sg26
(lp193
(g188
g186
F0.501
tp194
assg3
F0.0
sg29
(lp195
(lp196
g188
aa(lp197
g186
aasg2
F1.0
ssI12
(dp198
g1
F-1.0
sg7
(lp199
(lp200
S'interesting'
p201
aa(lp202
S'thrilling'
p203
aasg13
(dp204
g15
g16
(g20
S'\xd5x\xe9&1\x08\xe0?'
p205
tp206
Rp207
sg26
(lp208
(g203
g201
F0.501
tp209
assg3
F0.0
sg29
(lp210
(lp211
g203
aa(lp212
g201
aasg2
F1.0
ssI13
(dp213
g1
F1.0
sg7
(lp214
(lp215
S'indispensable'
p216
aa(lp217
S'critical'
p218
aasg13
(dp219
g15
g16
(g20
S'\xd5x\xe9&1\x08\xe0?'
p220
tp221
Rp222
sg26
(lp223
(g216
g218
F0.501
tp224
assg3
F1.0
sg29
(lp225
(lp226
g216
aa(lp227
g218
aasg2
F1.0
ssI14
(dp228
g1
F-1.0
sg7
(lp229
(lp230
g171
aa(lp231
g173
aasg13
(dp232
g15
g16
(g20
S'\xd5x\xe9&1\x08\xe0?'
p233
tp234
Rp235
sg26
(lp236
(g173
g171
F0.501
tp237
assg3
F0.0
sg29
(lp238
(lp239
g173
aa(lp240
g171
aasg2
F1.0
ssI15
(dp241
g1
F-1.0
sg7
(lp242
(lp243
S'clever'
p244
aa(lp245
S'smart'
p246
aasg13
(dp247
g15
g16
(g20
S'\xd5x\xe9&1\x08\xe0?'
p248
tp249
Rp250
sg26
(lp251
(g246
g244
F0.501
tp252
assg3
F0.0
sg29
(lp253
(lp254
g246
aa(lp255
g244
aasg2
F1.0
ssI16
(dp256
g1
F-1.0
sg7
(lp257
(lp258
S'inaudible'
p259
aa(lp260
S'silent'
p261
aasg13
(dp262
g15
g16
(g20
S'\xd5x\xe9&1\x08\xe0?'
p263
tp264
Rp265
sg26
(lp266
(g261
g259
F0.501
tp267
assg3
F0.0
sg29
(lp268
(lp269
g261
aa(lp270
g259
aasg2
F1.0
ssI17
(dp271
g1
F-1.0
sg7
(lp272
(lp273
S'frustrated'
p274
aa(lp275
S'defeated'
p276
aasg13
(dp277
g15
g16
(g20
S'\xd5x\xe9&1\x08\xe0?'
p278
tp279
Rp280
sg26
(lp281
(g276
g274
F0.501
tp282
assg3
F0.0
sg29
(lp283
(lp284
g276
aa(lp285
g274
aasg2
F1.0
ssI18
(dp286
g1
F-1.0
sg7
(lp287
(lp288
S'rare'
p289
aa(lp290
S'extraordinary'
p291
aasg13
(dp292
g15
g16
(g20
S'\xd5x\xe9&1\x08\xe0?'
p293
tp294
Rp295
sg26
(lp296
(g291
g289
F0.501
tp297
assg3
F0.0
sg29
(lp298
(lp299
g291
aa(lp300
g289
aasg2
F1.0
ssI19
(dp301
g1
F-1.0
sg7
(lp302
(lp303
S'second'
p304
aa(lp305
g51
aasg13
(dp306
g15
g16
(g20
S'\xd5x\xe9&1\x08\xe0?'
p307
tp308
Rp309
sg26
(lp310
(g51
g304
F0.501
tp311
assg3
F0.0
sg29
(lp312
(lp313
g51
aa(lp314
g304
aasg2
F1.0
ssI20
(dp315
g1
F-1.0
sg7
(lp316
(lp317
g171
aa(lp318
S'fat'
p319
aasg13
(dp320
g15
g16
(g20
S'\xd5x\xe9&1\x08\xe0?'
p321
tp322
Rp323
sg26
(lp324
(g319
g171
F0.501
tp325
assg3
F0.0
sg29
(lp326
(lp327
g319
aa(lp328
g171
aasg2
F1.0
ssI21
(dp329
g1
F-1.0
sg7
(lp330
(lp331
S'creepy'
p332
aa(lp333
S'terrifying'
p334
aasg13
(dp335
g15
g16
(g20
S'\xd5x\xe9&1\x08\xe0?'
p336
tp337
Rp338
sg26
(lp339
(g334
g332
F0.501
tp340
assg3
F0.0
sg29
(lp341
(lp342
g334
aa(lp343
g332
aasg2
F1.0
ssI22
(dp344
g1
F1.0
sg7
(lp345
(lp346
S'refrigerated'
p347
aa(lp348
S'cold'
p349
aasg13
(dp350
g15
g16
(g20
S'\xd5x\xe9&1\x08\xe0?'
p351
tp352
Rp353
sg26
(lp354
(g347
g349
F0.501
tp355
assg3
F1.0
sg29
(lp356
(lp357
g347
aa(lp358
g349
aasg2
F1.0
ssI23
(dp359
g1
F1.0
sg7
(lp360
(lp361
S'okay'
p362
aa(lp363
S'alright'
p364
aasg13
(dp365
g15
g16
(g20
S'\xd5x\xe9&1\x08\xe0?'
p366
tp367
Rp368
sg26
(lp369
(g362
g364
F0.501
tp370
assg3
F1.0
sg29
(lp371
(lp372
g362
aa(lp373
g364
aasg2
F1.0
ssI24
(dp374
g1
F-1.0
sg7
(lp375
(lp376
S'weird'
p377
aa(lp378
S'eerie'
p379
aasg13
(dp380
g15
g16
(g20
S'\xd5x\xe9&1\x08\xe0?'
p381
tp382
Rp383
sg26
(lp384
(g379
g377
F0.501
tp385
assg3
F0.0
sg29
(lp386
(lp387
g379
aa(lp388
g377
aasg2
F1.0
ssI25
(dp389
g1
F-1.0
sg7
(lp390
(lp391
g332
aa(lp392
g334
aasg13
(dp393
g15
g16
(g20
S'\xd5x\xe9&1\x08\xe0?'
p394
tp395
Rp396
sg26
(lp397
(g334
g332
F0.501
tp398
assg3
F0.0
sg29
(lp399
(lp400
g334
aa(lp401
g332
aasg2
F1.0
ssI26
(dp402
g1
F-1.0
sg7
(lp403
(lp404
S'simple'
p405
aa(lp406
S'effortless'
p407
aasg13
(dp408
g15
g16
(g20
S'\xd5x\xe9&1\x08\xe0?'
p409
tp410
Rp411
sg26
(lp412
(g407
g405
F0.501
tp413
assg3
F0.0
sg29
(lp414
(lp415
g407
aa(lp416
g405
aasg2
F1.0
ssI27
(dp417
g1
F1.0
sg7
(lp418
(lp419
S'dual'
p420
aa(lp421
S'treble'
p422
aasg13
(dp423
g15
g16
(g20
S'\xd5x\xe9&1\x08\xe0?'
p424
tp425
Rp426
sg26
(lp427
(g420
g422
F0.501
tp428
assg3
F1.0
sg29
(lp429
(lp430
g420
aa(lp431
g422
aasg2
F1.0
ssI28
(dp432
g1
F-1.0
sg7
(lp433
(lp434
S'cool'
p435
aa(lp436
S'serene'
p437
aasg13
(dp438
g15
g16
(g20
S'\xd5x\xe9&1\x08\xe0?'
p439
tp440
Rp441
sg26
(lp442
(g437
g435
F0.501
tp443
assg3
F0.0
sg29
(lp444
(lp445
g437
aa(lp446
g435
aasg2
F1.0
ssI29
(dp447
g1
F-1.0
sg7
(lp448
(lp449
S'critical'
p450
aa(lp451
S'negative'
p452
aasg13
(dp453
g15
g16
(g20
S'\xd5x\xe9&1\x08\xe0?'
p454
tp455
Rp456
sg26
(lp457
(g452
g450
F0.501
tp458
assg3
F0.0
sg29
(lp459
(lp460
g452
aa(lp461
g450
aasg2
F1.0
ssI30
(dp462
g1
F-1.0
sg7
(lp463
(lp464
S'painful'
p465
aa(lp466
S'hopeless'
p467
aasg13
(dp468
g15
g16
(g20
S'\xd5x\xe9&1\x08\xe0?'
p469
tp470
Rp471
sg26
(lp472
(g467
g465
F0.501
tp473
assg3
F0.0
sg29
(lp474
(lp475
g467
aa(lp476
g465
aasg2
F1.0
ssI31
(dp477
g1
F-1.0
sg7
(lp478
(lp479
S'flavorful'
p480
aa(lp481
S'zesty'
p482
aasg13
(dp483
g15
g16
(g20
S'V\x0e-\xb2\x9d\xef\xdf?'
p484
tp485
Rp486
sg26
(lp487
(g482
g480
F0.499
tp488
assg3
F0.0
sg29
(lp489
(lp490
g482
aa(lp491
g480
aasg2
F1.0
ssI32
(dp492
g1
F1.0
sg7
(lp493
(lp494
S'imperceptible'
p495
aa(lp496
g259
aasg13
(dp497
g15
g16
(g20
S'\xd5x\xe9&1\x08\xe0?'
p498
tp499
Rp500
sg26
(lp501
(g495
g259
F0.501
tp502
assg3
F1.0
sg29
(lp503
(lp504
g495
aa(lp505
g259
aasg2
F1.0
ssI33
(dp506
g1
F1.0
sg7
(lp507
(lp508
S'uncommon'
p509
aa(lp510
g291
aasg13
(dp511
g15
g16
(g20
S'\xd5x\xe9&1\x08\xe0?'
p512
tp513
Rp514
sg26
(lp515
(g509
g291
F0.501
tp516
assg3
F1.0
sg29
(lp517
(lp518
g509
aa(lp519
g291
aasg2
F1.0
ssI34
(dp520
g1
F-1.0
sg7
(lp521
(lp522
S'first'
p523
aa(lp524
g53
aasg13
(dp525
g15
g16
(g20
S'\xd5x\xe9&1\x08\xe0?'
p526
tp527
Rp528
sg26
(lp529
(g53
g523
F0.501
tp530
assg3
F0.0
sg29
(lp531
(lp532
g53
aa(lp533
g523
aasg2
F1.0
ssI35
(dp534
g1
F-1.0
sg7
(lp535
(lp536
g405
aa(lp537
g407
aasg13
(dp538
g15
g16
(g20
S'\xd5x\xe9&1\x08\xe0?'
p539
tp540
Rp541
sg26
(lp542
(g407
g405
F0.501
tp543
assg3
F0.0
sg29
(lp544
(lp545
g407
aa(lp546
g405
aasg2
F1.0
ssI36
(dp547
g1
F1.0
sg7
(lp548
(lp549
S'intense'
p550
aa(lp551
S'terrible'
p552
aasg13
(dp553
g15
g16
(g20
S'\xd5x\xe9&1\x08\xe0?'
p554
tp555
Rp556
sg26
(lp557
(g550
g552
F0.501
tp558
assg3
F1.0
sg29
(lp559
(lp560
g550
aa(lp561
g552
aasg2
F1.0
ssI37
(dp562
g1
F1.0
sg7
(lp563
(lp564
S'impracticable'
p565
aa(lp566
S'impractical'
p567
aasg13
(dp568
g15
g16
(g20
S'\xd5x\xe9&1\x08\xe0?'
p569
tp570
Rp571
sg26
(lp572
(g565
g567
F0.501
tp573
assg3
F1.0
sg29
(lp574
(lp575
g565
aa(lp576
g567
aasg2
F1.0
ssI38
(dp577
g1
F1.0
sg7
(lp578
(lp579
S'astonishing'
p580
aa(lp581
S'stunning'
p582
aasg13
(dp583
g15
g16
(g20
S'\xd5x\xe9&1\x08\xe0?'
p584
tp585
Rp586
sg26
(lp587
(g580
g582
F0.501
tp588
assg3
F1.0
sg29
(lp589
(lp590
g580
aa(lp591
g582
aasg2
F1.0
ssI39
(dp592
g1
F1.0
sg7
(lp593
(lp594
S'lean'
p595
aa(lp596
S'gaunt'
p597
aasg13
(dp598
g15
g16
(g20
S'\xd5x\xe9&1\x08\xe0?'
p599
tp600
Rp601
sg26
(lp602
(g595
g597
F0.501
tp603
assg3
F1.0
sg29
(lp604
(lp605
g595
aa(lp606
g597
aasg2
F1.0
ssI40
(dp607
g1
F-1.0
sg7
(lp608
(lp609
g186
aa(lp610
S'sixth'
p611
aasg13
(dp612
g15
g16
(g20
S'\xd5x\xe9&1\x08\xe0?'
p613
tp614
Rp615
sg26
(lp616
(g611
g186
F0.501
tp617
assg3
F0.0
sg29
(lp618
(lp619
g611
aa(lp620
g186
aasg2
F1.0
ssI41
(dp621
g1
F1.0
sg7
(lp622
(lp623
S'interested'
p624
aa(lp625
S'concerned'
p626
aasg13
(dp627
g15
g16
(g20
S'\xd5x\xe9&1\x08\xe0?'
p628
tp629
Rp630
sg26
(lp631
(g624
g626
F0.501
tp632
assg3
F1.0
sg29
(lp633
(lp634
g624
aa(lp635
g626
aasg2
F1.0
ssI42
(dp636
g1
F-1.0
sg7
(lp637
(lp638
S'gorgeous'
p639
aa(lp640
g10
aasg13
(dp641
g15
g16
(g20
S'\xd5x\xe9&1\x08\xe0?'
p642
tp643
Rp644
sg26
(lp645
(g10
g639
F0.501
tp646
assg3
F0.0
sg29
(lp647
(lp648
g10
aa(lp649
g639
aasg2
F1.0
ssI43
(dp650
g1
F1.0
sg7
(lp651
(lp652
S'fourth'
p653
aa(lp654
g188
aasg13
(dp655
g15
g16
(g20
S'\xd5x\xe9&1\x08\xe0?'
p656
tp657
Rp658
sg26
(lp659
(g653
g188
F0.501
tp660
assg3
F1.0
sg29
(lp661
(lp662
g653
aa(lp663
g188
aasg2
F1.0
ssI44
(dp664
g1
F1.0
sg7
(lp665
(lp666
S'funny'
p667
aa(lp668
S'unusual'
p669
aasg13
(dp670
g15
g16
(g20
S'\xd5x\xe9&1\x08\xe0?'
p671
tp672
Rp673
sg26
(lp674
(g667
g669
F0.501
tp675
assg3
F1.0
sg29
(lp676
(lp677
g667
aa(lp678
g669
aasg2
F1.0
ssI45
(dp679
g1
F-1.0
sg7
(lp680
(lp681
S'sugary'
p682
aa(lp683
S'syrupy'
p684
aasg13
(dp685
g15
g16
(g20
S'V\x0e-\xb2\x9d\xef\xdf?'
p686
tp687
Rp688
sg26
(lp689
(g684
g682
F0.499
tp690
assg3
F0.0
sg29
(lp691
(lp692
g684
aa(lp693
g682
aasg2
F1.0
ssI46
(dp694
g1
F-1.0
sg7
(lp695
(lp696
S'strong'
p697
aa(lp698
g550
aasg13
(dp699
g15
g16
(g20
S'\xd5x\xe9&1\x08\xe0?'
p700
tp701
Rp702
sg26
(lp703
(g550
g697
F0.501
tp704
assg3
F0.0
sg29
(lp705
(lp706
g550
aa(lp707
g697
aasg2
F1.0
ssI47
(dp708
g1
F-1.0
sg7
(lp709
(lp710
S'unreliable'
p711
aa(lp712
S'suicidal'
p713
aasg13
(dp714
g15
g16
(g20
S'\xd5x\xe9&1\x08\xe0?'
p715
tp716
Rp717
sg26
(lp718
(g713
g711
F0.501
tp719
assg3
F0.0
sg29
(lp720
(lp721
g713
aa(lp722
g711
aasg2
F1.0
ssI48
(dp723
g1
F-1.0
sg7
(lp724
(lp725
g697
aa(lp726
g550
aasg13
(dp727
g15
g16
(g20
S'\xd5x\xe9&1\x08\xe0?'
p728
tp729
Rp730
sg26
(lp731
(g550
g697
F0.501
tp732
assg3
F0.0
sg29
(lp733
(lp734
g550
aa(lp735
g697
aasg2
F1.0
ssI49
(dp736
g1
F-1.0
sg7
(lp737
(lp738
S'near'
p739
aa(lp740
S'nearby'
p741
aasg13
(dp742
g15
g16
(g20
S'\xd5x\xe9&1\x08\xe0?'
p743
tp744
Rp745
sg26
(lp746
(g741
g739
F0.501
tp747
assg3
F0.0
sg29
(lp748
(lp749
g741
aa(lp750
g739
aasg2
F1.0
ssI50
(dp751
g1
F-1.0
sg7
(lp752
(lp753
g405
aa(lp754
S'smooth'
p755
aasg13
(dp756
g15
g16
(g20
S'\xd5x\xe9&1\x08\xe0?'
p757
tp758
Rp759
sg26
(lp760
(g755
g405
F0.501
tp761
assg3
F0.0
sg29
(lp762
(lp763
g755
aa(lp764
g405
aasg2
F1.0
ssI51
(dp765
g1
F1.0
sg7
(lp766
(lp767
S'midget'
p768
aa(lp769
S'minuscule'
p770
aasg13
(dp771
g15
g16
(g20
S'\xd5x\xe9&1\x08\xe0?'
p772
tp773
Rp774
sg26
(lp775
(g768
g770
F0.501
tp776
assg3
F1.0
sg29
(lp777
(lp778
g768
aa(lp779
g770
aasg2
F1.0
ssI52
(dp780
g1
F-1.0
sg7
(lp781
(lp782
S'easy'
p783
aa(lp784
g755
aasg13
(dp785
g15
g16
(g20
S'\xd5x\xe9&1\x08\xe0?'
p786
tp787
Rp788
sg26
(lp789
(g755
g783
F0.501
tp790
assg3
F0.0
sg29
(lp791
(lp792
g755
aa(lp793
g783
aasg2
F1.0
ssI53
(dp794
g1
F-1.0
sg7
(lp795
(lp796
S'chilly'
p797
aa(lp798
S'icy'
p799
aasg13
(dp800
g15
g16
(g20
S'\xd5x\xe9&1\x08\xe0?'
p801
tp802
Rp803
sg26
(lp804
(g799
g797
F0.501
tp805
assg3
F0.0
sg29
(lp806
(lp807
g799
aa(lp808
g797
aasg2
F1.0
ssI54
(dp809
g1
F1.0
sg7
(lp810
(lp811
g697
aa(lp812
g552
aasg13
(dp813
g15
g16
(g20
S'\xd5x\xe9&1\x08\xe0?'
p814
tp815
Rp816
sg26
(lp817
(g697
g552
F0.501
tp818
assg3
F1.0
sg29
(lp819
(lp820
g697
aa(lp821
g552
aasg2
F1.0
ssI55
(dp822
g1
F1.0
sg7
(lp823
(lp824
S'doubled'
p825
aa(lp826
S'quadruple'
p827
aasg13
(dp828
g15
g16
(g20
S'\xd5x\xe9&1\x08\xe0?'
p829
tp830
Rp831
sg26
(lp832
(g825
g827
F0.501
tp833
assg3
F1.0
sg29
(lp834
(lp835
g825
aa(lp836
g827
aasg2
F1.0
ssI56
(dp837
g1
F1.0
sg7
(lp838
(lp839
S'sizeable'
p840
aa(lp841
g81
aasg13
(dp842
g15
g16
(g20
S'\xd5x\xe9&1\x08\xe0?'
p843
tp844
Rp845
sg26
(lp846
(g840
g81
F0.501
tp847
assg3
F1.0
sg29
(lp848
(lp849
g840
aa(lp850
g81
aasg2
F1.0
ssI57
(dp851
g1
F-1.0
sg7
(lp852
(lp853
S'smaller'
p854
aa(lp855
S'micro'
p856
aasg13
(dp857
g15
g16
(g20
S'\xd5x\xe9&1\x08\xe0?'
p858
tp859
Rp860
sg26
(lp861
(g856
g854
F0.501
tp862
assg3
F0.0
sg29
(lp863
(lp864
g856
aa(lp865
g854
aasg2
F1.0
ssI58
(dp866
g1
F-1.0
sg7
(lp867
(lp868
S'some'
p869
aa(lp870
S'numerous'
p871
aasg13
(dp872
g15
g16
(g20
S'\xd5x\xe9&1\x08\xe0?'
p873
tp874
Rp875
sg26
(lp876
(g871
g869
F0.501
tp877
assg3
F0.0
sg29
(lp878
(lp879
g871
aa(lp880
g869
aasg2
F1.0
ssI59
(dp881
g1
F-1.0
sg7
(lp882
(lp883
S'small'
p884
aa(lp885
g768
aasg13
(dp886
g15
g16
(g20
S'\xd5x\xe9&1\x08\xe0?'
p887
tp888
Rp889
sg26
(lp890
(g768
g884
F0.501
tp891
assg3
F0.0
sg29
(lp892
(lp893
g768
aa(lp894
g884
aasg2
F1.0
ssI60
(dp895
g1
F-1.0
sg7
(lp896
(lp897
S'intriguing'
p898
aa(lp899
S'entertaining'
p900
aasg13
(dp901
g15
g16
(g20
S'\xd5x\xe9&1\x08\xe0?'
p902
tp903
Rp904
sg26
(lp905
(g900
g898
F0.501
tp906
assg3
F0.0
sg29
(lp907
(lp908
g900
aa(lp909
g898
aasg2
F1.0
ssI61
(dp910
g1
F1.0
sg7
(lp911
(lp912
S'mediocre'
p913
aa(lp914
S'worst'
p915
aasg13
(dp916
g15
g16
(g20
S'\xd5x\xe9&1\x08\xe0?'
p917
tp918
Rp919
sg26
(lp920
(g913
g915
F0.501
tp921
assg3
F1.0
sg29
(lp922
(lp923
g913
aa(lp924
g915
aasg2
F1.0
ssI62
(dp925
g1
F1.0
sg7
(lp926
(lp927
g550
aa(lp928
g552
aasg13
(dp929
g15
g16
(g20
S'\xd5x\xe9&1\x08\xe0?'
p930
tp931
Rp932
sg26
(lp933
(g550
g552
F0.501
tp934
assg3
F1.0
sg29
(lp935
(lp936
g550
aa(lp937
g552
aasg2
F1.0
ssI63
(dp938
g1
F1.0
sg7
(lp939
(lp940
g81
aa(lp941
g83
aasg13
(dp942
g15
g16
(g20
S'\xd5x\xe9&1\x08\xe0?'
p943
tp944
Rp945
sg26
(lp946
(g81
g83
F0.501
tp947
assg3
F1.0
sg29
(lp948
(lp949
g81
aa(lp950
g83
aasg2
F1.0
ssI64
(dp951
g1
F1.0
sg7
(lp952
(lp953
S'general'
p954
aa(lp955
S'complete'
p956
aasg13
(dp957
g15
g16
(g20
S'\xd5x\xe9&1\x08\xe0?'
p958
tp959
Rp960
sg26
(lp961
(g954
g956
F0.501
tp962
assg3
F1.0
sg29
(lp963
(lp964
g954
aa(lp965
g956
aasg2
F1.0
ssI65
(dp966
g1
F1.0
sg7
(lp967
(lp968
g495
aa(lp969
g259
aasg13
(dp970
g15
g16
(g20
S'\xd5x\xe9&1\x08\xe0?'
p971
tp972
Rp973
sg26
(lp974
(g495
g259
F0.501
tp975
assg3
F1.0
sg29
(lp976
(lp977
g495
aa(lp978
g259
aasg2
F1.0
ssI66
(dp979
g1
F1.0
sg7
(lp980
(lp981
g639
aa(lp982
S'beautiful'
p983
aasg13
(dp984
g15
g16
(g20
S'\xd5x\xe9&1\x08\xe0?'
p985
tp986
Rp987
sg26
(lp988
(g639
g983
F0.501
tp989
assg3
F1.0
sg29
(lp990
(lp991
g639
aa(lp992
g983
aasg2
F1.0
ssI67
(dp993
g1
F1.0
sg7
(lp994
(lp995
g898
aa(lp996
S'amusing'
p997
aasg13
(dp998
g15
g16
(g20
S'\xd5x\xe9&1\x08\xe0?'
p999
tp1000
Rp1001
sg26
(lp1002
(g898
g997
F0.501
tp1003
assg3
F1.0
sg29
(lp1004
(lp1005
g898
aa(lp1006
g997
aasg2
F1.0
ssI68
(dp1007
g1
F-1.0
sg7
(lp1008
(lp1009
S'many'
p1010
aa(lp1011
S'galore'
p1012
aasg13
(dp1013
g15
g16
(g20
S'\xd5x\xe9&1\x08\xe0?'
p1014
tp1015
Rp1016
sg26
(lp1017
(g1012
g1010
F0.501
tp1018
assg3
F0.0
sg29
(lp1019
(lp1020
g1012
aa(lp1021
g1010
aasg2
F1.0
ssI69
(dp1022
g1
F-1.0
sg7
(lp1023
(lp1024
g797
aa(lp1025
g799
aasg13
(dp1026
g15
g16
(g20
S'\xd5x\xe9&1\x08\xe0?'
p1027
tp1028
Rp1029
sg26
(lp1030
(g799
g797
F0.501
tp1031
assg3
F0.0
sg29
(lp1032
(lp1033
g799
aa(lp1034
g797
aasg2
F1.0
ssI70
(dp1035
g1
F-1.0
sg7
(lp1036
(lp1037
S'lovely'
p1038
aa(lp1039
S'handsome'
p1040
aasg13
(dp1041
g15
g16
(g20
S'\xd5x\xe9&1\x08\xe0?'
p1042
tp1043
Rp1044
sg26
(lp1045
(g1040
g1038
F0.501
tp1046
assg3
F0.0
sg29
(lp1047
(lp1048
g1040
aa(lp1049
g1038
aasg2
F1.0
ssI71
(dp1050
g1
F-1.0
sg7
(lp1051
(lp1052
g334
aa(lp1053
S'sinister'
p1054
aasg13
(dp1055
g15
g16
(g20
S'\xd5x\xe9&1\x08\xe0?'
p1056
tp1057
Rp1058
sg26
(lp1059
(g1054
g334
F0.501
tp1060
assg3
F0.0
sg29
(lp1061
(lp1062
g1054
aa(lp1063
g334
aasg2
F1.0
ssI72
(dp1064
g1
F-1.0
sg7
(lp1065
(lp1066
S'emaciated'
p1067
aa(lp1068
S'skeletal'
p1069
aasg13
(dp1070
g15
g16
(g20
S'V\x0e-\xb2\x9d\xef\xdf?'
p1071
tp1072
Rp1073
sg26
(lp1074
(g1069
g1067
F0.499
tp1075
assg3
F0.0
sg29
(lp1076
(lp1077
g1069
aa(lp1078
g1067
aasg2
F1.0
ssI73
(dp1079
g1
F-1.0
sg7
(lp1080
(lp1081
g1038
aa(lp1082
g1040
aasg13
(dp1083
g15
g16
(g20
S'\xd5x\xe9&1\x08\xe0?'
p1084
tp1085
Rp1086
sg26
(lp1087
(g1040
g1038
F0.501
tp1088
assg3
F0.0
sg29
(lp1089
(lp1090
g1040
aa(lp1091
g1038
aasg2
F1.0
ssI74
(dp1092
g1
F-1.0
sg7
(lp1093
(lp1094
S'overwhelming'
p1095
aa(lp1096
S'violent'
p1097
aasg13
(dp1098
g15
g16
(g20
S'\xd5x\xe9&1\x08\xe0?'
p1099
tp1100
Rp1101
sg26
(lp1102
(g1097
g1095
F0.501
tp1103
assg3
F0.0
sg29
(lp1104
(lp1105
g1097
aa(lp1106
g1095
aasg2
F1.0
ssI75
(dp1107
g1
F-1.0
sg7
(lp1108
(lp1109
S'gloomy'
p1110
aa(lp1111
S'dark'
p1112
aasg13
(dp1113
g15
g16
(g20
S'\xd5x\xe9&1\x08\xe0?'
p1114
tp1115
Rp1116
sg26
(lp1117
(g1112
g1110
F0.501
tp1118
assg3
F0.0
sg29
(lp1119
(lp1120
g1112
aa(lp1121
g1110
aasg2
F1.0
ssI76
(dp1122
g1
F1.0
sg7
(lp1123
(lp1124
g10
aa(lp1125
g12
aasg13
(dp1126
g15
g16
(g20
S'\xd5x\xe9&1\x08\xe0?'
p1127
tp1128
Rp1129
sg26
(lp1130
(g10
g12
F0.501
tp1131
assg3
F1.0
sg29
(lp1132
(lp1133
g10
aa(lp1134
g12
aasg2
F1.0
ssI77
(dp1135
g1
F1.0
sg7
(lp1136
(lp1137
S'broad'
p1138
aa(lp1139
S'widespread'
p1140
aasg13
(dp1141
g15
g16
(g20
S'\xd5x\xe9&1\x08\xe0?'
p1142
tp1143
Rp1144
sg26
(lp1145
(g1138
g1140
F0.501
tp1146
assg3
F1.0
sg29
(lp1147
(lp1148
g1138
aa(lp1149
g1140
aasg2
F1.0
ssI78
(dp1150
g1
F1.0
sg7
(lp1151
(lp1152
g595
aa(lp1153
g1067
aasg13
(dp1154
g15
g16
(g20
S'\xd5x\xe9&1\x08\xe0?'
p1155
tp1156
Rp1157
sg26
(lp1158
(g595
g1067
F0.501
tp1159
assg3
F1.0
sg29
(lp1160
(lp1161
g595
aa(lp1162
g1067
aasg2
F1.0
ssI79
(dp1163
g1
F-1.0
sg7
(lp1164
(lp1165
g884
aa(lp1166
g768
aasg13
(dp1167
g15
g16
(g20
S'\xd5x\xe9&1\x08\xe0?'
p1168
tp1169
Rp1170
sg26
(lp1171
(g768
g884
F0.501
tp1172
assg3
F0.0
sg29
(lp1173
(lp1174
g768
aa(lp1175
g884
aasg2
F1.0
ssI80
(dp1176
g1
F-1.0
sg7
(lp1177
(lp1178
S'personal'
p1179
aa(lp1180
S'secret'
p1181
aasg13
(dp1182
g15
g16
(g20
S'\xd5x\xe9&1\x08\xe0?'
p1183
tp1184
Rp1185
sg26
(lp1186
(g1181
g1179
F0.501
tp1187
assg3
F0.0
sg29
(lp1188
(lp1189
g1181
aa(lp1190
g1179
aasg2
F1.0
ssI81
(dp1191
g1
F-1.0
sg7
(lp1192
(lp1193
S'unfortunate'
p1194
aa(lp1195
S'disastrous'
p1196
aasg13
(dp1197
g15
g16
(g20
S'\xd5x\xe9&1\x08\xe0?'
p1198
tp1199
Rp1200
sg26
(lp1201
(g1196
g1194
F0.501
tp1202
assg3
F0.0
sg29
(lp1203
(lp1204
g1196
aa(lp1205
g1194
aasg2
F1.0
ssI82
(dp1206
g1
F1.0
sg7
(lp1207
(lp1208
g913
aa(lp1209
g915
aasg13
(dp1210
g15
g16
(g20
S'\xd5x\xe9&1\x08\xe0?'
p1211
tp1212
Rp1213
sg26
(lp1214
(g913
g915
F0.501
tp1215
assg3
F1.0
sg29
(lp1216
(lp1217
g913
aa(lp1218
g915
aasg2
F1.0
ssI83
(dp1219
g1
F-1.0
sg7
(lp1220
(lp1221
S'neglected'
p1222
aa(lp1223
S'overlooked'
p1224
aasg13
(dp1225
g15
g16
(g20
S'V\x0e-\xb2\x9d\xef\xdf?'
p1226
tp1227
Rp1228
sg26
(lp1229
(g1224
g1222
F0.499
tp1230
assg3
F0.0
sg29
(lp1231
(lp1232
g1224
aa(lp1233
g1222
aasg2
F1.0
ssI84
(dp1234
g1
F-1.0
sg7
(lp1235
(lp1236
S'inaudible'
p1237
aa(lp1238
S'silent'
p1239
aasg13
(dp1240
g15
g16
(g20
S'\xd5x\xe9&1\x08\xe0?'
p1241
tp1242
Rp1243
sg26
(lp1244
(g1239
g1237
F0.501
tp1245
assg3
F0.0
sg29
(lp1246
(lp1247
g1239
aa(lp1248
g1237
aasg2
F1.0
ssI85
(dp1249
g1
F1.0
sg7
(lp1250
(lp1251
g347
aa(lp1252
g349
aasg13
(dp1253
g15
g16
(g20
S'\xd5x\xe9&1\x08\xe0?'
p1254
tp1255
Rp1256
sg26
(lp1257
(g347
g349
F0.501
tp1258
assg3
F1.0
sg29
(lp1259
(lp1260
g347
aa(lp1261
g349
aasg2
F1.0
ssI86
(dp1262
g1
F-1.0
sg7
(lp1263
(lp1264
g1067
aa(lp1265
g1069
aasg13
(dp1266
g15
g16
(g20
S'V\x0e-\xb2\x9d\xef\xdf?'
p1267
tp1268
Rp1269
sg26
(lp1270
(g1069
g1067
F0.499
tp1271
assg3
F0.0
sg29
(lp1272
(lp1273
g1069
aa(lp1274
g1067
aasg2
F1.0
ssI87
(dp1275
g1
F1.0
sg7
(lp1276
(lp1277
g51
aa(lp1278
g53
aasg13
(dp1279
g15
g16
(g20
S'\xd5x\xe9&1\x08\xe0?'
p1280
tp1281
Rp1282
sg26
(lp1283
(g51
g53
F0.501
tp1284
assg3
F1.0
sg29
(lp1285
(lp1286
g51
aa(lp1287
g53
aasg2
F1.0
ssI88
(dp1288
g1
F-1.0
sg7
(lp1289
(lp1290
g1038
aa(lp1291
g983
aasg13
(dp1292
g15
g16
(g20
S'\xd5x\xe9&1\x08\xe0?'
p1293
tp1294
Rp1295
sg26
(lp1296
(g983
g1038
F0.501
tp1297
assg3
F0.0
sg29
(lp1298
(lp1299
g983
aa(lp1300
g1038
aasg2
F1.0
ssI89
(dp1301
g1
F-1.0
sg7
(lp1302
(lp1303
S'high'
p1304
aa(lp1305
S'soaring'
p1306
aasg13
(dp1307
g15
g16
(g20
S'\xd5x\xe9&1\x08\xe0?'
p1308
tp1309
Rp1310
sg26
(lp1311
(g1306
g1304
F0.501
tp1312
assg3
F0.0
sg29
(lp1313
(lp1314
g1306
aa(lp1315
g1304
aasg2
F1.0
ssI90
(dp1316
g1
F1.0
sg7
(lp1317
(lp1318
g156
aa(lp1319
g158
aasg13
(dp1320
g15
g16
(g20
S'\xd5x\xe9&1\x08\xe0?'
p1321
tp1322
Rp1323
sg26
(lp1324
(g156
g158
F0.501
tp1325
assg3
F1.0
sg29
(lp1326
(lp1327
g156
aa(lp1328
g158
aasg2
F1.0
ssI91
(dp1329
g1
F-1.0
sg7
(lp1330
(lp1331
g304
aa(lp1332
g188
aasg13
(dp1333
g15
g16
(g20
S'\xd5x\xe9&1\x08\xe0?'
p1334
tp1335
Rp1336
sg26
(lp1337
(g188
g304
F0.501
tp1338
assg3
F0.0
sg29
(lp1339
(lp1340
g188
aa(lp1341
g304
aasg2
F1.0
ssI92
(dp1342
g1
F-1.0
sg7
(lp1343
(lp1344
g274
aa(lp1345
g276
aasg13
(dp1346
g15
g16
(g20
S'\xd5x\xe9&1\x08\xe0?'
p1347
tp1348
Rp1349
sg26
(lp1350
(g276
g274
F0.501
tp1351
assg3
F0.0
sg29
(lp1352
(lp1353
g276
aa(lp1354
g274
aasg2
F1.0
ssI93
(dp1355
g1
F-1.0
sg7
(lp1356
(lp1357
S'homicidal'
p1358
aa(lp1359
S'murderous'
p1360
aasg13
(dp1361
g15
g16
(g20
S'V\x0e-\xb2\x9d\xef\xdf?'
p1362
tp1363
Rp1364
sg26
(lp1365
(g1360
g1358
F0.499
tp1366
assg3
F0.0
sg29
(lp1367
(lp1368
g1360
aa(lp1369
g1358
aasg2
F1.0
ssI94
(dp1370
g1
F-1.0
sg7
(lp1371
(lp1372
S'humbled'
p1373
aa(lp1374
S'crushed'
p1375
aasg13
(dp1376
g15
g16
(g20
S'\xd5x\xe9&1\x08\xe0?'
p1377
tp1378
Rp1379
sg26
(lp1380
(g1375
g1373
F0.501
tp1381
assg3
F0.0
sg29
(lp1382
(lp1383
g1375
aa(lp1384
g1373
aasg2
F1.0
ssI95
(dp1385
g1
F-1.0
sg7
(lp1386
(lp1387
g244
aa(lp1388
S'intelligent'
p1389
aasg13
(dp1390
g15
g16
(g20
S'\xd5x\xe9&1\x08\xe0?'
p1391
tp1392
Rp1393
sg26
(lp1394
(g1389
g244
F0.501
tp1395
assg3
F0.0
sg29
(lp1396
(lp1397
g1389
aa(lp1398
g244
aasg2
F1.0
ssI96
(dp1399
g1
F-1.0
sg7
(lp1400
(lp1401
g854
aa(lp1402
g98
aasg13
(dp1403
g15
g16
(g20
S'\xd5x\xe9&1\x08\xe0?'
p1404
tp1405
Rp1406
sg26
(lp1407
(g98
g854
F0.501
tp1408
assg3
F0.0
sg29
(lp1409
(lp1410
g98
aa(lp1411
g854
aasg2
F1.0
ssI97
(dp1412
g1
F-1.0
sg7
(lp1413
(lp1414
g956
aa(lp1415
S'universal'
p1416
aasg13
(dp1417
g15
g16
(g20
S'\xd5x\xe9&1\x08\xe0?'
p1418
tp1419
Rp1420
sg26
(lp1421
(g1416
g956
F0.501
tp1422
assg3
F0.0
sg29
(lp1423
(lp1424
g1416
aa(lp1425
g956
aasg2
F1.0
ssI98
(dp1426
g1
F-1.0
sg7
(lp1427
(lp1428
g523
aa(lp1429
g51
aasg13
(dp1430
g15
g16
(g20
S'\xd5x\xe9&1\x08\xe0?'
p1431
tp1432
Rp1433
sg26
(lp1434
(g51
g523
F0.501
tp1435
assg3
F0.0
sg29
(lp1436
(lp1437
g51
aa(lp1438
g523
aasg2
F1.0
ssI99
(dp1439
g1
F-1.0
sg7
(lp1440
(lp1441
S'real'
p1442
aa(lp1443
S'grave'
p1444
aasg13
(dp1445
g15
g16
(g20
S'\xd5x\xe9&1\x08\xe0?'
p1446
tp1447
Rp1448
sg26
(lp1449
(g1444
g1442
F0.501
tp1450
assg3
F0.0
sg29
(lp1451
(lp1452
g1444
aa(lp1453
g1442
aasg2
F1.0
ssI100
(dp1454
g1
F-1.0
sg7
(lp1455
(lp1456
g869
aa(lp1457
g871
aasg13
(dp1458
g15
g16
(g20
S'\xd5x\xe9&1\x08\xe0?'
p1459
tp1460
Rp1461
sg26
(lp1462
(g871
g869
F0.501
tp1463
assg3
F0.0
sg29
(lp1464
(lp1465
g871
aa(lp1466
g869
aasg2
F1.0
ssI101
(dp1467
g1
F1.0
sg7
(lp1468
(lp1469
g997
aa(lp1470
S'exciting'
p1471
aasg13
(dp1472
g15
g16
(g20
S'\xd5x\xe9&1\x08\xe0?'
p1473
tp1474
Rp1475
sg26
(lp1476
(g997
g1471
F0.501
tp1477
assg3
F1.0
sg29
(lp1478
(lp1479
g997
aa(lp1480
g1471
aasg2
F1.0
ssI102
(dp1481
g1
F1.0
sg7
(lp1482
(lp1483
S'painless'
p1484
aa(lp1485
g407
aasg13
(dp1486
g15
g16
(g20
S'\xd5x\xe9&1\x08\xe0?'
p1487
tp1488
Rp1489
sg26
(lp1490
(g1484
g407
F0.501
tp1491
assg3
F1.0
sg29
(lp1492
(lp1493
g1484
aa(lp1494
g407
aasg2
F1.0
ssI103
(dp1495
g1
F1.0
sg7
(lp1496
(lp1497
g954
aa(lp1498
S'extensive'
p1499
aasg13
(dp1500
g15
g16
(g20
S'\xd5x\xe9&1\x08\xe0?'
p1501
tp1502
Rp1503
sg26
(lp1504
(g954
g1499
F0.501
tp1505
assg3
F1.0
sg29
(lp1506
(lp1507
g954
aa(lp1508
g1499
aasg2
F1.0
ssI104
(dp1509
g1
F1.0
sg7
(lp1510
(lp1511
g954
aa(lp1512
g956
aasg13
(dp1513
g15
g16
(g20
S'\xd5x\xe9&1\x08\xe0?'
p1514
tp1515
Rp1516
sg26
(lp1517
(g954
g956
F0.501
tp1518
assg3
F1.0
sg29
(lp1519
(lp1520
g954
aa(lp1521
g956
aasg2
F1.0
ssI105
(dp1522
g1
F1.0
sg7
(lp1523
(lp1524
S'negligent'
p1525
aa(lp1526
S'careless'
p1527
aasg13
(dp1528
g15
g16
(g20
S'V\x0e-\xb2\x9d\xef\xdf?'
p1529
tp1530
Rp1531
sg26
(lp1532
(g1525
g1527
F0.499
tp1533
assg3
F1.0
sg29
(lp1534
(lp1535
g1525
aa(lp1536
g1527
aasg2
F1.0
ssI106
(dp1537
g1
F-1.0
sg7
(lp1538
(lp1539
S'satisfied'
p1540
aa(lp1541
S'content'
p1542
aasg13
(dp1543
g15
g16
(g20
S'\xd5x\xe9&1\x08\xe0?'
p1544
tp1545
Rp1546
sg26
(lp1547
(g1542
g1540
F0.501
tp1548
assg3
F0.0
sg29
(lp1549
(lp1550
g1542
aa(lp1551
g1540
aasg2
F1.0
ssI107
(dp1552
g1
F-1.0
sg7
(lp1553
(lp1554
g770
aa(lp1555
S'microscopic'
p1556
aasg13
(dp1557
g15
g16
(g20
S'\xd5x\xe9&1\x08\xe0?'
p1558
tp1559
Rp1560
sg26
(lp1561
(g1556
g770
F0.501
tp1562
assg3
F0.0
sg29
(lp1563
(lp1564
g1556
aa(lp1565
g770
aasg2
F1.0
ssI108
(dp1566
g1
F1.0
sg7
(lp1567
(lp1568
g495
aa(lp1569
g261
aasg13
(dp1570
g15
g16
(g20
S'\xd5x\xe9&1\x08\xe0?'
p1571
tp1572
Rp1573
sg26
(lp1574
(g495
g261
F0.501
tp1575
assg3
F1.0
sg29
(lp1576
(lp1577
g495
aa(lp1578
g261
aasg2
F1.0
ssI109
(dp1579
g1
F1.0
sg7
(lp1580
(lp1581
g1484
aa(lp1582
g407
aasg13
(dp1583
g15
g16
(g20
S'\xd5x\xe9&1\x08\xe0?'
p1584
tp1585
Rp1586
sg26
(lp1587
(g1484
g407
F0.501
tp1588
assg3
F1.0
sg29
(lp1589
(lp1590
g1484
aa(lp1591
g407
aasg2
F1.0
ssI110
(dp1592
g1
F-1.0
sg7
(lp1593
(lp1594
S'immaculate'
p1595
aa(lp1596
S'spotless'
p1597
aasg13
(dp1598
g15
g16
(g20
S'V\x0e-\xb2\x9d\xef\xdf?'
p1599
tp1600
Rp1601
sg26
(lp1602
(g1597
g1595
F0.499
tp1603
assg3
F0.0
sg29
(lp1604
(lp1605
g1597
aa(lp1606
g1595
aasg2
F1.0
ssI111
(dp1607
g1
F-1.0
sg7
(lp1608
(lp1609
g244
aa(lp1610
g246
aasg13
(dp1611
g15
g16
(g20
S'\xd5x\xe9&1\x08\xe0?'
p1612
tp1613
Rp1614
sg26
(lp1615
(g246
g244
F0.501
tp1616
assg3
F0.0
sg29
(lp1617
(lp1618
g246
aa(lp1619
g244
aasg2
F1.0
ssI112
(dp1620
g1
F1.0
sg7
(lp1621
(lp1622
S'sinful'
p1623
aa(lp1624
S'evil'
p1625
aasg13
(dp1626
g15
g16
(g20
S'\xd5x\xe9&1\x08\xe0?'
p1627
tp1628
Rp1629
sg26
(lp1630
(g1623
g1625
F0.501
tp1631
assg3
F1.0
sg29
(lp1632
(lp1633
g1623
aa(lp1634
g1625
aasg2
F1.0
ssI113
(dp1635
g1
F-1.0
sg7
(lp1636
(lp1637
S'slim'
p1638
aa(lp1639
g1069
aasg13
(dp1640
g15
g16
(g20
S'\xd5x\xe9&1\x08\xe0?'
p1641
tp1642
Rp1643
sg26
(lp1644
(g1069
g1638
F0.501
tp1645
assg3
F0.0
sg29
(lp1646
(lp1647
g1069
aa(lp1648
g1638
aasg2
F1.0
ssI114
(dp1649
g1
F-1.0
sg7
(lp1650
(lp1651
g825
aa(lp1652
g420
aasg13
(dp1653
g15
g16
(g20
S'\xd5x\xe9&1\x08\xe0?'
p1654
tp1655
Rp1656
sg26
(lp1657
(g420
g825
F0.501
tp1658
assg3
F0.0
sg29
(lp1659
(lp1660
g420
aa(lp1661
g825
aasg2
F1.0
ssI115
(dp1662
g1
F-1.0
sg7
(lp1663
(lp1664
S'some'
p1665
aa(lp1666
S'fewer'
p1667
aasg13
(dp1668
g15
g16
(g20
S'\xd5x\xe9&1\x08\xe0?'
p1669
tp1670
Rp1671
sg26
(lp1672
(g1667
g1665
F0.501
tp1673
assg3
F0.0
sg29
(lp1674
(lp1675
g1667
aa(lp1676
g1665
aasg2
F1.0
ssI116
(dp1677
g1
F1.0
sg7
(lp1678
(lp1679
g96
aa(lp1680
g770
aasg13
(dp1681
g15
g16
(g20
S'\xd5x\xe9&1\x08\xe0?'
p1682
tp1683
Rp1684
sg26
(lp1685
(g96
g770
F0.501
tp1686
assg3
F1.0
sg29
(lp1687
(lp1688
g96
aa(lp1689
g770
aasg2
F1.0
ssI117
(dp1690
g1
F-1.0
sg7
(lp1691
(lp1692
g289
aa(lp1693
g291
aasg13
(dp1694
g15
g16
(g20
S'\xd5x\xe9&1\x08\xe0?'
p1695
tp1696
Rp1697
sg26
(lp1698
(g291
g289
F0.501
tp1699
assg3
F0.0
sg29
(lp1700
(lp1701
g291
aa(lp1702
g289
aasg2
F1.0
ssI118
(dp1703
g1
F1.0
sg7
(lp1704
(lp1705
g1040
aa(lp1706
g10
aasg13
(dp1707
g15
g16
(g20
S'\xd5x\xe9&1\x08\xe0?'
p1708
tp1709
Rp1710
sg26
(lp1711
(g1040
g10
F0.501
tp1712
assg3
F1.0
sg29
(lp1713
(lp1714
g1040
aa(lp1715
g10
aasg2
F1.0
ssI119
(dp1716
g1
F-1.0
sg7
(lp1717
(lp1718
g854
aa(lp1719
g770
aasg13
(dp1720
g15
g16
(g20
S'\xd5x\xe9&1\x08\xe0?'
p1721
tp1722
Rp1723
sg26
(lp1724
(g770
g854
F0.501
tp1725
assg3
F0.0
sg29
(lp1726
(lp1727
g770
aa(lp1728
g854
aasg2
F1.0
ssI120
(dp1729
g1
F-1.0
sg7
(lp1730
(lp1731
g96
aa(lp1732
g856
aasg13
(dp1733
g15
g16
(g20
S'\xd5x\xe9&1\x08\xe0?'
p1734
tp1735
Rp1736
sg26
(lp1737
(g856
g96
F0.501
tp1738
assg3
F0.0
sg29
(lp1739
(lp1740
g856
aa(lp1741
g96
aasg2
F1.0
ssI121
(dp1742
g1
F1.0
sg7
(lp1743
(lp1744
g840
aa(lp1745
g83
aasg13
(dp1746
g15
g16
(g20
S'\xd5x\xe9&1\x08\xe0?'
p1747
tp1748
Rp1749
sg26
(lp1750
(g840
g83
F0.501
tp1751
assg3
F1.0
sg29
(lp1752
(lp1753
g840
aa(lp1754
g83
aasg2
F1.0
ssI122
(dp1755
g1
F1.0
sg7
(lp1756
(lp1757
S'stuffed'
p1758
aa(lp1759
S'overflowing'
p1760
aasg13
(dp1761
g15
g16
(g20
S'V\x0e-\xb2\x9d\xef\xdf?'
p1762
tp1763
Rp1764
sg26
(lp1765
(g1758
g1760
F0.499
tp1766
assg3
F1.0
sg29
(lp1767
(lp1768
g1758
aa(lp1769
g1760
aasg2
F1.0
ssI123
(dp1770
g1
F-1.0
sg7
(lp1771
(lp1772
g83
aa(lp1773
S'colossal'
p1774
aasg13
(dp1775
g15
g16
(g20
S'\xd5x\xe9&1\x08\xe0?'
p1776
tp1777
Rp1778
sg26
(lp1779
(g1774
g83
F0.501
tp1780
assg3
F0.0
sg29
(lp1781
(lp1782
g1774
aa(lp1783
g83
aasg2
F1.0
ssI124
(dp1784
g1
F1.0
sg7
(lp1785
(lp1786
S'cordial'
p1787
aa(lp1788
S'warm'
p1789
aasg13
(dp1790
g15
g16
(g20
S'\xd5x\xe9&1\x08\xe0?'
p1791
tp1792
Rp1793
sg26
(lp1794
(g1787
g1789
F0.501
tp1795
assg3
F1.0
sg29
(lp1796
(lp1797
g1787
aa(lp1798
g1789
aasg2
F1.0
ssI125
(dp1799
g1
F1.0
sg7
(lp1800
(lp1801
g1623
aa(lp1802
g1625
aasg13
(dp1803
g15
g16
(g20
S'\xd5x\xe9&1\x08\xe0?'
p1804
tp1805
Rp1806
sg26
(lp1807
(g1623
g1625
F0.501
tp1808
assg3
F1.0
sg29
(lp1809
(lp1810
g1623
aa(lp1811
g1625
aasg2
F1.0
ssI126
(dp1812
g1
F-1.0
sg7
(lp1813
(lp1814
g1665
aa(lp1815
S'few'
p1816
aasg13
(dp1817
g15
g16
(g20
S'\xd5x\xe9&1\x08\xe0?'
p1818
tp1819
Rp1820
sg26
(lp1821
(g1816
g1665
F0.501
tp1822
assg3
F0.0
sg29
(lp1823
(lp1824
g1816
aa(lp1825
g1665
aasg2
F1.0
ssI127
(dp1826
g1
F1.0
sg7
(lp1827
(lp1828
S'unusual'
p1829
aa(lp1830
g291
aasg13
(dp1831
g15
g16
(g20
S'\xd5x\xe9&1\x08\xe0?'
p1832
tp1833
Rp1834
sg26
(lp1835
(g1829
g291
F0.501
tp1836
assg3
F1.0
sg29
(lp1837
(lp1838
g1829
aa(lp1839
g291
aasg2
F1.0
ssI128
(dp1840
g1
F-1.0
sg7
(lp1841
(lp1842
S'far'
p1843
aa(lp1844
g128
aasg13
(dp1845
g15
g16
(g20
S'\xd5x\xe9&1\x08\xe0?'
p1846
tp1847
Rp1848
sg26
(lp1849
(g128
g1843
F0.501
tp1850
assg3
F0.0
sg29
(lp1851
(lp1852
g128
aa(lp1853
g1843
aasg2
F1.0
ssI129
(dp1854
g1
F1.0
sg7
(lp1855
(lp1856
g1787
aa(lp1857
S'intimate'
p1858
aasg13
(dp1859
g15
g16
(g20
S'\xd5x\xe9&1\x08\xe0?'
p1860
tp1861
Rp1862
sg26
(lp1863
(g1787
g1858
F0.501
tp1864
assg3
F1.0
sg29
(lp1865
(lp1866
g1787
aa(lp1867
g1858
aasg2
F1.0
ssI130
(dp1868
g1
F-1.0
sg7
(lp1869
(lp1870
S'overheated'
p1871
aa(lp1872
S'sultry'
p1873
aasg13
(dp1874
g15
g16
(g20
S'V\x0e-\xb2\x9d\xef\xdf?'
p1875
tp1876
Rp1877
sg26
(lp1878
(g1873
g1871
F0.499
tp1879
assg3
F0.0
sg29
(lp1880
(lp1881
g1873
aa(lp1882
g1871
aasg2
F1.0
ssI131
(dp1883
g1
F-1.0
sg7
(lp1884
(lp1885
g1442
aa(lp1886
g1444
aasg13
(dp1887
g15
g16
(g20
S'\xd5x\xe9&1\x08\xe0?'
p1888
tp1889
Rp1890
sg26
(lp1891
(g1444
g1442
F0.501
tp1892
assg3
F0.0
sg29
(lp1893
(lp1894
g1444
aa(lp1895
g1442
aasg2
F1.0
ssI132
(dp1896
g1
F-1.0
sg7
(lp1897
(lp1898
g854
aa(lp1899
g1556
aasg13
(dp1900
g15
g16
(g20
S'\xd5x\xe9&1\x08\xe0?'
p1901
tp1902
Rp1903
sg26
(lp1904
(g1556
g854
F0.501
tp1905
assg3
F0.0
sg29
(lp1906
(lp1907
g1556
aa(lp1908
g854
aasg2
F1.0
ssI133
(dp1909
g1
F1.0
sg7
(lp1910
(lp1911
g669
aa(lp1912
g377
aasg13
(dp1913
g15
g16
(g20
S'\xd5x\xe9&1\x08\xe0?'
p1914
tp1915
Rp1916
sg26
(lp1917
(g669
g377
F0.501
tp1918
assg3
F1.0
sg29
(lp1919
(lp1920
g669
aa(lp1921
g377
aasg2
F1.0
ssI134
(dp1922
g1
F-1.0
sg7
(lp1923
(lp1924
g956
aa(lp1925
g1416
aasg13
(dp1926
g15
g16
(g20
S'\xd5x\xe9&1\x08\xe0?'
p1927
tp1928
Rp1929
sg26
(lp1930
(g1416
g956
F0.501
tp1931
assg3
F0.0
sg29
(lp1932
(lp1933
g1416
aa(lp1934
g956
aasg2
F1.0
ssI135
(dp1935
g1
F1.0
sg7
(lp1936
(lp1937
g1758
aa(lp1938
S'overloaded'
p1939
aasg13
(dp1940
g15
g16
(g20
S'V\x0e-\xb2\x9d\xef\xdf?'
p1941
tp1942
Rp1943
sg26
(lp1944
(g1758
g1939
F0.499
tp1945
assg3
F1.0
sg29
(lp1946
(lp1947
g1758
aa(lp1948
g1939
aasg2
F1.0
ssI136
(dp1949
g1
F-1.0
sg7
(lp1950
(lp1951
g755
aa(lp1952
g1484
aasg13
(dp1953
g15
g16
(g20
S'\xd5x\xe9&1\x08\xe0?'
p1954
tp1955
Rp1956
sg26
(lp1957
(g1484
g755
F0.501
tp1958
assg3
F0.0
sg29
(lp1959
(lp1960
g1484
aa(lp1961
g755
aasg2
F1.0
ssI137
(dp1962
g1
F-1.0
sg7
(lp1963
(lp1964
S'obsolete'
p1965
aa(lp1966
S'outdated'
p1967
aasg13
(dp1968
g15
g16
(g20
S'\xd5x\xe9&1\x08\xe0?'
p1969
tp1970
Rp1971
sg26
(lp1972
(g1967
g1965
F0.501
tp1973
assg3
F0.0
sg29
(lp1974
(lp1975
g1967
aa(lp1976
g1965
aasg2
F1.0
ssI138
(dp1977
g1
F-1.0
sg7
(lp1978
(lp1979
g854
aa(lp1980
g96
aasg13
(dp1981
g15
g16
(g20
S'\xd5x\xe9&1\x08\xe0?'
p1982
tp1983
Rp1984
sg26
(lp1985
(g96
g854
F0.501
tp1986
assg3
F0.0
sg29
(lp1987
(lp1988
g96
aa(lp1989
g854
aasg2
F1.0
ssI139
(dp1990
g1
F-1.0
sg7
(lp1991
(lp1992
g523
aa(lp1993
g188
aasg13
(dp1994
g15
g16
(g20
S'\xd5x\xe9&1\x08\xe0?'
p1995
tp1996
Rp1997
sg26
(lp1998
(g188
g523
F0.501
tp1999
assg3
F0.0
sg29
(lp2000
(lp2001
g188
aa(lp2002
g523
aasg2
F1.0
ssI140
(dp2003
g1
F1.0
sg7
(lp2004
(lp2005
g768
aa(lp2006
g98
aasg13
(dp2007
g15
g16
(g20
S'\xd5x\xe9&1\x08\xe0?'
p2008
tp2009
Rp2010
sg26
(lp2011
(g768
g98
F0.501
tp2012
assg3
F1.0
sg29
(lp2013
(lp2014
g768
aa(lp2015
g98
aasg2
F1.0
ssI141
(dp2016
g1
F-1.0
sg7
(lp2017
(lp2018
g667
aa(lp2019
g379
aasg13
(dp2020
g15
g16
(g20
S'\xd5x\xe9&1\x08\xe0?'
p2021
tp2022
Rp2023
sg26
(lp2024
(g379
g667
F0.501
tp2025
assg3
F0.0
sg29
(lp2026
(lp2027
g379
aa(lp2028
g667
aasg2
F1.0
ssI142
(dp2029
g1
F1.0
sg7
(lp2030
(lp2031
g565
aa(lp2032
g567
aasg13
(dp2033
g15
g16
(g20
S'\xd5x\xe9&1\x08\xe0?'
p2034
tp2035
Rp2036
sg26
(lp2037
(g565
g567
F0.501
tp2038
assg3
F1.0
sg29
(lp2039
(lp2040
g565
aa(lp2041
g567
aasg2
F1.0
ssI143
(dp2042
g1
F-1.0
sg7
(lp2043
(lp2044
g567
aa(lp2045
S'unrealistic'
p2046
aasg13
(dp2047
g15
g16
(g20
S'\xd5x\xe9&1\x08\xe0?'
p2048
tp2049
Rp2050
sg26
(lp2051
(g2046
g567
F0.501
tp2052
assg3
F0.0
sg29
(lp2053
(lp2054
g2046
aa(lp2055
g567
aasg2
F1.0
ssI144
(dp2056
g1
F1.0
sg7
(lp2057
(lp2058
g126
aa(lp2059
S'further'
p2060
aasg13
(dp2061
g15
g16
(g20
S'\xd5x\xe9&1\x08\xe0?'
p2062
tp2063
Rp2064
sg26
(lp2065
(g126
g2060
F0.501
tp2066
assg3
F1.0
sg29
(lp2067
(lp2068
g126
aa(lp2069
g2060
aasg2
F1.0
ssI145
(dp2070
g1
F-1.0
sg7
(lp2071
(lp2072
g1471
aa(lp2073
S'fascinating'
p2074
aasg13
(dp2075
g15
g16
(g20
S'\xd5x\xe9&1\x08\xe0?'
p2076
tp2077
Rp2078
sg26
(lp2079
(g2074
g1471
F0.501
tp2080
assg3
F0.0
sg29
(lp2081
(lp2082
g2074
aa(lp2083
g1471
aasg2
F1.0
ssI146
(dp2084
g1
F-1.0
sg7
(lp2085
(lp2086
S'fraudulent'
p2087
aa(lp2088
S'false'
p2089
aasg13
(dp2090
g15
g16
(g20
S'\xd5x\xe9&1\x08\xe0?'
p2091
tp2092
Rp2093
sg26
(lp2094
(g2089
g2087
F0.501
tp2095
assg3
F0.0
sg29
(lp2096
(lp2097
g2089
aa(lp2098
g2087
aasg2
F1.0
ssI147
(dp2099
g1
F-1.0
sg7
(lp2100
(lp2101
S'risky'
p2102
aa(lp2103
g713
aasg13
(dp2104
g15
g16
(g20
S'\xd5x\xe9&1\x08\xe0?'
p2105
tp2106
Rp2107
sg26
(lp2108
(g713
g2102
F0.501
tp2109
assg3
F0.0
sg29
(lp2110
(lp2111
g713
aa(lp2112
g2102
aasg2
F1.0
ssI148
(dp2113
g1
F-1.0
sg7
(lp2114
(lp2115
g1194
aa(lp2116
g1196
aasg13
(dp2117
g15
g16
(g20
S'\xd5x\xe9&1\x08\xe0?'
p2118
tp2119
Rp2120
sg26
(lp2121
(g1196
g1194
F0.501
tp2122
assg3
F0.0
sg29
(lp2123
(lp2124
g1196
aa(lp2125
g1194
aasg2
F1.0
ssI149
(dp2126
g1
F-1.0
sg7
(lp2127
(lp2128
g770
aa(lp2129
g856
aasg13
(dp2130
g15
g16
(g20
S'\xd5x\xe9&1\x08\xe0?'
p2131
tp2132
Rp2133
sg26
(lp2134
(g856
g770
F0.501
tp2135
assg3
F0.0
sg29
(lp2136
(lp2137
g856
aa(lp2138
g770
aasg2
F1.0
ssI150
(dp2139
g1
F-1.0
sg7
(lp2140
(lp2141
S'hot'
p2142
aa(lp2143
g1871
aasg13
(dp2144
g15
g16
(g20
S'\xd5x\xe9&1\x08\xe0?'
p2145
tp2146
Rp2147
sg26
(lp2148
(g1871
g2142
F0.501
tp2149
assg3
F0.0
sg29
(lp2150
(lp2151
g1871
aa(lp2152
g2142
aasg2
F1.0
ssI151
(dp2153
g1
F-1.0
sg7
(lp2154
(lp2155
S'double'
p2156
aa(lp2157
g825
aasg13
(dp2158
g15
g16
(g20
S'\xd5x\xe9&1\x08\xe0?'
p2159
tp2160
Rp2161
sg26
(lp2162
(g825
g2156
F0.501
tp2163
assg3
F0.0
sg29
(lp2164
(lp2165
g825
aa(lp2166
g2156
aasg2
F1.0
ssI152
(dp2167
g1
F1.0
sg7
(lp2168
(lp2169
g768
aa(lp2170
g96
aasg13
(dp2171
g15
g16
(g20
S'\xd5x\xe9&1\x08\xe0?'
p2172
tp2173
Rp2174
sg26
(lp2175
(g768
g96
F0.501
tp2176
assg3
F1.0
sg29
(lp2177
(lp2178
g768
aa(lp2179
g96
aasg2
F1.0
ssI153
(dp2180
g1
F1.0
sg7
(lp2181
(lp2182
S'bright'
p2183
aa(lp2184
S'brilliant'
p2185
aasg13
(dp2186
g15
g16
(g20
S'\xd5x\xe9&1\x08\xe0?'
p2187
tp2188
Rp2189
sg26
(lp2190
(g2183
g2185
F0.501
tp2191
assg3
F1.0
sg29
(lp2192
(lp2193
g2183
aa(lp2194
g2185
aasg2
F1.0
ssI154
(dp2195
g1
F-1.0
sg7
(lp2196
(lp2197
S'scary'
p2198
aa(lp2199
g334
aasg13
(dp2200
g15
g16
(g20
S'\xd5x\xe9&1\x08\xe0?'
p2201
tp2202
Rp2203
sg26
(lp2204
(g334
g2198
F0.501
tp2205
assg3
F0.0
sg29
(lp2206
(lp2207
g334
aa(lp2208
g2198
aasg2
F1.0
ssI155
(dp2209
g1
F1.0
sg7
(lp2210
(lp2211
g332
aa(lp2212
S'frightening'
p2213
aasg13
(dp2214
g15
g16
(g20
S'\xd5x\xe9&1\x08\xe0?'
p2215
tp2216
Rp2217
sg26
(lp2218
(g332
g2213
F0.501
tp2219
assg3
F1.0
sg29
(lp2220
(lp2221
g332
aa(lp2222
g2213
aasg2
F1.0
ssI156
(dp2223
g1
F1.0
sg7
(lp2224
(lp2225
g741
aa(lp2226
S'adjacent'
p2227
aasg13
(dp2228
g15
g16
(g20
S'\xd5x\xe9&1\x08\xe0?'
p2229
tp2230
Rp2231
sg26
(lp2232
(g741
g2227
F0.501
tp2233
assg3
F1.0
sg29
(lp2234
(lp2235
g741
aa(lp2236
g2227
aasg2
F1.0
ssI157
(dp2237
g1
F-1.0
sg7
(lp2238
(lp2239
S'affordable'
p2240
aa(lp2241
S'inexpensive'
p2242
aasg13
(dp2243
g15
g16
(g20
S'\xd5x\xe9&1\x08\xe0?'
p2244
tp2245
Rp2246
sg26
(lp2247
(g2242
g2240
F0.501
tp2248
assg3
F0.0
sg29
(lp2249
(lp2250
g2242
aa(lp2251
g2240
aasg2
F1.0
ssI158
(dp2252
g1
F-1.0
sg7
(lp2253
(lp2254
S'comprehensive'
p2255
aa(lp2256
g1416
aasg13
(dp2257
g15
g16
(g20
S'\xd5x\xe9&1\x08\xe0?'
p2258
tp2259
Rp2260
sg26
(lp2261
(g1416
g2255
F0.501
tp2262
assg3
F0.0
sg29
(lp2263
(lp2264
g1416
aa(lp2265
g2255
aasg2
F1.0
ssI159
(dp2266
g1
F-1.0
sg7
(lp2267
(lp2268
S'soft'
p2269
aa(lp2270
g1239
aasg13
(dp2271
g15
g16
(g20
S'\xd5x\xe9&1\x08\xe0?'
p2272
tp2273
Rp2274
sg26
(lp2275
(g1239
g2269
F0.501
tp2276
assg3
F0.0
sg29
(lp2277
(lp2278
g1239
aa(lp2279
g2269
aasg2
F1.0
ssI160
(dp2280
g1
F-1.0
sg7
(lp2281
(lp2282
S'uncomfortable'
p2283
aa(lp2284
S'uneasy'
p2285
aasg13
(dp2286
g15
g16
(g20
S'\xd5x\xe9&1\x08\xe0?'
p2287
tp2288
Rp2289
sg26
(lp2290
(g2285
g2283
F0.501
tp2291
assg3
F0.0
sg29
(lp2292
(lp2293
g2285
aa(lp2294
g2283
aasg2
F1.0
ssI161
(dp2295
g1
F1.0
sg7
(lp2296
(lp2297
g1829
aa(lp2298
g291
aasg13
(dp2299
g15
g16
(g20
S'\xd5x\xe9&1\x08\xe0?'
p2300
tp2301
Rp2302
sg26
(lp2303
(g1829
g291
F0.501
tp2304
assg3
F1.0
sg29
(lp2305
(lp2306
g1829
aa(lp2307
g291
aasg2
F1.0
ssI162
(dp2308
g1
F-1.0
sg7
(lp2309
(lp2310
g523
aa(lp2311
g611
aasg13
(dp2312
g15
g16
(g20
S'\xd5x\xe9&1\x08\xe0?'
p2313
tp2314
Rp2315
sg26
(lp2316
(g611
g523
F0.501
tp2317
assg3
F0.0
sg29
(lp2318
(lp2319
g611
aa(lp2320
g523
aasg2
F1.0
ssI163
(dp2321
g1
F1.0
sg7
(lp2322
(lp2323
S'profane'
p2324
aa(lp2325
S'obscene'
p2326
aasg13
(dp2327
g15
g16
(g20
S'\xd5x\xe9&1\x08\xe0?'
p2328
tp2329
Rp2330
sg26
(lp2331
(g2324
g2326
F0.501
tp2332
assg3
F1.0
sg29
(lp2333
(lp2334
g2324
aa(lp2335
g2326
aasg2
F1.0
ssI164
(dp2336
g1
F1.0
sg7
(lp2337
(lp2338
g768
aa(lp2339
g1556
aasg13
(dp2340
g15
g16
(g20
S'\xd5x\xe9&1\x08\xe0?'
p2341
tp2342
Rp2343
sg26
(lp2344
(g768
g1556
F0.501
tp2345
assg3
F1.0
sg29
(lp2346
(lp2347
g768
aa(lp2348
g1556
aasg2
F1.0
ssI165
(dp2349
g1
F1.0
sg7
(lp2350
(lp2351
S'transnational'
p2352
aa(lp2353
S'international'
p2354
aasg13
(dp2355
g15
g16
(g20
S'\xd5x\xe9&1\x08\xe0?'
p2356
tp2357
Rp2358
sg26
(lp2359
(g2352
g2354
F0.501
tp2360
assg3
F1.0
sg29
(lp2361
(lp2362
g2352
aa(lp2363
g2354
aasg2
F1.0
ssI166
(dp2364
g1
F-1.0
sg7
(lp2365
(lp2366
S'cool'
p2367
aa(lp2368
g799
aasg13
(dp2369
g15
g16
(g20
S'\xd5x\xe9&1\x08\xe0?'
p2370
tp2371
Rp2372
sg26
(lp2373
(g799
g2367
F0.501
tp2374
assg3
F0.0
sg29
(lp2375
(lp2376
g799
aa(lp2377
g2367
aasg2
F1.0
ssI167
(dp2378
g1
F-1.0
sg7
(lp2379
(lp2380
g1110
aa(lp2381
S'black'
p2382
aasg13
(dp2383
g15
g16
(g20
S'\xd5x\xe9&1\x08\xe0?'
p2384
tp2385
Rp2386
sg26
(lp2387
(g2382
g1110
F0.501
tp2388
assg3
F0.0
sg29
(lp2389
(lp2390
g2382
aa(lp2391
g1110
aasg2
F1.0
ssI168
(dp2392
g1
F-1.0
sg7
(lp2393
(lp2394
S'like'
p2395
aa(lp2396
S'equal'
p2397
aasg13
(dp2398
g15
g16
(g20
S'\xd5x\xe9&1\x08\xe0?'
p2399
tp2400
Rp2401
sg26
(lp2402
(g2397
g2395
F0.501
tp2403
assg3
F0.0
sg29
(lp2404
(lp2405
g2397
aa(lp2406
g2395
aasg2
F1.0
ssI169
(dp2407
g1
F-1.0
sg7
(lp2408
(lp2409
g509
aa(lp2410
S'exceptional'
p2411
aasg13
(dp2412
g15
g16
(g20
S'\xd5x\xe9&1\x08\xe0?'
p2413
tp2414
Rp2415
sg26
(lp2416
(g2411
g509
F0.501
tp2417
assg3
F0.0
sg29
(lp2418
(lp2419
g2411
aa(lp2420
g509
aasg2
F1.0
ssI170
(dp2421
g1
F-1.0
sg7
(lp2422
(lp2423
g1038
aa(lp2424
g12
aasg13
(dp2425
g15
g16
(g20
S'\xd5x\xe9&1\x08\xe0?'
p2426
tp2427
Rp2428
sg26
(lp2429
(g12
g1038
F0.501
tp2430
assg3
F0.0
sg29
(lp2431
(lp2432
g12
aa(lp2433
g1038
aasg2
F1.0
ssI171
(dp2434
g1
F-1.0
sg7
(lp2435
(lp2436
g1442
aa(lp2437
S'solemn'
p2438
aasg13
(dp2439
g15
g16
(g20
S'\xd5x\xe9&1\x08\xe0?'
p2440
tp2441
Rp2442
sg26
(lp2443
(g2438
g1442
F0.501
tp2444
assg3
F0.0
sg29
(lp2445
(lp2446
g2438
aa(lp2447
g1442
aasg2
F1.0
ssI172
(dp2448
g1
F-1.0
sg7
(lp2449
(lp2450
g2183
aa(lp2451
g246
aasg13
(dp2452
g15
g16
(g20
S'\xd5x\xe9&1\x08\xe0?'
p2453
tp2454
Rp2455
sg26
(lp2456
(g246
g2183
F0.501
tp2457
assg3
F0.0
sg29
(lp2458
(lp2459
g246
aa(lp2460
g2183
aasg2
F1.0
ssI173
(dp2461
g1
F-1.0
sg7
(lp2462
(lp2463
g898
aa(lp2464
g900
aasg13
(dp2465
g15
g16
(g20
S'\xd5x\xe9&1\x08\xe0?'
p2466
tp2467
Rp2468
sg26
(lp2469
(g900
g898
F0.501
tp2470
assg3
F0.0
sg29
(lp2471
(lp2472
g900
aa(lp2473
g898
aasg2
F1.0
ssI174
(dp2474
g1
F-1.0
sg7
(lp2475
(lp2476
g1638
aa(lp2477
g1067
aasg13
(dp2478
g15
g16
(g20
S'\xd5x\xe9&1\x08\xe0?'
p2479
tp2480
Rp2481
sg26
(lp2482
(g1067
g1638
F0.501
tp2483
assg3
F0.0
sg29
(lp2484
(lp2485
g1067
aa(lp2486
g1638
aasg2
F1.0
ssI175
(dp2487
g1
F1.0
sg7
(lp2488
(lp2489
g1787
aa(lp2490
g1789
aasg13
(dp2491
g15
g16
(g20
S'\xd5x\xe9&1\x08\xe0?'
p2492
tp2493
Rp2494
sg26
(lp2495
(g1787
g1789
F0.501
tp2496
assg3
F1.0
sg29
(lp2497
(lp2498
g1787
aa(lp2499
g1789
aasg2
F1.0
ssI176
(dp2500
g1
F-1.0
sg7
(lp2501
(lp2502
g480
aa(lp2503
g482
aasg13
(dp2504
g15
g16
(g20
S'V\x0e-\xb2\x9d\xef\xdf?'
p2505
tp2506
Rp2507
sg26
(lp2508
(g482
g480
F0.499
tp2509
assg3
F0.0
sg29
(lp2510
(lp2511
g482
aa(lp2512
g480
aasg2
F1.0
ssI177
(dp2513
g1
F1.0
sg7
(lp2514
(lp2515
S'ignored'
p2516
aa(lp2517
S'forgotten'
p2518
aasg13
(dp2519
g15
g16
(g20
S'\xd5x\xe9&1\x08\xe0?'
p2520
tp2521
Rp2522
sg26
(lp2523
(g2516
g2518
F0.501
tp2524
assg3
F1.0
sg29
(lp2525
(lp2526
g2516
aa(lp2527
g2518
aasg2
F1.0
ssI178
(dp2528
g1
F-1.0
sg7
(lp2529
(lp2530
S'cool'
p2531
aa(lp2532
S'icy'
p2533
aasg13
(dp2534
g15
g16
(g20
S'\xd5x\xe9&1\x08\xe0?'
p2535
tp2536
Rp2537
sg26
(lp2538
(g2533
g2531
F0.501
tp2539
assg3
F0.0
sg29
(lp2540
(lp2541
g2533
aa(lp2542
g2531
aasg2
F1.0
ssI179
(dp2543
g1
F-1.0
sg7
(lp2544
(lp2545
g1829
aa(lp2546
g2411
aasg13
(dp2547
g15
g16
(g20
S'\xd5x\xe9&1\x08\xe0?'
p2548
tp2549
Rp2550
sg26
(lp2551
(g2411
g1829
F0.501
tp2552
assg3
F0.0
sg29
(lp2553
(lp2554
g2411
aa(lp2555
g1829
aasg2
F1.0
ssI180
(dp2556
g1
F-1.0
sg7
(lp2557
(lp2558
S'frozen'
p2559
aa(lp2560
g799
aasg13
(dp2561
g15
g16
(g20
S'\xd5x\xe9&1\x08\xe0?'
p2562
tp2563
Rp2564
sg26
(lp2565
(g799
g2559
F0.501
tp2566
assg3
F0.0
sg29
(lp2567
(lp2568
g799
aa(lp2569
g2559
aasg2
F1.0
ssI181
(dp2570
g1
F1.0
sg7
(lp2571
(lp2572
g1787
aa(lp2573
g1858
aasg13
(dp2574
g15
g16
(g20
S'\xd5x\xe9&1\x08\xe0?'
p2575
tp2576
Rp2577
sg26
(lp2578
(g1787
g1858
F0.501
tp2579
assg3
F1.0
sg29
(lp2580
(lp2581
g1787
aa(lp2582
g1858
aasg2
F1.0
ssI182
(dp2583
g1
F1.0
sg7
(lp2584
(lp2585
g898
aa(lp2586
g2074
aasg13
(dp2587
g15
g16
(g20
S'\xd5x\xe9&1\x08\xe0?'
p2588
tp2589
Rp2590
sg26
(lp2591
(g898
g2074
F0.501
tp2592
assg3
F1.0
sg29
(lp2593
(lp2594
g898
aa(lp2595
g2074
aasg2
F1.0
ssI183
(dp2596
g1
F1.0
sg7
(lp2597
(lp2598
g597
aa(lp2599
g1067
aasg13
(dp2600
g15
g16
(g20
S'V\x0e-\xb2\x9d\xef\xdf?'
p2601
tp2602
Rp2603
sg26
(lp2604
(g597
g1067
F0.499
tp2605
assg3
F1.0
sg29
(lp2606
(lp2607
g597
aa(lp2608
g1067
aasg2
F1.0
ssI184
(dp2609
g1
F-1.0
sg7
(lp2610
(lp2611
g2060
aa(lp2612
g128
aasg13
(dp2613
g15
g16
(g20
S'\xd5x\xe9&1\x08\xe0?'
p2614
tp2615
Rp2616
sg26
(lp2617
(g128
g2060
F0.501
tp2618
assg3
F0.0
sg29
(lp2619
(lp2620
g128
aa(lp2621
g2060
aasg2
F1.0
ssI185
(dp2622
g1
F1.0
sg7
(lp2623
(lp2624
g739
aa(lp2625
S'close'
p2626
aasg13
(dp2627
g15
g16
(g20
S'\xd5x\xe9&1\x08\xe0?'
p2628
tp2629
Rp2630
sg26
(lp2631
(g739
g2626
F0.501
tp2632
assg3
F1.0
sg29
(lp2633
(lp2634
g739
aa(lp2635
g2626
aasg2
F1.0
ssI186
(dp2636
g1
F-1.0
sg7
(lp2637
(lp2638
g465
aa(lp2639
g467
aasg13
(dp2640
g15
g16
(g20
S'\xd5x\xe9&1\x08\xe0?'
p2641
tp2642
Rp2643
sg26
(lp2644
(g467
g465
F0.501
tp2645
assg3
F0.0
sg29
(lp2646
(lp2647
g467
aa(lp2648
g465
aasg2
F1.0
ssI187
(dp2649
g1
F-1.0
sg7
(lp2650
(lp2651
g332
aa(lp2652
g1054
aasg13
(dp2653
g15
g16
(g20
S'\xd5x\xe9&1\x08\xe0?'
p2654
tp2655
Rp2656
sg26
(lp2657
(g1054
g332
F0.501
tp2658
assg3
F0.0
sg29
(lp2659
(lp2660
g1054
aa(lp2661
g332
aasg2
F1.0
ssI188
(dp2662
g1
F-1.0
sg7
(lp2663
(lp2664
S'attractive'
p2665
aa(lp2666
S'mesmerizing'
p2667
aasg13
(dp2668
g15
g16
(g20
S'\xd5x\xe9&1\x08\xe0?'
p2669
tp2670
Rp2671
sg26
(lp2672
(g2667
g2665
F0.501
tp2673
assg3
F0.0
sg29
(lp2674
(lp2675
g2667
aa(lp2676
g2665
aasg2
F1.0
ssI189
(dp2677
g1
F-1.0
sg7
(lp2678
(lp2679
g509
aa(lp2680
g2411
aasg13
(dp2681
g15
g16
(g20
S'\xd5x\xe9&1\x08\xe0?'
p2682
tp2683
Rp2684
sg26
(lp2685
(g2411
g509
F0.501
tp2686
assg3
F0.0
sg29
(lp2687
(lp2688
g2411
aa(lp2689
g509
aasg2
F1.0
ssI190
(dp2690
g1
F1.0
sg7
(lp2691
(lp2692
g1040
aa(lp2693
g983
aasg13
(dp2694
g15
g16
(g20
S'\xd5x\xe9&1\x08\xe0?'
p2695
tp2696
Rp2697
sg26
(lp2698
(g1040
g983
F0.501
tp2699
assg3
F1.0
sg29
(lp2700
(lp2701
g1040
aa(lp2702
g983
aasg2
F1.0
ssI191
(dp2703
g1
F-1.0
sg7
(lp2704
(lp2705
g2198
aa(lp2706
g334
aasg13
(dp2707
g15
g16
(g20
S'\xd5x\xe9&1\x08\xe0?'
p2708
tp2709
Rp2710
sg26
(lp2711
(g334
g2198
F0.501
tp2712
assg3
F0.0
sg29
(lp2713
(lp2714
g334
aa(lp2715
g2198
aasg2
F1.0
ssI192
(dp2716
g1
F1.0
sg7
(lp2717
(lp2718
S'frigid'
p2719
aa(lp2720
S'frozen'
p2721
aasg13
(dp2722
g15
g16
(g20
S'\xd5x\xe9&1\x08\xe0?'
p2723
tp2724
Rp2725
sg26
(lp2726
(g2719
g2721
F0.501
tp2727
assg3
F1.0
sg29
(lp2728
(lp2729
g2719
aa(lp2730
g2721
aasg2
F1.0
ssI193
(dp2731
g1
F-1.0
sg7
(lp2732
(lp2733
S'sick'
p2734
aa(lp2735
g68
aasg13
(dp2736
g15
g16
(g20
S'\xd5x\xe9&1\x08\xe0?'
p2737
tp2738
Rp2739
sg26
(lp2740
(g68
g2734
F0.501
tp2741
assg3
F0.0
sg29
(lp2742
(lp2743
g68
aa(lp2744
g2734
aasg2
F1.0
ssI194
(dp2745
g1
F1.0
sg7
(lp2746
(lp2747
g840
aa(lp2748
g81
aasg13
(dp2749
g15
g16
(g20
S'\xd5x\xe9&1\x08\xe0?'
p2750
tp2751
Rp2752
sg26
(lp2753
(g840
g81
F0.501
tp2754
assg3
F1.0
sg29
(lp2755
(lp2756
g840
aa(lp2757
g81
aasg2
F1.0
ssI195
(dp2758
g1
F-1.0
sg7
(lp2759
(lp2760
g840
aa(lp2761
g1774
aasg13
(dp2762
g15
g16
(g20
S'\xd5x\xe9&1\x08\xe0?'
p2763
tp2764
Rp2765
sg26
(lp2766
(g1774
g840
F0.501
tp2767
assg3
F0.0
sg29
(lp2768
(lp2769
g1774
aa(lp2770
g840
aasg2
F1.0
ssI196
(dp2771
g1
F-1.0
sg7
(lp2772
(lp2773
g854
aa(lp2774
g1556
aasg13
(dp2775
g15
g16
(g20
S'\xd5x\xe9&1\x08\xe0?'
p2776
tp2777
Rp2778
sg26
(lp2779
(g1556
g854
F0.501
tp2780
assg3
F0.0
sg29
(lp2781
(lp2782
g1556
aa(lp2783
g854
aasg2
F1.0
ssI197
(dp2784
g1
F1.0
sg7
(lp2785
(lp2786
S'near'
p2787
aa(lp2788
S'intimate'
p2789
aasg13
(dp2790
g15
g16
(g20
S'\xd5x\xe9&1\x08\xe0?'
p2791
tp2792
Rp2793
sg26
(lp2794
(g2787
g2789
F0.501
tp2795
assg3
F1.0
sg29
(lp2796
(lp2797
g2787
aa(lp2798
g2789
aasg2
F1.0
ssI198
(dp2799
g1
F-1.0
sg7
(lp2800
(lp2801
g304
aa(lp2802
g653
aasg13
(dp2803
g15
g16
(g20
S'\xd5x\xe9&1\x08\xe0?'
p2804
tp2805
Rp2806
sg26
(lp2807
(g653
g304
F0.501
tp2808
assg3
F0.0
sg29
(lp2809
(lp2810
g653
aa(lp2811
g304
aasg2
F1.0
ssI199
(dp2812
g1
F-1.0
sg7
(lp2813
(lp2814
g171
aa(lp2815
g319
aasg13
(dp2816
g15
g16
(g20
S'\xd5x\xe9&1\x08\xe0?'
p2817
tp2818
Rp2819
sg26
(lp2820
(g319
g171
F0.501
tp2821
assg3
F0.0
sg29
(lp2822
(lp2823
g319
aa(lp2824
g171
aasg2
F1.0
ssI200
(dp2825
g1
F1.0
sg7
(lp2826
(lp2827
g768
aa(lp2828
g856
aasg13
(dp2829
g15
g16
(g20
S'\xd5x\xe9&1\x08\xe0?'
p2830
tp2831
Rp2832
sg26
(lp2833
(g768
g856
F0.501
tp2834
assg3
F1.0
sg29
(lp2835
(lp2836
g768
aa(lp2837
g856
aasg2
F1.0
ssI201
(dp2838
g1
F-1.0
sg7
(lp2839
(lp2840
g2531
aa(lp2841
g2533
aasg13
(dp2842
g15
g16
(g20
S'\xd5x\xe9&1\x08\xe0?'
p2843
tp2844
Rp2845
sg26
(lp2846
(g2533
g2531
F0.501
tp2847
assg3
F0.0
sg29
(lp2848
(lp2849
g2533
aa(lp2850
g2531
aasg2
F1.0
ssI202
(dp2851
g1
F1.0
sg7
(lp2852
(lp2853
g954
aa(lp2854
g2255
aasg13
(dp2855
g15
g16
(g20
S'\xd5x\xe9&1\x08\xe0?'
p2856
tp2857
Rp2858
sg26
(lp2859
(g954
g2255
F0.501
tp2860
assg3
F1.0
sg29
(lp2861
(lp2862
g954
aa(lp2863
g2255
aasg2
F1.0
ssI203
(dp2864
g1
F-1.0
sg7
(lp2865
(lp2866
g1140
aa(lp2867
S'general'
p2868
aasg13
(dp2869
g15
g16
(g20
S'\xd5x\xe9&1\x08\xe0?'
p2870
tp2871
Rp2872
sg26
(lp2873
(g2868
g1140
F0.501
tp2874
assg3
F0.0
sg29
(lp2875
(lp2876
g2868
aa(lp2877
g1140
aasg2
F1.0
ssI204
(dp2878
g1
F-1.0
sg7
(lp2879
(lp2880
S'skinny'
p2881
aa(lp2882
g1069
aasg13
(dp2883
g15
g16
(g20
S'\xd5x\xe9&1\x08\xe0?'
p2884
tp2885
Rp2886
sg26
(lp2887
(g1069
g2881
F0.501
tp2888
assg3
F0.0
sg29
(lp2889
(lp2890
g1069
aa(lp2891
g2881
aasg2
F1.0
ssI205
(dp2892
g1
F-1.0
sg7
(lp2893
(lp2894
g304
aa(lp2895
g53
aasg13
(dp2896
g15
g16
(g20
S'\xd5x\xe9&1\x08\xe0?'
p2897
tp2898
Rp2899
sg26
(lp2900
(g53
g304
F0.501
tp2901
assg3
F0.0
sg29
(lp2902
(lp2903
g53
aa(lp2904
g304
aasg2
F1.0
ssI206
(dp2905
g1
F1.0
sg7
(lp2906
(lp2907
g768
aa(lp2908
g98
aasg13
(dp2909
g15
g16
(g20
S'\xd5x\xe9&1\x08\xe0?'
p2910
tp2911
Rp2912
sg26
(lp2913
(g768
g98
F0.501
tp2914
assg3
F1.0
sg29
(lp2915
(lp2916
g768
aa(lp2917
g98
aasg2
F1.0
ssI207
(dp2918
g1
F1.0
sg7
(lp2919
(lp2920
S'realistic'
p2921
aa(lp2922
S'feasible'
p2923
aasg13
(dp2924
g15
g16
(g20
S'\xd5x\xe9&1\x08\xe0?'
p2925
tp2926
Rp2927
sg26
(lp2928
(g2921
g2923
F0.501
tp2929
assg3
F1.0
sg29
(lp2930
(lp2931
g2921
aa(lp2932
g2923
aasg2
F1.0
ssI208
(dp2933
g1
F-1.0
sg7
(lp2934
(lp2935
g1373
aa(lp2936
g1375
aasg13
(dp2937
g15
g16
(g20
S'\xd5x\xe9&1\x08\xe0?'
p2938
tp2939
Rp2940
sg26
(lp2941
(g1375
g1373
F0.501
tp2942
assg3
F0.0
sg29
(lp2943
(lp2944
g1375
aa(lp2945
g1373
aasg2
F1.0
ssI209
(dp2946
g1
F-1.0
sg7
(lp2947
(lp2948
g1871
aa(lp2949
S'stifling'
p2950
aasg13
(dp2951
g15
g16
(g20
S'V\x0e-\xb2\x9d\xef\xdf?'
p2952
tp2953
Rp2954
sg26
(lp2955
(g2950
g1871
F0.499
tp2956
assg3
F0.0
sg29
(lp2957
(lp2958
g2950
aa(lp2959
g1871
aasg2
F1.0
ssI210
(dp2960
g1
F-1.0
sg7
(lp2961
(lp2962
g997
aa(lp2963
g2074
aasg13
(dp2964
g15
g16
(g20
S'\xd5x\xe9&1\x08\xe0?'
p2965
tp2966
Rp2967
sg26
(lp2968
(g2074
g997
F0.501
tp2969
assg3
F0.0
sg29
(lp2970
(lp2971
g2074
aa(lp2972
g997
aasg2
F1.0
ssI211
(dp2973
g1
F-1.0
sg7
(lp2974
(lp2975
g304
aa(lp2976
g51
aasg13
(dp2977
g15
g16
(g20
S'\xd5x\xe9&1\x08\xe0?'
p2978
tp2979
Rp2980
sg26
(lp2981
(g51
g304
F0.501
tp2982
assg3
F0.0
sg29
(lp2983
(lp2984
g51
aa(lp2985
g304
aasg2
F1.0
ssI212
(dp2986
g1
F-1.0
sg7
(lp2987
(lp2988
g2734
aa(lp2989
S'disabled'
p2990
aasg13
(dp2991
g15
g16
(g20
S'\xd5x\xe9&1\x08\xe0?'
p2992
tp2993
Rp2994
sg26
(lp2995
(g2990
g2734
F0.501
tp2996
assg3
F0.0
sg29
(lp2997
(lp2998
g2990
aa(lp2999
g2734
aasg2
F1.0
ssI213
(dp3000
g1
F1.0
sg7
(lp3001
(lp3002
g216
aa(lp3003
g218
aasg13
(dp3004
g15
g16
(g20
S'\xd5x\xe9&1\x08\xe0?'
p3005
tp3006
Rp3007
sg26
(lp3008
(g216
g218
F0.501
tp3009
assg3
F1.0
sg29
(lp3010
(lp3011
g216
aa(lp3012
g218
aasg2
F1.0
ssI214
(dp3013
g1
F-1.0
sg7
(lp3014
(lp3015
g81
aa(lp3016
g1774
aasg13
(dp3017
g15
g16
(g20
S'\xd5x\xe9&1\x08\xe0?'
p3018
tp3019
Rp3020
sg26
(lp3021
(g1774
g81
F0.501
tp3022
assg3
F0.0
sg29
(lp3023
(lp3024
g1774
aa(lp3025
g81
aasg2
F1.0
ssI215
(dp3026
g1
F-1.0
sg7
(lp3027
(lp3028
g2142
aa(lp3029
g1871
aasg13
(dp3030
g15
g16
(g20
S'\xd5x\xe9&1\x08\xe0?'
p3031
tp3032
Rp3033
sg26
(lp3034
(g1871
g2142
F0.501
tp3035
assg3
F0.0
sg29
(lp3036
(lp3037
g1871
aa(lp3038
g2142
aasg2
F1.0
ssI216
(dp3039
g1
F-1.0
sg7
(lp3040
(lp3041
g1038
aa(lp3042
g10
aasg13
(dp3043
g15
g16
(g20
S'\xd5x\xe9&1\x08\xe0?'
p3044
tp3045
Rp3046
sg26
(lp3047
(g10
g1038
F0.501
tp3048
assg3
F0.0
sg29
(lp3049
(lp3050
g10
aa(lp3051
g1038
aasg2
F1.0
ssI217
(dp3052
g1
F1.0
sg7
(lp3053
(lp3054
S'needed'
p3055
aa(lp3056
S'essential'
p3057
aasg13
(dp3058
g15
g16
(g20
S'\xd5x\xe9&1\x08\xe0?'
p3059
tp3060
Rp3061
sg26
(lp3062
(g3055
g3057
F0.501
tp3063
assg3
F1.0
sg29
(lp3064
(lp3065
g3055
aa(lp3066
g3057
aasg2
F1.0
ssI218
(dp3067
g1
F1.0
sg7
(lp3068
(lp3069
g900
aa(lp3070
g2074
aasg13
(dp3071
g15
g16
(g20
S'\xd5x\xe9&1\x08\xe0?'
p3072
tp3073
Rp3074
sg26
(lp3075
(g900
g2074
F0.501
tp3076
assg3
F1.0
sg29
(lp3077
(lp3078
g900
aa(lp3079
g2074
aasg2
F1.0
ssI219
(dp3080
g1
F-1.0
sg7
(lp3081
(lp3082
g523
aa(lp3083
g188
aasg13
(dp3084
g15
g16
(g20
S'\xd5x\xe9&1\x08\xe0?'
p3085
tp3086
Rp3087
sg26
(lp3088
(g188
g523
F0.501
tp3089
assg3
F0.0
sg29
(lp3090
(lp3091
g188
aa(lp3092
g523
aasg2
F1.0
ssI220
(dp3093
g1
F1.0
sg7
(lp3094
(lp3095
S'cheap'
p3096
aa(lp3097
g915
aasg13
(dp3098
g15
g16
(g20
S'\xd5x\xe9&1\x08\xe0?'
p3099
tp3100
Rp3101
sg26
(lp3102
(g3096
g915
F0.501
tp3103
assg3
F1.0
sg29
(lp3104
(lp3105
g3096
aa(lp3106
g915
aasg2
F1.0
ssI221
(dp3107
g1
F-1.0
sg7
(lp3108
(lp3109
g1010
aa(lp3110
g1012
aasg13
(dp3111
g15
g16
(g20
S'\xd5x\xe9&1\x08\xe0?'
p3112
tp3113
Rp3114
sg26
(lp3115
(g1012
g1010
F0.501
tp3116
assg3
F0.0
sg29
(lp3117
(lp3118
g1012
aa(lp3119
g1010
aasg2
F1.0
ssI222
(dp3120
g1
F-1.0
sg7
(lp3121
(lp3122
g186
aa(lp3123
g188
aasg13
(dp3124
g15
g16
(g20
S'\xd5x\xe9&1\x08\xe0?'
p3125
tp3126
Rp3127
sg26
(lp3128
(g188
g186
F0.501
tp3129
assg3
F0.0
sg29
(lp3130
(lp3131
g188
aa(lp3132
g186
aasg2
F1.0
ssI223
(dp3133
g1
F-1.0
sg7
(lp3134
(lp3135
g567
aa(lp3136
g2046
aasg13
(dp3137
g15
g16
(g20
S'\xd5x\xe9&1\x08\xe0?'
p3138
tp3139
Rp3140
sg26
(lp3141
(g2046
g567
F0.501
tp3142
assg3
F0.0
sg29
(lp3143
(lp3144
g2046
aa(lp3145
g567
aasg2
F1.0
ssI224
(dp3146
g1
F-1.0
sg7
(lp3147
(lp3148
g2283
aa(lp3149
g2285
aasg13
(dp3150
g15
g16
(g20
S'\xd5x\xe9&1\x08\xe0?'
p3151
tp3152
Rp3153
sg26
(lp3154
(g2285
g2283
F0.501
tp3155
assg3
F0.0
sg29
(lp3156
(lp3157
g2285
aa(lp3158
g2283
aasg2
F1.0
ssI225
(dp3159
g1
F-1.0
sg7
(lp3160
(lp3161
S'known'
p3162
aa(lp3163
S'legendary'
p3164
aasg13
(dp3165
g15
g16
(g20
S'\xd5x\xe9&1\x08\xe0?'
p3166
tp3167
Rp3168
sg26
(lp3169
(g3164
g3162
F0.501
tp3170
assg3
F0.0
sg29
(lp3171
(lp3172
g3164
aa(lp3173
g3162
aasg2
F1.0
ssI226
(dp3174
g1
F-1.0
sg7
(lp3175
(lp3176
g739
aa(lp3177
g741
aasg13
(dp3178
g15
g16
(g20
S'\xd5x\xe9&1\x08\xe0?'
p3179
tp3180
Rp3181
sg26
(lp3182
(g741
g739
F0.501
tp3183
assg3
F0.0
sg29
(lp3184
(lp3185
g741
aa(lp3186
g739
aasg2
F1.0
ssI227
(dp3187
g1
F1.0
sg7
(lp3188
(lp3189
g595
aa(lp3190
g597
aasg13
(dp3191
g15
g16
(g20
S'\xd5x\xe9&1\x08\xe0?'
p3192
tp3193
Rp3194
sg26
(lp3195
(g595
g597
F0.501
tp3196
assg3
F1.0
sg29
(lp3197
(lp3198
g595
aa(lp3199
g597
aasg2
F1.0
ssI228
(dp3200
g1
F-1.0
sg7
(lp3201
(lp3202
g797
aa(lp3203
S'frigid'
p3204
aasg13
(dp3205
g15
g16
(g20
S'\xd5x\xe9&1\x08\xe0?'
p3206
tp3207
Rp3208
sg26
(lp3209
(g3204
g797
F0.501
tp3210
assg3
F0.0
sg29
(lp3211
(lp3212
g3204
aa(lp3213
g797
aasg2
F1.0
ssI229
(dp3214
g1
F1.0
sg7
(lp3215
(lp3216
g347
aa(lp3217
g799
aasg13
(dp3218
g15
g16
(g20
S'\xd5x\xe9&1\x08\xe0?'
p3219
tp3220
Rp3221
sg26
(lp3222
(g347
g799
F0.501
tp3223
assg3
F1.0
sg29
(lp3224
(lp3225
g347
aa(lp3226
g799
aasg2
F1.0
ssI230
(dp3227
g1
F-1.0
sg7
(lp3228
(lp3229
g523
aa(lp3230
g186
aasg13
(dp3231
g15
g16
(g20
S'\xd5x\xe9&1\x08\xe0?'
p3232
tp3233
Rp3234
sg26
(lp3235
(g186
g523
F0.501
tp3236
assg3
F0.0
sg29
(lp3237
(lp3238
g186
aa(lp3239
g523
aasg2
F1.0
ssI231
(dp3240
g1
F-1.0
sg7
(lp3241
(lp3242
g552
aa(lp3243
g1095
aasg13
(dp3244
g15
g16
(g20
S'\xd5x\xe9&1\x08\xe0?'
p3245
tp3246
Rp3247
sg26
(lp3248
(g1095
g552
F0.501
tp3249
assg3
F0.0
sg29
(lp3250
(lp3251
g1095
aa(lp3252
g552
aasg2
F1.0
ssI232
(dp3253
g1
F-1.0
sg7
(lp3254
(lp3255
g2367
aa(lp3256
g347
aasg13
(dp3257
g15
g16
(g20
S'\xd5x\xe9&1\x08\xe0?'
p3258
tp3259
Rp3260
sg26
(lp3261
(g347
g2367
F0.501
tp3262
assg3
F0.0
sg29
(lp3263
(lp3264
g347
aa(lp3265
g2367
aasg2
F1.0
ssI233
(dp3266
g1
F-1.0
sg7
(lp3267
(lp3268
S'low'
p3269
aa(lp3270
S'quiet'
p3271
aasg13
(dp3272
g15
g16
(g20
S'\xd5x\xe9&1\x08\xe0?'
p3273
tp3274
Rp3275
sg26
(lp3276
(g3271
g3269
F0.501
tp3277
assg3
F0.0
sg29
(lp3278
(lp3279
g3271
aa(lp3280
g3269
aasg2
F1.0
ssI234
(dp3281
g1
F-1.0
sg7
(lp3282
(lp3283
g597
aa(lp3284
g1069
aasg13
(dp3285
g15
g16
(g20
S'V\x0e-\xb2\x9d\xef\xdf?'
p3286
tp3287
Rp3288
sg26
(lp3289
(g1069
g597
F0.499
tp3290
assg3
F0.0
sg29
(lp3291
(lp3292
g1069
aa(lp3293
g597
aasg2
F1.0
ssI235
(dp3294
g1
F1.0
sg7
(lp3295
(lp3296
g898
aa(lp3297
g997
aasg13
(dp3298
g15
g16
(g20
S'\xd5x\xe9&1\x08\xe0?'
p3299
tp3300
Rp3301
sg26
(lp3302
(g898
g997
F0.501
tp3303
assg3
F1.0
sg29
(lp3304
(lp3305
g898
aa(lp3306
g997
aasg2
F1.0
ssI236
(dp3307
g1
F1.0
sg7
(lp3308
(lp3309
g711
aa(lp3310
g2102
aasg13
(dp3311
g15
g16
(g20
S'\xd5x\xe9&1\x08\xe0?'
p3312
tp3313
Rp3314
sg26
(lp3315
(g711
g2102
F0.501
tp3316
assg3
F1.0
sg29
(lp3317
(lp3318
g711
aa(lp3319
g2102
aasg2
F1.0
ssI237
(dp3320
g1
F1.0
sg7
(lp3321
(lp3322
S'bleak'
p3323
aa(lp3324
S'desperate'
p3325
aasg13
(dp3326
g15
g16
(g20
S'\xd5x\xe9&1\x08\xe0?'
p3327
tp3328
Rp3329
sg26
(lp3330
(g3323
g3325
F0.501
tp3331
assg3
F1.0
sg29
(lp3332
(lp3333
g3323
aa(lp3334
g3325
aasg2
F1.0
ssI238
(dp3335
g1
F-1.0
sg7
(lp3336
(lp3337
g126
aa(lp3338
g128
aasg13
(dp3339
g15
g16
(g20
S'\xd5x\xe9&1\x08\xe0?'
p3340
tp3341
Rp3342
sg26
(lp3343
(g128
g126
F0.501
tp3344
assg3
F0.0
sg29
(lp3345
(lp3346
g128
aa(lp3347
g126
aasg2
F1.0
ssI239
(dp3348
g1
F1.0
sg7
(lp3349
(lp3350
g954
aa(lp3351
g1499
aasg13
(dp3352
g15
g16
(g20
S'\xd5x\xe9&1\x08\xe0?'
p3353
tp3354
Rp3355
sg26
(lp3356
(g954
g1499
F0.501
tp3357
assg3
F1.0
sg29
(lp3358
(lp3359
g954
aa(lp3360
g1499
aasg2
F1.0
ssI240
(dp3361
g1
F-1.0
sg7
(lp3362
(lp3363
g362
aa(lp3364
S'acceptable'
p3365
aasg13
(dp3366
g15
g16
(g20
S'\xd5x\xe9&1\x08\xe0?'
p3367
tp3368
Rp3369
sg26
(lp3370
(g3365
g362
F0.501
tp3371
assg3
F0.0
sg29
(lp3372
(lp3373
g3365
aa(lp3374
g362
aasg2
F1.0
ssI241
(dp3375
g1
F1.0
sg7
(lp3376
(lp3377
S'statewide'
p3378
aa(lp3379
S'worldwide'
p3380
aasg13
(dp3381
g15
g16
(g20
S'\xd5x\xe9&1\x08\xe0?'
p3382
tp3383
Rp3384
sg26
(lp3385
(g3378
g3380
F0.501
tp3386
assg3
F1.0
sg29
(lp3387
(lp3388
g3378
aa(lp3389
g3380
aasg2
F1.0
ssI242
(dp3390
g1
F1.0
sg7
(lp3391
(lp3392
g332
aa(lp3393
g2213
aasg13
(dp3394
g15
g16
(g20
S'\xd5x\xe9&1\x08\xe0?'
p3395
tp3396
Rp3397
sg26
(lp3398
(g332
g2213
F0.501
tp3399
assg3
F1.0
sg29
(lp3400
(lp3401
g332
aa(lp3402
g2213
aasg2
F1.0
ssI243
(dp3403
g1
F1.0
sg7
(lp3404
(lp3405
g825
aa(lp3406
g827
aasg13
(dp3407
g15
g16
(g20
S'\xd5x\xe9&1\x08\xe0?'
p3408
tp3409
Rp3410
sg26
(lp3411
(g825
g827
F0.501
tp3412
assg3
F1.0
sg29
(lp3413
(lp3414
g825
aa(lp3415
g827
aasg2
F1.0
ssI244
(dp3416
g1
F1.0
sg7
(lp3417
(lp3418
g639
aa(lp3419
g983
aasg13
(dp3420
g15
g16
(g20
S'\xd5x\xe9&1\x08\xe0?'
p3421
tp3422
Rp3423
sg26
(lp3424
(g639
g983
F0.501
tp3425
assg3
F1.0
sg29
(lp3426
(lp3427
g639
aa(lp3428
g983
aasg2
F1.0
ssI245
(dp3429
g1
F-1.0
sg7
(lp3430
(lp3431
g552
aa(lp3432
g1097
aasg13
(dp3433
g15
g16
(g20
S'\xd5x\xe9&1\x08\xe0?'
p3434
tp3435
Rp3436
sg26
(lp3437
(g1097
g552
F0.501
tp3438
assg3
F0.0
sg29
(lp3439
(lp3440
g1097
aa(lp3441
g552
aasg2
F1.0
ssI246
(dp3442
g1
F-1.0
sg7
(lp3443
(lp3444
g669
aa(lp3445
g379
aasg13
(dp3446
g15
g16
(g20
S'\xd5x\xe9&1\x08\xe0?'
p3447
tp3448
Rp3449
sg26
(lp3450
(g379
g669
F0.501
tp3451
assg3
F0.0
sg29
(lp3452
(lp3453
g379
aa(lp3454
g669
aasg2
F1.0
ssI247
(dp3455
g1
F-1.0
sg7
(lp3456
(lp3457
g2881
aa(lp3458
g1067
aasg13
(dp3459
g15
g16
(g20
S'\xd5x\xe9&1\x08\xe0?'
p3460
tp3461
Rp3462
sg26
(lp3463
(g1067
g2881
F0.501
tp3464
assg3
F0.0
sg29
(lp3465
(lp3466
g1067
aa(lp3467
g2881
aasg2
F1.0
ssI248
(dp3468
g1
F-1.0
sg7
(lp3469
(lp3470
S'cool'
p3471
aa(lp3472
g38
aasg13
(dp3473
g15
g16
(g20
S'\xd5x\xe9&1\x08\xe0?'
p3474
tp3475
Rp3476
sg26
(lp3477
(g38
g3471
F0.501
tp3478
assg3
F0.0
sg29
(lp3479
(lp3480
g38
aa(lp3481
g3471
aasg2
F1.0
ssI249
(dp3482
g1
F1.0
sg7
(lp3483
(lp3484
g3323
aa(lp3485
g3325
aasg13
(dp3486
g15
g16
(g20
S'\xd5x\xe9&1\x08\xe0?'
p3487
tp3488
Rp3489
sg26
(lp3490
(g3323
g3325
F0.501
tp3491
assg3
F1.0
sg29
(lp3492
(lp3493
g3323
aa(lp3494
g3325
aasg2
F1.0
ssI250
(dp3495
g1
F-1.0
sg7
(lp3496
(lp3497
g3057
aa(lp3498
S'indispensable'
p3499
aasg13
(dp3500
g15
g16
(g20
S'\xd5x\xe9&1\x08\xe0?'
p3501
tp3502
Rp3503
sg26
(lp3504
(g3499
g3057
F0.501
tp3505
assg3
F0.0
sg29
(lp3506
(lp3507
g3499
aa(lp3508
g3057
aasg2
F1.0
ssI251
(dp3509
g1
F1.0
sg7
(lp3510
(lp3511
g495
aa(lp3512
g261
aasg13
(dp3513
g15
g16
(g20
S'\xd5x\xe9&1\x08\xe0?'
p3514
tp3515
Rp3516
sg26
(lp3517
(g495
g261
F0.501
tp3518
assg3
F1.0
sg29
(lp3519
(lp3520
g495
aa(lp3521
g261
aasg2
F1.0
ssI252
(dp3522
g1
F-1.0
sg7
(lp3523
(lp3524
g1358
aa(lp3525
g1360
aasg13
(dp3526
g15
g16
(g20
S'V\x0e-\xb2\x9d\xef\xdf?'
p3527
tp3528
Rp3529
sg26
(lp3530
(g1360
g1358
F0.499
tp3531
assg3
F0.0
sg29
(lp3532
(lp3533
g1360
aa(lp3534
g1358
aasg2
F1.0
ssI253
(dp3535
g1
F-1.0
sg7
(lp3536
(lp3537
g1038
aa(lp3538
g12
aasg13
(dp3539
g15
g16
(g20
S'\xd5x\xe9&1\x08\xe0?'
p3540
tp3541
Rp3542
sg26
(lp3543
(g12
g1038
F0.501
tp3544
assg3
F0.0
sg29
(lp3545
(lp3546
g12
aa(lp3547
g1038
aasg2
F1.0
ssI254
(dp3548
g1
F-1.0
sg7
(lp3549
(lp3550
S'content'
p3551
aa(lp3552
S'euphoric'
p3553
aasg13
(dp3554
g15
g16
(g20
S'\xd5x\xe9&1\x08\xe0?'
p3555
tp3556
Rp3557
sg26
(lp3558
(g3553
g3551
F0.501
tp3559
assg3
F0.0
sg29
(lp3560
(lp3561
g3553
aa(lp3562
g3551
aasg2
F1.0
ssI255
(dp3563
g1
F-1.0
sg7
(lp3564
(lp3565
g96
aa(lp3566
g856
aasg13
(dp3567
g15
g16
(g20
S'\xd5x\xe9&1\x08\xe0?'
p3568
tp3569
Rp3570
sg26
(lp3571
(g856
g96
F0.501
tp3572
assg3
F0.0
sg29
(lp3573
(lp3574
g856
aa(lp3575
g96
aasg2
F1.0
ssI256
(dp3576
g1
F-1.0
sg7
(lp3577
(lp3578
g1965
aa(lp3579
g1967
aasg13
(dp3580
g15
g16
(g20
S'\xd5x\xe9&1\x08\xe0?'
p3581
tp3582
Rp3583
sg26
(lp3584
(g1967
g1965
F0.501
tp3585
assg3
F0.0
sg29
(lp3586
(lp3587
g1967
aa(lp3588
g1965
aasg2
F1.0
ssI257
(dp3589
g1
F-1.0
sg7
(lp3590
(lp3591
g83
aa(lp3592
g1774
aasg13
(dp3593
g15
g16
(g20
S'\xd5x\xe9&1\x08\xe0?'
p3594
tp3595
Rp3596
sg26
(lp3597
(g1774
g83
F0.501
tp3598
assg3
F0.0
sg29
(lp3599
(lp3600
g1774
aa(lp3601
g83
aasg2
F1.0
ssI258
(dp3602
g1
F1.0
sg7
(lp3603
(lp3604
g347
aa(lp3605
g799
aasg13
(dp3606
g15
g16
(g20
S'\xd5x\xe9&1\x08\xe0?'
p3607
tp3608
Rp3609
sg26
(lp3610
(g347
g799
F0.501
tp3611
assg3
F1.0
sg29
(lp3612
(lp3613
g347
aa(lp3614
g799
aasg2
F1.0
ssI259
(dp3615
g1
F1.0
sg7
(lp3616
(lp3617
g768
aa(lp3618
g1556
aasg13
(dp3619
g15
g16
(g20
S'\xd5x\xe9&1\x08\xe0?'
p3620
tp3621
Rp3622
sg26
(lp3623
(g768
g1556
F0.501
tp3624
assg3
F1.0
sg29
(lp3625
(lp3626
g768
aa(lp3627
g1556
aasg2
F1.0
ssI260
(dp3628
g1
F-1.0
sg7
(lp3629
(lp3630
g567
aa(lp3631
S'infeasible'
p3632
aasg13
(dp3633
g15
g16
(g20
S'\xd5x\xe9&1\x08\xe0?'
p3634
tp3635
Rp3636
sg26
(lp3637
(g3632
g567
F0.501
tp3638
assg3
F0.0
sg29
(lp3639
(lp3640
g3632
aa(lp3641
g567
aasg2
F1.0
ssI261
(dp3642
g1
F1.0
sg7
(lp3643
(lp3644
g362
aa(lp3645
g364
aasg13
(dp3646
g15
g16
(g20
S'\xd5x\xe9&1\x08\xe0?'
p3647
tp3648
Rp3649
sg26
(lp3650
(g362
g364
F0.501
tp3651
assg3
F1.0
sg29
(lp3652
(lp3653
g362
aa(lp3654
g364
aasg2
F1.0
ssI262
(dp3655
g1
F-1.0
sg7
(lp3656
(lp3657
g1038
aa(lp3658
g10
aasg13
(dp3659
g15
g16
(g20
S'\xd5x\xe9&1\x08\xe0?'
p3660
tp3661
Rp3662
sg26
(lp3663
(g10
g1038
F0.501
tp3664
assg3
F0.0
sg29
(lp3665
(lp3666
g10
aa(lp3667
g1038
aasg2
F1.0
ssI263
(dp3668
g1
F1.0
sg7
(lp3669
(lp3670
g1389
aa(lp3671
g246
aasg13
(dp3672
g15
g16
(g20
S'\xd5x\xe9&1\x08\xe0?'
p3673
tp3674
Rp3675
sg26
(lp3676
(g1389
g246
F0.501
tp3677
assg3
F1.0
sg29
(lp3678
(lp3679
g1389
aa(lp3680
g246
aasg2
F1.0
ssI264
(dp3681
g1
F1.0
sg7
(lp3682
(lp3683
g3055
aa(lp3684
g3057
aasg13
(dp3685
g15
g16
(g20
S'\xd5x\xe9&1\x08\xe0?'
p3686
tp3687
Rp3688
sg26
(lp3689
(g3055
g3057
F0.501
tp3690
assg3
F1.0
sg29
(lp3691
(lp3692
g3055
aa(lp3693
g3057
aasg2
F1.0
ssI265
(dp3694
g1
F1.0
sg7
(lp3695
(lp3696
g51
aa(lp3697
g188
aasg13
(dp3698
g15
g16
(g20
S'\xd5x\xe9&1\x08\xe0?'
p3699
tp3700
Rp3701
sg26
(lp3702
(g51
g188
F0.501
tp3703
assg3
F1.0
sg29
(lp3704
(lp3705
g51
aa(lp3706
g188
aasg2
F1.0
ssI266
(dp3707
g1
F-1.0
sg7
(lp3708
(lp3709
g3204
aa(lp3710
g799
aasg13
(dp3711
g15
g16
(g20
S'\xd5x\xe9&1\x08\xe0?'
p3712
tp3713
Rp3714
sg26
(lp3715
(g799
g3204
F0.501
tp3716
assg3
F0.0
sg29
(lp3717
(lp3718
g799
aa(lp3719
g3204
aasg2
F1.0
ssI267
(dp3720
g1
F1.0
sg7
(lp3721
(lp3722
g480
aa(lp3723
S'spicy'
p3724
aasg13
(dp3725
g15
g16
(g20
S'\xd5x\xe9&1\x08\xe0?'
p3726
tp3727
Rp3728
sg26
(lp3729
(g480
g3724
F0.501
tp3730
assg3
F1.0
sg29
(lp3731
(lp3732
g480
aa(lp3733
g3724
aasg2
F1.0
ssI268
(dp3734
g1
F1.0
sg7
(lp3735
(lp3736
g954
aa(lp3737
g2255
aasg13
(dp3738
g15
g16
(g20
S'\xd5x\xe9&1\x08\xe0?'
p3739
tp3740
Rp3741
sg26
(lp3742
(g954
g2255
F0.501
tp3743
assg3
F1.0
sg29
(lp3744
(lp3745
g954
aa(lp3746
g2255
aasg2
F1.0
ssI269
(dp3747
g1
F1.0
sg7
(lp3748
(lp3749
g1873
aa(lp3750
g2950
aasg13
(dp3751
g15
g16
(g20
S'V\x0e-\xb2\x9d\xef\xdf?'
p3752
tp3753
Rp3754
sg26
(lp3755
(g1873
g2950
F0.499
tp3756
assg3
F1.0
sg29
(lp3757
(lp3758
g1873
aa(lp3759
g2950
aasg2
F1.0
ssI270
(dp3760
g1
F-1.0
sg7
(lp3761
(lp3762
g770
aa(lp3763
g856
aasg13
(dp3764
g15
g16
(g20
S'\xd5x\xe9&1\x08\xe0?'
p3765
tp3766
Rp3767
sg26
(lp3768
(g856
g770
F0.501
tp3769
assg3
F0.0
sg29
(lp3770
(lp3771
g856
aa(lp3772
g770
aasg2
F1.0
ssI271
(dp3773
g1
F-1.0
sg7
(lp3774
(lp3775
g1140
aa(lp3776
g2868
aasg13
(dp3777
g15
g16
(g20
S'\xd5x\xe9&1\x08\xe0?'
p3778
tp3779
Rp3780
sg26
(lp3781
(g2868
g1140
F0.501
tp3782
assg3
F0.0
sg29
(lp3783
(lp3784
g2868
aa(lp3785
g1140
aasg2
F1.0
ssI272
(dp3786
g1
F-1.0
sg7
(lp3787
(lp3788
g2142
aa(lp3789
g2950
aasg13
(dp3790
g15
g16
(g20
S'\xd5x\xe9&1\x08\xe0?'
p3791
tp3792
Rp3793
sg26
(lp3794
(g2950
g2142
F0.501
tp3795
assg3
F0.0
sg29
(lp3796
(lp3797
g2950
aa(lp3798
g2142
aasg2
F1.0
ssI273
(dp3799
g1
F1.0
sg7
(lp3800
(lp3801
g840
aa(lp3802
g83
aasg13
(dp3803
g15
g16
(g20
S'\xd5x\xe9&1\x08\xe0?'
p3804
tp3805
Rp3806
sg26
(lp3807
(g840
g83
F0.501
tp3808
assg3
F1.0
sg29
(lp3809
(lp3810
g840
aa(lp3811
g83
aasg2
F1.0
ssI274
(dp3812
g1
F-1.0
sg7
(lp3813
(lp3814
g797
aa(lp3815
g347
aasg13
(dp3816
g15
g16
(g20
S'\xd5x\xe9&1\x08\xe0?'
p3817
tp3818
Rp3819
sg26
(lp3820
(g347
g797
F0.501
tp3821
assg3
F0.0
sg29
(lp3822
(lp3823
g347
aa(lp3824
g797
aasg2
F1.0
ssI275
(dp3825
g1
F1.0
sg7
(lp3826
(lp3827
g768
aa(lp3828
g770
aasg13
(dp3829
g15
g16
(g20
S'\xd5x\xe9&1\x08\xe0?'
p3830
tp3831
Rp3832
sg26
(lp3833
(g768
g770
F0.501
tp3834
assg3
F1.0
sg29
(lp3835
(lp3836
g768
aa(lp3837
g770
aasg2
F1.0
ssI276
(dp3838
g1
F-1.0
sg7
(lp3839
(lp3840
g2395
aa(lp3841
g2397
aasg13
(dp3842
g15
g16
(g20
S'\xd5x\xe9&1\x08\xe0?'
p3843
tp3844
Rp3845
sg26
(lp3846
(g2397
g2395
F0.501
tp3847
assg3
F0.0
sg29
(lp3848
(lp3849
g2397
aa(lp3850
g2395
aasg2
F1.0
ssI277
(dp3851
g1
F-1.0
sg7
(lp3852
(lp3853
g682
aa(lp3854
g684
aasg13
(dp3855
g15
g16
(g20
S'V\x0e-\xb2\x9d\xef\xdf?'
p3856
tp3857
Rp3858
sg26
(lp3859
(g684
g682
F0.499
tp3860
assg3
F0.0
sg29
(lp3861
(lp3862
g684
aa(lp3863
g682
aasg2
F1.0
ssI278
(dp3864
g1
F1.0
sg7
(lp3865
(lp3866
g36
aa(lp3867
S'hostile'
p3868
aasg13
(dp3869
g15
g16
(g20
S'\xd5x\xe9&1\x08\xe0?'
p3870
tp3871
Rp3872
sg26
(lp3873
(g36
g3868
F0.501
tp3874
assg3
F1.0
sg29
(lp3875
(lp3876
g36
aa(lp3877
g3868
aasg2
F1.0
ssI279
(dp3878
g1
F1.0
sg7
(lp3879
(lp3880
g1525
aa(lp3881
g1527
aasg13
(dp3882
g15
g16
(g20
S'V\x0e-\xb2\x9d\xef\xdf?'
p3883
tp3884
Rp3885
sg26
(lp3886
(g1525
g1527
F0.499
tp3887
assg3
F1.0
sg29
(lp3888
(lp3889
g1525
aa(lp3890
g1527
aasg2
F1.0
ssI280
(dp3891
g1
F1.0
sg7
(lp3892
(lp3893
g770
aa(lp3894
g98
aasg13
(dp3895
g15
g16
(g20
S'\xd5x\xe9&1\x08\xe0?'
p3896
tp3897
Rp3898
sg26
(lp3899
(g770
g98
F0.501
tp3900
assg3
F1.0
sg29
(lp3901
(lp3902
g770
aa(lp3903
g98
aasg2
F1.0
ssI281
(dp3904
g1
F1.0
sg7
(lp3905
(lp3906
g770
aa(lp3907
g98
aasg13
(dp3908
g15
g16
(g20
S'\xd5x\xe9&1\x08\xe0?'
p3909
tp3910
Rp3911
sg26
(lp3912
(g770
g98
F0.501
tp3913
assg3
F1.0
sg29
(lp3914
(lp3915
g770
aa(lp3916
g98
aasg2
F1.0
ssI282
(dp3917
g1
F1.0
sg7
(lp3918
(lp3919
g1138
aa(lp3920
g2868
aasg13
(dp3921
g15
g16
(g20
S'\xd5x\xe9&1\x08\xe0?'
p3922
tp3923
Rp3924
sg26
(lp3925
(g1138
g2868
F0.501
tp3926
assg3
F1.0
sg29
(lp3927
(lp3928
g1138
aa(lp3929
g2868
aasg2
F1.0
ssI283
(dp3930
g1
F-1.0
sg7
(lp3931
(lp3932
g3057
aa(lp3933
g3499
aasg13
(dp3934
g15
g16
(g20
S'\xd5x\xe9&1\x08\xe0?'
p3935
tp3936
Rp3937
sg26
(lp3938
(g3499
g3057
F0.501
tp3939
assg3
F0.0
sg29
(lp3940
(lp3941
g3499
aa(lp3942
g3057
aasg2
F1.0
ssI284
(dp3943
g1
F1.0
sg7
(lp3944
(lp3945
S'unstable'
p3946
aa(lp3947
S'insane'
p3948
aasg13
(dp3949
g15
g16
(g20
S'\xd5x\xe9&1\x08\xe0?'
p3950
tp3951
Rp3952
sg26
(lp3953
(g3946
g3948
F0.501
tp3954
assg3
F1.0
sg29
(lp3955
(lp3956
g3946
aa(lp3957
g3948
aasg2
F1.0
ssI285
(dp3958
g1
F-1.0
sg7
(lp3959
(lp3960
S'impractical'
p3961
aa(lp3962
S'unrealistic'
p3963
aasg13
(dp3964
g15
g16
(g20
S'\xd5x\xe9&1\x08\xe0?'
p3965
tp3966
Rp3967
sg26
(lp3968
(g3963
g3961
F0.501
tp3969
assg3
F0.0
sg29
(lp3970
(lp3971
g3963
aa(lp3972
g3961
aasg2
F1.0
ssI286
(dp3973
g1
F1.0
sg7
(lp3974
(lp3975
S'deceptive'
p3976
aa(lp3977
g2089
aasg13
(dp3978
g15
g16
(g20
S'\xd5x\xe9&1\x08\xe0?'
p3979
tp3980
Rp3981
sg26
(lp3982
(g3976
g2089
F0.501
tp3983
assg3
F1.0
sg29
(lp3984
(lp3985
g3976
aa(lp3986
g2089
aasg2
F1.0
ssI287
(dp3987
g1
F-1.0
sg7
(lp3988
(lp3989
g565
aa(lp3990
g3632
aasg13
(dp3991
g15
g16
(g20
S'\xd5x\xe9&1\x08\xe0?'
p3992
tp3993
Rp3994
sg26
(lp3995
(g3632
g565
F0.501
tp3996
assg3
F0.0
sg29
(lp3997
(lp3998
g3632
aa(lp3999
g565
aasg2
F1.0
ssI288
(dp4000
g1
F1.0
sg7
(lp4001
(lp4002
g1758
aa(lp4003
g1939
aasg13
(dp4004
g15
g16
(g20
S'V\x0e-\xb2\x9d\xef\xdf?'
p4005
tp4006
Rp4007
sg26
(lp4008
(g1758
g1939
F0.499
tp4009
assg3
F1.0
sg29
(lp4010
(lp4011
g1758
aa(lp4012
g1939
aasg2
F1.0
ssI289
(dp4013
g1
F1.0
sg7
(lp4014
(lp4015
g1040
aa(lp4016
g983
aasg13
(dp4017
g15
g16
(g20
S'\xd5x\xe9&1\x08\xe0?'
p4018
tp4019
Rp4020
sg26
(lp4021
(g1040
g983
F0.501
tp4022
assg3
F1.0
sg29
(lp4023
(lp4024
g1040
aa(lp4025
g983
aasg2
F1.0
ssI290
(dp4026
g1
F-1.0
sg7
(lp4027
(lp4028
g523
aa(lp4029
g186
aasg13
(dp4030
g15
g16
(g20
S'\xd5x\xe9&1\x08\xe0?'
p4031
tp4032
Rp4033
sg26
(lp4034
(g186
g523
F0.501
tp4035
assg3
F0.0
sg29
(lp4036
(lp4037
g186
aa(lp4038
g523
aasg2
F1.0
ssI291
(dp4039
g1
F-1.0
sg7
(lp4040
(lp4041
g523
aa(lp4042
g653
aasg13
(dp4043
g15
g16
(g20
S'\xd5x\xe9&1\x08\xe0?'
p4044
tp4045
Rp4046
sg26
(lp4047
(g653
g523
F0.501
tp4048
assg3
F0.0
sg29
(lp4049
(lp4050
g653
aa(lp4051
g523
aasg2
F1.0
ssI292
(dp4052
g1
F-1.0
sg7
(lp4053
(lp4054
S'beautiful'
p4055
aa(lp4056
S'seductive'
p4057
aasg13
(dp4058
g15
g16
(g20
S'\xd5x\xe9&1\x08\xe0?'
p4059
tp4060
Rp4061
sg26
(lp4062
(g4057
g4055
F0.501
tp4063
assg3
F0.0
sg29
(lp4064
(lp4065
g4057
aa(lp4066
g4055
aasg2
F1.0
ssI293
(dp4067
g1
F-1.0
sg7
(lp4068
(lp4069
g1095
aa(lp4070
g1097
aasg13
(dp4071
g15
g16
(g20
S'\xd5x\xe9&1\x08\xe0?'
p4072
tp4073
Rp4074
sg26
(lp4075
(g1097
g1095
F0.501
tp4076
assg3
F0.0
sg29
(lp4077
(lp4078
g1097
aa(lp4079
g1095
aasg2
F1.0
ssI294
(dp4080
g1
F1.0
sg7
(lp4081
(lp4082
g2438
aa(lp4083
g1444
aasg13
(dp4084
g15
g16
(g20
S'\xd5x\xe9&1\x08\xe0?'
p4085
tp4086
Rp4087
sg26
(lp4088
(g2438
g1444
F0.501
tp4089
assg3
F1.0
sg29
(lp4090
(lp4091
g2438
aa(lp4092
g1444
aasg2
F1.0
ssI295
(dp4093
g1
F-1.0
sg7
(lp4094
(lp4095
g2156
aa(lp4096
g420
aasg13
(dp4097
g15
g16
(g20
S'\xd5x\xe9&1\x08\xe0?'
p4098
tp4099
Rp4100
sg26
(lp4101
(g420
g2156
F0.501
tp4102
assg3
F0.0
sg29
(lp4103
(lp4104
g420
aa(lp4105
g2156
aasg2
F1.0
ssI296
(dp4106
g1
F-1.0
sg7
(lp4107
(lp4108
g186
aa(lp4109
g611
aasg13
(dp4110
g15
g16
(g20
S'\xd5x\xe9&1\x08\xe0?'
p4111
tp4112
Rp4113
sg26
(lp4114
(g611
g186
F0.501
tp4115
assg3
F0.0
sg29
(lp4116
(lp4117
g611
aa(lp4118
g186
aasg2
F1.0
ssI297
(dp4119
g1
F-1.0
sg7
(lp4120
(lp4121
S'real'
p4122
aa(lp4123
S'authentic'
p4124
aasg13
(dp4125
g15
g16
(g20
S'\xd5x\xe9&1\x08\xe0?'
p4126
tp4127
Rp4128
sg26
(lp4129
(g4124
g4122
F0.501
tp4130
assg3
F0.0
sg29
(lp4131
(lp4132
g4124
aa(lp4133
g4122
aasg2
F1.0
ssI298
(dp4134
g1
F-1.0
sg7
(lp4135
(lp4136
g1638
aa(lp4137
g597
aasg13
(dp4138
g15
g16
(g20
S'\xd5x\xe9&1\x08\xe0?'
p4139
tp4140
Rp4141
sg26
(lp4142
(g597
g1638
F0.501
tp4143
assg3
F0.0
sg29
(lp4144
(lp4145
g597
aa(lp4146
g1638
aasg2
F1.0
ssI299
(dp4147
g1
F-1.0
sg7
(lp4148
(lp4149
g1665
aa(lp4150
g1667
aasg13
(dp4151
g15
g16
(g20
S'\xd5x\xe9&1\x08\xe0?'
p4152
tp4153
Rp4154
sg26
(lp4155
(g1667
g1665
F0.501
tp4156
assg3
F0.0
sg29
(lp4157
(lp4158
g1667
aa(lp4159
g1665
aasg2
F1.0
ssI300
(dp4160
g1
F1.0
sg7
(lp4161
(lp4162
g2183
aa(lp4163
g2185
aasg13
(dp4164
g15
g16
(g20
S'\xd5x\xe9&1\x08\xe0?'
p4165
tp4166
Rp4167
sg26
(lp4168
(g2183
g2185
F0.501
tp4169
assg3
F1.0
sg29
(lp4170
(lp4171
g2183
aa(lp4172
g2185
aasg2
F1.0
ssI301
(dp4173
g1
F-1.0
sg7
(lp4174
(lp4175
g304
aa(lp4176
g653
aasg13
(dp4177
g15
g16
(g20
S'\xd5x\xe9&1\x08\xe0?'
p4178
tp4179
Rp4180
sg26
(lp4181
(g653
g304
F0.501
tp4182
assg3
F0.0
sg29
(lp4183
(lp4184
g653
aa(lp4185
g304
aasg2
F1.0
ssI302
(dp4186
g1
F-1.0
sg7
(lp4187
(lp4188
S'vital'
p4189
aa(lp4190
g216
aasg13
(dp4191
g15
g16
(g20
S'\xd5x\xe9&1\x08\xe0?'
p4192
tp4193
Rp4194
sg26
(lp4195
(g216
g4189
F0.501
tp4196
assg3
F0.0
sg29
(lp4197
(lp4198
g216
aa(lp4199
g4189
aasg2
F1.0
ssI303
(dp4200
g1
F-1.0
sg7
(lp4201
(lp4202
g854
aa(lp4203
g98
aasg13
(dp4204
g15
g16
(g20
S'\xd5x\xe9&1\x08\xe0?'
p4205
tp4206
Rp4207
sg26
(lp4208
(g98
g854
F0.501
tp4209
assg3
F0.0
sg29
(lp4210
(lp4211
g98
aa(lp4212
g854
aasg2
F1.0
ssI304
(dp4213
g1
F-1.0
sg7
(lp4214
(lp4215
g797
aa(lp4216
g347
aasg13
(dp4217
g15
g16
(g20
S'\xd5x\xe9&1\x08\xe0?'
p4218
tp4219
Rp4220
sg26
(lp4221
(g347
g797
F0.501
tp4222
assg3
F0.0
sg29
(lp4223
(lp4224
g347
aa(lp4225
g797
aasg2
F1.0
ssI305
(dp4226
g1
F-1.0
sg7
(lp4227
(lp4228
g1010
aa(lp4229
g871
aasg13
(dp4230
g15
g16
(g20
S'\xd5x\xe9&1\x08\xe0?'
p4231
tp4232
Rp4233
sg26
(lp4234
(g871
g1010
F0.501
tp4235
assg3
F0.0
sg29
(lp4236
(lp4237
g871
aa(lp4238
g1010
aasg2
F1.0
ssI306
(dp4239
g1
F1.0
sg7
(lp4240
(lp4241
g3378
aa(lp4242
g3380
aasg13
(dp4243
g15
g16
(g20
S'\xd5x\xe9&1\x08\xe0?'
p4244
tp4245
Rp4246
sg26
(lp4247
(g3378
g3380
F0.501
tp4248
assg3
F1.0
sg29
(lp4249
(lp4250
g3378
aa(lp4251
g3380
aasg2
F1.0
ssI307
(dp4252
g1
F1.0
sg7
(lp4253
(lp4254
g653
aa(lp4255
g611
aasg13
(dp4256
g15
g16
(g20
S'\xd5x\xe9&1\x08\xe0?'
p4257
tp4258
Rp4259
sg26
(lp4260
(g653
g611
F0.501
tp4261
assg3
F1.0
sg29
(lp4262
(lp4263
g653
aa(lp4264
g611
aasg2
F1.0
ssI308
(dp4265
g1
F-1.0
sg7
(lp4266
(lp4267
g3269
aa(lp4268
g3271
aasg13
(dp4269
g15
g16
(g20
S'\xd5x\xe9&1\x08\xe0?'
p4270
tp4271
Rp4272
sg26
(lp4273
(g3271
g3269
F0.501
tp4274
assg3
F0.0
sg29
(lp4275
(lp4276
g3271
aa(lp4277
g3269
aasg2
F1.0
ssI309
(dp4278
g1
F-1.0
sg7
(lp4279
(lp4280
g2881
aa(lp4281
g1067
aasg13
(dp4282
g15
g16
(g20
S'\xd5x\xe9&1\x08\xe0?'
p4283
tp4284
Rp4285
sg26
(lp4286
(g1067
g2881
F0.501
tp4287
assg3
F0.0
sg29
(lp4288
(lp4289
g1067
aa(lp4290
g2881
aasg2
F1.0
ssI310
(dp4291
g1
F1.0
sg7
(lp4292
(lp4293
g2352
aa(lp4294
g2354
aasg13
(dp4295
g15
g16
(g20
S'\xd5x\xe9&1\x08\xe0?'
p4296
tp4297
Rp4298
sg26
(lp4299
(g2352
g2354
F0.501
tp4300
assg3
F1.0
sg29
(lp4301
(lp4302
g2352
aa(lp4303
g2354
aasg2
F1.0
ssI311
(dp4304
g1
F-1.0
sg7
(lp4305
(lp4306
g244
aa(lp4307
g1389
aasg13
(dp4308
g15
g16
(g20
S'\xd5x\xe9&1\x08\xe0?'
p4309
tp4310
Rp4311
sg26
(lp4312
(g1389
g244
F0.501
tp4313
assg3
F0.0
sg29
(lp4314
(lp4315
g1389
aa(lp4316
g244
aasg2
F1.0
ssI312
(dp4317
g1
F1.0
sg7
(lp4318
(lp4319
g913
aa(lp4320
g3096
aasg13
(dp4321
g15
g16
(g20
S'\xd5x\xe9&1\x08\xe0?'
p4322
tp4323
Rp4324
sg26
(lp4325
(g913
g3096
F0.501
tp4326
assg3
F1.0
sg29
(lp4327
(lp4328
g913
aa(lp4329
g3096
aasg2
F1.0
ssI313
(dp4330
g1
F-1.0
sg7
(lp4331
(lp4332
g3162
aa(lp4333
g3164
aasg13
(dp4334
g15
g16
(g20
S'\xd5x\xe9&1\x08\xe0?'
p4335
tp4336
Rp4337
sg26
(lp4338
(g3164
g3162
F0.501
tp4339
assg3
F0.0
sg29
(lp4340
(lp4341
g3164
aa(lp4342
g3162
aasg2
F1.0
ssI314
(dp4343
g1
F-1.0
sg7
(lp4344
(lp4345
g565
aa(lp4346
g3632
aasg13
(dp4347
g15
g16
(g20
S'\xd5x\xe9&1\x08\xe0?'
p4348
tp4349
Rp4350
sg26
(lp4351
(g3632
g565
F0.501
tp4352
assg3
F0.0
sg29
(lp4353
(lp4354
g3632
aa(lp4355
g565
aasg2
F1.0
ssI315
(dp4356
g1
F-1.0
sg7
(lp4357
(lp4358
S'sexy'
p4359
aa(lp4360
S'seductive'
p4361
aasg13
(dp4362
g15
g16
(g20
S'\xd5x\xe9&1\x08\xe0?'
p4363
tp4364
Rp4365
sg26
(lp4366
(g4361
g4359
F0.501
tp4367
assg3
F0.0
sg29
(lp4368
(lp4369
g4361
aa(lp4370
g4359
aasg2
F1.0
ssI316
(dp4371
g1
F-1.0
sg7
(lp4372
(lp4373
S'available'
p4374
aa(lp4375
S'visible'
p4376
aasg13
(dp4377
g15
g16
(g20
S'\xd5x\xe9&1\x08\xe0?'
p4378
tp4379
Rp4380
sg26
(lp4381
(g4376
g4374
F0.501
tp4382
assg3
F0.0
sg29
(lp4383
(lp4384
g4376
aa(lp4385
g4374
aasg2
F1.0
ssI317
(dp4386
g1
F1.0
sg7
(lp4387
(lp4388
g565
aa(lp4389
g2046
aasg13
(dp4390
g15
g16
(g20
S'\xd5x\xe9&1\x08\xe0?'
p4391
tp4392
Rp4393
sg26
(lp4394
(g565
g2046
F0.501
tp4395
assg3
F1.0
sg29
(lp4396
(lp4397
g565
aa(lp4398
g2046
aasg2
F1.0
ssI318
(dp4399
g1
F-1.0
sg7
(lp4400
(lp4401
g2046
aa(lp4402
g3632
aasg13
(dp4403
g15
g16
(g20
S'\xd5x\xe9&1\x08\xe0?'
p4404
tp4405
Rp4406
sg26
(lp4407
(g3632
g2046
F0.501
tp4408
assg3
F0.0
sg29
(lp4409
(lp4410
g3632
aa(lp4411
g2046
aasg2
F1.0
ssI319
(dp4412
g1
F1.0
sg7
(lp4413
(lp4414
S'dim'
p4415
aa(lp4416
g2382
aasg13
(dp4417
g15
g16
(g20
S'\xd5x\xe9&1\x08\xe0?'
p4418
tp4419
Rp4420
sg26
(lp4421
(g4415
g2382
F0.501
tp4422
assg3
F1.0
sg29
(lp4423
(lp4424
g4415
aa(lp4425
g2382
aasg2
F1.0
ssI320
(dp4426
g1
F-1.0
sg7
(lp4427
(lp4428
g3204
aa(lp4429
g799
aasg13
(dp4430
g15
g16
(g20
S'\xd5x\xe9&1\x08\xe0?'
p4431
tp4432
Rp4433
sg26
(lp4434
(g799
g3204
F0.501
tp4435
assg3
F0.0
sg29
(lp4436
(lp4437
g799
aa(lp4438
g3204
aasg2
F1.0
ssI321
(dp4439
g1
F-1.0
sg7
(lp4440
(lp4441
g4374
aa(lp4442
g4376
aasg13
(dp4443
g15
g16
(g20
S'\xd5x\xe9&1\x08\xe0?'
p4444
tp4445
Rp4446
sg26
(lp4447
(g4376
g4374
F0.501
tp4448
assg3
F0.0
sg29
(lp4449
(lp4450
g4376
aa(lp4451
g4374
aasg2
F1.0
ssI322
(dp4452
g1
F1.0
sg7
(lp4453
(lp4454
g420
aa(lp4455
g827
aasg13
(dp4456
g15
g16
(g20
S'\xd5x\xe9&1\x08\xe0?'
p4457
tp4458
Rp4459
sg26
(lp4460
(g420
g827
F0.501
tp4461
assg3
F1.0
sg29
(lp4462
(lp4463
g420
aa(lp4464
g827
aasg2
F1.0
ssI323
(dp4465
g1
F1.0
sg7
(lp4466
(lp4467
g3976
aa(lp4468
g2089
aasg13
(dp4469
g15
g16
(g20
S'\xd5x\xe9&1\x08\xe0?'
p4470
tp4471
Rp4472
sg26
(lp4473
(g3976
g2089
F0.501
tp4474
assg3
F1.0
sg29
(lp4475
(lp4476
g3976
aa(lp4477
g2089
aasg2
F1.0
ssI324
(dp4478
g1
F1.0
sg7
(lp4479
(lp4480
g2921
aa(lp4481
S'practical'
p4482
aasg13
(dp4483
g15
g16
(g20
S'\xd5x\xe9&1\x08\xe0?'
p4484
tp4485
Rp4486
sg26
(lp4487
(g2921
g4482
F0.501
tp4488
assg3
F1.0
sg29
(lp4489
(lp4490
g2921
aa(lp4491
g4482
aasg2
F1.0
ssI325
(dp4492
g1
F-1.0
sg7
(lp4493
(lp4494
g2734
aa(lp4495
g68
aasg13
(dp4496
g15
g16
(g20
S'\xd5x\xe9&1\x08\xe0?'
p4497
tp4498
Rp4499
sg26
(lp4500
(g68
g2734
F0.501
tp4501
assg3
F0.0
sg29
(lp4502
(lp4503
g68
aa(lp4504
g2734
aasg2
F1.0
ssI326
(dp4505
g1
F-1.0
sg7
(lp4506
(lp4507
g186
aa(lp4508
g53
aasg13
(dp4509
g15
g16
(g20
S'\xd5x\xe9&1\x08\xe0?'
p4510
tp4511
Rp4512
sg26
(lp4513
(g53
g186
F0.501
tp4514
assg3
F0.0
sg29
(lp4515
(lp4516
g53
aa(lp4517
g186
aasg2
F1.0
ssI327
(dp4518
g1
F1.0
sg7
(lp4519
(lp4520
g741
aa(lp4521
g2227
aasg13
(dp4522
g15
g16
(g20
S'\xd5x\xe9&1\x08\xe0?'
p4523
tp4524
Rp4525
sg26
(lp4526
(g741
g2227
F0.501
tp4527
assg3
F1.0
sg29
(lp4528
(lp4529
g741
aa(lp4530
g2227
aasg2
F1.0
ssI328
(dp4531
g1
F1.0
sg7
(lp4532
(lp4533
g739
aa(lp4534
g2626
aasg13
(dp4535
g15
g16
(g20
S'\xd5x\xe9&1\x08\xe0?'
p4536
tp4537
Rp4538
sg26
(lp4539
(g739
g2626
F0.501
tp4540
assg3
F1.0
sg29
(lp4541
(lp4542
g739
aa(lp4543
g2626
aasg2
F1.0
ssI329
(dp4544
g1
F-1.0
sg7
(lp4545
(lp4546
g1638
aa(lp4547
g597
aasg13
(dp4548
g15
g16
(g20
S'\xd5x\xe9&1\x08\xe0?'
p4549
tp4550
Rp4551
sg26
(lp4552
(g597
g1638
F0.501
tp4553
assg3
F0.0
sg29
(lp4554
(lp4555
g597
aa(lp4556
g1638
aasg2
F1.0
ssI330
(dp4557
g1
F-1.0
sg7
(lp4558
(lp4559
g1110
aa(lp4560
g2382
aasg13
(dp4561
g15
g16
(g20
S'\xd5x\xe9&1\x08\xe0?'
p4562
tp4563
Rp4564
sg26
(lp4565
(g2382
g1110
F0.501
tp4566
assg3
F0.0
sg29
(lp4567
(lp4568
g2382
aa(lp4569
g1110
aasg2
F1.0
ssI331
(dp4570
g1
F-1.0
sg7
(lp4571
(lp4572
g825
aa(lp4573
g422
aasg13
(dp4574
g15
g16
(g20
S'\xd5x\xe9&1\x08\xe0?'
p4575
tp4576
Rp4577
sg26
(lp4578
(g422
g825
F0.501
tp4579
assg3
F0.0
sg29
(lp4580
(lp4581
g422
aa(lp4582
g825
aasg2
F1.0
ssI332
(dp4583
g1
F-1.0
sg7
(lp4584
(lp4585
g667
aa(lp4586
g379
aasg13
(dp4587
g15
g16
(g20
S'\xd5x\xe9&1\x08\xe0?'
p4588
tp4589
Rp4590
sg26
(lp4591
(g379
g667
F0.501
tp4592
assg3
F0.0
sg29
(lp4593
(lp4594
g379
aa(lp4595
g667
aasg2
F1.0
ssI333
(dp4596
g1
F1.0
sg7
(lp4597
(lp4598
g2719
aa(lp4599
g2721
aasg13
(dp4600
g15
g16
(g20
S'\xd5x\xe9&1\x08\xe0?'
p4601
tp4602
Rp4603
sg26
(lp4604
(g2719
g2721
F0.501
tp4605
assg3
F1.0
sg29
(lp4606
(lp4607
g2719
aa(lp4608
g2721
aasg2
F1.0
ssI334
(dp4609
g1
F1.0
sg7
(lp4610
(lp4611
g1873
aa(lp4612
g2950
aasg13
(dp4613
g15
g16
(g20
S'V\x0e-\xb2\x9d\xef\xdf?'
p4614
tp4615
Rp4616
sg26
(lp4617
(g1873
g2950
F0.499
tp4618
assg3
F1.0
sg29
(lp4619
(lp4620
g1873
aa(lp4621
g2950
aasg2
F1.0
ssI335
(dp4622
g1
F1.0
sg7
(lp4623
(lp4624
g2516
aa(lp4625
g2518
aasg13
(dp4626
g15
g16
(g20
S'\xd5x\xe9&1\x08\xe0?'
p4627
tp4628
Rp4629
sg26
(lp4630
(g2516
g2518
F0.501
tp4631
assg3
F1.0
sg29
(lp4632
(lp4633
g2516
aa(lp4634
g2518
aasg2
F1.0
ssI336
(dp4635
g1
F1.0
sg7
(lp4636
(lp4637
g697
aa(lp4638
g552
aasg13
(dp4639
g15
g16
(g20
S'\xd5x\xe9&1\x08\xe0?'
p4640
tp4641
Rp4642
sg26
(lp4643
(g697
g552
F0.501
tp4644
assg3
F1.0
sg29
(lp4645
(lp4646
g697
aa(lp4647
g552
aasg2
F1.0
ssI337
(dp4648
g1
F1.0
sg7
(lp4649
(lp4650
g797
aa(lp4651
g2559
aasg13
(dp4652
g15
g16
(g20
S'\xd5x\xe9&1\x08\xe0?'
p4653
tp4654
Rp4655
sg26
(lp4656
(g797
g2559
F0.501
tp4657
assg3
F1.0
sg29
(lp4658
(lp4659
g797
aa(lp4660
g2559
aasg2
F1.0
ssI338
(dp4661
g1
F1.0
sg7
(lp4662
(lp4663
g653
aa(lp4664
g53
aasg13
(dp4665
g15
g16
(g20
S'\xd5x\xe9&1\x08\xe0?'
p4666
tp4667
Rp4668
sg26
(lp4669
(g653
g53
F0.501
tp4670
assg3
F1.0
sg29
(lp4671
(lp4672
g653
aa(lp4673
g53
aasg2
F1.0
ssI339
(dp4674
g1
F-1.0
sg7
(lp4675
(lp4676
S'friendly'
p4677
aa(lp4678
g1789
aasg13
(dp4679
g15
g16
(g20
S'\xd5x\xe9&1\x08\xe0?'
p4680
tp4681
Rp4682
sg26
(lp4683
(g1789
g4677
F0.501
tp4684
assg3
F0.0
sg29
(lp4685
(lp4686
g1789
aa(lp4687
g4677
aasg2
F1.0
ssI340
(dp4688
g1
F1.0
sg7
(lp4689
(lp4690
S'moving'
p4691
aa(lp4692
S'exciting'
p4693
aasg13
(dp4694
g15
g16
(g20
S'\xd5x\xe9&1\x08\xe0?'
p4695
tp4696
Rp4697
sg26
(lp4698
(g4691
g4693
F0.501
tp4699
assg3
F1.0
sg29
(lp4700
(lp4701
g4691
aa(lp4702
g4693
aasg2
F1.0
ssI341
(dp4703
g1
F1.0
sg7
(lp4704
(lp4705
S'unattractive'
p4706
aa(lp4707
S'ugly'
p4708
aasg13
(dp4709
g15
g16
(g20
S'\xd5x\xe9&1\x08\xe0?'
p4710
tp4711
Rp4712
sg26
(lp4713
(g4706
g4708
F0.501
tp4714
assg3
F1.0
sg29
(lp4715
(lp4716
g4706
aa(lp4717
g4708
aasg2
F1.0
ssI342
(dp4718
g1
F-1.0
sg7
(lp4719
(lp4720
g2183
aa(lp4721
g246
aasg13
(dp4722
g15
g16
(g20
S'\xd5x\xe9&1\x08\xe0?'
p4723
tp4724
Rp4725
sg26
(lp4726
(g246
g2183
F0.501
tp4727
assg3
F0.0
sg29
(lp4728
(lp4729
g246
aa(lp4730
g2183
aasg2
F1.0
ssI343
(dp4731
g1
F-1.0
sg7
(lp4732
(lp4733
g840
aa(lp4734
g1774
aasg13
(dp4735
g15
g16
(g20
S'\xd5x\xe9&1\x08\xe0?'
p4736
tp4737
Rp4738
sg26
(lp4739
(g1774
g840
F0.501
tp4740
assg3
F0.0
sg29
(lp4741
(lp4742
g1774
aa(lp4743
g840
aasg2
F1.0
ssI344
(dp4744
g1
F-1.0
sg7
(lp4745
(lp4746
g3551
aa(lp4747
g3553
aasg13
(dp4748
g15
g16
(g20
S'\xd5x\xe9&1\x08\xe0?'
p4749
tp4750
Rp4751
sg26
(lp4752
(g3553
g3551
F0.501
tp4753
assg3
F0.0
sg29
(lp4754
(lp4755
g3553
aa(lp4756
g3551
aasg2
F1.0
ssI345
(dp4757
g1
F-1.0
sg7
(lp4758
(lp4759
g2046
aa(lp4760
g3632
aasg13
(dp4761
g15
g16
(g20
S'\xd5x\xe9&1\x08\xe0?'
p4762
tp4763
Rp4764
sg26
(lp4765
(g3632
g2046
F0.501
tp4766
assg3
F0.0
sg29
(lp4767
(lp4768
g3632
aa(lp4769
g2046
aasg2
F1.0
ssI346
(dp4770
g1
F-1.0
sg7
(lp4771
(lp4772
g201
aa(lp4773
g203
aasg13
(dp4774
g15
g16
(g20
S'\xd5x\xe9&1\x08\xe0?'
p4775
tp4776
Rp4777
sg26
(lp4778
(g203
g201
F0.501
tp4779
assg3
F0.0
sg29
(lp4780
(lp4781
g203
aa(lp4782
g201
aasg2
F1.0
ssI347
(dp4783
g1
F1.0
sg7
(lp4784
(lp4785
g158
aa(lp4786
S'full'
p4787
aasg13
(dp4788
g15
g16
(g20
S'\xd5x\xe9&1\x08\xe0?'
p4789
tp4790
Rp4791
sg26
(lp4792
(g158
g4787
F0.501
tp4793
assg3
F1.0
sg29
(lp4794
(lp4795
g158
aa(lp4796
g4787
aasg2
F1.0
ssI348
(dp4797
g1
F1.0
sg7
(lp4798
(lp4799
g4189
aa(lp4800
g218
aasg13
(dp4801
g15
g16
(g20
S'\xd5x\xe9&1\x08\xe0?'
p4802
tp4803
Rp4804
sg26
(lp4805
(g4189
g218
F0.501
tp4806
assg3
F1.0
sg29
(lp4807
(lp4808
g4189
aa(lp4809
g218
aasg2
F1.0
ssI349
(dp4810
g1
F-1.0
sg7
(lp4811
(lp4812
g1665
aa(lp4813
g1816
aasg13
(dp4814
g15
g16
(g20
S'\xd5x\xe9&1\x08\xe0?'
p4815
tp4816
Rp4817
sg26
(lp4818
(g1816
g1665
F0.501
tp4819
assg3
F0.0
sg29
(lp4820
(lp4821
g1816
aa(lp4822
g1665
aasg2
F1.0
ssI350
(dp4823
g1
F1.0
sg7
(lp4824
(lp4825
g141
aa(lp4826
g143
aasg13
(dp4827
g15
g16
(g20
S'\xd5x\xe9&1\x08\xe0?'
p4828
tp4829
Rp4830
sg26
(lp4831
(g141
g143
F0.501
tp4832
assg3
F1.0
sg29
(lp4833
(lp4834
g141
aa(lp4835
g143
aasg2
F1.0
ssI351
(dp4836
g1
F-1.0
sg7
(lp4837
(lp4838
g711
aa(lp4839
g713
aasg13
(dp4840
g15
g16
(g20
S'\xd5x\xe9&1\x08\xe0?'
p4841
tp4842
Rp4843
sg26
(lp4844
(g713
g711
F0.501
tp4845
assg3
F0.0
sg29
(lp4846
(lp4847
g713
aa(lp4848
g711
aasg2
F1.0
ssI352
(dp4849
g1
F1.0
sg7
(lp4850
(lp4851
g898
aa(lp4852
g2074
aasg13
(dp4853
g15
g16
(g20
S'\xd5x\xe9&1\x08\xe0?'
p4854
tp4855
Rp4856
sg26
(lp4857
(g898
g2074
F0.501
tp4858
assg3
F1.0
sg29
(lp4859
(lp4860
g898
aa(lp4861
g2074
aasg2
F1.0
ssI353
(dp4862
g1
F-1.0
sg7
(lp4863
(lp4864
g825
aa(lp4865
g420
aasg13
(dp4866
g15
g16
(g20
S'\xd5x\xe9&1\x08\xe0?'
p4867
tp4868
Rp4869
sg26
(lp4870
(g420
g825
F0.501
tp4871
assg3
F0.0
sg29
(lp4872
(lp4873
g420
aa(lp4874
g825
aasg2
F1.0
ssI354
(dp4875
g1
F-1.0
sg7
(lp4876
(lp4877
g639
aa(lp4878
g1040
aasg13
(dp4879
g15
g16
(g20
S'\xd5x\xe9&1\x08\xe0?'
p4880
tp4881
Rp4882
sg26
(lp4883
(g1040
g639
F0.501
tp4884
assg3
F0.0
sg29
(lp4885
(lp4886
g1040
aa(lp4887
g639
aasg2
F1.0
ssI355
(dp4888
g1
F1.0
sg7
(lp4889
(lp4890
g669
aa(lp4891
g377
aasg13
(dp4892
g15
g16
(g20
S'\xd5x\xe9&1\x08\xe0?'
p4893
tp4894
Rp4895
sg26
(lp4896
(g669
g377
F0.501
tp4897
assg3
F1.0
sg29
(lp4898
(lp4899
g669
aa(lp4900
g377
aasg2
F1.0
ssI356
(dp4901
g1
F-1.0
sg7
(lp4902
(lp4903
g2665
aa(lp4904
g2667
aasg13
(dp4905
g15
g16
(g20
S'\xd5x\xe9&1\x08\xe0?'
p4906
tp4907
Rp4908
sg26
(lp4909
(g2667
g2665
F0.501
tp4910
assg3
F0.0
sg29
(lp4911
(lp4912
g2667
aa(lp4913
g2665
aasg2
F1.0
ssI357
(dp4914
g1
F1.0
sg7
(lp4915
(lp4916
g4691
aa(lp4917
g4693
aasg13
(dp4918
g15
g16
(g20
S'\xd5x\xe9&1\x08\xe0?'
p4919
tp4920
Rp4921
sg26
(lp4922
(g4691
g4693
F0.501
tp4923
assg3
F1.0
sg29
(lp4924
(lp4925
g4691
aa(lp4926
g4693
aasg2
F1.0
ssI358
(dp4927
g1
F-1.0
sg7
(lp4928
(lp4929
g186
aa(lp4930
g53
aasg13
(dp4931
g15
g16
(g20
S'\xd5x\xe9&1\x08\xe0?'
p4932
tp4933
Rp4934
sg26
(lp4935
(g53
g186
F0.501
tp4936
assg3
F0.0
sg29
(lp4937
(lp4938
g53
aa(lp4939
g186
aasg2
F1.0
ssI359
(dp4940
g1
F-1.0
sg7
(lp4941
(lp4942
g2559
aa(lp4943
g799
aasg13
(dp4944
g15
g16
(g20
S'\xd5x\xe9&1\x08\xe0?'
p4945
tp4946
Rp4947
sg26
(lp4948
(g799
g2559
F0.501
tp4949
assg3
F0.0
sg29
(lp4950
(lp4951
g799
aa(lp4952
g2559
aasg2
F1.0
ssI360
(dp4953
g1
F-1.0
sg7
(lp4954
(lp4955
g2213
aa(lp4956
g1054
aasg13
(dp4957
g15
g16
(g20
S'\xd5x\xe9&1\x08\xe0?'
p4958
tp4959
Rp4960
sg26
(lp4961
(g1054
g2213
F0.501
tp4962
assg3
F0.0
sg29
(lp4963
(lp4964
g1054
aa(lp4965
g2213
aasg2
F1.0
ssI361
(dp4966
g1
F1.0
sg7
(lp4967
(lp4968
g51
aa(lp4969
g188
aasg13
(dp4970
g15
g16
(g20
S'\xd5x\xe9&1\x08\xe0?'
p4971
tp4972
Rp4973
sg26
(lp4974
(g51
g188
F0.501
tp4975
assg3
F1.0
sg29
(lp4976
(lp4977
g51
aa(lp4978
g188
aasg2
F1.0
ssI362
(dp4979
g1
F-1.0
sg7
(lp4980
(lp4981
g2142
aa(lp4982
g1873
aasg13
(dp4983
g15
g16
(g20
S'\xd5x\xe9&1\x08\xe0?'
p4984
tp4985
Rp4986
sg26
(lp4987
(g1873
g2142
F0.501
tp4988
assg3
F0.0
sg29
(lp4989
(lp4990
g1873
aa(lp4991
g2142
aasg2
F1.0
ssI363
(dp4992
g1
F1.0
sg7
(lp4993
(lp4994
g173
aa(lp4995
S'obese'
p4996
aasg13
(dp4997
g15
g16
(g20
S'\xd5x\xe9&1\x08\xe0?'
p4998
tp4999
Rp5000
sg26
(lp5001
(g173
g4996
F0.501
tp5002
assg3
F1.0
sg29
(lp5003
(lp5004
g173
aa(lp5005
g4996
aasg2
F1.0
ssI364
(dp5006
g1
F1.0
sg7
(lp5007
(lp5008
g111
aa(lp5009
g113
aasg13
(dp5010
g15
g16
(g20
S'V\x0e-\xb2\x9d\xef\xdf?'
p5011
tp5012
Rp5013
sg26
(lp5014
(g111
g113
F0.499
tp5015
assg3
F1.0
sg29
(lp5016
(lp5017
g111
aa(lp5018
g113
aasg2
F1.0
ssI365
(dp5019
g1
F-1.0
sg7
(lp5020
(lp5021
g871
aa(lp5022
g1012
aasg13
(dp5023
g15
g16
(g20
S'\xd5x\xe9&1\x08\xe0?'
p5024
tp5025
Rp5026
sg26
(lp5027
(g1012
g871
F0.501
tp5028
assg3
F0.0
sg29
(lp5029
(lp5030
g1012
aa(lp5031
g871
aasg2
F1.0
ssI366
(dp5032
g1
F-1.0
sg7
(lp5033
(lp5034
g871
aa(lp5035
g1012
aasg13
(dp5036
g15
g16
(g20
S'\xd5x\xe9&1\x08\xe0?'
p5037
tp5038
Rp5039
sg26
(lp5040
(g1012
g871
F0.501
tp5041
assg3
F0.0
sg29
(lp5042
(lp5043
g1012
aa(lp5044
g871
aasg2
F1.0
ssI367
(dp5045
g1
F1.0
sg7
(lp5046
(lp5047
g913
aa(lp5048
g3096
aasg13
(dp5049
g15
g16
(g20
S'\xd5x\xe9&1\x08\xe0?'
p5050
tp5051
Rp5052
sg26
(lp5053
(g913
g3096
F0.501
tp5054
assg3
F1.0
sg29
(lp5055
(lp5056
g913
aa(lp5057
g3096
aasg2
F1.0
ssI368
(dp5058
g1
F1.0
sg7
(lp5059
(lp5060
g595
aa(lp5061
S'thin'
p5062
aasg13
(dp5063
g15
g16
(g20
S'\xd5x\xe9&1\x08\xe0?'
p5064
tp5065
Rp5066
sg26
(lp5067
(g595
g5062
F0.501
tp5068
assg3
F1.0
sg29
(lp5069
(lp5070
g595
aa(lp5071
g5062
aasg2
F1.0
ssI369
(dp5072
g1
F-1.0
sg7
(lp5073
(lp5074
S'close'
p5075
aa(lp5076
g2787
aasg13
(dp5077
g15
g16
(g20
S'\xd5x\xe9&1\x08\xe0?'
p5078
tp5079
Rp5080
sg26
(lp5081
(g2787
g5075
F0.501
tp5082
assg3
F0.0
sg29
(lp5083
(lp5084
g2787
aa(lp5085
g5075
aasg2
F1.0
ssI370
(dp5086
g1
F1.0
sg7
(lp5087
(lp5088
g347
aa(lp5089
g3204
aasg13
(dp5090
g15
g16
(g20
S'\xd5x\xe9&1\x08\xe0?'
p5091
tp5092
Rp5093
sg26
(lp5094
(g347
g3204
F0.501
tp5095
assg3
F1.0
sg29
(lp5096
(lp5097
g347
aa(lp5098
g3204
aasg2
F1.0
ssI371
(dp5099
g1
F-1.0
sg7
(lp5100
(lp5101
g2156
aa(lp5102
g825
aasg13
(dp5103
g15
g16
(g20
S'\xd5x\xe9&1\x08\xe0?'
p5104
tp5105
Rp5106
sg26
(lp5107
(g825
g2156
F0.501
tp5108
assg3
F0.0
sg29
(lp5109
(lp5110
g825
aa(lp5111
g2156
aasg2
F1.0
ssI372
(dp5112
g1
F-1.0
sg7
(lp5113
(lp5114
g1010
aa(lp5115
g871
aasg13
(dp5116
g15
g16
(g20
S'\xd5x\xe9&1\x08\xe0?'
p5117
tp5118
Rp5119
sg26
(lp5120
(g871
g1010
F0.501
tp5121
assg3
F0.0
sg29
(lp5122
(lp5123
g871
aa(lp5124
g1010
aasg2
F1.0
ssI373
(dp5125
g1
F-1.0
sg7
(lp5126
(lp5127
g2269
aa(lp5128
S'quiet'
p5129
aasg13
(dp5130
g15
g16
(g20
S'\xd5x\xe9&1\x08\xe0?'
p5131
tp5132
Rp5133
sg26
(lp5134
(g5129
g2269
F0.501
tp5135
assg3
F0.0
sg29
(lp5136
(lp5137
g5129
aa(lp5138
g2269
aasg2
F1.0
ssI374
(dp5139
g1
F-1.0
sg7
(lp5140
(lp5141
g304
aa(lp5142
g53
aasg13
(dp5143
g15
g16
(g20
S'\xd5x\xe9&1\x08\xe0?'
p5144
tp5145
Rp5146
sg26
(lp5147
(g53
g304
F0.501
tp5148
assg3
F0.0
sg29
(lp5149
(lp5150
g53
aa(lp5151
g304
aasg2
F1.0
ssI375
(dp5152
g1
F1.0
sg7
(lp5153
(lp5154
g3204
aa(lp5155
g2559
aasg13
(dp5156
g15
g16
(g20
S'\xd5x\xe9&1\x08\xe0?'
p5157
tp5158
Rp5159
sg26
(lp5160
(g3204
g2559
F0.501
tp5161
assg3
F1.0
sg29
(lp5162
(lp5163
g3204
aa(lp5164
g2559
aasg2
F1.0
ssI376
(dp5165
g1
F1.0
sg7
(lp5166
(lp5167
g597
aa(lp5168
g1067
aasg13
(dp5169
g15
g16
(g20
S'V\x0e-\xb2\x9d\xef\xdf?'
p5170
tp5171
Rp5172
sg26
(lp5173
(g597
g1067
F0.499
tp5174
assg3
F1.0
sg29
(lp5175
(lp5176
g597
aa(lp5177
g1067
aasg2
F1.0
ssI377
(dp5178
g1
F-1.0
sg7
(lp5179
(lp5180
g2213
aa(lp5181
g1054
aasg13
(dp5182
g15
g16
(g20
S'\xd5x\xe9&1\x08\xe0?'
p5183
tp5184
Rp5185
sg26
(lp5186
(g1054
g2213
F0.501
tp5187
assg3
F0.0
sg29
(lp5188
(lp5189
g1054
aa(lp5190
g2213
aasg2
F1.0
ssI378
(dp5191
g1
F-1.0
sg7
(lp5192
(lp5193
S'required'
p5194
aa(lp5195
g3499
aasg13
(dp5196
g15
g16
(g20
S'\xd5x\xe9&1\x08\xe0?'
p5197
tp5198
Rp5199
sg26
(lp5200
(g3499
g5194
F0.501
tp5201
assg3
F0.0
sg29
(lp5202
(lp5203
g3499
aa(lp5204
g5194
aasg2
F1.0
ssI379
(dp5205
g1
F1.0
sg7
(lp5206
(lp5207
g768
aa(lp5208
g96
aasg13
(dp5209
g15
g16
(g20
S'\xd5x\xe9&1\x08\xe0?'
p5210
tp5211
Rp5212
sg26
(lp5213
(g768
g96
F0.501
tp5214
assg3
F1.0
sg29
(lp5215
(lp5216
g768
aa(lp5217
g96
aasg2
F1.0
ssI380
(dp5218
g1
F-1.0
sg7
(lp5219
(lp5220
g2102
aa(lp5221
g713
aasg13
(dp5222
g15
g16
(g20
S'\xd5x\xe9&1\x08\xe0?'
p5223
tp5224
Rp5225
sg26
(lp5226
(g713
g2102
F0.501
tp5227
assg3
F0.0
sg29
(lp5228
(lp5229
g713
aa(lp5230
g2102
aasg2
F1.0
ssI381
(dp5231
g1
F1.0
sg7
(lp5232
(lp5233
g611
aa(lp5234
g188
aasg13
(dp5235
g15
g16
(g20
S'\xd5x\xe9&1\x08\xe0?'
p5236
tp5237
Rp5238
sg26
(lp5239
(g611
g188
F0.501
tp5240
assg3
F1.0
sg29
(lp5241
(lp5242
g611
aa(lp5243
g188
aasg2
F1.0
ssI382
(dp5244
g1
F-1.0
sg7
(lp5245
(lp5246
g639
aa(lp5247
g10
aasg13
(dp5248
g15
g16
(g20
S'\xd5x\xe9&1\x08\xe0?'
p5249
tp5250
Rp5251
sg26
(lp5252
(g10
g639
F0.501
tp5253
assg3
F0.0
sg29
(lp5254
(lp5255
g10
aa(lp5256
g639
aasg2
F1.0
ssI383
(dp5257
g1
F1.0
sg7
(lp5258
(lp5259
g898
aa(lp5260
g1471
aasg13
(dp5261
g15
g16
(g20
S'\xd5x\xe9&1\x08\xe0?'
p5262
tp5263
Rp5264
sg26
(lp5265
(g898
g1471
F0.501
tp5266
assg3
F1.0
sg29
(lp5267
(lp5268
g898
aa(lp5269
g1471
aasg2
F1.0
ssI384
(dp5270
g1
F1.0
sg7
(lp5271
(lp5272
g3204
aa(lp5273
g2559
aasg13
(dp5274
g15
g16
(g20
S'\xd5x\xe9&1\x08\xe0?'
p5275
tp5276
Rp5277
sg26
(lp5278
(g3204
g2559
F0.501
tp5279
assg3
F1.0
sg29
(lp5280
(lp5281
g3204
aa(lp5282
g2559
aasg2
F1.0
ssI385
(dp5283
g1
F-1.0
sg7
(lp5284
(lp5285
S'happy'
p5286
aa(lp5287
S'pleased'
p5288
aasg13
(dp5289
g15
g16
(g20
S'\xd5x\xe9&1\x08\xe0?'
p5290
tp5291
Rp5292
sg26
(lp5293
(g5288
g5286
F0.501
tp5294
assg3
F0.0
sg29
(lp5295
(lp5296
g5288
aa(lp5297
g5286
aasg2
F1.0
ssI386
(dp5298
g1
F1.0
sg7
(lp5299
(lp5300
g898
aa(lp5301
g1471
aasg13
(dp5302
g15
g16
(g20
S'\xd5x\xe9&1\x08\xe0?'
p5303
tp5304
Rp5305
sg26
(lp5306
(g898
g1471
F0.501
tp5307
assg3
F1.0
sg29
(lp5308
(lp5309
g898
aa(lp5310
g1471
aasg2
F1.0
ssI387
(dp5311
g1
F1.0
sg7
(lp5312
(lp5313
g2667
aa(lp5314
g4057
aasg13
(dp5315
g15
g16
(g20
S'\xd5x\xe9&1\x08\xe0?'
p5316
tp5317
Rp5318
sg26
(lp5319
(g2667
g4057
F0.501
tp5320
assg3
F1.0
sg29
(lp5321
(lp5322
g2667
aa(lp5323
g4057
aasg2
F1.0
ssI388
(dp5324
g1
F-1.0
sg7
(lp5325
(lp5326
g2142
aa(lp5327
g2950
aasg13
(dp5328
g15
g16
(g20
S'\xd5x\xe9&1\x08\xe0?'
p5329
tp5330
Rp5331
sg26
(lp5332
(g2950
g2142
F0.501
tp5333
assg3
F0.0
sg29
(lp5334
(lp5335
g2950
aa(lp5336
g2142
aasg2
F1.0
ssI389
(dp5337
g1
F1.0
sg7
(lp5338
(lp5339
g3055
aa(lp5340
g3499
aasg13
(dp5341
g15
g16
(g20
S'\xd5x\xe9&1\x08\xe0?'
p5342
tp5343
Rp5344
sg26
(lp5345
(g3055
g3499
F0.501
tp5346
assg3
F1.0
sg29
(lp5347
(lp5348
g3055
aa(lp5349
g3499
aasg2
F1.0
ssI390
(dp5350
g1
F1.0
sg7
(lp5351
(lp5352
g595
aa(lp5353
g1638
aasg13
(dp5354
g15
g16
(g20
S'\xd5x\xe9&1\x08\xe0?'
p5355
tp5356
Rp5357
sg26
(lp5358
(g595
g1638
F0.501
tp5359
assg3
F1.0
sg29
(lp5360
(lp5361
g595
aa(lp5362
g1638
aasg2
F1.0
ssI391
(dp5363
g1
F-1.0
sg7
(lp5364
(lp5365
g5286
aa(lp5366
g5288
aasg13
(dp5367
g15
g16
(g20
S'\xd5x\xe9&1\x08\xe0?'
p5368
tp5369
Rp5370
sg26
(lp5371
(g5288
g5286
F0.501
tp5372
assg3
F0.0
sg29
(lp5373
(lp5374
g5288
aa(lp5375
g5286
aasg2
F1.0
ssI392
(dp5376
g1
F-1.0
sg7
(lp5377
(lp5378
g1638
aa(lp5379
g5062
aasg13
(dp5380
g15
g16
(g20
S'\xd5x\xe9&1\x08\xe0?'
p5381
tp5382
Rp5383
sg26
(lp5384
(g5062
g1638
F0.501
tp5385
assg3
F0.0
sg29
(lp5386
(lp5387
g5062
aa(lp5388
g1638
aasg2
F1.0
ssI393
(dp5389
g1
F-1.0
sg7
(lp5390
(lp5391
g1304
aa(lp5392
g1306
aasg13
(dp5393
g15
g16
(g20
S'\xd5x\xe9&1\x08\xe0?'
p5394
tp5395
Rp5396
sg26
(lp5397
(g1306
g1304
F0.501
tp5398
assg3
F0.0
sg29
(lp5399
(lp5400
g1306
aa(lp5401
g1304
aasg2
F1.0
ssI394
(dp5402
g1
F-1.0
sg7
(lp5403
(lp5404
g1237
aa(lp5405
g1239
aasg13
(dp5406
g15
g16
(g20
S'\xd5x\xe9&1\x08\xe0?'
p5407
tp5408
Rp5409
sg26
(lp5410
(g1239
g1237
F0.501
tp5411
assg3
F0.0
sg29
(lp5412
(lp5413
g1239
aa(lp5414
g1237
aasg2
F1.0
ssI395
(dp5415
g1
F-1.0
sg7
(lp5416
(lp5417
g783
aa(lp5418
g755
aasg13
(dp5419
g15
g16
(g20
S'\xd5x\xe9&1\x08\xe0?'
p5420
tp5421
Rp5422
sg26
(lp5423
(g755
g783
F0.501
tp5424
assg3
F0.0
sg29
(lp5425
(lp5426
g755
aa(lp5427
g783
aasg2
F1.0
ssI396
(dp5428
g1
F-1.0
sg7
(lp5429
(lp5430
g1442
aa(lp5431
g2438
aasg13
(dp5432
g15
g16
(g20
S'\xd5x\xe9&1\x08\xe0?'
p5433
tp5434
Rp5435
sg26
(lp5436
(g2438
g1442
F0.501
tp5437
assg3
F0.0
sg29
(lp5438
(lp5439
g2438
aa(lp5440
g1442
aasg2
F1.0
ssI397
(dp5441
g1
F-1.0
sg7
(lp5442
(lp5443
g2881
aa(lp5444
g1069
aasg13
(dp5445
g15
g16
(g20
S'\xd5x\xe9&1\x08\xe0?'
p5446
tp5447
Rp5448
sg26
(lp5449
(g1069
g2881
F0.501
tp5450
assg3
F0.0
sg29
(lp5451
(lp5452
g1069
aa(lp5453
g2881
aasg2
F1.0
ssI398
(dp5454
g1
F1.0
sg7
(lp5455
(lp5456
S'cracked'
p5457
aa(lp5458
S'crushed'
p5459
aasg13
(dp5460
g15
g16
(g20
S'\xd5x\xe9&1\x08\xe0?'
p5461
tp5462
Rp5463
sg26
(lp5464
(g5457
g5459
F0.501
tp5465
assg3
F1.0
sg29
(lp5466
(lp5467
g5457
aa(lp5468
g5459
aasg2
F1.0
ssI399
(dp5469
g1
F-1.0
sg7
(lp5470
(lp5471
g1110
aa(lp5472
g1112
aasg13
(dp5473
g15
g16
(g20
S'\xd5x\xe9&1\x08\xe0?'
p5474
tp5475
Rp5476
sg26
(lp5477
(g1112
g1110
F0.501
tp5478
assg3
F0.0
sg29
(lp5479
(lp5480
g1112
aa(lp5481
g1110
aasg2
F1.0
ssI400
(dp5482
g1
F1.0
sg7
(lp5483
(lp5484
g347
aa(lp5485
g3204
aasg13
(dp5486
g15
g16
(g20
S'\xd5x\xe9&1\x08\xe0?'
p5487
tp5488
Rp5489
sg26
(lp5490
(g347
g3204
F0.501
tp5491
assg3
F1.0
sg29
(lp5492
(lp5493
g347
aa(lp5494
g3204
aasg2
F1.0
ssI401
(dp5495
g1
F1.0
sg7
(lp5496
(lp5497
g667
aa(lp5498
g669
aasg13
(dp5499
g15
g16
(g20
S'\xd5x\xe9&1\x08\xe0?'
p5500
tp5501
Rp5502
sg26
(lp5503
(g667
g669
F0.501
tp5504
assg3
F1.0
sg29
(lp5505
(lp5506
g667
aa(lp5507
g669
aasg2
F1.0
ssI402
(dp5508
g1
F-1.0
sg7
(lp5509
(lp5510
g259
aa(lp5511
g261
aasg13
(dp5512
g15
g16
(g20
S'\xd5x\xe9&1\x08\xe0?'
p5513
tp5514
Rp5515
sg26
(lp5516
(g261
g259
F0.501
tp5517
assg3
F0.0
sg29
(lp5518
(lp5519
g261
aa(lp5520
g259
aasg2
F1.0
ssI403
(dp5521
g1
F-1.0
sg7
(lp5522
(lp5523
g3269
aa(lp5524
S'subdued'
p5525
aasg13
(dp5526
g15
g16
(g20
S'\xd5x\xe9&1\x08\xe0?'
p5527
tp5528
Rp5529
sg26
(lp5530
(g5525
g3269
F0.501
tp5531
assg3
F0.0
sg29
(lp5532
(lp5533
g5525
aa(lp5534
g3269
aasg2
F1.0
ssI404
(dp5535
g1
F-1.0
sg7
(lp5536
(lp5537
g96
aa(lp5538
g1556
aasg13
(dp5539
g15
g16
(g20
S'\xd5x\xe9&1\x08\xe0?'
p5540
tp5541
Rp5542
sg26
(lp5543
(g1556
g96
F0.501
tp5544
assg3
F0.0
sg29
(lp5545
(lp5546
g1556
aa(lp5547
g96
aasg2
F1.0
ssI405
(dp5548
g1
F-1.0
sg7
(lp5549
(lp5550
g2881
aa(lp5551
g597
aasg13
(dp5552
g15
g16
(g20
S'\xd5x\xe9&1\x08\xe0?'
p5553
tp5554
Rp5555
sg26
(lp5556
(g597
g2881
F0.501
tp5557
assg3
F0.0
sg29
(lp5558
(lp5559
g597
aa(lp5560
g2881
aasg2
F1.0
ssI406
(dp5561
g1
F-1.0
sg7
(lp5562
(lp5563
g1638
aa(lp5564
g1069
aasg13
(dp5565
g15
g16
(g20
S'\xd5x\xe9&1\x08\xe0?'
p5566
tp5567
Rp5568
sg26
(lp5569
(g1069
g1638
F0.501
tp5570
assg3
F0.0
sg29
(lp5571
(lp5572
g1069
aa(lp5573
g1638
aasg2
F1.0
ssI407
(dp5574
g1
F-1.0
sg7
(lp5575
(lp5576
g854
aa(lp5577
g856
aasg13
(dp5578
g15
g16
(g20
S'\xd5x\xe9&1\x08\xe0?'
p5579
tp5580
Rp5581
sg26
(lp5582
(g856
g854
F0.501
tp5583
assg3
F0.0
sg29
(lp5584
(lp5585
g856
aa(lp5586
g854
aasg2
F1.0
ssI408
(dp5587
g1
F1.0
sg7
(lp5588
(lp5589
g565
aa(lp5590
g2046
aasg13
(dp5591
g15
g16
(g20
S'\xd5x\xe9&1\x08\xe0?'
p5592
tp5593
Rp5594
sg26
(lp5595
(g565
g2046
F0.501
tp5596
assg3
F1.0
sg29
(lp5597
(lp5598
g565
aa(lp5599
g2046
aasg2
F1.0
ssI409
(dp5600
g1
F1.0
sg7
(lp5601
(lp5602
g1758
aa(lp5603
g1760
aasg13
(dp5604
g15
g16
(g20
S'V\x0e-\xb2\x9d\xef\xdf?'
p5605
tp5606
Rp5607
sg26
(lp5608
(g1758
g1760
F0.499
tp5609
assg3
F1.0
sg29
(lp5610
(lp5611
g1758
aa(lp5612
g1760
aasg2
F1.0
ssI410
(dp5613
g1
F-1.0
sg7
(lp5614
(lp5615
g2142
aa(lp5616
g1873
aasg13
(dp5617
g15
g16
(g20
S'\xd5x\xe9&1\x08\xe0?'
p5618
tp5619
Rp5620
sg26
(lp5621
(g1873
g2142
F0.501
tp5622
assg3
F0.0
sg29
(lp5623
(lp5624
g1873
aa(lp5625
g2142
aasg2
F1.0
ssI411
(dp5626
g1
F-1.0
sg7
(lp5627
(lp5628
g2255
aa(lp5629
g1416
aasg13
(dp5630
g15
g16
(g20
S'\xd5x\xe9&1\x08\xe0?'
p5631
tp5632
Rp5633
sg26
(lp5634
(g1416
g2255
F0.501
tp5635
assg3
F0.0
sg29
(lp5636
(lp5637
g1416
aa(lp5638
g2255
aasg2
F1.0
ssI412
(dp5639
g1
F-1.0
sg7
(lp5640
(lp5641
g755
aa(lp5642
g1484
aasg13
(dp5643
g15
g16
(g20
S'\xd5x\xe9&1\x08\xe0?'
p5644
tp5645
Rp5646
sg26
(lp5647
(g1484
g755
F0.501
tp5648
assg3
F0.0
sg29
(lp5649
(lp5650
g1484
aa(lp5651
g755
aasg2
F1.0
ssI413
(dp5652
g1
F-1.0
sg7
(lp5653
(lp5654
g797
aa(lp5655
g3204
aasg13
(dp5656
g15
g16
(g20
S'\xd5x\xe9&1\x08\xe0?'
p5657
tp5658
Rp5659
sg26
(lp5660
(g3204
g797
F0.501
tp5661
assg3
F0.0
sg29
(lp5662
(lp5663
g3204
aa(lp5664
g797
aasg2
F1.0
ssI414
(dp5665
g1
F1.0
sg7
(lp5666
(lp5667
g420
aa(lp5668
g422
aasg13
(dp5669
g15
g16
(g20
S'\xd5x\xe9&1\x08\xe0?'
p5670
tp5671
Rp5672
sg26
(lp5673
(g420
g422
F0.501
tp5674
assg3
F1.0
sg29
(lp5675
(lp5676
g420
aa(lp5677
g422
aasg2
F1.0
ssI415
(dp5678
g1
F1.0
sg7
(lp5679
(lp5680
g96
aa(lp5681
g770
aasg13
(dp5682
g15
g16
(g20
S'\xd5x\xe9&1\x08\xe0?'
p5683
tp5684
Rp5685
sg26
(lp5686
(g96
g770
F0.501
tp5687
assg3
F1.0
sg29
(lp5688
(lp5689
g96
aa(lp5690
g770
aasg2
F1.0
ssI416
(dp5691
g1
F1.0
sg7
(lp5692
(lp5693
g580
aa(lp5694
g582
aasg13
(dp5695
g15
g16
(g20
S'\xd5x\xe9&1\x08\xe0?'
p5696
tp5697
Rp5698
sg26
(lp5699
(g580
g582
F0.501
tp5700
assg3
F1.0
sg29
(lp5701
(lp5702
g580
aa(lp5703
g582
aasg2
F1.0
ssI417
(dp5704
g1
F-1.0
sg7
(lp5705
(lp5706
g1222
aa(lp5707
g1224
aasg13
(dp5708
g15
g16
(g20
S'V\x0e-\xb2\x9d\xef\xdf?'
p5709
tp5710
Rp5711
sg26
(lp5712
(g1224
g1222
F0.499
tp5713
assg3
F0.0
sg29
(lp5714
(lp5715
g1224
aa(lp5716
g1222
aasg2
F1.0
ssI418
(dp5717
g1
F-1.0
sg7
(lp5718
(lp5719
g96
aa(lp5720
g1556
aasg13
(dp5721
g15
g16
(g20
S'\xd5x\xe9&1\x08\xe0?'
p5722
tp5723
Rp5724
sg26
(lp5725
(g1556
g96
F0.501
tp5726
assg3
F0.0
sg29
(lp5727
(lp5728
g1556
aa(lp5729
g96
aasg2
F1.0
ssI419
(dp5730
g1
F-1.0
sg7
(lp5731
(lp5732
g304
aa(lp5733
g611
aasg13
(dp5734
g15
g16
(g20
S'\xd5x\xe9&1\x08\xe0?'
p5735
tp5736
Rp5737
sg26
(lp5738
(g611
g304
F0.501
tp5739
assg3
F0.0
sg29
(lp5740
(lp5741
g611
aa(lp5742
g304
aasg2
F1.0
ssI420
(dp5743
g1
F-1.0
sg7
(lp5744
(lp5745
g98
aa(lp5746
g856
aasg13
(dp5747
g15
g16
(g20
S'\xd5x\xe9&1\x08\xe0?'
p5748
tp5749
Rp5750
sg26
(lp5751
(g856
g98
F0.501
tp5752
assg3
F0.0
sg29
(lp5753
(lp5754
g856
aa(lp5755
g98
aasg2
F1.0
ssI421
(dp5756
g1
F1.0
sg7
(lp5757
(lp5758
g1939
aa(lp5759
g1760
aasg13
(dp5760
g15
g16
(g20
S'V\x0e-\xb2\x9d\xef\xdf?'
p5761
tp5762
Rp5763
sg26
(lp5764
(g1939
g1760
F0.499
tp5765
assg3
F1.0
sg29
(lp5766
(lp5767
g1939
aa(lp5768
g1760
aasg2
F1.0
ssI422
(dp5769
g1
F-1.0
sg7
(lp5770
(lp5771
g362
aa(lp5772
g3365
aasg13
(dp5773
g15
g16
(g20
S'\xd5x\xe9&1\x08\xe0?'
p5774
tp5775
Rp5776
sg26
(lp5777
(g3365
g362
F0.501
tp5778
assg3
F0.0
sg29
(lp5779
(lp5780
g3365
aa(lp5781
g362
aasg2
F1.0
ssI423
(dp5782
g1
F1.0
sg7
(lp5783
(lp5784
g595
aa(lp5785
g1069
aasg13
(dp5786
g15
g16
(g20
S'\xd5x\xe9&1\x08\xe0?'
p5787
tp5788
Rp5789
sg26
(lp5790
(g595
g1069
F0.501
tp5791
assg3
F1.0
sg29
(lp5792
(lp5793
g595
aa(lp5794
g1069
aasg2
F1.0
ssI424
(dp5795
g1
F-1.0
sg7
(lp5796
(lp5797
g377
aa(lp5798
g379
aasg13
(dp5799
g15
g16
(g20
S'\xd5x\xe9&1\x08\xe0?'
p5800
tp5801
Rp5802
sg26
(lp5803
(g379
g377
F0.501
tp5804
assg3
F0.0
sg29
(lp5805
(lp5806
g379
aa(lp5807
g377
aasg2
F1.0
ssI425
(dp5808
g1
F-1.0
sg7
(lp5809
(lp5810
g1843
aa(lp5811
g128
aasg13
(dp5812
g15
g16
(g20
S'\xd5x\xe9&1\x08\xe0?'
p5813
tp5814
Rp5815
sg26
(lp5816
(g128
g1843
F0.501
tp5817
assg3
F0.0
sg29
(lp5818
(lp5819
g128
aa(lp5820
g1843
aasg2
F1.0
ssI426
(dp5821
g1
F1.0
sg7
(lp5822
(lp5823
g5457
aa(lp5824
g5459
aasg13
(dp5825
g15
g16
(g20
S'\xd5x\xe9&1\x08\xe0?'
p5826
tp5827
Rp5828
sg26
(lp5829
(g5457
g5459
F0.501
tp5830
assg3
F1.0
sg29
(lp5831
(lp5832
g5457
aa(lp5833
g5459
aasg2
F1.0
ssI427
(dp5834
g1
F-1.0
sg7
(lp5835
(lp5836
g869
aa(lp5837
g1012
aasg13
(dp5838
g15
g16
(g20
S'\xd5x\xe9&1\x08\xe0?'
p5839
tp5840
Rp5841
sg26
(lp5842
(g1012
g869
F0.501
tp5843
assg3
F0.0
sg29
(lp5844
(lp5845
g1012
aa(lp5846
g869
aasg2
F1.0
ssI428
(dp5847
g1
F-1.0
sg7
(lp5848
(lp5849
g4691
aa(lp5850
g203
aasg13
(dp5851
g15
g16
(g20
S'\xd5x\xe9&1\x08\xe0?'
p5852
tp5853
Rp5854
sg26
(lp5855
(g203
g4691
F0.501
tp5856
assg3
F0.0
sg29
(lp5857
(lp5858
g203
aa(lp5859
g4691
aasg2
F1.0
ssI429
(dp5860
g1
F1.0
sg7
(lp5861
(lp5862
g595
aa(lp5863
g1069
aasg13
(dp5864
g15
g16
(g20
S'\xd5x\xe9&1\x08\xe0?'
p5865
tp5866
Rp5867
sg26
(lp5868
(g595
g1069
F0.501
tp5869
assg3
F1.0
sg29
(lp5870
(lp5871
g595
aa(lp5872
g1069
aasg2
F1.0
ssI430
(dp5873
g1
F1.0
sg7
(lp5874
(lp5875
g653
aa(lp5876
g611
aasg13
(dp5877
g15
g16
(g20
S'\xd5x\xe9&1\x08\xe0?'
p5878
tp5879
Rp5880
sg26
(lp5881
(g653
g611
F0.501
tp5882
assg3
F1.0
sg29
(lp5883
(lp5884
g653
aa(lp5885
g611
aasg2
F1.0
ssI431
(dp5886
g1
F-1.0
sg7
(lp5887
(lp5888
g4055
aa(lp5889
g4057
aasg13
(dp5890
g15
g16
(g20
S'\xd5x\xe9&1\x08\xe0?'
p5891
tp5892
Rp5893
sg26
(lp5894
(g4057
g4055
F0.501
tp5895
assg3
F0.0
sg29
(lp5896
(lp5897
g4057
aa(lp5898
g4055
aasg2
F1.0
ssI432
(dp5899
g1
F1.0
sg7
(lp5900
(lp5901
g4189
aa(lp5902
g218
aasg13
(dp5903
g15
g16
(g20
S'\xd5x\xe9&1\x08\xe0?'
p5904
tp5905
Rp5906
sg26
(lp5907
(g4189
g218
F0.501
tp5908
assg3
F1.0
sg29
(lp5909
(lp5910
g4189
aa(lp5911
g218
aasg2
F1.0
ssI433
(dp5912
g1
F-1.0
sg7
(lp5913
(lp5914
g523
aa(lp5915
g611
aasg13
(dp5916
g15
g16
(g20
S'\xd5x\xe9&1\x08\xe0?'
p5917
tp5918
Rp5919
sg26
(lp5920
(g611
g523
F0.501
tp5921
assg3
F0.0
sg29
(lp5922
(lp5923
g611
aa(lp5924
g523
aasg2
F1.0
ssI434
(dp5925
g1
F1.0
sg7
(lp5926
(lp5927
g2921
aa(lp5928
g2923
aasg13
(dp5929
g15
g16
(g20
S'\xd5x\xe9&1\x08\xe0?'
p5930
tp5931
Rp5932
sg26
(lp5933
(g2921
g2923
F0.501
tp5934
assg3
F1.0
sg29
(lp5935
(lp5936
g2921
aa(lp5937
g2923
aasg2
F1.0
ssI435
(dp5938
g1
F1.0
sg7
(lp5939
(lp5940
g2324
aa(lp5941
g2326
aasg13
(dp5942
g15
g16
(g20
S'\xd5x\xe9&1\x08\xe0?'
p5943
tp5944
Rp5945
sg26
(lp5946
(g2324
g2326
F0.501
tp5947
assg3
F1.0
sg29
(lp5948
(lp5949
g2324
aa(lp5950
g2326
aasg2
F1.0
ssI436
(dp5951
g1
F-1.0
sg7
(lp5952
(lp5953
g770
aa(lp5954
g1556
aasg13
(dp5955
g15
g16
(g20
S'\xd5x\xe9&1\x08\xe0?'
p5956
tp5957
Rp5958
sg26
(lp5959
(g1556
g770
F0.501
tp5960
assg3
F0.0
sg29
(lp5961
(lp5962
g1556
aa(lp5963
g770
aasg2
F1.0
ssI437
(dp5964
g1
F-1.0
sg7
(lp5965
(lp5966
g81
aa(lp5967
g1774
aasg13
(dp5968
g15
g16
(g20
S'\xd5x\xe9&1\x08\xe0?'
p5969
tp5970
Rp5971
sg26
(lp5972
(g1774
g81
F0.501
tp5973
assg3
F0.0
sg29
(lp5974
(lp5975
g1774
aa(lp5976
g81
aasg2
F1.0
ssI438
(dp5977
g1
F1.0
sg7
(lp5978
(lp5979
g1138
aa(lp5980
g1140
aasg13
(dp5981
g15
g16
(g20
S'\xd5x\xe9&1\x08\xe0?'
p5982
tp5983
Rp5984
sg26
(lp5985
(g1138
g1140
F0.501
tp5986
assg3
F1.0
sg29
(lp5987
(lp5988
g1138
aa(lp5989
g1140
aasg2
F1.0
ssI439
(dp5990
g1
F-1.0
sg7
(lp5991
(lp5992
g3269
aa(lp5993
g5525
aasg13
(dp5994
g15
g16
(g20
S'\xd5x\xe9&1\x08\xe0?'
p5995
tp5996
Rp5997
sg26
(lp5998
(g5525
g3269
F0.501
tp5999
assg3
F0.0
sg29
(lp6000
(lp6001
g5525
aa(lp6002
g3269
aasg2
F1.0
ssI440
(dp6003
g1
F1.0
sg7
(lp6004
(lp6005
g768
aa(lp6006
g856
aasg13
(dp6007
g15
g16
(g20
S'\xd5x\xe9&1\x08\xe0?'
p6008
tp6009
Rp6010
sg26
(lp6011
(g768
g856
F0.501
tp6012
assg3
F1.0
sg29
(lp6013
(lp6014
g768
aa(lp6015
g856
aasg2
F1.0
ssI441
(dp6016
g1
F-1.0
sg7
(lp6017
(lp6018
g4122
aa(lp6019
g4124
aasg13
(dp6020
g15
g16
(g20
S'\xd5x\xe9&1\x08\xe0?'
p6021
tp6022
Rp6023
sg26
(lp6024
(g4124
g4122
F0.501
tp6025
assg3
F0.0
sg29
(lp6026
(lp6027
g4124
aa(lp6028
g4122
aasg2
F1.0
ssI442
(dp6029
g1
F-1.0
sg7
(lp6030
(lp6031
S'immoral'
p6032
aa(lp6033
g1623
aasg13
(dp6034
g15
g16
(g20
S'\xd5x\xe9&1\x08\xe0?'
p6035
tp6036
Rp6037
sg26
(lp6038
(g1623
g6032
F0.501
tp6039
assg3
F0.0
sg29
(lp6040
(lp6041
g1623
aa(lp6042
g6032
aasg2
F1.0
ssI443
(dp6043
g1
F-1.0
sg7
(lp6044
(lp6045
g1871
aa(lp6046
g1873
aasg13
(dp6047
g15
g16
(g20
S'V\x0e-\xb2\x9d\xef\xdf?'
p6048
tp6049
Rp6050
sg26
(lp6051
(g1873
g1871
F0.499
tp6052
assg3
F0.0
sg29
(lp6053
(lp6054
g1873
aa(lp6055
g1871
aasg2
F1.0
ssI444
(dp6056
g1
F1.0
sg7
(lp6057
(lp6058
g173
aa(lp6059
g4996
aasg13
(dp6060
g15
g16
(g20
S'\xd5x\xe9&1\x08\xe0?'
p6061
tp6062
Rp6063
sg26
(lp6064
(g173
g4996
F0.501
tp6065
assg3
F1.0
sg29
(lp6066
(lp6067
g173
aa(lp6068
g4996
aasg2
F1.0
ssI445
(dp6069
g1
F1.0
sg7
(lp6070
(lp6071
g3365
aa(lp6072
g364
aasg13
(dp6073
g15
g16
(g20
S'\xd5x\xe9&1\x08\xe0?'
p6074
tp6075
Rp6076
sg26
(lp6077
(g3365
g364
F0.501
tp6078
assg3
F1.0
sg29
(lp6079
(lp6080
g3365
aa(lp6081
g364
aasg2
F1.0
ssI446
(dp6082
g1
F-1.0
sg7
(lp6083
(lp6084
g2719
aa(lp6085
g2533
aasg13
(dp6086
g15
g16
(g20
S'\xd5x\xe9&1\x08\xe0?'
p6087
tp6088
Rp6089
sg26
(lp6090
(g2533
g2719
F0.501
tp6091
assg3
F0.0
sg29
(lp6092
(lp6093
g2533
aa(lp6094
g2719
aasg2
F1.0
ssI447
(dp6095
g1
F-1.0
sg7
(lp6096
(lp6097
g1871
aa(lp6098
g2950
aasg13
(dp6099
g15
g16
(g20
S'V\x0e-\xb2\x9d\xef\xdf?'
p6100
tp6101
Rp6102
sg26
(lp6103
(g2950
g1871
F0.499
tp6104
assg3
F0.0
sg29
(lp6105
(lp6106
g2950
aa(lp6107
g1871
aasg2
F1.0
ssI448
(dp6108
g1
F-1.0
sg7
(lp6109
(lp6110
g334
aa(lp6111
g1054
aasg13
(dp6112
g15
g16
(g20
S'\xd5x\xe9&1\x08\xe0?'
p6113
tp6114
Rp6115
sg26
(lp6116
(g1054
g334
F0.501
tp6117
assg3
F0.0
sg29
(lp6118
(lp6119
g1054
aa(lp6120
g334
aasg2
F1.0
ssI449
(dp6121
g1
F1.0
sg7
(lp6122
(lp6123
g611
aa(lp6124
g188
aasg13
(dp6125
g15
g16
(g20
S'\xd5x\xe9&1\x08\xe0?'
p6126
tp6127
Rp6128
sg26
(lp6129
(g611
g188
F0.501
tp6130
assg3
F1.0
sg29
(lp6131
(lp6132
g611
aa(lp6133
g188
aasg2
F1.0
ssI450
(dp6134
g1
F-1.0
sg7
(lp6135
(lp6136
g523
aa(lp6137
g53
aasg13
(dp6138
g15
g16
(g20
S'\xd5x\xe9&1\x08\xe0?'
p6139
tp6140
Rp6141
sg26
(lp6142
(g53
g523
F0.501
tp6143
assg3
F0.0
sg29
(lp6144
(lp6145
g53
aa(lp6146
g523
aasg2
F1.0
ssI451
(dp6147
g1
F-1.0
sg7
(lp6148
(lp6149
g2240
aa(lp6150
g2242
aasg13
(dp6151
g15
g16
(g20
S'\xd5x\xe9&1\x08\xe0?'
p6152
tp6153
Rp6154
sg26
(lp6155
(g2242
g2240
F0.501
tp6156
assg3
F0.0
sg29
(lp6157
(lp6158
g2242
aa(lp6159
g2240
aasg2
F1.0
ssI452
(dp6160
g1
F1.0
sg7
(lp6161
(lp6162
g3976
aa(lp6163
g2087
aasg13
(dp6164
g15
g16
(g20
S'\xd5x\xe9&1\x08\xe0?'
p6165
tp6166
Rp6167
sg26
(lp6168
(g3976
g2087
F0.501
tp6169
assg3
F1.0
sg29
(lp6170
(lp6171
g3976
aa(lp6172
g2087
aasg2
F1.0
ssI453
(dp6173
g1
F-1.0
sg7
(lp6174
(lp6175
S'close'
p6176
aa(lp6177
S'snug'
p6178
aasg13
(dp6179
g15
g16
(g20
S'\xd5x\xe9&1\x08\xe0?'
p6180
tp6181
Rp6182
sg26
(lp6183
(g6178
g6176
F0.501
tp6184
assg3
F0.0
sg29
(lp6185
(lp6186
g6178
aa(lp6187
g6176
aasg2
F1.0
ssI454
(dp6188
g1
F-1.0
sg7
(lp6189
(lp6190
g2367
aa(lp6191
g799
aasg13
(dp6192
g15
g16
(g20
S'\xd5x\xe9&1\x08\xe0?'
p6193
tp6194
Rp6195
sg26
(lp6196
(g799
g2367
F0.501
tp6197
assg3
F0.0
sg29
(lp6198
(lp6199
g799
aa(lp6200
g2367
aasg2
F1.0
ssI455
(dp6201
g1
F-1.0
sg7
(lp6202
(lp6203
g869
aa(lp6204
g1012
aasg13
(dp6205
g15
g16
(g20
S'\xd5x\xe9&1\x08\xe0?'
p6206
tp6207
Rp6208
sg26
(lp6209
(g1012
g869
F0.501
tp6210
assg3
F0.0
sg29
(lp6211
(lp6212
g1012
aa(lp6213
g869
aasg2
F1.0
ssI456
(dp6214
g1
F1.0
sg7
(lp6215
(lp6216
g156
aa(lp6217
g4787
aasg13
(dp6218
g15
g16
(g20
S'\xd5x\xe9&1\x08\xe0?'
p6219
tp6220
Rp6221
sg26
(lp6222
(g156
g4787
F0.501
tp6223
assg3
F1.0
sg29
(lp6224
(lp6225
g156
aa(lp6226
g4787
aasg2
F1.0
ssI457
(dp6227
g1
F-1.0
sg7
(lp6228
(lp6229
g2087
aa(lp6230
g2089
aasg13
(dp6231
g15
g16
(g20
S'\xd5x\xe9&1\x08\xe0?'
p6232
tp6233
Rp6234
sg26
(lp6235
(g2089
g2087
F0.501
tp6236
assg3
F0.0
sg29
(lp6237
(lp6238
g2089
aa(lp6239
g2087
aasg2
F1.0
ssI458
(dp6240
g1
F1.0
sg7
(lp6241
(lp6242
g856
aa(lp6243
g1556
aasg13
(dp6244
g15
g16
(g20
S'\xd5x\xe9&1\x08\xe0?'
p6245
tp6246
Rp6247
sg26
(lp6248
(g856
g1556
F0.501
tp6249
assg3
F1.0
sg29
(lp6250
(lp6251
g856
aa(lp6252
g1556
aasg2
F1.0
ssI459
(dp6253
g1
F-1.0
sg7
(lp6254
(lp6255
g597
aa(lp6256
g1069
aasg13
(dp6257
g15
g16
(g20
S'V\x0e-\xb2\x9d\xef\xdf?'
p6258
tp6259
Rp6260
sg26
(lp6261
(g1069
g597
F0.499
tp6262
assg3
F0.0
sg29
(lp6263
(lp6264
g1069
aa(lp6265
g597
aasg2
F1.0
ssI460
(dp6266
g1
F-1.0
sg7
(lp6267
(lp6268
g405
aa(lp6269
g755
aasg13
(dp6270
g15
g16
(g20
S'\xd5x\xe9&1\x08\xe0?'
p6271
tp6272
Rp6273
sg26
(lp6274
(g755
g405
F0.501
tp6275
assg3
F0.0
sg29
(lp6276
(lp6277
g755
aa(lp6278
g405
aasg2
F1.0
ssI461
(dp6279
g1
F-1.0
sg7
(lp6280
(lp6281
g4189
aa(lp6282
g216
aasg13
(dp6283
g15
g16
(g20
S'\xd5x\xe9&1\x08\xe0?'
p6284
tp6285
Rp6286
sg26
(lp6287
(g216
g4189
F0.501
tp6288
assg3
F0.0
sg29
(lp6289
(lp6290
g216
aa(lp6291
g4189
aasg2
F1.0
ssI462
(dp6292
g1
F-1.0
sg7
(lp6293
(lp6294
g2721
aa(lp6295
g2533
aasg13
(dp6296
g15
g16
(g20
S'\xd5x\xe9&1\x08\xe0?'
p6297
tp6298
Rp6299
sg26
(lp6300
(g2533
g2721
F0.501
tp6301
assg3
F0.0
sg29
(lp6302
(lp6303
g2533
aa(lp6304
g2721
aasg2
F1.0
ssI463
(dp6305
g1
F1.0
sg7
(lp6306
(lp6307
g797
aa(lp6308
g2559
aasg13
(dp6309
g15
g16
(g20
S'\xd5x\xe9&1\x08\xe0?'
p6310
tp6311
Rp6312
sg26
(lp6313
(g797
g2559
F0.501
tp6314
assg3
F1.0
sg29
(lp6315
(lp6316
g797
aa(lp6317
g2559
aasg2
F1.0
ssI464
(dp6318
g1
F1.0
sg7
(lp6319
(lp6320
g480
aa(lp6321
g3724
aasg13
(dp6322
g15
g16
(g20
S'\xd5x\xe9&1\x08\xe0?'
p6323
tp6324
Rp6325
sg26
(lp6326
(g480
g3724
F0.501
tp6327
assg3
F1.0
sg29
(lp6328
(lp6329
g480
aa(lp6330
g3724
aasg2
F1.0
ssI465
(dp6331
g1
F-1.0
sg7
(lp6332
(lp6333
S'triple'
p6334
aa(lp6335
g422
aasg13
(dp6336
g15
g16
(g20
S'\xd5x\xe9&1\x08\xe0?'
p6337
tp6338
Rp6339
sg26
(lp6340
(g422
g6334
F0.501
tp6341
assg3
F0.0
sg29
(lp6342
(lp6343
g422
aa(lp6344
g6334
aasg2
F1.0
ssI466
(dp6345
g1
F-1.0
sg7
(lp6346
(lp6347
g2721
aa(lp6348
g2533
aasg13
(dp6349
g15
g16
(g20
S'\xd5x\xe9&1\x08\xe0?'
p6350
tp6351
Rp6352
sg26
(lp6353
(g2533
g2721
F0.501
tp6354
assg3
F0.0
sg29
(lp6355
(lp6356
g2533
aa(lp6357
g2721
aasg2
F1.0
ssI467
(dp6358
g1
F1.0
sg7
(lp6359
(lp6360
g595
aa(lp6361
g1067
aasg13
(dp6362
g15
g16
(g20
S'\xd5x\xe9&1\x08\xe0?'
p6363
tp6364
Rp6365
sg26
(lp6366
(g595
g1067
F0.501
tp6367
assg3
F1.0
sg29
(lp6368
(lp6369
g595
aa(lp6370
g1067
aasg2
F1.0
ssI468
(dp6371
g1
F1.0
sg7
(lp6372
(lp6373
g36
aa(lp6374
g3868
aasg13
(dp6375
g15
g16
(g20
S'\xd5x\xe9&1\x08\xe0?'
p6376
tp6377
Rp6378
sg26
(lp6379
(g36
g3868
F0.501
tp6380
assg3
F1.0
sg29
(lp6381
(lp6382
g36
aa(lp6383
g3868
aasg2
F1.0
ssI469
(dp6384
g1
F-1.0
sg7
(lp6385
(lp6386
g997
aa(lp6387
g2074
aasg13
(dp6388
g15
g16
(g20
S'\xd5x\xe9&1\x08\xe0?'
p6389
tp6390
Rp6391
sg26
(lp6392
(g2074
g997
F0.501
tp6393
assg3
F0.0
sg29
(lp6394
(lp6395
g2074
aa(lp6396
g997
aasg2
F1.0
ssI470
(dp6397
g1
F-1.0
sg7
(lp6398
(lp6399
g639
aa(lp6400
g1040
aasg13
(dp6401
g15
g16
(g20
S'\xd5x\xe9&1\x08\xe0?'
p6402
tp6403
Rp6404
sg26
(lp6405
(g1040
g639
F0.501
tp6406
assg3
F0.0
sg29
(lp6407
(lp6408
g1040
aa(lp6409
g639
aasg2
F1.0
ssI471
(dp6410
g1
F1.0
sg7
(lp6411
(lp6412
g624
aa(lp6413
g626
aasg13
(dp6414
g15
g16
(g20
S'\xd5x\xe9&1\x08\xe0?'
p6415
tp6416
Rp6417
sg26
(lp6418
(g624
g626
F0.501
tp6419
assg3
F1.0
sg29
(lp6420
(lp6421
g624
aa(lp6422
g626
aasg2
F1.0
ssI472
(dp6423
g1
F1.0
sg7
(lp6424
(lp6425
g653
aa(lp6426
g188
aasg13
(dp6427
g15
g16
(g20
S'\xd5x\xe9&1\x08\xe0?'
p6428
tp6429
Rp6430
sg26
(lp6431
(g653
g188
F0.501
tp6432
assg3
F1.0
sg29
(lp6433
(lp6434
g653
aa(lp6435
g188
aasg2
F1.0
ssI473
(dp6436
g1
F1.0
sg7
(lp6437
(lp6438
g158
aa(lp6439
g4787
aasg13
(dp6440
g15
g16
(g20
S'\xd5x\xe9&1\x08\xe0?'
p6441
tp6442
Rp6443
sg26
(lp6444
(g158
g4787
F0.501
tp6445
assg3
F1.0
sg29
(lp6446
(lp6447
g158
aa(lp6448
g4787
aasg2
F1.0
ssI474
(dp6449
g1
F-1.0
sg7
(lp6450
(lp6451
g6176
aa(lp6452
g6178
aasg13
(dp6453
g15
g16
(g20
S'\xd5x\xe9&1\x08\xe0?'
p6454
tp6455
Rp6456
sg26
(lp6457
(g6178
g6176
F0.501
tp6458
assg3
F0.0
sg29
(lp6459
(lp6460
g6178
aa(lp6461
g6176
aasg2
F1.0
ssI475
(dp6462
g1
F-1.0
sg7
(lp6463
(lp6464
g4359
aa(lp6465
g4361
aasg13
(dp6466
g15
g16
(g20
S'\xd5x\xe9&1\x08\xe0?'
p6467
tp6468
Rp6469
sg26
(lp6470
(g4361
g4359
F0.501
tp6471
assg3
F0.0
sg29
(lp6472
(lp6473
g4361
aa(lp6474
g4359
aasg2
F1.0
ssI476
(dp6475
g1
F1.0
sg7
(lp6476
(lp6477
g900
aa(lp6478
g2074
aasg13
(dp6479
g15
g16
(g20
S'\xd5x\xe9&1\x08\xe0?'
p6480
tp6481
Rp6482
sg26
(lp6483
(g900
g2074
F0.501
tp6484
assg3
F1.0
sg29
(lp6485
(lp6486
g900
aa(lp6487
g2074
aasg2
F1.0
ssI477
(dp6488
g1
F-1.0
sg7
(lp6489
(lp6490
g1179
aa(lp6491
g1181
aasg13
(dp6492
g15
g16
(g20
S'\xd5x\xe9&1\x08\xe0?'
p6493
tp6494
Rp6495
sg26
(lp6496
(g1181
g1179
F0.501
tp6497
assg3
F0.0
sg29
(lp6498
(lp6499
g1181
aa(lp6500
g1179
aasg2
F1.0
ssI478
(dp6501
g1
F-1.0
sg7
(lp6502
(lp6503
g4677
aa(lp6504
g1789
aasg13
(dp6505
g15
g16
(g20
S'\xd5x\xe9&1\x08\xe0?'
p6506
tp6507
Rp6508
sg26
(lp6509
(g1789
g4677
F0.501
tp6510
assg3
F0.0
sg29
(lp6511
(lp6512
g1789
aa(lp6513
g4677
aasg2
F1.0
ssI479
(dp6514
g1
F1.0
sg7
(lp6515
(lp6516
g1040
aa(lp6517
g10
aasg13
(dp6518
g15
g16
(g20
S'\xd5x\xe9&1\x08\xe0?'
p6519
tp6520
Rp6521
sg26
(lp6522
(g1040
g10
F0.501
tp6523
assg3
F1.0
sg29
(lp6524
(lp6525
g1040
aa(lp6526
g10
aasg2
F1.0
ssI480
(dp6527
g1
F1.0
sg7
(lp6528
(lp6529
g595
aa(lp6530
g5062
aasg13
(dp6531
g15
g16
(g20
S'\xd5x\xe9&1\x08\xe0?'
p6532
tp6533
Rp6534
sg26
(lp6535
(g595
g5062
F0.501
tp6536
assg3
F1.0
sg29
(lp6537
(lp6538
g595
aa(lp6539
g5062
aasg2
F1.0
ssI481
(dp6540
g1
F-1.0
sg7
(lp6541
(lp6542
g1638
aa(lp6543
g5062
aasg13
(dp6544
g15
g16
(g20
S'\xd5x\xe9&1\x08\xe0?'
p6545
tp6546
Rp6547
sg26
(lp6548
(g5062
g1638
F0.501
tp6549
assg3
F0.0
sg29
(lp6550
(lp6551
g5062
aa(lp6552
g1638
aasg2
F1.0
ssI482
(dp6553
g1
F-1.0
sg7
(lp6554
(lp6555
g36
aa(lp6556
g38
aasg13
(dp6557
g15
g16
(g20
S'\xd5x\xe9&1\x08\xe0?'
p6558
tp6559
Rp6560
sg26
(lp6561
(g38
g36
F0.501
tp6562
assg3
F0.0
sg29
(lp6563
(lp6564
g38
aa(lp6565
g36
aasg2
F1.0
ssI483
(dp6566
g1
F-1.0
sg7
(lp6567
(lp6568
g2269
aa(lp6569
g5129
aasg13
(dp6570
g15
g16
(g20
S'\xd5x\xe9&1\x08\xe0?'
p6571
tp6572
Rp6573
sg26
(lp6574
(g5129
g2269
F0.501
tp6575
assg3
F0.0
sg29
(lp6576
(lp6577
g5129
aa(lp6578
g2269
aasg2
F1.0
ssI484
(dp6579
g1
F-1.0
sg7
(lp6580
(lp6581
g523
aa(lp6582
g51
aasg13
(dp6583
g15
g16
(g20
S'\xd5x\xe9&1\x08\xe0?'
p6584
tp6585
Rp6586
sg26
(lp6587
(g51
g523
F0.501
tp6588
assg3
F0.0
sg29
(lp6589
(lp6590
g51
aa(lp6591
g523
aasg2
F1.0
ssI485
(dp6592
g1
F-1.0
sg7
(lp6593
(lp6594
g5194
aa(lp6595
g3499
aasg13
(dp6596
g15
g16
(g20
S'\xd5x\xe9&1\x08\xe0?'
p6597
tp6598
Rp6599
sg26
(lp6600
(g3499
g5194
F0.501
tp6601
assg3
F0.0
sg29
(lp6602
(lp6603
g3499
aa(lp6604
g5194
aasg2
F1.0
ssI486
(dp6605
g1
F-1.0
sg7
(lp6606
(lp6607
g552
aa(lp6608
g1095
aasg13
(dp6609
g15
g16
(g20
S'\xd5x\xe9&1\x08\xe0?'
p6610
tp6611
Rp6612
sg26
(lp6613
(g1095
g552
F0.501
tp6614
assg3
F0.0
sg29
(lp6615
(lp6616
g1095
aa(lp6617
g552
aasg2
F1.0
ssI487
(dp6618
g1
F-1.0
sg7
(lp6619
(lp6620
g5075
aa(lp6621
g2787
aasg13
(dp6622
g15
g16
(g20
S'\xd5x\xe9&1\x08\xe0?'
p6623
tp6624
Rp6625
sg26
(lp6626
(g2787
g5075
F0.501
tp6627
assg3
F0.0
sg29
(lp6628
(lp6629
g2787
aa(lp6630
g5075
aasg2
F1.0
ssI488
(dp6631
g1
F-1.0
sg7
(lp6632
(lp6633
g567
aa(lp6634
g3632
aasg13
(dp6635
g15
g16
(g20
S'\xd5x\xe9&1\x08\xe0?'
p6636
tp6637
Rp6638
sg26
(lp6639
(g3632
g567
F0.501
tp6640
assg3
F0.0
sg29
(lp6641
(lp6642
g3632
aa(lp6643
g567
aasg2
F1.0
ssI489
(dp6644
g1
F-1.0
sg7
(lp6645
(lp6646
g669
aa(lp6647
g379
aasg13
(dp6648
g15
g16
(g20
S'\xd5x\xe9&1\x08\xe0?'
p6649
tp6650
Rp6651
sg26
(lp6652
(g379
g669
F0.501
tp6653
assg3
F0.0
sg29
(lp6654
(lp6655
g379
aa(lp6656
g669
aasg2
F1.0
ssI490
(dp6657
g1
F-1.0
sg7
(lp6658
(lp6659
g1471
aa(lp6660
g2074
aasg13
(dp6661
g15
g16
(g20
S'\xd5x\xe9&1\x08\xe0?'
p6662
tp6663
Rp6664
sg26
(lp6665
(g2074
g1471
F0.501
tp6666
assg3
F0.0
sg29
(lp6667
(lp6668
g2074
aa(lp6669
g1471
aasg2
F1.0
ssI491
(dp6670
g1
F-1.0
sg7
(lp6671
(lp6672
g1829
aa(lp6673
g2411
aasg13
(dp6674
g15
g16
(g20
S'\xd5x\xe9&1\x08\xe0?'
p6675
tp6676
Rp6677
sg26
(lp6678
(g2411
g1829
F0.501
tp6679
assg3
F0.0
sg29
(lp6680
(lp6681
g2411
aa(lp6682
g1829
aasg2
F1.0
ssI492
(dp6683
g1
F1.0
sg7
(lp6684
(lp6685
g2438
aa(lp6686
g1444
aasg13
(dp6687
g15
g16
(g20
S'\xd5x\xe9&1\x08\xe0?'
p6688
tp6689
Rp6690
sg26
(lp6691
(g2438
g1444
F0.501
tp6692
assg3
F1.0
sg29
(lp6693
(lp6694
g2438
aa(lp6695
g1444
aasg2
F1.0
ssI493
(dp6696
g1
F-1.0
sg7
(lp6697
(lp6698
g2183
aa(lp6699
g1389
aasg13
(dp6700
g15
g16
(g20
S'\xd5x\xe9&1\x08\xe0?'
p6701
tp6702
Rp6703
sg26
(lp6704
(g1389
g2183
F0.501
tp6705
assg3
F0.0
sg29
(lp6706
(lp6707
g1389
aa(lp6708
g2183
aasg2
F1.0
ssI494
(dp6709
g1
F-1.0
sg7
(lp6710
(lp6711
S'thick'
p6712
aa(lp6713
S'dense'
p6714
aasg13
(dp6715
g15
g16
(g20
S'\xd5x\xe9&1\x08\xe0?'
p6716
tp6717
Rp6718
sg26
(lp6719
(g6714
g6712
F0.501
tp6720
assg3
F0.0
sg29
(lp6721
(lp6722
g6714
aa(lp6723
g6712
aasg2
F1.0
ssI495
(dp6724
g1
F-1.0
sg7
(lp6725
(lp6726
g854
aa(lp6727
g770
aasg13
(dp6728
g15
g16
(g20
S'\xd5x\xe9&1\x08\xe0?'
p6729
tp6730
Rp6731
sg26
(lp6732
(g770
g854
F0.501
tp6733
assg3
F0.0
sg29
(lp6734
(lp6735
g770
aa(lp6736
g854
aasg2
F1.0
ssI496
(dp6737
g1
F1.0
sg7
(lp6738
(lp6739
g711
aa(lp6740
g2102
aasg13
(dp6741
g15
g16
(g20
S'\xd5x\xe9&1\x08\xe0?'
p6742
tp6743
Rp6744
sg26
(lp6745
(g711
g2102
F0.501
tp6746
assg3
F1.0
sg29
(lp6747
(lp6748
g711
aa(lp6749
g2102
aasg2
F1.0
ssI497
(dp6750
g1
F1.0
sg7
(lp6751
(lp6752
g2921
aa(lp6753
g4482
aasg13
(dp6754
g15
g16
(g20
S'\xd5x\xe9&1\x08\xe0?'
p6755
tp6756
Rp6757
sg26
(lp6758
(g2921
g4482
F0.501
tp6759
assg3
F1.0
sg29
(lp6760
(lp6761
g2921
aa(lp6762
g4482
aasg2
F1.0
ssI498
(dp6763
g1
F1.0
sg7
(lp6764
(lp6765
g96
aa(lp6766
g98
aasg13
(dp6767
g15
g16
(g20
S'\xd5x\xe9&1\x08\xe0?'
p6768
tp6769
Rp6770
sg26
(lp6771
(g96
g98
F0.501
tp6772
assg3
F1.0
sg29
(lp6773
(lp6774
g96
aa(lp6775
g98
aasg2
F1.0
ssI499
(dp6776
g1
F-1.0
sg7
(lp6777
(lp6778
g1595
aa(lp6779
g1597
aasg13
(dp6780
g15
g16
(g20
S'V\x0e-\xb2\x9d\xef\xdf?'
p6781
tp6782
Rp6783
sg26
(lp6784
(g1597
g1595
F0.499
tp6785
assg3
F0.0
sg29
(lp6786
(lp6787
g1597
aa(lp6788
g1595
aasg2
F1.0
ssI500
(dp6789
g1
F-1.0
sg7
(lp6790
(lp6791
g98
aa(lp6792
g856
aasg13
(dp6793
g15
g16
(g20
S'\xd5x\xe9&1\x08\xe0?'
p6794
tp6795
Rp6796
sg26
(lp6797
(g856
g98
F0.501
tp6798
assg3
F0.0
sg29
(lp6799
(lp6800
g856
aa(lp6801
g98
aasg2
F1.0
ssI501
(dp6802
g1
F-1.0
sg7
(lp6803
(lp6804
g2156
aa(lp6805
g420
aasg13
(dp6806
g15
g16
(g20
S'\xd5x\xe9&1\x08\xe0?'
p6807
tp6808
Rp6809
sg26
(lp6810
(g420
g2156
F0.501
tp6811
assg3
F0.0
sg29
(lp6812
(lp6813
g420
aa(lp6814
g2156
aasg2
F1.0
ssI502
(dp6815
g1
F-1.0
sg7
(lp6816
(lp6817
g552
aa(lp6818
g1097
aasg13
(dp6819
g15
g16
(g20
S'\xd5x\xe9&1\x08\xe0?'
p6820
tp6821
Rp6822
sg26
(lp6823
(g1097
g552
F0.501
tp6824
assg3
F0.0
sg29
(lp6825
(lp6826
g1097
aa(lp6827
g552
aasg2
F1.0
ssI503
(dp6828
g1
F-1.0
sg7
(lp6829
(lp6830
g435
aa(lp6831
g437
aasg13
(dp6832
g15
g16
(g20
S'\xd5x\xe9&1\x08\xe0?'
p6833
tp6834
Rp6835
sg26
(lp6836
(g437
g435
F0.501
tp6837
assg3
F0.0
sg29
(lp6838
(lp6839
g437
aa(lp6840
g435
aasg2
F1.0
ssI504
(dp6841
g1
F-1.0
sg7
(lp6842
(lp6843
g6334
aa(lp6844
g422
aasg13
(dp6845
g15
g16
(g20
S'\xd5x\xe9&1\x08\xe0?'
p6846
tp6847
Rp6848
sg26
(lp6849
(g422
g6334
F0.501
tp6850
assg3
F0.0
sg29
(lp6851
(lp6852
g422
aa(lp6853
g6334
aasg2
F1.0
ssI505
(dp6854
g1
F-1.0
sg7
(lp6855
(lp6856
g6032
aa(lp6857
g1623
aasg13
(dp6858
g15
g16
(g20
S'\xd5x\xe9&1\x08\xe0?'
p6859
tp6860
Rp6861
sg26
(lp6862
(g1623
g6032
F0.501
tp6863
assg3
F0.0
sg29
(lp6864
(lp6865
g1623
aa(lp6866
g6032
aasg2
F1.0
ssI506
(dp6867
g1
F1.0
sg7
(lp6868
(lp6869
g1389
aa(lp6870
g246
aasg13
(dp6871
g15
g16
(g20
S'\xd5x\xe9&1\x08\xe0?'
p6872
tp6873
Rp6874
sg26
(lp6875
(g1389
g246
F0.501
tp6876
assg3
F1.0
sg29
(lp6877
(lp6878
g1389
aa(lp6879
g246
aasg2
F1.0
ssI507
(dp6880
g1
F-1.0
sg7
(lp6881
(lp6882
g2367
aa(lp6883
g347
aasg13
(dp6884
g15
g16
(g20
S'\xd5x\xe9&1\x08\xe0?'
p6885
tp6886
Rp6887
sg26
(lp6888
(g347
g2367
F0.501
tp6889
assg3
F0.0
sg29
(lp6890
(lp6891
g347
aa(lp6892
g2367
aasg2
F1.0
ssI508
(dp6893
g1
F1.0
sg7
(lp6894
(lp6895
g595
aa(lp6896
g1638
aasg13
(dp6897
g15
g16
(g20
S'\xd5x\xe9&1\x08\xe0?'
p6898
tp6899
Rp6900
sg26
(lp6901
(g595
g1638
F0.501
tp6902
assg3
F1.0
sg29
(lp6903
(lp6904
g595
aa(lp6905
g1638
aasg2
F1.0
ssI509
(dp6906
g1
F1.0
sg7
(lp6907
(lp6908
g2787
aa(lp6909
g2789
aasg13
(dp6910
g15
g16
(g20
S'\xd5x\xe9&1\x08\xe0?'
p6911
tp6912
Rp6913
sg26
(lp6914
(g2787
g2789
F0.501
tp6915
assg3
F1.0
sg29
(lp6916
(lp6917
g2787
aa(lp6918
g2789
aasg2
F1.0
ssI510
(dp6919
g1
F1.0
sg7
(lp6920
(lp6921
g653
aa(lp6922
g53
aasg13
(dp6923
g15
g16
(g20
S'\xd5x\xe9&1\x08\xe0?'
p6924
tp6925
Rp6926
sg26
(lp6927
(g653
g53
F0.501
tp6928
assg3
F1.0
sg29
(lp6929
(lp6930
g653
aa(lp6931
g53
aasg2
F1.0
ssI511
(dp6932
g1
F-1.0
sg7
(lp6933
(lp6934
g1638
aa(lp6935
g1067
aasg13
(dp6936
g15
g16
(g20
S'\xd5x\xe9&1\x08\xe0?'
p6937
tp6938
Rp6939
sg26
(lp6940
(g1067
g1638
F0.501
tp6941
assg3
F0.0
sg29
(lp6942
(lp6943
g1067
aa(lp6944
g1638
aasg2
F1.0
ssI512
(dp6945
g1
F-1.0
sg7
(lp6946
(lp6947
g332
aa(lp6948
g1054
aasg13
(dp6949
g15
g16
(g20
S'\xd5x\xe9&1\x08\xe0?'
p6950
tp6951
Rp6952
sg26
(lp6953
(g1054
g332
F0.501
tp6954
assg3
F0.0
sg29
(lp6955
(lp6956
g1054
aa(lp6957
g332
aasg2
F1.0
ssI513
(dp6958
g1
F-1.0
sg7
(lp6959
(lp6960
S'reasonable'
p6961
aa(lp6962
S'valid'
p6963
aasg13
(dp6964
g15
g16
(g20
S'\xd5x\xe9&1\x08\xe0?'
p6965
tp6966
Rp6967
sg26
(lp6968
(g6963
g6961
F0.501
tp6969
assg3
F0.0
sg29
(lp6970
(lp6971
g6963
aa(lp6972
g6961
aasg2
F1.0
ssI514
(dp6973
g1
F-1.0
sg7
(lp6974
(lp6975
g2881
aa(lp6976
g597
aasg13
(dp6977
g15
g16
(g20
S'\xd5x\xe9&1\x08\xe0?'
p6978
tp6979
Rp6980
sg26
(lp6981
(g597
g2881
F0.501
tp6982
assg3
F0.0
sg29
(lp6983
(lp6984
g597
aa(lp6985
g2881
aasg2
F1.0
ssI515
(dp6986
g1
F-1.0
sg7
(lp6987
(lp6988
g6712
aa(lp6989
g6714
aasg13
(dp6990
g15
g16
(g20
S'\xd5x\xe9&1\x08\xe0?'
p6991
tp6992
Rp6993
sg26
(lp6994
(g6714
g6712
F0.501
tp6995
assg3
F0.0
sg29
(lp6996
(lp6997
g6714
aa(lp6998
g6712
aasg2
F1.0
ssI516
(dp6999
g1
F-1.0
sg7
(lp7000
(lp7001
g3961
aa(lp7002
g3963
aasg13
(dp7003
g15
g16
(g20
S'\xd5x\xe9&1\x08\xe0?'
p7004
tp7005
Rp7006
sg26
(lp7007
(g3963
g3961
F0.501
tp7008
assg3
F0.0
sg29
(lp7009
(lp7010
g3963
aa(lp7011
g3961
aasg2
F1.0
ssI517
(dp7012
g1
F1.0
sg7
(lp7013
(lp7014
g420
aa(lp7015
g827
aasg13
(dp7016
g15
g16
(g20
S'\xd5x\xe9&1\x08\xe0?'
p7017
tp7018
Rp7019
sg26
(lp7020
(g420
g827
F0.501
tp7021
assg3
F1.0
sg29
(lp7022
(lp7023
g420
aa(lp7024
g827
aasg2
F1.0
ssI518
(dp7025
g1
F1.0
sg7
(lp7026
(lp7027
g1939
aa(lp7028
g1760
aasg13
(dp7029
g15
g16
(g20
S'V\x0e-\xb2\x9d\xef\xdf?'
p7030
tp7031
Rp7032
sg26
(lp7033
(g1939
g1760
F0.499
tp7034
assg3
F1.0
sg29
(lp7035
(lp7036
g1939
aa(lp7037
g1760
aasg2
F1.0
ssI519
(dp7038
g1
F-1.0
sg7
(lp7039
(lp7040
g2183
aa(lp7041
g1389
aasg13
(dp7042
g15
g16
(g20
S'\xd5x\xe9&1\x08\xe0?'
p7043
tp7044
Rp7045
sg26
(lp7046
(g1389
g2183
F0.501
tp7047
assg3
F0.0
sg29
(lp7048
(lp7049
g1389
aa(lp7050
g2183
aasg2
F1.0
ssI520
(dp7051
g1
F1.0
sg7
(lp7052
(lp7053
g3055
aa(lp7054
g3499
aasg13
(dp7055
g15
g16
(g20
S'\xd5x\xe9&1\x08\xe0?'
p7056
tp7057
Rp7058
sg26
(lp7059
(g3055
g3499
F0.501
tp7060
assg3
F1.0
sg29
(lp7061
(lp7062
g3055
aa(lp7063
g3499
aasg2
F1.0
ssI521
(dp7064
g1
F-1.0
sg7
(lp7065
(lp7066
g66
aa(lp7067
g68
aasg13
(dp7068
g15
g16
(g20
S'\xd5x\xe9&1\x08\xe0?'
p7069
tp7070
Rp7071
sg26
(lp7072
(g68
g66
F0.501
tp7073
assg3
F0.0
sg29
(lp7074
(lp7075
g68
aa(lp7076
g66
aasg2
F1.0
ssI522
(dp7077
g1
F-1.0
sg7
(lp7078
(lp7079
g1038
aa(lp7080
g983
aasg13
(dp7081
g15
g16
(g20
S'\xd5x\xe9&1\x08\xe0?'
p7082
tp7083
Rp7084
sg26
(lp7085
(g983
g1038
F0.501
tp7086
assg3
F0.0
sg29
(lp7087
(lp7088
g983
aa(lp7089
g1038
aasg2
F1.0
ssI523
(dp7090
g1
F-1.0
sg7
(lp7091
(lp7092
g2060
aa(lp7093
g128
aasg13
(dp7094
g15
g16
(g20
S'\xd5x\xe9&1\x08\xe0?'
p7095
tp7096
Rp7097
sg26
(lp7098
(g128
g2060
F0.501
tp7099
assg3
F0.0
sg29
(lp7100
(lp7101
g128
aa(lp7102
g2060
aasg2
F1.0
ssI524
(dp7103
g1
F-1.0
sg7
(lp7104
(lp7105
g854
aa(lp7106
g96
aasg13
(dp7107
g15
g16
(g20
S'\xd5x\xe9&1\x08\xe0?'
p7108
tp7109
Rp7110
sg26
(lp7111
(g96
g854
F0.501
tp7112
assg3
F0.0
sg29
(lp7113
(lp7114
g96
aa(lp7115
g854
aasg2
F1.0
ssI525
(dp7116
g1
F1.0
sg7
(lp7117
(lp7118
g2667
aa(lp7119
g4057
aasg13
(dp7120
g15
g16
(g20
S'\xd5x\xe9&1\x08\xe0?'
p7121
tp7122
Rp7123
sg26
(lp7124
(g2667
g4057
F0.501
tp7125
assg3
F1.0
sg29
(lp7126
(lp7127
g2667
aa(lp7128
g4057
aasg2
F1.0
ssI526
(dp7129
g1
F-1.0
sg7
(lp7130
(lp7131
g450
aa(lp7132
g452
aasg13
(dp7133
g15
g16
(g20
S'\xd5x\xe9&1\x08\xe0?'
p7134
tp7135
Rp7136
sg26
(lp7137
(g452
g450
F0.501
tp7138
assg3
F0.0
sg29
(lp7139
(lp7140
g452
aa(lp7141
g450
aasg2
F1.0
ssI527
(dp7142
g1
F1.0
sg7
(lp7143
(lp7144
g126
aa(lp7145
g2060
aasg13
(dp7146
g15
g16
(g20
S'\xd5x\xe9&1\x08\xe0?'
p7147
tp7148
Rp7149
sg26
(lp7150
(g126
g2060
F0.501
tp7151
assg3
F1.0
sg29
(lp7152
(lp7153
g126
aa(lp7154
g2060
aasg2
F1.0
ssI528
(dp7155
g1
F1.0
sg7
(lp7156
(lp7157
g4415
aa(lp7158
g2382
aasg13
(dp7159
g15
g16
(g20
S'\xd5x\xe9&1\x08\xe0?'
p7160
tp7161
Rp7162
sg26
(lp7163
(g4415
g2382
F0.501
tp7164
assg3
F1.0
sg29
(lp7165
(lp7166
g4415
aa(lp7167
g2382
aasg2
F1.0
ssI529
(dp7168
g1
F1.0
sg7
(lp7169
(lp7170
g509
aa(lp7171
g291
aasg13
(dp7172
g15
g16
(g20
S'\xd5x\xe9&1\x08\xe0?'
p7173
tp7174
Rp7175
sg26
(lp7176
(g509
g291
F0.501
tp7177
assg3
F1.0
sg29
(lp7178
(lp7179
g509
aa(lp7180
g291
aasg2
F1.0
ssI530
(dp7181
g1
F-1.0
sg7
(lp7182
(lp7183
g4691
aa(lp7184
g203
aasg13
(dp7185
g15
g16
(g20
S'\xd5x\xe9&1\x08\xe0?'
p7186
tp7187
Rp7188
sg26
(lp7189
(g203
g4691
F0.501
tp7190
assg3
F0.0
sg29
(lp7191
(lp7192
g203
aa(lp7193
g4691
aasg2
F1.0
ssI531
(dp7194
g1
F-1.0
sg7
(lp7195
(lp7196
g825
aa(lp7197
g422
aasg13
(dp7198
g15
g16
(g20
S'\xd5x\xe9&1\x08\xe0?'
p7199
tp7200
Rp7201
sg26
(lp7202
(g422
g825
F0.501
tp7203
assg3
F0.0
sg29
(lp7204
(lp7205
g422
aa(lp7206
g825
aasg2
F1.0
ssI532
(dp7207
g1
F-1.0
sg7
(lp7208
(lp7209
g1540
aa(lp7210
g1542
aasg13
(dp7211
g15
g16
(g20
S'\xd5x\xe9&1\x08\xe0?'
p7212
tp7213
Rp7214
sg26
(lp7215
(g1542
g1540
F0.501
tp7216
assg3
F0.0
sg29
(lp7217
(lp7218
g1542
aa(lp7219
g1540
aasg2
F1.0
ssI533
(dp7220
g1
F-1.0
sg7
(lp7221
(lp7222
g2719
aa(lp7223
g2533
aasg13
(dp7224
g15
g16
(g20
S'\xd5x\xe9&1\x08\xe0?'
p7225
tp7226
Rp7227
sg26
(lp7228
(g2533
g2719
F0.501
tp7229
assg3
F0.0
sg29
(lp7230
(lp7231
g2533
aa(lp7232
g2719
aasg2
F1.0
ssI534
(dp7233
g1
F1.0
sg7
(lp7234
(lp7235
g856
aa(lp7236
g1556
aasg13
(dp7237
g15
g16
(g20
S'\xd5x\xe9&1\x08\xe0?'
p7238
tp7239
Rp7240
sg26
(lp7241
(g856
g1556
F0.501
tp7242
assg3
F1.0
sg29
(lp7243
(lp7244
g856
aa(lp7245
g1556
aasg2
F1.0
ssI535
(dp7246
g1
F-1.0
sg7
(lp7247
(lp7248
g2734
aa(lp7249
g2990
aasg13
(dp7250
g15
g16
(g20
S'\xd5x\xe9&1\x08\xe0?'
p7251
tp7252
Rp7253
sg26
(lp7254
(g2990
g2734
F0.501
tp7255
assg3
F0.0
sg29
(lp7256
(lp7257
g2990
aa(lp7258
g2734
aasg2
F1.0
ssI536
(dp7259
g1
F1.0
sg7
(lp7260
(lp7261
g997
aa(lp7262
g1471
aasg13
(dp7263
g15
g16
(g20
S'\xd5x\xe9&1\x08\xe0?'
p7264
tp7265
Rp7266
sg26
(lp7267
(g997
g1471
F0.501
tp7268
assg3
F1.0
sg29
(lp7269
(lp7270
g997
aa(lp7271
g1471
aasg2
F1.0
ssI537
(dp7272
g1
F-1.0
sg7
(lp7273
(lp7274
g304
aa(lp7275
g188
aasg13
(dp7276
g15
g16
(g20
S'\xd5x\xe9&1\x08\xe0?'
p7277
tp7278
Rp7279
sg26
(lp7280
(g188
g304
F0.501
tp7281
assg3
F0.0
sg29
(lp7282
(lp7283
g188
aa(lp7284
g304
aasg2
F1.0
ssI538
(dp7285
g1
F-1.0
sg7
(lp7286
(lp7287
g523
aa(lp7288
g653
aasg13
(dp7289
g15
g16
(g20
S'\xd5x\xe9&1\x08\xe0?'
p7290
tp7291
Rp7292
sg26
(lp7293
(g653
g523
F0.501
tp7294
assg3
F0.0
sg29
(lp7295
(lp7296
g653
aa(lp7297
g523
aasg2
F1.0
ssI539
(dp7298
g1
F-1.0
sg7
(lp7299
(lp7300
g2269
aa(lp7301
g1239
aasg13
(dp7302
g15
g16
(g20
S'\xd5x\xe9&1\x08\xe0?'
p7303
tp7304
Rp7305
sg26
(lp7306
(g1239
g2269
F0.501
tp7307
assg3
F0.0
sg29
(lp7308
(lp7309
g1239
aa(lp7310
g2269
aasg2
F1.0
ssI540
(dp7311
g1
F1.0
sg7
(lp7312
(lp7313
g4706
aa(lp7314
g4708
aasg13
(dp7315
g15
g16
(g20
S'\xd5x\xe9&1\x08\xe0?'
p7316
tp7317
Rp7318
sg26
(lp7319
(g4706
g4708
F0.501
tp7320
assg3
F1.0
sg29
(lp7321
(lp7322
g4706
aa(lp7323
g4708
aasg2
F1.0
ssI541
(dp7324
g1
F1.0
sg7
(lp7325
(lp7326
g3096
aa(lp7327
g915
aasg13
(dp7328
g15
g16
(g20
S'\xd5x\xe9&1\x08\xe0?'
p7329
tp7330
Rp7331
sg26
(lp7332
(g3096
g915
F0.501
tp7333
assg3
F1.0
sg29
(lp7334
(lp7335
g3096
aa(lp7336
g915
aasg2
F1.0
ssI542
(dp7337
g1
F1.0
sg7
(lp7338
(lp7339
g3976
aa(lp7340
g2087
aasg13
(dp7341
g15
g16
(g20
S'\xd5x\xe9&1\x08\xe0?'
p7342
tp7343
Rp7344
sg26
(lp7345
(g3976
g2087
F0.501
tp7346
assg3
F1.0
sg29
(lp7347
(lp7348
g3976
aa(lp7349
g2087
aasg2
F1.0
ssI543
(dp7350
g1
F-1.0
sg7
(lp7351
(lp7352
g304
aa(lp7353
g611
aasg13
(dp7354
g15
g16
(g20
S'\xd5x\xe9&1\x08\xe0?'
p7355
tp7356
Rp7357
sg26
(lp7358
(g611
g304
F0.501
tp7359
assg3
F0.0
sg29
(lp7360
(lp7361
g611
aa(lp7362
g304
aasg2
F1.0
ssI544
(dp7363
g1
F-1.0
sg7
(lp7364
(lp7365
g3471
aa(lp7366
g38
aasg13
(dp7367
g15
g16
(g20
S'\xd5x\xe9&1\x08\xe0?'
p7368
tp7369
Rp7370
sg26
(lp7371
(g38
g3471
F0.501
tp7372
assg3
F0.0
sg29
(lp7373
(lp7374
g38
aa(lp7375
g3471
aasg2
F1.0
ssI545
(dp7376
g1
F1.0
sg7
(lp7377
(lp7378
g156
aa(lp7379
g4787
aasg13
(dp7380
g15
g16
(g20
S'\xd5x\xe9&1\x08\xe0?'
p7381
tp7382
Rp7383
sg26
(lp7384
(g156
g4787
F0.501
tp7385
assg3
F1.0
sg29
(lp7386
(lp7387
g156
aa(lp7388
g4787
aasg2
F1.0
ssI546
(dp7389
g1
F1.0
sg7
(lp7390
(lp7391
g1138
aa(lp7392
g2868
aasg13
(dp7393
g15
g16
(g20
S'\xd5x\xe9&1\x08\xe0?'
p7394
tp7395
Rp7396
sg26
(lp7397
(g1138
g2868
F0.501
tp7398
assg3
F1.0
sg29
(lp7399
(lp7400
g1138
aa(lp7401
g2868
aasg2
F1.0
ssI547
(dp7402
g1
F-1.0
sg7
(lp7403
(lp7404
g6961
aa(lp7405
g6963
aasg13
(dp7406
g15
g16
(g20
S'\xd5x\xe9&1\x08\xe0?'
p7407
tp7408
Rp7409
sg26
(lp7410
(g6963
g6961
F0.501
tp7411
assg3
F0.0
sg29
(lp7412
(lp7413
g6963
aa(lp7414
g6961
aasg2
F1.0
ssI548
(dp7415
g1
F1.0
sg7
(lp7416
(lp7417
g3946
aa(lp7418
g3948
aasg13
(dp7419
g15
g16
(g20
S'\xd5x\xe9&1\x08\xe0?'
p7420
tp7421
Rp7422
sg26
(lp7423
(g3946
g3948
F0.501
tp7424
assg3
F1.0
sg29
(lp7425
(lp7426
g3946
aa(lp7427
g3948
aasg2
F1.0
ssI549
(dp7428
g1
F1.0
sg7
(lp7429
(lp7430
g3365
aa(lp7431
g364
aasg13
(dp7432
g15
g16
(g20
S'\xd5x\xe9&1\x08\xe0?'
p7433
tp7434
Rp7435
sg26
(lp7436
(g3365
g364
F0.501
tp7437
assg3
F1.0
sg29
(lp7438
(lp7439
g3365
aa(lp7440
g364
aasg2
F1.0
sss.