(dp0
S'tau'
p1
F-0.31654676258992803
sS'|tau|'
p2
F1.0
sS'pairwise'
p3
F0.34172661870503596
sS'ranking'
p4
(dp5
I0
(dp6
g1
F1.0
sS'gold'
p7
(lp8
(lp9
S'little'
p10
aa(lp11
S'least'
p12
aasS'raw'
p13
(dp14
S'prob*'
p15
cnumpy.core.multiarray
scalar
p16
(cnumpy
dtype
p17
(S'f8'
p18
I0
I1
tp19
Rp20
(I3
S'<'
p21
NNNI-1
I-1
I0
tp22
bS'\xd5x\xe9&1\x08\xe0?'
p23
tp24
Rp25
sS'link-probs'
p26
(lp27
(g10
g12
F0.501
tp28
assg3
F1.0
sS'algo'
p29
(lp30
(lp31
g10
aa(lp32
g12
aasg2
F1.0
ssI1
(dp33
g1
F1.0
sg7
(lp34
(lp35
S'rich'
p36
aa(lp37
S'richest'
p38
aasg13
(dp39
g15
g16
(g20
S'\xd5x\xe9&1\x08\xe0?'
p40
tp41
Rp42
sg26
(lp43
(g36
g38
F0.501
tp44
assg3
F1.0
sg29
(lp45
(lp46
g36
aa(lp47
g38
aasg2
F1.0
ssI2
(dp48
g1
F-1.0
sg7
(lp49
(lp50
S'sick'
p51
aa(lp52
S'sicker'
p53
aasg13
(dp54
g15
g16
(g20
S'\xd5x\xe9&1\x08\xe0?'
p55
tp56
Rp57
sg26
(lp58
(g53
g51
F0.501
tp59
assg3
F0.0
sg29
(lp60
(lp61
g53
aa(lp62
g51
aasg2
F1.0
ssI3
(dp63
g1
F-1.0
sg7
(lp64
(lp65
S'closer'
p66
aa(lp67
S'closest'
p68
aasg13
(dp69
g15
g16
(g20
S'\xd5x\xe9&1\x08\xe0?'
p70
tp71
Rp72
sg26
(lp73
(g68
g66
F0.501
tp74
assg3
F0.0
sg29
(lp75
(lp76
g68
aa(lp77
g66
aasg2
F1.0
ssI4
(dp78
g1
F1.0
sg7
(lp79
(lp80
S'dense'
p81
aa(lp82
S'denser'
p83
aasg13
(dp84
g15
g16
(g20
S'\xd5x\xe9&1\x08\xe0?'
p85
tp86
Rp87
sg26
(lp88
(g81
g83
F0.501
tp89
assg3
F1.0
sg29
(lp90
(lp91
g81
aa(lp92
g83
aasg2
F1.0
ssI5
(dp93
g1
F-1.0
sg7
(lp94
(lp95
S'happier'
p96
aa(lp97
S'happiest'
p98
aasg13
(dp99
g15
g16
(g20
S'\xd5x\xe9&1\x08\xe0?'
p100
tp101
Rp102
sg26
(lp103
(g98
g96
F0.501
tp104
assg3
F0.0
sg29
(lp105
(lp106
g98
aa(lp107
g96
aasg2
F1.0
ssI6
(dp108
g1
F-1.0
sg7
(lp109
(lp110
S'rare'
p111
aa(lp112
S'rarest'
p113
aasg13
(dp114
g15
g16
(g20
S'\xd5x\xe9&1\x08\xe0?'
p115
tp116
Rp117
sg26
(lp118
(g113
g111
F0.501
tp119
assg3
F0.0
sg29
(lp120
(lp121
g113
aa(lp122
g111
aasg2
F1.0
ssI7
(dp123
g1
F-1.0
sg7
(lp124
(lp125
S'up'
p126
aa(lp127
S'upper'
p128
aasg13
(dp129
g15
g16
(g20
S'\xd5x\xe9&1\x08\xe0?'
p130
tp131
Rp132
sg26
(lp133
(g128
g126
F0.501
tp134
assg3
F0.0
sg29
(lp135
(lp136
g128
aa(lp137
g126
aasg2
F1.0
ssI8
(dp138
g1
F-1.0
sg7
(lp139
(lp140
S'weak'
p141
aa(lp142
S'weakest'
p143
aasg13
(dp144
g15
g16
(g20
S'\xd5x\xe9&1\x08\xe0?'
p145
tp146
Rp147
sg26
(lp148
(g143
g141
F0.501
tp149
assg3
F0.0
sg29
(lp150
(lp151
g143
aa(lp152
g141
aasg2
F1.0
ssI9
(dp153
g1
F1.0
sg7
(lp154
(lp155
S'big'
p156
aa(lp157
S'biggest'
p158
aasg13
(dp159
g15
g16
(g20
S'\xd5x\xe9&1\x08\xe0?'
p160
tp161
Rp162
sg26
(lp163
(g156
g158
F0.501
tp164
assg3
F1.0
sg29
(lp165
(lp166
g156
aa(lp167
g158
aasg2
F1.0
ssI10
(dp168
g1
F1.0
sg7
(lp169
(lp170
S'broad'
p171
aa(lp172
S'broadest'
p173
aasg13
(dp174
g15
g16
(g20
S'\xd5x\xe9&1\x08\xe0?'
p175
tp176
Rp177
sg26
(lp178
(g171
g173
F0.501
tp179
assg3
F1.0
sg29
(lp180
(lp181
g171
aa(lp182
g173
aasg2
F1.0
ssI11
(dp183
g1
F1.0
sg7
(lp184
(lp185
S'swift'
p186
aa(lp187
S'swifter'
p188
aasg13
(dp189
g15
g16
(g20
S'\xd5x\xe9&1\x08\xe0?'
p190
tp191
Rp192
sg26
(lp193
(g186
g188
F0.501
tp194
assg3
F1.0
sg29
(lp195
(lp196
g186
aa(lp197
g188
aasg2
F1.0
ssI12
(dp198
g1
F1.0
sg7
(lp199
(lp200
S'well'
p201
aa(lp202
S'best'
p203
aasg13
(dp204
g15
g16
(g20
S'\xd5x\xe9&1\x08\xe0?'
p205
tp206
Rp207
sg26
(lp208
(g201
g203
F0.501
tp209
assg3
F1.0
sg29
(lp210
(lp211
g201
aa(lp212
g203
aasg2
F1.0
ssI13
(dp213
g1
F1.0
sg7
(lp214
(lp215
S'little'
p216
aa(lp217
S'least'
p218
aasg13
(dp219
g15
g16
(g20
S'\xd5x\xe9&1\x08\xe0?'
p220
tp221
Rp222
sg26
(lp223
(g216
g218
F0.501
tp224
assg3
F1.0
sg29
(lp225
(lp226
g216
aa(lp227
g218
aasg2
F1.0
ssI14
(dp228
g1
F-1.0
sg7
(lp229
(lp230
S'shorter'
p231
aa(lp232
S'shortest'
p233
aasg13
(dp234
g15
g16
(g20
S'\xd5x\xe9&1\x08\xe0?'
p235
tp236
Rp237
sg26
(lp238
(g233
g231
F0.501
tp239
assg3
F0.0
sg29
(lp240
(lp241
g233
aa(lp242
g231
aasg2
F1.0
ssI15
(dp243
g1
F-1.0
sg7
(lp244
(lp245
S'dirty'
p246
aa(lp247
S'dirtier'
p248
aasg13
(dp249
g15
g16
(g20
S'\xd5x\xe9&1\x08\xe0?'
p250
tp251
Rp252
sg26
(lp253
(g248
g246
F0.501
tp254
assg3
F0.0
sg29
(lp255
(lp256
g248
aa(lp257
g246
aasg2
F1.0
ssI16
(dp258
g1
F1.0
sg7
(lp259
(lp260
S'smaller'
p261
aa(lp262
S'smallest'
p263
aasg13
(dp264
g15
g16
(g20
S'\xd5x\xe9&1\x08\xe0?'
p265
tp266
Rp267
sg26
(lp268
(g261
g263
F0.501
tp269
assg3
F1.0
sg29
(lp270
(lp271
g261
aa(lp272
g263
aasg2
F1.0
ssI17
(dp273
g1
F1.0
sg7
(lp274
(lp275
S'late'
p276
aa(lp277
S'later'
p278
aasg13
(dp279
g15
g16
(g20
S'\xd5x\xe9&1\x08\xe0?'
p280
tp281
Rp282
sg26
(lp283
(g276
g278
F0.501
tp284
assg3
F1.0
sg29
(lp285
(lp286
g276
aa(lp287
g278
aasg2
F1.0
ssI18
(dp288
g1
F1.0
sg7
(lp289
(lp290
S'wise'
p291
aa(lp292
S'wiser'
p293
aasg13
(dp294
g15
g16
(g20
S'\xd5x\xe9&1\x08\xe0?'
p295
tp296
Rp297
sg26
(lp298
(g291
g293
F0.501
tp299
assg3
F1.0
sg29
(lp300
(lp301
g291
aa(lp302
g293
aasg2
F1.0
ssI19
(dp303
g1
F1.0
sg7
(lp304
(lp305
S'graver'
p306
aa(lp307
S'gravest'
p308
aasg13
(dp309
g15
g16
(g20
S'\xd5x\xe9&1\x08\xe0?'
p310
tp311
Rp312
sg26
(lp313
(g306
g308
F0.501
tp314
assg3
F1.0
sg29
(lp315
(lp316
g306
aa(lp317
g308
aasg2
F1.0
ssI20
(dp318
g1
F-1.0
sg7
(lp319
(lp320
S'darker'
p321
aa(lp322
S'darkest'
p323
aasg13
(dp324
g15
g16
(g20
S'\xd5x\xe9&1\x08\xe0?'
p325
tp326
Rp327
sg26
(lp328
(g323
g321
F0.501
tp329
assg3
F0.0
sg29
(lp330
(lp331
g323
aa(lp332
g321
aasg2
F1.0
ssI21
(dp333
g1
F-1.0
sg7
(lp334
(lp335
S'rarer'
p336
aa(lp337
S'rarest'
p338
aasg13
(dp339
g15
g16
(g20
S'\xd5x\xe9&1\x08\xe0?'
p340
tp341
Rp342
sg26
(lp343
(g338
g336
F0.501
tp344
assg3
F0.0
sg29
(lp345
(lp346
g338
aa(lp347
g336
aasg2
F1.0
ssI22
(dp348
g1
F-1.0
sg7
(lp349
(lp350
S'mild'
p351
aa(lp352
S'milder'
p353
aasg13
(dp354
g15
g16
(g20
S'\xd5x\xe9&1\x08\xe0?'
p355
tp356
Rp357
sg26
(lp358
(g353
g351
F0.501
tp359
assg3
F0.0
sg29
(lp360
(lp361
g353
aa(lp362
g351
aasg2
F1.0
ssI23
(dp363
g1
F-1.0
sg7
(lp364
(lp365
S'scarce'
p366
aa(lp367
S'scarcer'
p368
aasg13
(dp369
g15
g16
(g20
S'\xd5x\xe9&1\x08\xe0?'
p370
tp371
Rp372
sg26
(lp373
(g368
g366
F0.501
tp374
assg3
F0.0
sg29
(lp375
(lp376
g368
aa(lp377
g366
aasg2
F1.0
ssI24
(dp378
g1
F-1.0
sg7
(lp379
(lp380
S'sound'
p381
aa(lp382
S'sounder'
p383
aasg13
(dp384
g15
g16
(g20
S'\xd5x\xe9&1\x08\xe0?'
p385
tp386
Rp387
sg26
(lp388
(g383
g381
F0.501
tp389
assg3
F0.0
sg29
(lp390
(lp391
g383
aa(lp392
g381
aasg2
F1.0
ssI25
(dp393
g1
F-1.0
sg7
(lp394
(lp395
S'full'
p396
aa(lp397
S'fuller'
p398
aasg13
(dp399
g15
g16
(g20
S'\xd5x\xe9&1\x08\xe0?'
p400
tp401
Rp402
sg26
(lp403
(g398
g396
F0.501
tp404
assg3
F0.0
sg29
(lp405
(lp406
g398
aa(lp407
g396
aasg2
F1.0
ssI26
(dp408
g1
F-1.0
sg7
(lp409
(lp410
S'cruel'
p411
aa(lp412
S'cruellest'
p413
aasg13
(dp414
g15
g16
(g20
S'\xd5x\xe9&1\x08\xe0?'
p415
tp416
Rp417
sg26
(lp418
(g413
g411
F0.501
tp419
assg3
F0.0
sg29
(lp420
(lp421
g413
aa(lp422
g411
aasg2
F1.0
ssI27
(dp423
g1
F-1.0
sg7
(lp424
(lp425
S'earlier'
p426
aa(lp427
S'earliest'
p428
aasg13
(dp429
g15
g16
(g20
S'\xd5x\xe9&1\x08\xe0?'
p430
tp431
Rp432
sg26
(lp433
(g428
g426
F0.501
tp434
assg3
F0.0
sg29
(lp435
(lp436
g428
aa(lp437
g426
aasg2
F1.0
ssI28
(dp438
g1
F-1.0
sg7
(lp439
(lp440
S'dark'
p441
aa(lp442
S'darkest'
p443
aasg13
(dp444
g15
g16
(g20
S'\xd5x\xe9&1\x08\xe0?'
p445
tp446
Rp447
sg26
(lp448
(g443
g441
F0.501
tp449
assg3
F0.0
sg29
(lp450
(lp451
g443
aa(lp452
g441
aasg2
F1.0
ssI29
(dp453
g1
F-1.0
sg7
(lp454
(lp455
S'dark'
p456
aa(lp457
S'darkest'
p458
aasg13
(dp459
g15
g16
(g20
S'\xd5x\xe9&1\x08\xe0?'
p460
tp461
Rp462
sg26
(lp463
(g458
g456
F0.501
tp464
assg3
F0.0
sg29
(lp465
(lp466
g458
aa(lp467
g456
aasg2
F1.0
ssI30
(dp468
g1
F-1.0
sg7
(lp469
(lp470
S'weaker'
p471
aa(lp472
g143
aasg13
(dp473
g15
g16
(g20
S'\xd5x\xe9&1\x08\xe0?'
p474
tp475
Rp476
sg26
(lp477
(g143
g471
F0.501
tp478
assg3
F0.0
sg29
(lp479
(lp480
g143
aa(lp481
g471
aasg2
F1.0
ssI31
(dp482
g1
F1.0
sg7
(lp483
(lp484
S'richer'
p485
aa(lp486
S'richest'
p487
aasg13
(dp488
g15
g16
(g20
S'\xd5x\xe9&1\x08\xe0?'
p489
tp490
Rp491
sg26
(lp492
(g485
g487
F0.501
tp493
assg3
F1.0
sg29
(lp494
(lp495
g485
aa(lp496
g487
aasg2
F1.0
ssI32
(dp497
g1
F1.0
sg7
(lp498
(lp499
S'large'
p500
aa(lp501
S'largest'
p502
aasg13
(dp503
g15
g16
(g20
S'\xd5x\xe9&1\x08\xe0?'
p504
tp505
Rp506
sg26
(lp507
(g500
g502
F0.501
tp508
assg3
F1.0
sg29
(lp509
(lp510
g500
aa(lp511
g502
aasg2
F1.0
ssI33
(dp512
g1
F-1.0
sg7
(lp513
(lp514
S'fierce'
p515
aa(lp516
S'fiercer'
p517
aasg13
(dp518
g15
g16
(g20
S'\xd5x\xe9&1\x08\xe0?'
p519
tp520
Rp521
sg26
(lp522
(g517
g515
F0.501
tp523
assg3
F0.0
sg29
(lp524
(lp525
g517
aa(lp526
g515
aasg2
F1.0
ssI34
(dp527
g1
F-1.0
sg7
(lp528
(lp529
g231
aa(lp530
g233
aasg13
(dp531
g15
g16
(g20
S'\xd5x\xe9&1\x08\xe0?'
p532
tp533
Rp534
sg26
(lp535
(g233
g231
F0.501
tp536
assg3
F0.0
sg29
(lp537
(lp538
g233
aa(lp539
g231
aasg2
F1.0
ssI35
(dp540
g1
F-1.0
sg7
(lp541
(lp542
S'stricter'
p543
aa(lp544
S'strictest'
p545
aasg13
(dp546
g15
g16
(g20
S'\xd5x\xe9&1\x08\xe0?'
p547
tp548
Rp549
sg26
(lp550
(g545
g543
F0.501
tp551
assg3
F0.0
sg29
(lp552
(lp553
g545
aa(lp554
g543
aasg2
F1.0
ssI36
(dp555
g1
F1.0
sg7
(lp556
(lp557
g10
aa(lp558
g12
aasg13
(dp559
g15
g16
(g20
S'\xd5x\xe9&1\x08\xe0?'
p560
tp561
Rp562
sg26
(lp563
(g10
g12
F0.501
tp564
assg3
F1.0
sg29
(lp565
(lp566
g10
aa(lp567
g12
aasg2
F1.0
ssI37
(dp568
g1
F-1.0
sg7
(lp569
(lp570
S'brave'
p571
aa(lp572
S'braver'
p573
aasg13
(dp574
g15
g16
(g20
S'\xd5x\xe9&1\x08\xe0?'
p575
tp576
Rp577
sg26
(lp578
(g573
g571
F0.501
tp579
assg3
F0.0
sg29
(lp580
(lp581
g573
aa(lp582
g571
aasg2
F1.0
ssI38
(dp583
g1
F-1.0
sg7
(lp584
(lp585
g396
aa(lp586
g398
aasg13
(dp587
g15
g16
(g20
S'\xd5x\xe9&1\x08\xe0?'
p588
tp589
Rp590
sg26
(lp591
(g398
g396
F0.501
tp592
assg3
F0.0
sg29
(lp593
(lp594
g398
aa(lp595
g396
aasg2
F1.0
ssI39
(dp596
g1
F-1.0
sg7
(lp597
(lp598
S'heavier'
p599
aa(lp600
S'heaviest'
p601
aasg13
(dp602
g15
g16
(g20
S'\xd5x\xe9&1\x08\xe0?'
p603
tp604
Rp605
sg26
(lp606
(g601
g599
F0.501
tp607
assg3
F0.0
sg29
(lp608
(lp609
g601
aa(lp610
g599
aasg2
F1.0
ssI40
(dp611
g1
F-1.0
sg7
(lp612
(lp613
S'wealthier'
p614
aa(lp615
S'wealthiest'
p616
aasg13
(dp617
g15
g16
(g20
S'\xd5x\xe9&1\x08\xe0?'
p618
tp619
Rp620
sg26
(lp621
(g616
g614
F0.501
tp622
assg3
F0.0
sg29
(lp623
(lp624
g616
aa(lp625
g614
aasg2
F1.0
ssI41
(dp626
g1
F1.0
sg7
(lp627
(lp628
S'early'
p629
aa(lp630
S'earliest'
p631
aasg13
(dp632
g15
g16
(g20
S'\xd5x\xe9&1\x08\xe0?'
p633
tp634
Rp635
sg26
(lp636
(g629
g631
F0.501
tp637
assg3
F1.0
sg29
(lp638
(lp639
g629
aa(lp640
g631
aasg2
F1.0
ssI42
(dp641
g1
F1.0
sg7
(lp642
(lp643
S'finer'
p644
aa(lp645
S'finest'
p646
aasg13
(dp647
g15
g16
(g20
S'\xd5x\xe9&1\x08\xe0?'
p648
tp649
Rp650
sg26
(lp651
(g644
g646
F0.501
tp652
assg3
F1.0
sg29
(lp653
(lp654
g644
aa(lp655
g646
aasg2
F1.0
ssI43
(dp656
g1
F-1.0
sg7
(lp657
(lp658
S'fine'
p659
aa(lp660
S'finer'
p661
aasg13
(dp662
g15
g16
(g20
S'\xd5x\xe9&1\x08\xe0?'
p663
tp664
Rp665
sg26
(lp666
(g661
g659
F0.501
tp667
assg3
F0.0
sg29
(lp668
(lp669
g661
aa(lp670
g659
aasg2
F1.0
ssI44
(dp671
g1
F1.0
sg7
(lp672
(lp673
g216
aa(lp674
g218
aasg13
(dp675
g15
g16
(g20
S'\xd5x\xe9&1\x08\xe0?'
p676
tp677
Rp678
sg26
(lp679
(g216
g218
F0.501
tp680
assg3
F1.0
sg29
(lp681
(lp682
g216
aa(lp683
g218
aasg2
F1.0
ssI45
(dp684
g1
F1.0
sg7
(lp685
(lp686
S'quick'
p687
aa(lp688
S'quickest'
p689
aasg13
(dp690
g15
g16
(g20
S'\xd5x\xe9&1\x08\xe0?'
p691
tp692
Rp693
sg26
(lp694
(g687
g689
F0.501
tp695
assg3
F1.0
sg29
(lp696
(lp697
g687
aa(lp698
g689
aasg2
F1.0
ssI46
(dp699
g1
F-1.0
sg7
(lp700
(lp701
S'lucky'
p702
aa(lp703
S'luckier'
p704
aasg13
(dp705
g15
g16
(g20
S'\xd5x\xe9&1\x08\xe0?'
p706
tp707
Rp708
sg26
(lp709
(g704
g702
F0.501
tp710
assg3
F0.0
sg29
(lp711
(lp712
g704
aa(lp713
g702
aasg2
F1.0
ssI47
(dp714
g1
F-1.0
sg7
(lp715
(lp716
S'lower'
p717
aa(lp718
S'lowest'
p719
aasg13
(dp720
g15
g16
(g20
S'\xd5x\xe9&1\x08\xe0?'
p721
tp722
Rp723
sg26
(lp724
(g719
g717
F0.501
tp725
assg3
F0.0
sg29
(lp726
(lp727
g719
aa(lp728
g717
aasg2
F1.0
ssI48
(dp729
g1
F-1.0
sg7
(lp730
(lp731
S'cleaner'
p732
aa(lp733
S'cleanest'
p734
aasg13
(dp735
g15
g16
(g20
S'\xd5x\xe9&1\x08\xe0?'
p736
tp737
Rp738
sg26
(lp739
(g734
g732
F0.501
tp740
assg3
F0.0
sg29
(lp741
(lp742
g734
aa(lp743
g732
aasg2
F1.0
ssI49
(dp744
g1
F1.0
sg7
(lp745
(lp746
S'soon'
p747
aa(lp748
S'sooner'
p749
aasg13
(dp750
g15
g16
(g20
S'\xd5x\xe9&1\x08\xe0?'
p751
tp752
Rp753
sg26
(lp754
(g747
g749
F0.501
tp755
assg3
F1.0
sg29
(lp756
(lp757
g747
aa(lp758
g749
aasg2
F1.0
ssI50
(dp759
g1
F-1.0
sg7
(lp760
(lp761
S'wealthy'
p762
aa(lp763
S'wealthiest'
p764
aasg13
(dp765
g15
g16
(g20
S'\xd5x\xe9&1\x08\xe0?'
p766
tp767
Rp768
sg26
(lp769
(g764
g762
F0.501
tp770
assg3
F0.0
sg29
(lp771
(lp772
g764
aa(lp773
g762
aasg2
F1.0
ssI51
(dp774
g1
F-1.0
sg7
(lp775
(lp776
S'happier'
p777
aa(lp778
S'happiest'
p779
aasg13
(dp780
g15
g16
(g20
S'\xd5x\xe9&1\x08\xe0?'
p781
tp782
Rp783
sg26
(lp784
(g779
g777
F0.501
tp785
assg3
F0.0
sg29
(lp786
(lp787
g779
aa(lp788
g777
aasg2
F1.0
ssI52
(dp789
g1
F-1.0
sg7
(lp790
(lp791
g702
aa(lp792
g704
aasg13
(dp793
g15
g16
(g20
S'\xd5x\xe9&1\x08\xe0?'
p794
tp795
Rp796
sg26
(lp797
(g704
g702
F0.501
tp798
assg3
F0.0
sg29
(lp799
(lp800
g704
aa(lp801
g702
aasg2
F1.0
ssI53
(dp802
g1
F-1.0
sg7
(lp803
(lp804
S'fat'
p805
aa(lp806
S'fatter'
p807
aasg13
(dp808
g15
g16
(g20
S'\xd5x\xe9&1\x08\xe0?'
p809
tp810
Rp811
sg26
(lp812
(g807
g805
F0.501
tp813
assg3
F0.0
sg29
(lp814
(lp815
g807
aa(lp816
g805
aasg2
F1.0
ssI54
(dp817
g1
F-1.0
sg7
(lp818
(lp819
S'fuller'
p820
aa(lp821
S'fullest'
p822
aasg13
(dp823
g15
g16
(g20
S'\xd5x\xe9&1\x08\xe0?'
p824
tp825
Rp826
sg26
(lp827
(g822
g820
F0.501
tp828
assg3
F0.0
sg29
(lp829
(lp830
g822
aa(lp831
g820
aasg2
F1.0
ssI55
(dp832
g1
F-1.0
sg7
(lp833
(lp834
S'long'
p835
aa(lp836
S'longest'
p837
aasg13
(dp838
g15
g16
(g20
S'\xd5x\xe9&1\x08\xe0?'
p839
tp840
Rp841
sg26
(lp842
(g837
g835
F0.501
tp843
assg3
F0.0
sg29
(lp844
(lp845
g837
aa(lp846
g835
aasg2
F1.0
ssI56
(dp847
g1
F-1.0
sg7
(lp848
(lp849
S'harder'
p850
aa(lp851
S'hardest'
p852
aasg13
(dp853
g15
g16
(g20
S'\xd5x\xe9&1\x08\xe0?'
p854
tp855
Rp856
sg26
(lp857
(g852
g850
F0.501
tp858
assg3
F0.0
sg29
(lp859
(lp860
g852
aa(lp861
g850
aasg2
F1.0
ssI57
(dp862
g1
F-1.0
sg7
(lp863
(lp864
S'fairer'
p865
aa(lp866
S'fairest'
p867
aasg13
(dp868
g15
g16
(g20
S'\xd5x\xe9&1\x08\xe0?'
p869
tp870
Rp871
sg26
(lp872
(g867
g865
F0.501
tp873
assg3
F0.0
sg29
(lp874
(lp875
g867
aa(lp876
g865
aasg2
F1.0
ssI58
(dp877
g1
F1.0
sg7
(lp878
(lp879
S'east'
p880
aa(lp881
S'easiest'
p882
aasg13
(dp883
g15
g16
(g20
S'\xd5x\xe9&1\x08\xe0?'
p884
tp885
Rp886
sg26
(lp887
(g880
g882
F0.501
tp888
assg3
F1.0
sg29
(lp889
(lp890
g880
aa(lp891
g882
aasg2
F1.0
ssI59
(dp892
g1
F-1.0
sg7
(lp893
(lp894
S'near'
p895
aa(lp896
S'nearest'
p897
aasg13
(dp898
g15
g16
(g20
S'\xd5x\xe9&1\x08\xe0?'
p899
tp900
Rp901
sg26
(lp902
(g897
g895
F0.501
tp903
assg3
F0.0
sg29
(lp904
(lp905
g897
aa(lp906
g895
aasg2
F1.0
ssI60
(dp907
g1
F-1.0
sg7
(lp908
(lp909
S'clearer'
p910
aa(lp911
S'clearest'
p912
aasg13
(dp913
g15
g16
(g20
S'\xd5x\xe9&1\x08\xe0?'
p914
tp915
Rp916
sg26
(lp917
(g912
g910
F0.501
tp918
assg3
F0.0
sg29
(lp919
(lp920
g912
aa(lp921
g910
aasg2
F1.0
ssI61
(dp922
g1
F-1.0
sg7
(lp923
(lp924
S'new'
p925
aa(lp926
S'newer'
p927
aasg13
(dp928
g15
g16
(g20
S'\xd5x\xe9&1\x08\xe0?'
p929
tp930
Rp931
sg26
(lp932
(g927
g925
F0.501
tp933
assg3
F0.0
sg29
(lp934
(lp935
g927
aa(lp936
g925
aasg2
F1.0
ssI62
(dp937
g1
F-1.0
sg7
(lp938
(lp939
S'dead'
p940
aa(lp941
S'deader'
p942
aasg13
(dp943
g15
g16
(g20
S'\xd5x\xe9&1\x08\xe0?'
p944
tp945
Rp946
sg26
(lp947
(g942
g940
F0.501
tp948
assg3
F0.0
sg29
(lp949
(lp950
g942
aa(lp951
g940
aasg2
F1.0
ssI63
(dp952
g1
F1.0
sg7
(lp953
(lp954
S'speedy'
p955
aa(lp956
S'speedier'
p957
aasg13
(dp958
g15
g16
(g20
S'\xd5x\xe9&1\x08\xe0?'
p959
tp960
Rp961
sg26
(lp962
(g955
g957
F0.501
tp963
assg3
F1.0
sg29
(lp964
(lp965
g955
aa(lp966
g957
aasg2
F1.0
ssI64
(dp967
g1
F1.0
sg7
(lp968
(lp969
S'late'
p970
aa(lp971
S'later'
p972
aasg13
(dp973
g15
g16
(g20
S'\xd5x\xe9&1\x08\xe0?'
p974
tp975
Rp976
sg26
(lp977
(g970
g972
F0.501
tp978
assg3
F1.0
sg29
(lp979
(lp980
g970
aa(lp981
g972
aasg2
F1.0
ssI65
(dp982
g1
F-1.0
sg7
(lp983
(lp984
S'simple'
p985
aa(lp986
S'simplest'
p987
aasg13
(dp988
g15
g16
(g20
S'\xd5x\xe9&1\x08\xe0?'
p989
tp990
Rp991
sg26
(lp992
(g987
g985
F0.501
tp993
assg3
F0.0
sg29
(lp994
(lp995
g987
aa(lp996
g985
aasg2
F1.0
ssI66
(dp997
g1
F1.0
sg7
(lp998
(lp999
S'some'
p1000
aa(lp1001
S'more'
p1002
aasg13
(dp1003
g15
g16
(g20
S'\xd5x\xe9&1\x08\xe0?'
p1004
tp1005
Rp1006
sg26
(lp1007
(g1000
g1002
F0.501
tp1008
assg3
F1.0
sg29
(lp1009
(lp1010
g1000
aa(lp1011
g1002
aasg2
F1.0
ssI67
(dp1012
g1
F-1.0
sg7
(lp1013
(lp1014
S'quicker'
p1015
aa(lp1016
S'quickest'
p1017
aasg13
(dp1018
g15
g16
(g20
S'\xd5x\xe9&1\x08\xe0?'
p1019
tp1020
Rp1021
sg26
(lp1022
(g1017
g1015
F0.501
tp1023
assg3
F0.0
sg29
(lp1024
(lp1025
g1017
aa(lp1026
g1015
aasg2
F1.0
ssI68
(dp1027
g1
F1.0
sg7
(lp1028
(lp1029
S'graver'
p1030
aa(lp1031
S'gravest'
p1032
aasg13
(dp1033
g15
g16
(g20
S'\xd5x\xe9&1\x08\xe0?'
p1034
tp1035
Rp1036
sg26
(lp1037
(g1030
g1032
F0.501
tp1038
assg3
F1.0
sg29
(lp1039
(lp1040
g1030
aa(lp1041
g1032
aasg2
F1.0
ssI69
(dp1042
g1
F-1.0
sg7
(lp1043
(lp1044
S'easy'
p1045
aa(lp1046
S'easiest'
p1047
aasg13
(dp1048
g15
g16
(g20
S'\xd5x\xe9&1\x08\xe0?'
p1049
tp1050
Rp1051
sg26
(lp1052
(g1047
g1045
F0.501
tp1053
assg3
F0.0
sg29
(lp1054
(lp1055
g1047
aa(lp1056
g1045
aasg2
F1.0
ssI70
(dp1057
g1
F-1.0
sg7
(lp1058
(lp1059
S'soft'
p1060
aa(lp1061
S'softer'
p1062
aasg13
(dp1063
g15
g16
(g20
S'\xd5x\xe9&1\x08\xe0?'
p1064
tp1065
Rp1066
sg26
(lp1067
(g1062
g1060
F0.501
tp1068
assg3
F0.0
sg29
(lp1069
(lp1070
g1062
aa(lp1071
g1060
aasg2
F1.0
ssI71
(dp1072
g1
F1.0
sg7
(lp1073
(lp1074
S'higher'
p1075
aa(lp1076
S'highest'
p1077
aasg13
(dp1078
g15
g16
(g20
S'\xd5x\xe9&1\x08\xe0?'
p1079
tp1080
Rp1081
sg26
(lp1082
(g1075
g1077
F0.501
tp1083
assg3
F1.0
sg29
(lp1084
(lp1085
g1075
aa(lp1086
g1077
aasg2
F1.0
ssI72
(dp1087
g1
F-1.0
sg7
(lp1088
(lp1089
g366
aa(lp1090
g368
aasg13
(dp1091
g15
g16
(g20
S'\xd5x\xe9&1\x08\xe0?'
p1092
tp1093
Rp1094
sg26
(lp1095
(g368
g366
F0.501
tp1096
assg3
F0.0
sg29
(lp1097
(lp1098
g368
aa(lp1099
g366
aasg2
F1.0
ssI73
(dp1100
g1
F1.0
sg7
(lp1101
(lp1102
S'higher'
p1103
aa(lp1104
S'highest'
p1105
aasg13
(dp1106
g15
g16
(g20
S'\xd5x\xe9&1\x08\xe0?'
p1107
tp1108
Rp1109
sg26
(lp1110
(g1103
g1105
F0.501
tp1111
assg3
F1.0
sg29
(lp1112
(lp1113
g1103
aa(lp1114
g1105
aasg2
F1.0
ssI74
(dp1115
g1
F-1.0
sg7
(lp1116
(lp1117
S'wealthy'
p1118
aa(lp1119
S'wealthiest'
p1120
aasg13
(dp1121
g15
g16
(g20
S'\xd5x\xe9&1\x08\xe0?'
p1122
tp1123
Rp1124
sg26
(lp1125
(g1120
g1118
F0.501
tp1126
assg3
F0.0
sg29
(lp1127
(lp1128
g1120
aa(lp1129
g1118
aasg2
F1.0
ssI75
(dp1130
g1
F-1.0
sg7
(lp1131
(lp1132
g141
aa(lp1133
g143
aasg13
(dp1134
g15
g16
(g20
S'\xd5x\xe9&1\x08\xe0?'
p1135
tp1136
Rp1137
sg26
(lp1138
(g143
g141
F0.501
tp1139
assg3
F0.0
sg29
(lp1140
(lp1141
g143
aa(lp1142
g141
aasg2
F1.0
ssI76
(dp1143
g1
F-1.0
sg7
(lp1144
(lp1145
S'close'
p1146
aa(lp1147
g68
aasg13
(dp1148
g15
g16
(g20
S'\xd5x\xe9&1\x08\xe0?'
p1149
tp1150
Rp1151
sg26
(lp1152
(g68
g1146
F0.501
tp1153
assg3
F0.0
sg29
(lp1154
(lp1155
g68
aa(lp1156
g1146
aasg2
F1.0
ssI77
(dp1157
g1
F-1.0
sg7
(lp1158
(lp1159
g246
aa(lp1160
g248
aasg13
(dp1161
g15
g16
(g20
S'\xd5x\xe9&1\x08\xe0?'
p1162
tp1163
Rp1164
sg26
(lp1165
(g248
g246
F0.501
tp1166
assg3
F0.0
sg29
(lp1167
(lp1168
g248
aa(lp1169
g246
aasg2
F1.0
ssI78
(dp1170
g1
F-1.0
sg7
(lp1171
(lp1172
S'warmer'
p1173
aa(lp1174
S'warmest'
p1175
aasg13
(dp1176
g15
g16
(g20
S'\xd5x\xe9&1\x08\xe0?'
p1177
tp1178
Rp1179
sg26
(lp1180
(g1175
g1173
F0.501
tp1181
assg3
F0.0
sg29
(lp1182
(lp1183
g1175
aa(lp1184
g1173
aasg2
F1.0
ssI79
(dp1185
g1
F-1.0
sg7
(lp1186
(lp1187
S'fairer'
p1188
aa(lp1189
S'fairest'
p1190
aasg13
(dp1191
g15
g16
(g20
S'\xd5x\xe9&1\x08\xe0?'
p1192
tp1193
Rp1194
sg26
(lp1195
(g1190
g1188
F0.501
tp1196
assg3
F0.0
sg29
(lp1197
(lp1198
g1190
aa(lp1199
g1188
aasg2
F1.0
ssI80
(dp1200
g1
F-1.0
sg7
(lp1201
(lp1202
S'clever'
p1203
aa(lp1204
S'cleverer'
p1205
aasg13
(dp1206
g15
g16
(g20
S'\xd5x\xe9&1\x08\xe0?'
p1207
tp1208
Rp1209
sg26
(lp1210
(g1205
g1203
F0.501
tp1211
assg3
F0.0
sg29
(lp1212
(lp1213
g1205
aa(lp1214
g1203
aasg2
F1.0
ssI81
(dp1215
g1
F-1.0
sg7
(lp1216
(lp1217
S'wider'
p1218
aa(lp1219
S'widest'
p1220
aasg13
(dp1221
g15
g16
(g20
S'\xd5x\xe9&1\x08\xe0?'
p1222
tp1223
Rp1224
sg26
(lp1225
(g1220
g1218
F0.501
tp1226
assg3
F0.0
sg29
(lp1227
(lp1228
g1220
aa(lp1229
g1218
aasg2
F1.0
ssI82
(dp1230
g1
F-1.0
sg7
(lp1231
(lp1232
S'slim'
p1233
aa(lp1234
S'slimmer'
p1235
aasg13
(dp1236
g15
g16
(g20
S'\xd5x\xe9&1\x08\xe0?'
p1237
tp1238
Rp1239
sg26
(lp1240
(g1235
g1233
F0.501
tp1241
assg3
F0.0
sg29
(lp1242
(lp1243
g1235
aa(lp1244
g1233
aasg2
F1.0
ssI83
(dp1245
g1
F-1.0
sg7
(lp1246
(lp1247
S'deeper'
p1248
aa(lp1249
S'deepest'
p1250
aasg13
(dp1251
g15
g16
(g20
S'\xd5x\xe9&1\x08\xe0?'
p1252
tp1253
Rp1254
sg26
(lp1255
(g1250
g1248
F0.501
tp1256
assg3
F0.0
sg29
(lp1257
(lp1258
g1250
aa(lp1259
g1248
aasg2
F1.0
ssI84
(dp1260
g1
F-1.0
sg7
(lp1261
(lp1262
g456
aa(lp1263
g458
aasg13
(dp1264
g15
g16
(g20
S'\xd5x\xe9&1\x08\xe0?'
p1265
tp1266
Rp1267
sg26
(lp1268
(g458
g456
F0.501
tp1269
assg3
F0.0
sg29
(lp1270
(lp1271
g458
aa(lp1272
g456
aasg2
F1.0
ssI85
(dp1273
g1
F-1.0
sg7
(lp1274
(lp1275
S'strict'
p1276
aa(lp1277
g545
aasg13
(dp1278
g15
g16
(g20
S'\xd5x\xe9&1\x08\xe0?'
p1279
tp1280
Rp1281
sg26
(lp1282
(g545
g1276
F0.501
tp1283
assg3
F0.0
sg29
(lp1284
(lp1285
g545
aa(lp1286
g1276
aasg2
F1.0
ssI86
(dp1287
g1
F1.0
sg7
(lp1288
(lp1289
S'sharp'
p1290
aa(lp1291
S'sharper'
p1292
aasg13
(dp1293
g15
g16
(g20
S'\xd5x\xe9&1\x08\xe0?'
p1294
tp1295
Rp1296
sg26
(lp1297
(g1290
g1292
F0.501
tp1298
assg3
F1.0
sg29
(lp1299
(lp1300
g1290
aa(lp1301
g1292
aasg2
F1.0
ssI87
(dp1302
g1
F-1.0
sg7
(lp1303
(lp1304
S'clean'
p1305
aa(lp1306
S'cleanest'
p1307
aasg13
(dp1308
g15
g16
(g20
S'\xd5x\xe9&1\x08\xe0?'
p1309
tp1310
Rp1311
sg26
(lp1312
(g1307
g1305
F0.501
tp1313
assg3
F0.0
sg29
(lp1314
(lp1315
g1307
aa(lp1316
g1305
aasg2
F1.0
ssI88
(dp1317
g1
F-1.0
sg7
(lp1318
(lp1319
S'bright'
p1320
aa(lp1321
S'brightest'
p1322
aasg13
(dp1323
g15
g16
(g20
S'\xd5x\xe9&1\x08\xe0?'
p1324
tp1325
Rp1326
sg26
(lp1327
(g1322
g1320
F0.501
tp1328
assg3
F0.0
sg29
(lp1329
(lp1330
g1322
aa(lp1331
g1320
aasg2
F1.0
ssI89
(dp1332
g1
F-1.0
sg7
(lp1333
(lp1334
S'grave'
p1335
aa(lp1336
g1030
aasg13
(dp1337
g15
g16
(g20
S'\xd5x\xe9&1\x08\xe0?'
p1338
tp1339
Rp1340
sg26
(lp1341
(g1030
g1335
F0.501
tp1342
assg3
F0.0
sg29
(lp1343
(lp1344
g1030
aa(lp1345
g1335
aasg2
F1.0
ssI90
(dp1346
g1
F1.0
sg7
(lp1347
(lp1348
S'dear'
p1349
aa(lp1350
S'dearer'
p1351
aasg13
(dp1352
g15
g16
(g20
S'\xd5x\xe9&1\x08\xe0?'
p1353
tp1354
Rp1355
sg26
(lp1356
(g1349
g1351
F0.501
tp1357
assg3
F1.0
sg29
(lp1358
(lp1359
g1349
aa(lp1360
g1351
aasg2
F1.0
ssI91
(dp1361
g1
F-1.0
sg7
(lp1362
(lp1363
S'weird'
p1364
aa(lp1365
S'weirder'
p1366
aasg13
(dp1367
g15
g16
(g20
S'\xd5x\xe9&1\x08\xe0?'
p1368
tp1369
Rp1370
sg26
(lp1371
(g1366
g1364
F0.501
tp1372
assg3
F0.0
sg29
(lp1373
(lp1374
g1366
aa(lp1375
g1364
aasg2
F1.0
ssI92
(dp1376
g1
F1.0
sg7
(lp1377
(lp1378
g156
aa(lp1379
g158
aasg13
(dp1380
g15
g16
(g20
S'\xd5x\xe9&1\x08\xe0?'
p1381
tp1382
Rp1383
sg26
(lp1384
(g156
g158
F0.501
tp1385
assg3
F1.0
sg29
(lp1386
(lp1387
g156
aa(lp1388
g158
aasg2
F1.0
ssI93
(dp1389
g1
F1.0
sg7
(lp1390
(lp1391
S'quick'
p1392
aa(lp1393
S'quickest'
p1394
aasg13
(dp1395
g15
g16
(g20
S'\xd5x\xe9&1\x08\xe0?'
p1396
tp1397
Rp1398
sg26
(lp1399
(g1392
g1394
F0.501
tp1400
assg3
F1.0
sg29
(lp1401
(lp1402
g1392
aa(lp1403
g1394
aasg2
F1.0
ssI94
(dp1404
g1
F-1.0
sg7
(lp1405
(lp1406
S'fair'
p1407
aa(lp1408
g865
aasg13
(dp1409
g15
g16
(g20
S'\xd5x\xe9&1\x08\xe0?'
p1410
tp1411
Rp1412
sg26
(lp1413
(g865
g1407
F0.501
tp1414
assg3
F0.0
sg29
(lp1415
(lp1416
g865
aa(lp1417
g1407
aasg2
F1.0
ssI95
(dp1418
g1
F-1.0
sg7
(lp1419
(lp1420
S'further'
p1421
aa(lp1422
S'furthest'
p1423
aasg13
(dp1424
g15
g16
(g20
S'\xd5x\xe9&1\x08\xe0?'
p1425
tp1426
Rp1427
sg26
(lp1428
(g1423
g1421
F0.501
tp1429
assg3
F0.0
sg29
(lp1430
(lp1431
g1423
aa(lp1432
g1421
aasg2
F1.0
ssI96
(dp1433
g1
F1.0
sg7
(lp1434
(lp1435
S'deep'
p1436
aa(lp1437
S'deepest'
p1438
aasg13
(dp1439
g15
g16
(g20
S'\xd5x\xe9&1\x08\xe0?'
p1440
tp1441
Rp1442
sg26
(lp1443
(g1436
g1438
F0.501
tp1444
assg3
F1.0
sg29
(lp1445
(lp1446
g1436
aa(lp1447
g1438
aasg2
F1.0
ssI97
(dp1448
g1
F-1.0
sg7
(lp1449
(lp1450
S'smart'
p1451
aa(lp1452
S'smartest'
p1453
aasg13
(dp1454
g15
g16
(g20
S'\xd5x\xe9&1\x08\xe0?'
p1455
tp1456
Rp1457
sg26
(lp1458
(g1453
g1451
F0.501
tp1459
assg3
F0.0
sg29
(lp1460
(lp1461
g1453
aa(lp1462
g1451
aasg2
F1.0
ssI98
(dp1463
g1
F-1.0
sg7
(lp1464
(lp1465
S'fuller'
p1466
aa(lp1467
S'fullest'
p1468
aasg13
(dp1469
g15
g16
(g20
S'\xd5x\xe9&1\x08\xe0?'
p1470
tp1471
Rp1472
sg26
(lp1473
(g1468
g1466
F0.501
tp1474
assg3
F0.0
sg29
(lp1475
(lp1476
g1468
aa(lp1477
g1466
aasg2
F1.0
ssI99
(dp1478
g1
F-1.0
sg7
(lp1479
(lp1480
S'earlier'
p1481
aa(lp1482
g631
aasg13
(dp1483
g15
g16
(g20
S'\xd5x\xe9&1\x08\xe0?'
p1484
tp1485
Rp1486
sg26
(lp1487
(g631
g1481
F0.501
tp1488
assg3
F0.0
sg29
(lp1489
(lp1490
g631
aa(lp1491
g1481
aasg2
F1.0
ssI100
(dp1492
g1
F1.0
sg7
(lp1493
(lp1494
S'large'
p1495
aa(lp1496
S'largest'
p1497
aasg13
(dp1498
g15
g16
(g20
S'\xd5x\xe9&1\x08\xe0?'
p1499
tp1500
Rp1501
sg26
(lp1502
(g1495
g1497
F0.501
tp1503
assg3
F1.0
sg29
(lp1504
(lp1505
g1495
aa(lp1506
g1497
aasg2
F1.0
ssI101
(dp1507
g1
F-1.0
sg7
(lp1508
(lp1509
S'full'
p1510
aa(lp1511
S'fullest'
p1512
aasg13
(dp1513
g15
g16
(g20
S'\xd5x\xe9&1\x08\xe0?'
p1514
tp1515
Rp1516
sg26
(lp1517
(g1512
g1510
F0.501
tp1518
assg3
F0.0
sg29
(lp1519
(lp1520
g1512
aa(lp1521
g1510
aasg2
F1.0
ssI102
(dp1522
g1
F-1.0
sg7
(lp1523
(lp1524
S'stupid'
p1525
aa(lp1526
S'stupider'
p1527
aasg13
(dp1528
g15
g16
(g20
S'\xd5x\xe9&1\x08\xe0?'
p1529
tp1530
Rp1531
sg26
(lp1532
(g1527
g1525
F0.501
tp1533
assg3
F0.0
sg29
(lp1534
(lp1535
g1527
aa(lp1536
g1525
aasg2
F1.0
ssI103
(dp1537
g1
F1.0
sg7
(lp1538
(lp1539
S'wide'
p1540
aa(lp1541
S'widest'
p1542
aasg13
(dp1543
g15
g16
(g20
S'\xd5x\xe9&1\x08\xe0?'
p1544
tp1545
Rp1546
sg26
(lp1547
(g1540
g1542
F0.501
tp1548
assg3
F1.0
sg29
(lp1549
(lp1550
g1540
aa(lp1551
g1542
aasg2
F1.0
ssI104
(dp1552
g1
F-1.0
sg7
(lp1553
(lp1554
S'grim'
p1555
aa(lp1556
S'grimmer'
p1557
aasg13
(dp1558
g15
g16
(g20
S'\xd5x\xe9&1\x08\xe0?'
p1559
tp1560
Rp1561
sg26
(lp1562
(g1557
g1555
F0.501
tp1563
assg3
F0.0
sg29
(lp1564
(lp1565
g1557
aa(lp1566
g1555
aasg2
F1.0
ssI105
(dp1567
g1
F-1.0
sg7
(lp1568
(lp1569
g571
aa(lp1570
S'bravest'
p1571
aasg13
(dp1572
g15
g16
(g20
S'\xd5x\xe9&1\x08\xe0?'
p1573
tp1574
Rp1575
sg26
(lp1576
(g1571
g571
F0.501
tp1577
assg3
F0.0
sg29
(lp1578
(lp1579
g1571
aa(lp1580
g571
aasg2
F1.0
ssI106
(dp1581
g1
F1.0
sg7
(lp1582
(lp1583
S'less'
p1584
aa(lp1585
g12
aasg13
(dp1586
g15
g16
(g20
S'\xd5x\xe9&1\x08\xe0?'
p1587
tp1588
Rp1589
sg26
(lp1590
(g1584
g12
F0.501
tp1591
assg3
F1.0
sg29
(lp1592
(lp1593
g1584
aa(lp1594
g12
aasg2
F1.0
ssI107
(dp1595
g1
F-1.0
sg7
(lp1596
(lp1597
S'lengthy'
p1598
aa(lp1599
S'lengthier'
p1600
aasg13
(dp1601
g15
g16
(g20
S'\xd5x\xe9&1\x08\xe0?'
p1602
tp1603
Rp1604
sg26
(lp1605
(g1600
g1598
F0.501
tp1606
assg3
F0.0
sg29
(lp1607
(lp1608
g1600
aa(lp1609
g1598
aasg2
F1.0
ssI108
(dp1610
g1
F-1.0
sg7
(lp1611
(lp1612
S'wider'
p1613
aa(lp1614
S'widest'
p1615
aasg13
(dp1616
g15
g16
(g20
S'\xd5x\xe9&1\x08\xe0?'
p1617
tp1618
Rp1619
sg26
(lp1620
(g1615
g1613
F0.501
tp1621
assg3
F0.0
sg29
(lp1622
(lp1623
g1615
aa(lp1624
g1613
aasg2
F1.0
ssI109
(dp1625
g1
F-1.0
sg7
(lp1626
(lp1627
g1421
aa(lp1628
g1423
aasg13
(dp1629
g15
g16
(g20
S'\xd5x\xe9&1\x08\xe0?'
p1630
tp1631
Rp1632
sg26
(lp1633
(g1423
g1421
F0.501
tp1634
assg3
F0.0
sg29
(lp1635
(lp1636
g1423
aa(lp1637
g1421
aasg2
F1.0
ssI110
(dp1638
g1
F-1.0
sg7
(lp1639
(lp1640
S'fair'
p1641
aa(lp1642
S'fairer'
p1643
aasg13
(dp1644
g15
g16
(g20
S'\xd5x\xe9&1\x08\xe0?'
p1645
tp1646
Rp1647
sg26
(lp1648
(g1643
g1641
F0.501
tp1649
assg3
F0.0
sg29
(lp1650
(lp1651
g1643
aa(lp1652
g1641
aasg2
F1.0
ssI111
(dp1653
g1
F-1.0
sg7
(lp1654
(lp1655
S'wealthier'
p1656
aa(lp1657
g764
aasg13
(dp1658
g15
g16
(g20
S'\xd5x\xe9&1\x08\xe0?'
p1659
tp1660
Rp1661
sg26
(lp1662
(g764
g1656
F0.501
tp1663
assg3
F0.0
sg29
(lp1664
(lp1665
g764
aa(lp1666
g1656
aasg2
F1.0
ssI112
(dp1667
g1
F-1.0
sg7
(lp1668
(lp1669
S'longer'
p1670
aa(lp1671
S'longest'
p1672
aasg13
(dp1673
g15
g16
(g20
S'\xd5x\xe9&1\x08\xe0?'
p1674
tp1675
Rp1676
sg26
(lp1677
(g1672
g1670
F0.501
tp1678
assg3
F0.0
sg29
(lp1679
(lp1680
g1672
aa(lp1681
g1670
aasg2
F1.0
ssI113
(dp1682
g1
F-1.0
sg7
(lp1683
(lp1684
g1045
aa(lp1685
g1047
aasg13
(dp1686
g15
g16
(g20
S'\xd5x\xe9&1\x08\xe0?'
p1687
tp1688
Rp1689
sg26
(lp1690
(g1047
g1045
F0.501
tp1691
assg3
F0.0
sg29
(lp1692
(lp1693
g1047
aa(lp1694
g1045
aasg2
F1.0
ssI114
(dp1695
g1
F1.0
sg7
(lp1696
(lp1697
S'late'
p1698
aa(lp1699
S'latest'
p1700
aasg13
(dp1701
g15
g16
(g20
S'\xd5x\xe9&1\x08\xe0?'
p1702
tp1703
Rp1704
sg26
(lp1705
(g1698
g1700
F0.501
tp1706
assg3
F1.0
sg29
(lp1707
(lp1708
g1698
aa(lp1709
g1700
aasg2
F1.0
ssI115
(dp1710
g1
F-1.0
sg7
(lp1711
(lp1712
S'bigger'
p1713
aa(lp1714
S'biggest'
p1715
aasg13
(dp1716
g15
g16
(g20
S'\xd5x\xe9&1\x08\xe0?'
p1717
tp1718
Rp1719
sg26
(lp1720
(g1715
g1713
F0.501
tp1721
assg3
F0.0
sg29
(lp1722
(lp1723
g1715
aa(lp1724
g1713
aasg2
F1.0
ssI116
(dp1725
g1
F-1.0
sg7
(lp1726
(lp1727
S'dark'
p1728
aa(lp1729
S'darker'
p1730
aasg13
(dp1731
g15
g16
(g20
S'\xd5x\xe9&1\x08\xe0?'
p1732
tp1733
Rp1734
sg26
(lp1735
(g1730
g1728
F0.501
tp1736
assg3
F0.0
sg29
(lp1737
(lp1738
g1730
aa(lp1739
g1728
aasg2
F1.0
ssI117
(dp1740
g1
F-1.0
sg7
(lp1741
(lp1742
g111
aa(lp1743
g113
aasg13
(dp1744
g15
g16
(g20
S'\xd5x\xe9&1\x08\xe0?'
p1745
tp1746
Rp1747
sg26
(lp1748
(g113
g111
F0.501
tp1749
assg3
F0.0
sg29
(lp1750
(lp1751
g113
aa(lp1752
g111
aasg2
F1.0
ssI118
(dp1753
g1
F-1.0
sg7
(lp1754
(lp1755
S'easier'
p1756
aa(lp1757
S'easiest'
p1758
aasg13
(dp1759
g15
g16
(g20
S'\xd5x\xe9&1\x08\xe0?'
p1760
tp1761
Rp1762
sg26
(lp1763
(g1758
g1756
F0.501
tp1764
assg3
F0.0
sg29
(lp1765
(lp1766
g1758
aa(lp1767
g1756
aasg2
F1.0
ssI119
(dp1768
g1
F-1.0
sg7
(lp1769
(lp1770
S'free'
p1771
aa(lp1772
S'freer'
p1773
aasg13
(dp1774
g15
g16
(g20
S'\xd5x\xe9&1\x08\xe0?'
p1775
tp1776
Rp1777
sg26
(lp1778
(g1773
g1771
F0.501
tp1779
assg3
F0.0
sg29
(lp1780
(lp1781
g1773
aa(lp1782
g1771
aasg2
F1.0
ssI120
(dp1783
g1
F-1.0
sg7
(lp1784
(lp1785
S'clearer'
p1786
aa(lp1787
S'clearest'
p1788
aasg13
(dp1789
g15
g16
(g20
S'\xd5x\xe9&1\x08\xe0?'
p1790
tp1791
Rp1792
sg26
(lp1793
(g1788
g1786
F0.501
tp1794
assg3
F0.0
sg29
(lp1795
(lp1796
g1788
aa(lp1797
g1786
aasg2
F1.0
ssI121
(dp1798
g1
F1.0
sg7
(lp1799
(lp1800
g644
aa(lp1801
g646
aasg13
(dp1802
g15
g16
(g20
S'\xd5x\xe9&1\x08\xe0?'
p1803
tp1804
Rp1805
sg26
(lp1806
(g644
g646
F0.501
tp1807
assg3
F1.0
sg29
(lp1808
(lp1809
g644
aa(lp1810
g646
aasg2
F1.0
ssI122
(dp1811
g1
F-1.0
sg7
(lp1812
(lp1813
S'sad'
p1814
aa(lp1815
S'sadder'
p1816
aasg13
(dp1817
g15
g16
(g20
S'\xd5x\xe9&1\x08\xe0?'
p1818
tp1819
Rp1820
sg26
(lp1821
(g1816
g1814
F0.501
tp1822
assg3
F0.0
sg29
(lp1823
(lp1824
g1816
aa(lp1825
g1814
aasg2
F1.0
ssI123
(dp1826
g1
F1.0
sg7
(lp1827
(lp1828
S'moist'
p1829
aa(lp1830
S'moister'
p1831
aasg13
(dp1832
g15
g16
(g20
S'\xd5x\xe9&1\x08\xe0?'
p1833
tp1834
Rp1835
sg26
(lp1836
(g1829
g1831
F0.501
tp1837
assg3
F1.0
sg29
(lp1838
(lp1839
g1829
aa(lp1840
g1831
aasg2
F1.0
ssI124
(dp1841
g1
F-1.0
sg7
(lp1842
(lp1843
g1814
aa(lp1844
g1816
aasg13
(dp1845
g15
g16
(g20
S'\xd5x\xe9&1\x08\xe0?'
p1846
tp1847
Rp1848
sg26
(lp1849
(g1816
g1814
F0.501
tp1850
assg3
F0.0
sg29
(lp1851
(lp1852
g1816
aa(lp1853
g1814
aasg2
F1.0
ssI125
(dp1854
g1
F1.0
sg7
(lp1855
(lp1856
S'young'
p1857
aa(lp1858
S'youngest'
p1859
aasg13
(dp1860
g15
g16
(g20
S'\xd5x\xe9&1\x08\xe0?'
p1861
tp1862
Rp1863
sg26
(lp1864
(g1857
g1859
F0.501
tp1865
assg3
F1.0
sg29
(lp1866
(lp1867
g1857
aa(lp1868
g1859
aasg2
F1.0
ssI126
(dp1869
g1
F-1.0
sg7
(lp1870
(lp1871
S'lovely'
p1872
aa(lp1873
S'lovelier'
p1874
aasg13
(dp1875
g15
g16
(g20
S'\xd5x\xe9&1\x08\xe0?'
p1876
tp1877
Rp1878
sg26
(lp1879
(g1874
g1872
F0.501
tp1880
assg3
F0.0
sg29
(lp1881
(lp1882
g1874
aa(lp1883
g1872
aasg2
F1.0
ssI127
(dp1884
g1
F1.0
sg7
(lp1885
(lp1886
S'stupide'
p1887
aa(lp1888
S'stupider'
p1889
aasg13
(dp1890
g15
g16
(g20
S'\xd5x\xe9&1\x08\xe0?'
p1891
tp1892
Rp1893
sg26
(lp1894
(g1887
g1889
F0.501
tp1895
assg3
F1.0
sg29
(lp1896
(lp1897
g1887
aa(lp1898
g1889
aasg2
F1.0
ssI128
(dp1899
g1
F1.0
sg7
(lp1900
(lp1901
S'less'
p1902
aa(lp1903
S'least'
p1904
aasg13
(dp1905
g15
g16
(g20
S'\xd5x\xe9&1\x08\xe0?'
p1906
tp1907
Rp1908
sg26
(lp1909
(g1902
g1904
F0.501
tp1910
assg3
F1.0
sg29
(lp1911
(lp1912
g1902
aa(lp1913
g1904
aasg2
F1.0
ssI129
(dp1914
g1
F-1.0
sg7
(lp1915
(lp1916
S'simpler'
p1917
aa(lp1918
S'simplest'
p1919
aasg13
(dp1920
g15
g16
(g20
S'\xd5x\xe9&1\x08\xe0?'
p1921
tp1922
Rp1923
sg26
(lp1924
(g1919
g1917
F0.501
tp1925
assg3
F0.0
sg29
(lp1926
(lp1927
g1919
aa(lp1928
g1917
aasg2
F1.0
ssI130
(dp1929
g1
F1.0
sg7
(lp1930
(lp1931
S'clean'
p1932
aa(lp1933
S'cleaner'
p1934
aasg13
(dp1935
g15
g16
(g20
S'\xd5x\xe9&1\x08\xe0?'
p1936
tp1937
Rp1938
sg26
(lp1939
(g1932
g1934
F0.501
tp1940
assg3
F1.0
sg29
(lp1941
(lp1942
g1932
aa(lp1943
g1934
aasg2
F1.0
ssI131
(dp1944
g1
F-1.0
sg7
(lp1945
(lp1946
S'cute'
p1947
aa(lp1948
S'cuter'
p1949
aasg13
(dp1950
g15
g16
(g20
S'\xd5x\xe9&1\x08\xe0?'
p1951
tp1952
Rp1953
sg26
(lp1954
(g1949
g1947
F0.501
tp1955
assg3
F0.0
sg29
(lp1956
(lp1957
g1949
aa(lp1958
g1947
aasg2
F1.0
ssI132
(dp1959
g1
F-1.0
sg7
(lp1960
(lp1961
S'close'
p1962
aa(lp1963
S'closest'
p1964
aasg13
(dp1965
g15
g16
(g20
S'\xd5x\xe9&1\x08\xe0?'
p1966
tp1967
Rp1968
sg26
(lp1969
(g1964
g1962
F0.501
tp1970
assg3
F0.0
sg29
(lp1971
(lp1972
g1964
aa(lp1973
g1962
aasg2
F1.0
ssI133
(dp1974
g1
F-1.0
sg7
(lp1975
(lp1976
g1305
aa(lp1977
g1307
aasg13
(dp1978
g15
g16
(g20
S'\xd5x\xe9&1\x08\xe0?'
p1979
tp1980
Rp1981
sg26
(lp1982
(g1307
g1305
F0.501
tp1983
assg3
F0.0
sg29
(lp1984
(lp1985
g1307
aa(lp1986
g1305
aasg2
F1.0
ssI134
(dp1987
g1
F-1.0
sg7
(lp1988
(lp1989
g126
aa(lp1990
g128
aasg13
(dp1991
g15
g16
(g20
S'\xd5x\xe9&1\x08\xe0?'
p1992
tp1993
Rp1994
sg26
(lp1995
(g128
g126
F0.501
tp1996
assg3
F0.0
sg29
(lp1997
(lp1998
g128
aa(lp1999
g126
aasg2
F1.0
ssI135
(dp2000
g1
F1.0
sg7
(lp2001
(lp2002
S'east'
p2003
aa(lp2004
S'easiest'
p2005
aasg13
(dp2006
g15
g16
(g20
S'\xd5x\xe9&1\x08\xe0?'
p2007
tp2008
Rp2009
sg26
(lp2010
(g2003
g2005
F0.501
tp2011
assg3
F1.0
sg29
(lp2012
(lp2013
g2003
aa(lp2014
g2005
aasg2
F1.0
ssI136
(dp2015
g1
F-1.0
sg7
(lp2016
(lp2017
g573
aa(lp2018
g1571
aasg13
(dp2019
g15
g16
(g20
S'V\x0e-\xb2\x9d\xef\xdf?'
p2020
tp2021
Rp2022
sg26
(lp2023
(g1571
g573
F0.499
tp2024
assg3
F0.0
sg29
(lp2025
(lp2026
g1571
aa(lp2027
g573
aasg2
F1.0
ssI137
(dp2028
g1
F-1.0
sg7
(lp2029
(lp2030
S'hard'
p2031
aa(lp2032
S'hardest'
p2033
aasg13
(dp2034
g15
g16
(g20
S'\xd5x\xe9&1\x08\xe0?'
p2035
tp2036
Rp2037
sg26
(lp2038
(g2033
g2031
F0.501
tp2039
assg3
F0.0
sg29
(lp2040
(lp2041
g2033
aa(lp2042
g2031
aasg2
F1.0
ssI138
(dp2043
g1
F1.0
sg7
(lp2044
(lp2045
S'finer'
p2046
aa(lp2047
S'finest'
p2048
aasg13
(dp2049
g15
g16
(g20
S'\xd5x\xe9&1\x08\xe0?'
p2050
tp2051
Rp2052
sg26
(lp2053
(g2046
g2048
F0.501
tp2054
assg3
F1.0
sg29
(lp2055
(lp2056
g2046
aa(lp2057
g2048
aasg2
F1.0
ssI139
(dp2058
g1
F1.0
sg7
(lp2059
(lp2060
S'broad'
p2061
aa(lp2062
S'broader'
p2063
aasg13
(dp2064
g15
g16
(g20
S'\xd5x\xe9&1\x08\xe0?'
p2065
tp2066
Rp2067
sg26
(lp2068
(g2061
g2063
F0.501
tp2069
assg3
F1.0
sg29
(lp2070
(lp2071
g2061
aa(lp2072
g2063
aasg2
F1.0
ssI140
(dp2073
g1
F-1.0
sg7
(lp2074
(lp2075
g835
aa(lp2076
g837
aasg13
(dp2077
g15
g16
(g20
S'\xd5x\xe9&1\x08\xe0?'
p2078
tp2079
Rp2080
sg26
(lp2081
(g837
g835
F0.501
tp2082
assg3
F0.0
sg29
(lp2083
(lp2084
g837
aa(lp2085
g835
aasg2
F1.0
ssI141
(dp2086
g1
F-1.0
sg7
(lp2087
(lp2088
S'further'
p2089
aa(lp2090
S'furthest'
p2091
aasg13
(dp2092
g15
g16
(g20
S'\xd5x\xe9&1\x08\xe0?'
p2093
tp2094
Rp2095
sg26
(lp2096
(g2091
g2089
F0.501
tp2097
assg3
F0.0
sg29
(lp2098
(lp2099
g2091
aa(lp2100
g2089
aasg2
F1.0
ssI142
(dp2101
g1
F-1.0
sg7
(lp2102
(lp2103
g1598
aa(lp2104
g1600
aasg13
(dp2105
g15
g16
(g20
S'\xd5x\xe9&1\x08\xe0?'
p2106
tp2107
Rp2108
sg26
(lp2109
(g1600
g1598
F0.501
tp2110
assg3
F0.0
sg29
(lp2111
(lp2112
g1600
aa(lp2113
g1598
aasg2
F1.0
ssI143
(dp2114
g1
F-1.0
sg7
(lp2115
(lp2116
S'longer'
p2117
aa(lp2118
S'longest'
p2119
aasg13
(dp2120
g15
g16
(g20
S'\xd5x\xe9&1\x08\xe0?'
p2121
tp2122
Rp2123
sg26
(lp2124
(g2119
g2117
F0.501
tp2125
assg3
F0.0
sg29
(lp2126
(lp2127
g2119
aa(lp2128
g2117
aasg2
F1.0
ssI144
(dp2129
g1
F-1.0
sg7
(lp2130
(lp2131
g1060
aa(lp2132
g1062
aasg13
(dp2133
g15
g16
(g20
S'\xd5x\xe9&1\x08\xe0?'
p2134
tp2135
Rp2136
sg26
(lp2137
(g1062
g1060
F0.501
tp2138
assg3
F0.0
sg29
(lp2139
(lp2140
g1062
aa(lp2141
g1060
aasg2
F1.0
ssI145
(dp2142
g1
F1.0
sg7
(lp2143
(lp2144
g2003
aa(lp2145
S'easier'
p2146
aasg13
(dp2147
g15
g16
(g20
S'\xd5x\xe9&1\x08\xe0?'
p2148
tp2149
Rp2150
sg26
(lp2151
(g2003
g2146
F0.501
tp2152
assg3
F1.0
sg29
(lp2153
(lp2154
g2003
aa(lp2155
g2146
aasg2
F1.0
ssI146
(dp2156
g1
F-1.0
sg7
(lp2157
(lp2158
S'stark'
p2159
aa(lp2160
S'starker'
p2161
aasg13
(dp2162
g15
g16
(g20
S'\xd5x\xe9&1\x08\xe0?'
p2163
tp2164
Rp2165
sg26
(lp2166
(g2161
g2159
F0.501
tp2167
assg3
F0.0
sg29
(lp2168
(lp2169
g2161
aa(lp2170
g2159
aasg2
F1.0
ssI147
(dp2171
g1
F1.0
sg7
(lp2172
(lp2173
S'ill'
p2174
aa(lp2175
S'worst'
p2176
aasg13
(dp2177
g15
g16
(g20
S'\xd5x\xe9&1\x08\xe0?'
p2178
tp2179
Rp2180
sg26
(lp2181
(g2174
g2176
F0.501
tp2182
assg3
F1.0
sg29
(lp2183
(lp2184
g2174
aa(lp2185
g2176
aasg2
F1.0
ssI148
(dp2186
g1
F-1.0
sg7
(lp2187
(lp2188
S'sunny'
p2189
aa(lp2190
S'sunnier'
p2191
aasg13
(dp2192
g15
g16
(g20
S'\xd5x\xe9&1\x08\xe0?'
p2193
tp2194
Rp2195
sg26
(lp2196
(g2191
g2189
F0.501
tp2197
assg3
F0.0
sg29
(lp2198
(lp2199
g2191
aa(lp2200
g2189
aasg2
F1.0
ssI149
(dp2201
g1
F1.0
sg7
(lp2202
(lp2203
S'dre'
p2204
aa(lp2205
S'drier'
p2206
aasg13
(dp2207
g15
g16
(g20
S'\xd5x\xe9&1\x08\xe0?'
p2208
tp2209
Rp2210
sg26
(lp2211
(g2204
g2206
F0.501
tp2212
assg3
F1.0
sg29
(lp2213
(lp2214
g2204
aa(lp2215
g2206
aasg2
F1.0
ssI150
(dp2216
g1
F-1.0
sg7
(lp2217
(lp2218
S'older'
p2219
aa(lp2220
S'oldest'
p2221
aasg13
(dp2222
g15
g16
(g20
S'\xd5x\xe9&1\x08\xe0?'
p2223
tp2224
Rp2225
sg26
(lp2226
(g2221
g2219
F0.501
tp2227
assg3
F0.0
sg29
(lp2228
(lp2229
g2221
aa(lp2230
g2219
aasg2
F1.0
ssI151
(dp2231
g1
F-1.0
sg7
(lp2232
(lp2233
g471
aa(lp2234
g143
aasg13
(dp2235
g15
g16
(g20
S'\xd5x\xe9&1\x08\xe0?'
p2236
tp2237
Rp2238
sg26
(lp2239
(g143
g471
F0.501
tp2240
assg3
F0.0
sg29
(lp2241
(lp2242
g143
aa(lp2243
g471
aasg2
F1.0
ssI152
(dp2244
g1
F-1.0
sg7
(lp2245
(lp2246
S'fair'
p2247
aa(lp2248
S'fairest'
p2249
aasg13
(dp2250
g15
g16
(g20
S'\xd5x\xe9&1\x08\xe0?'
p2251
tp2252
Rp2253
sg26
(lp2254
(g2249
g2247
F0.501
tp2255
assg3
F0.0
sg29
(lp2256
(lp2257
g2249
aa(lp2258
g2247
aasg2
F1.0
ssI153
(dp2259
g1
F1.0
sg7
(lp2260
(lp2261
g762
aa(lp2262
g1656
aasg13
(dp2263
g15
g16
(g20
S'\xd5x\xe9&1\x08\xe0?'
p2264
tp2265
Rp2266
sg26
(lp2267
(g762
g1656
F0.501
tp2268
assg3
F1.0
sg29
(lp2269
(lp2270
g762
aa(lp2271
g1656
aasg2
F1.0
ssI154
(dp2272
g1
F1.0
sg7
(lp2273
(lp2274
g880
aa(lp2275
g882
aasg13
(dp2276
g15
g16
(g20
S'\xd5x\xe9&1\x08\xe0?'
p2277
tp2278
Rp2279
sg26
(lp2280
(g880
g882
F0.501
tp2281
assg3
F1.0
sg29
(lp2282
(lp2283
g880
aa(lp2284
g882
aasg2
F1.0
ssI155
(dp2285
g1
F-1.0
sg7
(lp2286
(lp2287
g441
aa(lp2288
g443
aasg13
(dp2289
g15
g16
(g20
S'\xd5x\xe9&1\x08\xe0?'
p2290
tp2291
Rp2292
sg26
(lp2293
(g443
g441
F0.501
tp2294
assg3
F0.0
sg29
(lp2295
(lp2296
g443
aa(lp2297
g441
aasg2
F1.0
ssI156
(dp2298
g1
F1.0
sg7
(lp2299
(lp2300
S'hon'
p2301
aa(lp2302
S'honest'
p2303
aasg13
(dp2304
g15
g16
(g20
S'\xd5x\xe9&1\x08\xe0?'
p2305
tp2306
Rp2307
sg26
(lp2308
(g2301
g2303
F0.501
tp2309
assg3
F1.0
sg29
(lp2310
(lp2311
g2301
aa(lp2312
g2303
aasg2
F1.0
ssI157
(dp2313
g1
F-1.0
sg7
(lp2314
(lp2315
S'low'
p2316
aa(lp2317
g719
aasg13
(dp2318
g15
g16
(g20
S'\xd5x\xe9&1\x08\xe0?'
p2319
tp2320
Rp2321
sg26
(lp2322
(g719
g2316
F0.501
tp2323
assg3
F0.0
sg29
(lp2324
(lp2325
g719
aa(lp2326
g2316
aasg2
F1.0
ssI158
(dp2327
g1
F1.0
sg7
(lp2328
(lp2329
S'green'
p2330
aa(lp2331
S'greener'
p2332
aasg13
(dp2333
g15
g16
(g20
S'\xd5x\xe9&1\x08\xe0?'
p2334
tp2335
Rp2336
sg26
(lp2337
(g2330
g2332
F0.501
tp2338
assg3
F1.0
sg29
(lp2339
(lp2340
g2330
aa(lp2341
g2332
aasg2
F1.0
ssI159
(dp2342
g1
F-1.0
sg7
(lp2343
(lp2344
g543
aa(lp2345
g545
aasg13
(dp2346
g15
g16
(g20
S'\xd5x\xe9&1\x08\xe0?'
p2347
tp2348
Rp2349
sg26
(lp2350
(g545
g543
F0.501
tp2351
assg3
F0.0
sg29
(lp2352
(lp2353
g545
aa(lp2354
g543
aasg2
F1.0
ssI160
(dp2355
g1
F1.0
sg7
(lp2356
(lp2357
g629
aa(lp2358
g1481
aasg13
(dp2359
g15
g16
(g20
S'\xd5x\xe9&1\x08\xe0?'
p2360
tp2361
Rp2362
sg26
(lp2363
(g629
g1481
F0.501
tp2364
assg3
F1.0
sg29
(lp2365
(lp2366
g629
aa(lp2367
g1481
aasg2
F1.0
ssI161
(dp2368
g1
F1.0
sg7
(lp2369
(lp2370
S'larger'
p2371
aa(lp2372
S'largest'
p2373
aasg13
(dp2374
g15
g16
(g20
S'\xd5x\xe9&1\x08\xe0?'
p2375
tp2376
Rp2377
sg26
(lp2378
(g2371
g2373
F0.501
tp2379
assg3
F1.0
sg29
(lp2380
(lp2381
g2371
aa(lp2382
g2373
aasg2
F1.0
ssI162
(dp2383
g1
F1.0
sg7
(lp2384
(lp2385
g2301
aa(lp2386
g2303
aasg13
(dp2387
g15
g16
(g20
S'\xd5x\xe9&1\x08\xe0?'
p2388
tp2389
Rp2390
sg26
(lp2391
(g2301
g2303
F0.501
tp2392
assg3
F1.0
sg29
(lp2393
(lp2394
g2301
aa(lp2395
g2303
aasg2
F1.0
ssI163
(dp2396
g1
F1.0
sg7
(lp2397
(lp2398
S'wealthy'
p2399
aa(lp2400
S'wealthier'
p2401
aasg13
(dp2402
g15
g16
(g20
S'\xd5x\xe9&1\x08\xe0?'
p2403
tp2404
Rp2405
sg26
(lp2406
(g2399
g2401
F0.501
tp2407
assg3
F1.0
sg29
(lp2408
(lp2409
g2399
aa(lp2410
g2401
aasg2
F1.0
ssI164
(dp2411
g1
F-1.0
sg7
(lp2412
(lp2413
S'weaker'
p2414
aa(lp2415
S'weakest'
p2416
aasg13
(dp2417
g15
g16
(g20
S'\xd5x\xe9&1\x08\xe0?'
p2418
tp2419
Rp2420
sg26
(lp2421
(g2416
g2414
F0.501
tp2422
assg3
F0.0
sg29
(lp2423
(lp2424
g2416
aa(lp2425
g2414
aasg2
F1.0
ssI165
(dp2426
g1
F1.0
sg7
(lp2427
(lp2428
S'deep'
p2429
aa(lp2430
S'deepest'
p2431
aasg13
(dp2432
g15
g16
(g20
S'\xd5x\xe9&1\x08\xe0?'
p2433
tp2434
Rp2435
sg26
(lp2436
(g2429
g2431
F0.501
tp2437
assg3
F1.0
sg29
(lp2438
(lp2439
g2429
aa(lp2440
g2431
aasg2
F1.0
ssI166
(dp2441
g1
F-1.0
sg7
(lp2442
(lp2443
S'sweet'
p2444
aa(lp2445
S'sweeter'
p2446
aasg13
(dp2447
g15
g16
(g20
S'\xd5x\xe9&1\x08\xe0?'
p2448
tp2449
Rp2450
sg26
(lp2451
(g2446
g2444
F0.501
tp2452
assg3
F0.0
sg29
(lp2453
(lp2454
g2446
aa(lp2455
g2444
aasg2
F1.0
ssI167
(dp2456
g1
F-1.0
sg7
(lp2457
(lp2458
S'stronger'
p2459
aa(lp2460
S'strongest'
p2461
aasg13
(dp2462
g15
g16
(g20
S'\xd5x\xe9&1\x08\xe0?'
p2463
tp2464
Rp2465
sg26
(lp2466
(g2461
g2459
F0.501
tp2467
assg3
F0.0
sg29
(lp2468
(lp2469
g2461
aa(lp2470
g2459
aasg2
F1.0
ssI168
(dp2471
g1
F-1.0
sg7
(lp2472
(lp2473
S'shorter'
p2474
aa(lp2475
S'shortest'
p2476
aasg13
(dp2477
g15
g16
(g20
S'\xd5x\xe9&1\x08\xe0?'
p2478
tp2479
Rp2480
sg26
(lp2481
(g2476
g2474
F0.501
tp2482
assg3
F0.0
sg29
(lp2483
(lp2484
g2476
aa(lp2485
g2474
aasg2
F1.0
ssI169
(dp2486
g1
F1.0
sg7
(lp2487
(lp2488
S'early'
p2489
aa(lp2490
S'earliest'
p2491
aasg13
(dp2492
g15
g16
(g20
S'\xd5x\xe9&1\x08\xe0?'
p2493
tp2494
Rp2495
sg26
(lp2496
(g2489
g2491
F0.501
tp2497
assg3
F1.0
sg29
(lp2498
(lp2499
g2489
aa(lp2500
g2491
aasg2
F1.0
ssI170
(dp2501
g1
F-1.0
sg7
(lp2502
(lp2503
g2063
aa(lp2504
S'broadest'
p2505
aasg13
(dp2506
g15
g16
(g20
S'\xd5x\xe9&1\x08\xe0?'
p2507
tp2508
Rp2509
sg26
(lp2510
(g2505
g2063
F0.501
tp2511
assg3
F0.0
sg29
(lp2512
(lp2513
g2505
aa(lp2514
g2063
aasg2
F1.0
ssI171
(dp2515
g1
F1.0
sg7
(lp2516
(lp2517
S'greater'
p2518
aa(lp2519
S'greatest'
p2520
aasg13
(dp2521
g15
g16
(g20
S'\xd5x\xe9&1\x08\xe0?'
p2522
tp2523
Rp2524
sg26
(lp2525
(g2518
g2520
F0.501
tp2526
assg3
F1.0
sg29
(lp2527
(lp2528
g2518
aa(lp2529
g2520
aasg2
F1.0
ssI172
(dp2530
g1
F1.0
sg7
(lp2531
(lp2532
g2061
aa(lp2533
g2505
aasg13
(dp2534
g15
g16
(g20
S'\xd5x\xe9&1\x08\xe0?'
p2535
tp2536
Rp2537
sg26
(lp2538
(g2061
g2505
F0.501
tp2539
assg3
F1.0
sg29
(lp2540
(lp2541
g2061
aa(lp2542
g2505
aasg2
F1.0
ssI173
(dp2543
g1
F-1.0
sg7
(lp2544
(lp2545
g1872
aa(lp2546
g1874
aasg13
(dp2547
g15
g16
(g20
S'\xd5x\xe9&1\x08\xe0?'
p2548
tp2549
Rp2550
sg26
(lp2551
(g1874
g1872
F0.501
tp2552
assg3
F0.0
sg29
(lp2553
(lp2554
g1874
aa(lp2555
g1872
aasg2
F1.0
ssI174
(dp2556
g1
F1.0
sg7
(lp2557
(lp2558
S'short'
p2559
aa(lp2560
g233
aasg13
(dp2561
g15
g16
(g20
S'\xd5x\xe9&1\x08\xe0?'
p2562
tp2563
Rp2564
sg26
(lp2565
(g2559
g233
F0.501
tp2566
assg3
F1.0
sg29
(lp2567
(lp2568
g2559
aa(lp2569
g233
aasg2
F1.0
ssI175
(dp2570
g1
F-1.0
sg7
(lp2571
(lp2572
S'full'
p2573
aa(lp2574
g820
aasg13
(dp2575
g15
g16
(g20
S'\xd5x\xe9&1\x08\xe0?'
p2576
tp2577
Rp2578
sg26
(lp2579
(g820
g2573
F0.501
tp2580
assg3
F0.0
sg29
(lp2581
(lp2582
g820
aa(lp2583
g2573
aasg2
F1.0
ssI176
(dp2584
g1
F-1.0
sg7
(lp2585
(lp2586
S'rare'
p2587
aa(lp2588
g338
aasg13
(dp2589
g15
g16
(g20
S'\xd5x\xe9&1\x08\xe0?'
p2590
tp2591
Rp2592
sg26
(lp2593
(g338
g2587
F0.501
tp2594
assg3
F0.0
sg29
(lp2595
(lp2596
g338
aa(lp2597
g2587
aasg2
F1.0
ssI177
(dp2598
g1
F-1.0
sg7
(lp2599
(lp2600
S'noble'
p2601
aa(lp2602
S'nobler'
p2603
aasg13
(dp2604
g15
g16
(g20
S'\xd5x\xe9&1\x08\xe0?'
p2605
tp2606
Rp2607
sg26
(lp2608
(g2603
g2601
F0.501
tp2609
assg3
F0.0
sg29
(lp2610
(lp2611
g2603
aa(lp2612
g2601
aasg2
F1.0
ssI178
(dp2613
g1
F-1.0
sg7
(lp2614
(lp2615
S'dumb'
p2616
aa(lp2617
S'dumber'
p2618
aasg13
(dp2619
g15
g16
(g20
S'\xd5x\xe9&1\x08\xe0?'
p2620
tp2621
Rp2622
sg26
(lp2623
(g2618
g2616
F0.501
tp2624
assg3
F0.0
sg29
(lp2625
(lp2626
g2618
aa(lp2627
g2616
aasg2
F1.0
ssI179
(dp2628
g1
F-1.0
sg7
(lp2629
(lp2630
S'low'
p2631
aa(lp2632
S'lowest'
p2633
aasg13
(dp2634
g15
g16
(g20
S'\xd5x\xe9&1\x08\xe0?'
p2635
tp2636
Rp2637
sg26
(lp2638
(g2633
g2631
F0.501
tp2639
assg3
F0.0
sg29
(lp2640
(lp2641
g2633
aa(lp2642
g2631
aasg2
F1.0
ssI180
(dp2643
g1
F-1.0
sg7
(lp2644
(lp2645
S'poorer'
p2646
aa(lp2647
S'poorest'
p2648
aasg13
(dp2649
g15
g16
(g20
S'\xd5x\xe9&1\x08\xe0?'
p2650
tp2651
Rp2652
sg26
(lp2653
(g2648
g2646
F0.501
tp2654
assg3
F0.0
sg29
(lp2655
(lp2656
g2648
aa(lp2657
g2646
aasg2
F1.0
ssI181
(dp2658
g1
F1.0
sg7
(lp2659
(lp2660
g2518
aa(lp2661
g2520
aasg13
(dp2662
g15
g16
(g20
S'\xd5x\xe9&1\x08\xe0?'
p2663
tp2664
Rp2665
sg26
(lp2666
(g2518
g2520
F0.501
tp2667
assg3
F1.0
sg29
(lp2668
(lp2669
g2518
aa(lp2670
g2520
aasg2
F1.0
ssI182
(dp2671
g1
F1.0
sg7
(lp2672
(lp2673
S'early'
p2674
aa(lp2675
S'earlier'
p2676
aasg13
(dp2677
g15
g16
(g20
S'\xd5x\xe9&1\x08\xe0?'
p2678
tp2679
Rp2680
sg26
(lp2681
(g2674
g2676
F0.501
tp2682
assg3
F1.0
sg29
(lp2683
(lp2684
g2674
aa(lp2685
g2676
aasg2
F1.0
ssI183
(dp2686
g1
F1.0
sg7
(lp2687
(lp2688
g2674
aa(lp2689
g2676
aasg13
(dp2690
g15
g16
(g20
S'\xd5x\xe9&1\x08\xe0?'
p2691
tp2692
Rp2693
sg26
(lp2694
(g2674
g2676
F0.501
tp2695
assg3
F1.0
sg29
(lp2696
(lp2697
g2674
aa(lp2698
g2676
aasg2
F1.0
ssI184
(dp2699
g1
F1.0
sg7
(lp2700
(lp2701
S'poor'
p2702
aa(lp2703
S'poorest'
p2704
aasg13
(dp2705
g15
g16
(g20
S'\xd5x\xe9&1\x08\xe0?'
p2706
tp2707
Rp2708
sg26
(lp2709
(g2702
g2704
F0.501
tp2710
assg3
F1.0
sg29
(lp2711
(lp2712
g2702
aa(lp2713
g2704
aasg2
F1.0
ssI185
(dp2714
g1
F1.0
sg7
(lp2715
(lp2716
S'fine'
p2717
aa(lp2718
S'finest'
p2719
aasg13
(dp2720
g15
g16
(g20
S'\xd5x\xe9&1\x08\xe0?'
p2721
tp2722
Rp2723
sg26
(lp2724
(g2717
g2719
F0.501
tp2725
assg3
F1.0
sg29
(lp2726
(lp2727
g2717
aa(lp2728
g2719
aasg2
F1.0
ssI186
(dp2729
g1
F1.0
sg7
(lp2730
(lp2731
S'larger'
p2732
aa(lp2733
g502
aasg13
(dp2734
g15
g16
(g20
S'\xd5x\xe9&1\x08\xe0?'
p2735
tp2736
Rp2737
sg26
(lp2738
(g2732
g502
F0.501
tp2739
assg3
F1.0
sg29
(lp2740
(lp2741
g2732
aa(lp2742
g502
aasg2
F1.0
ssI187
(dp2743
g1
F-1.0
sg7
(lp2744
(lp2745
g2646
aa(lp2746
g2648
aasg13
(dp2747
g15
g16
(g20
S'\xd5x\xe9&1\x08\xe0?'
p2748
tp2749
Rp2750
sg26
(lp2751
(g2648
g2646
F0.501
tp2752
assg3
F0.0
sg29
(lp2753
(lp2754
g2648
aa(lp2755
g2646
aasg2
F1.0
ssI188
(dp2756
g1
F1.0
sg7
(lp2757
(lp2758
S'richer'
p2759
aa(lp2760
S'richest'
p2761
aasg13
(dp2762
g15
g16
(g20
S'\xd5x\xe9&1\x08\xe0?'
p2763
tp2764
Rp2765
sg26
(lp2766
(g2759
g2761
F0.501
tp2767
assg3
F1.0
sg29
(lp2768
(lp2769
g2759
aa(lp2770
g2761
aasg2
F1.0
ssI189
(dp2771
g1
F-1.0
sg7
(lp2772
(lp2773
g351
aa(lp2774
g353
aasg13
(dp2775
g15
g16
(g20
S'\xd5x\xe9&1\x08\xe0?'
p2776
tp2777
Rp2778
sg26
(lp2779
(g353
g351
F0.501
tp2780
assg3
F0.0
sg29
(lp2781
(lp2782
g353
aa(lp2783
g351
aasg2
F1.0
ssI190
(dp2784
g1
F1.0
sg7
(lp2785
(lp2786
S'east'
p2787
aa(lp2788
S'easier'
p2789
aasg13
(dp2790
g15
g16
(g20
S'\xd5x\xe9&1\x08\xe0?'
p2791
tp2792
Rp2793
sg26
(lp2794
(g2787
g2789
F0.501
tp2795
assg3
F1.0
sg29
(lp2796
(lp2797
g2787
aa(lp2798
g2789
aasg2
F1.0
ssI191
(dp2799
g1
F-1.0
sg7
(lp2800
(lp2801
g2159
aa(lp2802
g2161
aasg13
(dp2803
g15
g16
(g20
S'\xd5x\xe9&1\x08\xe0?'
p2804
tp2805
Rp2806
sg26
(lp2807
(g2161
g2159
F0.501
tp2808
assg3
F0.0
sg29
(lp2809
(lp2810
g2161
aa(lp2811
g2159
aasg2
F1.0
ssI192
(dp2812
g1
F1.0
sg7
(lp2813
(lp2814
S'funny'
p2815
aa(lp2816
S'funnier'
p2817
aasg13
(dp2818
g15
g16
(g20
S'\xd5x\xe9&1\x08\xe0?'
p2819
tp2820
Rp2821
sg26
(lp2822
(g2815
g2817
F0.501
tp2823
assg3
F1.0
sg29
(lp2824
(lp2825
g2815
aa(lp2826
g2817
aasg2
F1.0
ssI193
(dp2827
g1
F1.0
sg7
(lp2828
(lp2829
g186
aa(lp2830
g188
aasg13
(dp2831
g15
g16
(g20
S'\xd5x\xe9&1\x08\xe0?'
p2832
tp2833
Rp2834
sg26
(lp2835
(g186
g188
F0.501
tp2836
assg3
F1.0
sg29
(lp2837
(lp2838
g186
aa(lp2839
g188
aasg2
F1.0
ssI194
(dp2840
g1
F1.0
sg7
(lp2841
(lp2842
g2046
aa(lp2843
g2048
aasg13
(dp2844
g15
g16
(g20
S'\xd5x\xe9&1\x08\xe0?'
p2845
tp2846
Rp2847
sg26
(lp2848
(g2046
g2048
F0.501
tp2849
assg3
F1.0
sg29
(lp2850
(lp2851
g2046
aa(lp2852
g2048
aasg2
F1.0
ssI195
(dp2853
g1
F-1.0
sg7
(lp2854
(lp2855
S'cheaper'
p2856
aa(lp2857
S'cheapest'
p2858
aasg13
(dp2859
g15
g16
(g20
S'\xd5x\xe9&1\x08\xe0?'
p2860
tp2861
Rp2862
sg26
(lp2863
(g2858
g2856
F0.501
tp2864
assg3
F0.0
sg29
(lp2865
(lp2866
g2858
aa(lp2867
g2856
aasg2
F1.0
ssI196
(dp2868
g1
F-1.0
sg7
(lp2869
(lp2870
g2031
aa(lp2871
g2033
aasg13
(dp2872
g15
g16
(g20
S'\xd5x\xe9&1\x08\xe0?'
p2873
tp2874
Rp2875
sg26
(lp2876
(g2033
g2031
F0.501
tp2877
assg3
F0.0
sg29
(lp2878
(lp2879
g2033
aa(lp2880
g2031
aasg2
F1.0
ssI197
(dp2881
g1
F-1.0
sg7
(lp2882
(lp2883
S'braver'
p2884
aa(lp2885
S'bravest'
p2886
aasg13
(dp2887
g15
g16
(g20
S'V\x0e-\xb2\x9d\xef\xdf?'
p2888
tp2889
Rp2890
sg26
(lp2891
(g2886
g2884
F0.499
tp2892
assg3
F0.0
sg29
(lp2893
(lp2894
g2886
aa(lp2895
g2884
aasg2
F1.0
ssI198
(dp2896
g1
F1.0
sg7
(lp2897
(lp2898
g1075
aa(lp2899
g1077
aasg13
(dp2900
g15
g16
(g20
S'\xd5x\xe9&1\x08\xe0?'
p2901
tp2902
Rp2903
sg26
(lp2904
(g1075
g1077
F0.501
tp2905
assg3
F1.0
sg29
(lp2906
(lp2907
g1075
aa(lp2908
g1077
aasg2
F1.0
ssI199
(dp2909
g1
F1.0
sg7
(lp2910
(lp2911
g2003
aa(lp2912
g2146
aasg13
(dp2913
g15
g16
(g20
S'\xd5x\xe9&1\x08\xe0?'
p2914
tp2915
Rp2916
sg26
(lp2917
(g2003
g2146
F0.501
tp2918
assg3
F1.0
sg29
(lp2919
(lp2920
g2003
aa(lp2921
g2146
aasg2
F1.0
ssI200
(dp2922
g1
F1.0
sg7
(lp2923
(lp2924
S'short'
p2925
aa(lp2926
S'shortest'
p2927
aasg13
(dp2928
g15
g16
(g20
S'\xd5x\xe9&1\x08\xe0?'
p2929
tp2930
Rp2931
sg26
(lp2932
(g2925
g2927
F0.501
tp2933
assg3
F1.0
sg29
(lp2934
(lp2935
g2925
aa(lp2936
g2927
aasg2
F1.0
ssI201
(dp2937
g1
F-1.0
sg7
(lp2938
(lp2939
g927
aa(lp2940
S'newest'
p2941
aasg13
(dp2942
g15
g16
(g20
S'\xd5x\xe9&1\x08\xe0?'
p2943
tp2944
Rp2945
sg26
(lp2946
(g2941
g927
F0.501
tp2947
assg3
F0.0
sg29
(lp2948
(lp2949
g2941
aa(lp2950
g927
aasg2
F1.0
ssI202
(dp2951
g1
F-1.0
sg7
(lp2952
(lp2953
g2474
aa(lp2954
g2476
aasg13
(dp2955
g15
g16
(g20
S'\xd5x\xe9&1\x08\xe0?'
p2956
tp2957
Rp2958
sg26
(lp2959
(g2476
g2474
F0.501
tp2960
assg3
F0.0
sg29
(lp2961
(lp2962
g2476
aa(lp2963
g2474
aasg2
F1.0
ssI203
(dp2964
g1
F1.0
sg7
(lp2965
(lp2966
S'clean'
p2967
aa(lp2968
S'cleaner'
p2969
aasg13
(dp2970
g15
g16
(g20
S'\xd5x\xe9&1\x08\xe0?'
p2971
tp2972
Rp2973
sg26
(lp2974
(g2967
g2969
F0.501
tp2975
assg3
F1.0
sg29
(lp2976
(lp2977
g2967
aa(lp2978
g2969
aasg2
F1.0
ssI204
(dp2979
g1
F1.0
sg7
(lp2980
(lp2981
g2429
aa(lp2982
g2431
aasg13
(dp2983
g15
g16
(g20
S'\xd5x\xe9&1\x08\xe0?'
p2984
tp2985
Rp2986
sg26
(lp2987
(g2429
g2431
F0.501
tp2988
assg3
F1.0
sg29
(lp2989
(lp2990
g2429
aa(lp2991
g2431
aasg2
F1.0
ssI205
(dp2992
g1
F-1.0
sg7
(lp2993
(lp2994
S'brighter'
p2995
aa(lp2996
g1322
aasg13
(dp2997
g15
g16
(g20
S'\xd5x\xe9&1\x08\xe0?'
p2998
tp2999
Rp3000
sg26
(lp3001
(g1322
g2995
F0.501
tp3002
assg3
F0.0
sg29
(lp3003
(lp3004
g1322
aa(lp3005
g2995
aasg2
F1.0
ssI206
(dp3006
g1
F-1.0
sg7
(lp3007
(lp3008
S'faster'
p3009
aa(lp3010
S'fastest'
p3011
aasg13
(dp3012
g15
g16
(g20
S'\xd5x\xe9&1\x08\xe0?'
p3013
tp3014
Rp3015
sg26
(lp3016
(g3011
g3009
F0.501
tp3017
assg3
F0.0
sg29
(lp3018
(lp3019
g3011
aa(lp3020
g3009
aasg2
F1.0
ssI207
(dp3021
g1
F-1.0
sg7
(lp3022
(lp3023
g573
aa(lp3024
g1571
aasg13
(dp3025
g15
g16
(g20
S'V\x0e-\xb2\x9d\xef\xdf?'
p3026
tp3027
Rp3028
sg26
(lp3029
(g1571
g573
F0.499
tp3030
assg3
F0.0
sg29
(lp3031
(lp3032
g1571
aa(lp3033
g573
aasg2
F1.0
ssI208
(dp3034
g1
F-1.0
sg7
(lp3035
(lp3036
S'smart'
p3037
aa(lp3038
S'smartest'
p3039
aasg13
(dp3040
g15
g16
(g20
S'\xd5x\xe9&1\x08\xe0?'
p3041
tp3042
Rp3043
sg26
(lp3044
(g3039
g3037
F0.501
tp3045
assg3
F0.0
sg29
(lp3046
(lp3047
g3039
aa(lp3048
g3037
aasg2
F1.0
ssI209
(dp3049
g1
F-1.0
sg7
(lp3050
(lp3051
S'smarter'
p3052
aa(lp3053
g1453
aasg13
(dp3054
g15
g16
(g20
S'\xd5x\xe9&1\x08\xe0?'
p3055
tp3056
Rp3057
sg26
(lp3058
(g1453
g3052
F0.501
tp3059
assg3
F0.0
sg29
(lp3060
(lp3061
g1453
aa(lp3062
g3052
aasg2
F1.0
ssI210
(dp3063
g1
F1.0
sg7
(lp3064
(lp3065
S'dry'
p3066
aa(lp3067
S'drier'
p3068
aasg13
(dp3069
g15
g16
(g20
S'V\x0e-\xb2\x9d\xef\xdf?'
p3070
tp3071
Rp3072
sg26
(lp3073
(g3066
g3068
F0.499
tp3074
assg3
F1.0
sg29
(lp3075
(lp3076
g3066
aa(lp3077
g3068
aasg2
F1.0
ssI211
(dp3078
g1
F1.0
sg7
(lp3079
(lp3080
g278
aa(lp3081
S'latest'
p3082
aasg13
(dp3083
g15
g16
(g20
S'\xd5x\xe9&1\x08\xe0?'
p3084
tp3085
Rp3086
sg26
(lp3087
(g278
g3082
F0.501
tp3088
assg3
F1.0
sg29
(lp3089
(lp3090
g278
aa(lp3091
g3082
aasg2
F1.0
ssI212
(dp3092
g1
F1.0
sg7
(lp3093
(lp3094
S'mighty'
p3095
aa(lp3096
S'mightier'
p3097
aasg13
(dp3098
g15
g16
(g20
S'\xd5x\xe9&1\x08\xe0?'
p3099
tp3100
Rp3101
sg26
(lp3102
(g3095
g3097
F0.501
tp3103
assg3
F1.0
sg29
(lp3104
(lp3105
g3095
aa(lp3106
g3097
aasg2
F1.0
ssI213
(dp3107
g1
F-1.0
sg7
(lp3108
(lp3109
S'cheap'
p3110
aa(lp3111
S'cheapest'
p3112
aasg13
(dp3113
g15
g16
(g20
S'\xd5x\xe9&1\x08\xe0?'
p3114
tp3115
Rp3116
sg26
(lp3117
(g3112
g3110
F0.501
tp3118
assg3
F0.0
sg29
(lp3119
(lp3120
g3112
aa(lp3121
g3110
aasg2
F1.0
ssI214
(dp3122
g1
F1.0
sg7
(lp3123
(lp3124
S'wide'
p3125
aa(lp3126
g1615
aasg13
(dp3127
g15
g16
(g20
S'\xd5x\xe9&1\x08\xe0?'
p3128
tp3129
Rp3130
sg26
(lp3131
(g3125
g1615
F0.501
tp3132
assg3
F1.0
sg29
(lp3133
(lp3134
g3125
aa(lp3135
g1615
aasg2
F1.0
ssI215
(dp3136
g1
F-1.0
sg7
(lp3137
(lp3138
S'cheap'
p3139
aa(lp3140
g2858
aasg13
(dp3141
g15
g16
(g20
S'\xd5x\xe9&1\x08\xe0?'
p3142
tp3143
Rp3144
sg26
(lp3145
(g2858
g3139
F0.501
tp3146
assg3
F0.0
sg29
(lp3147
(lp3148
g2858
aa(lp3149
g3139
aasg2
F1.0
ssI216
(dp3150
g1
F-1.0
sg7
(lp3151
(lp3152
g2616
aa(lp3153
g2618
aasg13
(dp3154
g15
g16
(g20
S'\xd5x\xe9&1\x08\xe0?'
p3155
tp3156
Rp3157
sg26
(lp3158
(g2618
g2616
F0.501
tp3159
assg3
F0.0
sg29
(lp3160
(lp3161
g2618
aa(lp3162
g2616
aasg2
F1.0
ssI217
(dp3163
g1
F1.0
sg7
(lp3164
(lp3165
S'rich'
p3166
aa(lp3167
g487
aasg13
(dp3168
g15
g16
(g20
S'\xd5x\xe9&1\x08\xe0?'
p3169
tp3170
Rp3171
sg26
(lp3172
(g3166
g487
F0.501
tp3173
assg3
F1.0
sg29
(lp3174
(lp3175
g3166
aa(lp3176
g487
aasg2
F1.0
ssI218
(dp3177
g1
F-1.0
sg7
(lp3178
(lp3179
S'deeper'
p3180
aa(lp3181
g2431
aasg13
(dp3182
g15
g16
(g20
S'\xd5x\xe9&1\x08\xe0?'
p3183
tp3184
Rp3185
sg26
(lp3186
(g2431
g3180
F0.501
tp3187
assg3
F0.0
sg29
(lp3188
(lp3189
g2431
aa(lp3190
g3180
aasg2
F1.0
ssI219
(dp3191
g1
F-1.0
sg7
(lp3192
(lp3193
S'old'
p3194
aa(lp3195
S'oldest'
p3196
aasg13
(dp3197
g15
g16
(g20
S'\xd5x\xe9&1\x08\xe0?'
p3198
tp3199
Rp3200
sg26
(lp3201
(g3196
g3194
F0.501
tp3202
assg3
F0.0
sg29
(lp3203
(lp3204
g3196
aa(lp3205
g3194
aasg2
F1.0
ssI220
(dp3206
g1
F-1.0
sg7
(lp3207
(lp3208
g96
aa(lp3209
g98
aasg13
(dp3210
g15
g16
(g20
S'\xd5x\xe9&1\x08\xe0?'
p3211
tp3212
Rp3213
sg26
(lp3214
(g98
g96
F0.501
tp3215
assg3
F0.0
sg29
(lp3216
(lp3217
g98
aa(lp3218
g96
aasg2
F1.0
ssI221
(dp3219
g1
F-1.0
sg7
(lp3220
(lp3221
S'clear'
p3222
aa(lp3223
S'clearest'
p3224
aasg13
(dp3225
g15
g16
(g20
S'\xd5x\xe9&1\x08\xe0?'
p3226
tp3227
Rp3228
sg26
(lp3229
(g3224
g3222
F0.501
tp3230
assg3
F0.0
sg29
(lp3231
(lp3232
g3224
aa(lp3233
g3222
aasg2
F1.0
ssI222
(dp3234
g1
F-1.0
sg7
(lp3235
(lp3236
g717
aa(lp3237
g719
aasg13
(dp3238
g15
g16
(g20
S'\xd5x\xe9&1\x08\xe0?'
p3239
tp3240
Rp3241
sg26
(lp3242
(g719
g717
F0.501
tp3243
assg3
F0.0
sg29
(lp3244
(lp3245
g719
aa(lp3246
g717
aasg2
F1.0
ssI223
(dp3247
g1
F-1.0
sg7
(lp3248
(lp3249
g1773
aa(lp3250
S'freest'
p3251
aasg13
(dp3252
g15
g16
(g20
S'\xd5x\xe9&1\x08\xe0?'
p3253
tp3254
Rp3255
sg26
(lp3256
(g3251
g1773
F0.501
tp3257
assg3
F0.0
sg29
(lp3258
(lp3259
g3251
aa(lp3260
g1773
aasg2
F1.0
ssI224
(dp3261
g1
F1.0
sg7
(lp3262
(lp3263
g1290
aa(lp3264
g1292
aasg13
(dp3265
g15
g16
(g20
S'\xd5x\xe9&1\x08\xe0?'
p3266
tp3267
Rp3268
sg26
(lp3269
(g1290
g1292
F0.501
tp3270
assg3
F1.0
sg29
(lp3271
(lp3272
g1290
aa(lp3273
g1292
aasg2
F1.0
ssI225
(dp3274
g1
F-1.0
sg7
(lp3275
(lp3276
g1555
aa(lp3277
g1557
aasg13
(dp3278
g15
g16
(g20
S'\xd5x\xe9&1\x08\xe0?'
p3279
tp3280
Rp3281
sg26
(lp3282
(g1557
g1555
F0.501
tp3283
assg3
F0.0
sg29
(lp3284
(lp3285
g1557
aa(lp3286
g1555
aasg2
F1.0
ssI226
(dp3287
g1
F-1.0
sg7
(lp3288
(lp3289
g1934
aa(lp3290
S'cleanest'
p3291
aasg13
(dp3292
g15
g16
(g20
S'\xd5x\xe9&1\x08\xe0?'
p3293
tp3294
Rp3295
sg26
(lp3296
(g3291
g1934
F0.501
tp3297
assg3
F0.0
sg29
(lp3298
(lp3299
g3291
aa(lp3300
g1934
aasg2
F1.0
ssI227
(dp3301
g1
F-1.0
sg7
(lp3302
(lp3303
g614
aa(lp3304
g616
aasg13
(dp3305
g15
g16
(g20
S'\xd5x\xe9&1\x08\xe0?'
p3306
tp3307
Rp3308
sg26
(lp3309
(g616
g614
F0.501
tp3310
assg3
F0.0
sg29
(lp3311
(lp3312
g616
aa(lp3313
g614
aasg2
F1.0
ssI228
(dp3314
g1
F1.0
sg7
(lp3315
(lp3316
g2204
aa(lp3317
g2206
aasg13
(dp3318
g15
g16
(g20
S'\xd5x\xe9&1\x08\xe0?'
p3319
tp3320
Rp3321
sg26
(lp3322
(g2204
g2206
F0.501
tp3323
assg3
F1.0
sg29
(lp3324
(lp3325
g2204
aa(lp3326
g2206
aasg2
F1.0
ssI229
(dp3327
g1
F-1.0
sg7
(lp3328
(lp3329
g910
aa(lp3330
g912
aasg13
(dp3331
g15
g16
(g20
S'\xd5x\xe9&1\x08\xe0?'
p3332
tp3333
Rp3334
sg26
(lp3335
(g912
g910
F0.501
tp3336
assg3
F0.0
sg29
(lp3337
(lp3338
g912
aa(lp3339
g910
aasg2
F1.0
ssI230
(dp3340
g1
F1.0
sg7
(lp3341
(lp3342
g36
aa(lp3343
g38
aasg13
(dp3344
g15
g16
(g20
S'\xd5x\xe9&1\x08\xe0?'
p3345
tp3346
Rp3347
sg26
(lp3348
(g36
g38
F0.501
tp3349
assg3
F1.0
sg29
(lp3350
(lp3351
g36
aa(lp3352
g38
aasg2
F1.0
ssI231
(dp3353
g1
F-1.0
sg7
(lp3354
(lp3355
S'free'
p3356
aa(lp3357
S'freer'
p3358
aasg13
(dp3359
g15
g16
(g20
S'\xd5x\xe9&1\x08\xe0?'
p3360
tp3361
Rp3362
sg26
(lp3363
(g3358
g3356
F0.501
tp3364
assg3
F0.0
sg29
(lp3365
(lp3366
g3358
aa(lp3367
g3356
aasg2
F1.0
ssI232
(dp3368
g1
F-1.0
sg7
(lp3369
(lp3370
S'tight'
p3371
aa(lp3372
S'tighter'
p3373
aasg13
(dp3374
g15
g16
(g20
S'\xd5x\xe9&1\x08\xe0?'
p3375
tp3376
Rp3377
sg26
(lp3378
(g3373
g3371
F0.501
tp3379
assg3
F0.0
sg29
(lp3380
(lp3381
g3373
aa(lp3382
g3371
aasg2
F1.0
ssI233
(dp3383
g1
F1.0
sg7
(lp3384
(lp3385
S'small'
p3386
aa(lp3387
S'smallest'
p3388
aasg13
(dp3389
g15
g16
(g20
S'\xd5x\xe9&1\x08\xe0?'
p3390
tp3391
Rp3392
sg26
(lp3393
(g3386
g3388
F0.501
tp3394
assg3
F1.0
sg29
(lp3395
(lp3396
g3386
aa(lp3397
g3388
aasg2
F1.0
ssI234
(dp3398
g1
F-1.0
sg7
(lp3399
(lp3400
S'older'
p3401
aa(lp3402
g3196
aasg13
(dp3403
g15
g16
(g20
S'\xd5x\xe9&1\x08\xe0?'
p3404
tp3405
Rp3406
sg26
(lp3407
(g3196
g3401
F0.501
tp3408
assg3
F0.0
sg29
(lp3409
(lp3410
g3196
aa(lp3411
g3401
aasg2
F1.0
ssI235
(dp3412
g1
F-1.0
sg7
(lp3413
(lp3414
g1773
aa(lp3415
g3251
aasg13
(dp3416
g15
g16
(g20
S'\xd5x\xe9&1\x08\xe0?'
p3417
tp3418
Rp3419
sg26
(lp3420
(g3251
g1773
F0.501
tp3421
assg3
F0.0
sg29
(lp3422
(lp3423
g3251
aa(lp3424
g1773
aasg2
F1.0
ssI236
(dp3425
g1
F-1.0
sg7
(lp3426
(lp3427
g2884
aa(lp3428
g2886
aasg13
(dp3429
g15
g16
(g20
S'V\x0e-\xb2\x9d\xef\xdf?'
p3430
tp3431
Rp3432
sg26
(lp3433
(g2886
g2884
F0.499
tp3434
assg3
F0.0
sg29
(lp3435
(lp3436
g2886
aa(lp3437
g2884
aasg2
F1.0
ssI237
(dp3438
g1
F1.0
sg7
(lp3439
(lp3440
S'ill'
p3441
aa(lp3442
S'worse'
p3443
aasg13
(dp3444
g15
g16
(g20
S'\xd5x\xe9&1\x08\xe0?'
p3445
tp3446
Rp3447
sg26
(lp3448
(g3441
g3443
F0.501
tp3449
assg3
F1.0
sg29
(lp3450
(lp3451
g3441
aa(lp3452
g3443
aasg2
F1.0
ssI238
(dp3453
g1
F-1.0
sg7
(lp3454
(lp3455
S'heavy'
p3456
aa(lp3457
S'heaviest'
p3458
aasg13
(dp3459
g15
g16
(g20
S'\xd5x\xe9&1\x08\xe0?'
p3460
tp3461
Rp3462
sg26
(lp3463
(g3458
g3456
F0.501
tp3464
assg3
F0.0
sg29
(lp3465
(lp3466
g3458
aa(lp3467
g3456
aasg2
F1.0
ssI239
(dp3468
g1
F-1.0
sg7
(lp3469
(lp3470
S'friendly'
p3471
aa(lp3472
S'friendlier'
p3473
aasg13
(dp3474
g15
g16
(g20
S'\xd5x\xe9&1\x08\xe0?'
p3475
tp3476
Rp3477
sg26
(lp3478
(g3473
g3471
F0.501
tp3479
assg3
F0.0
sg29
(lp3480
(lp3481
g3473
aa(lp3482
g3471
aasg2
F1.0
ssI240
(dp3483
g1
F-1.0
sg7
(lp3484
(lp3485
S'heavy'
p3486
aa(lp3487
g601
aasg13
(dp3488
g15
g16
(g20
S'\xd5x\xe9&1\x08\xe0?'
p3489
tp3490
Rp3491
sg26
(lp3492
(g601
g3486
F0.501
tp3493
assg3
F0.0
sg29
(lp3494
(lp3495
g601
aa(lp3496
g3486
aasg2
F1.0
ssI241
(dp3497
g1
F-1.0
sg7
(lp3498
(lp3499
S'closer'
p3500
aa(lp3501
S'closest'
p3502
aasg13
(dp3503
g15
g16
(g20
S'\xd5x\xe9&1\x08\xe0?'
p3504
tp3505
Rp3506
sg26
(lp3507
(g3502
g3500
F0.501
tp3508
assg3
F0.0
sg29
(lp3509
(lp3510
g3502
aa(lp3511
g3500
aasg2
F1.0
ssI242
(dp3512
g1
F-1.0
sg7
(lp3513
(lp3514
S'darker'
p3515
aa(lp3516
g458
aasg13
(dp3517
g15
g16
(g20
S'\xd5x\xe9&1\x08\xe0?'
p3518
tp3519
Rp3520
sg26
(lp3521
(g458
g3515
F0.501
tp3522
assg3
F0.0
sg29
(lp3523
(lp3524
g458
aa(lp3525
g3515
aasg2
F1.0
ssI243
(dp3526
g1
F-1.0
sg7
(lp3527
(lp3528
g456
aa(lp3529
g3515
aasg13
(dp3530
g15
g16
(g20
S'\xd5x\xe9&1\x08\xe0?'
p3531
tp3532
Rp3533
sg26
(lp3534
(g3515
g456
F0.501
tp3535
assg3
F0.0
sg29
(lp3536
(lp3537
g3515
aa(lp3538
g456
aasg2
F1.0
ssI244
(dp3539
g1
F-1.0
sg7
(lp3540
(lp3541
S'warmer'
p3542
aa(lp3543
S'warmest'
p3544
aasg13
(dp3545
g15
g16
(g20
S'\xd5x\xe9&1\x08\xe0?'
p3546
tp3547
Rp3548
sg26
(lp3549
(g3544
g3542
F0.501
tp3550
assg3
F0.0
sg29
(lp3551
(lp3552
g3544
aa(lp3553
g3542
aasg2
F1.0
ssI245
(dp3554
g1
F1.0
sg7
(lp3555
(lp3556
g2489
aa(lp3557
g2491
aasg13
(dp3558
g15
g16
(g20
S'\xd5x\xe9&1\x08\xe0?'
p3559
tp3560
Rp3561
sg26
(lp3562
(g2489
g2491
F0.501
tp3563
assg3
F1.0
sg29
(lp3564
(lp3565
g2489
aa(lp3566
g2491
aasg2
F1.0
ssI246
(dp3567
g1
F-1.0
sg7
(lp3568
(lp3569
g1641
aa(lp3570
g1643
aasg13
(dp3571
g15
g16
(g20
S'\xd5x\xe9&1\x08\xe0?'
p3572
tp3573
Rp3574
sg26
(lp3575
(g1643
g1641
F0.501
tp3576
assg3
F0.0
sg29
(lp3577
(lp3578
g1643
aa(lp3579
g1641
aasg2
F1.0
ssI247
(dp3580
g1
F-1.0
sg7
(lp3581
(lp3582
g1407
aa(lp3583
g867
aasg13
(dp3584
g15
g16
(g20
S'\xd5x\xe9&1\x08\xe0?'
p3585
tp3586
Rp3587
sg26
(lp3588
(g867
g1407
F0.501
tp3589
assg3
F0.0
sg29
(lp3590
(lp3591
g867
aa(lp3592
g1407
aasg2
F1.0
ssI248
(dp3593
g1
F1.0
sg7
(lp3594
(lp3595
g2717
aa(lp3596
g2719
aasg13
(dp3597
g15
g16
(g20
S'\xd5x\xe9&1\x08\xe0?'
p3598
tp3599
Rp3600
sg26
(lp3601
(g2717
g2719
F0.501
tp3602
assg3
F1.0
sg29
(lp3603
(lp3604
g2717
aa(lp3605
g2719
aasg2
F1.0
ssI249
(dp3606
g1
F-1.0
sg7
(lp3607
(lp3608
S'steep'
p3609
aa(lp3610
S'steeper'
p3611
aasg13
(dp3612
g15
g16
(g20
S'\xd5x\xe9&1\x08\xe0?'
p3613
tp3614
Rp3615
sg26
(lp3616
(g3611
g3609
F0.501
tp3617
assg3
F0.0
sg29
(lp3618
(lp3619
g3611
aa(lp3620
g3609
aasg2
F1.0
ssI250
(dp3621
g1
F-1.0
sg7
(lp3622
(lp3623
S'lower'
p3624
aa(lp3625
S'lowest'
p3626
aasg13
(dp3627
g15
g16
(g20
S'\xd5x\xe9&1\x08\xe0?'
p3628
tp3629
Rp3630
sg26
(lp3631
(g3626
g3624
F0.501
tp3632
assg3
F0.0
sg29
(lp3633
(lp3634
g3626
aa(lp3635
g3624
aasg2
F1.0
ssI251
(dp3636
g1
F-1.0
sg7
(lp3637
(lp3638
g3110
aa(lp3639
g3112
aasg13
(dp3640
g15
g16
(g20
S'\xd5x\xe9&1\x08\xe0?'
p3641
tp3642
Rp3643
sg26
(lp3644
(g3112
g3110
F0.501
tp3645
assg3
F0.0
sg29
(lp3646
(lp3647
g3112
aa(lp3648
g3110
aasg2
F1.0
ssI252
(dp3649
g1
F1.0
sg7
(lp3650
(lp3651
g2399
aa(lp3652
g2401
aasg13
(dp3653
g15
g16
(g20
S'\xd5x\xe9&1\x08\xe0?'
p3654
tp3655
Rp3656
sg26
(lp3657
(g2399
g2401
F0.501
tp3658
assg3
F1.0
sg29
(lp3659
(lp3660
g2399
aa(lp3661
g2401
aasg2
F1.0
ssI253
(dp3662
g1
F-1.0
sg7
(lp3663
(lp3664
S'happy'
p3665
aa(lp3666
S'happiest'
p3667
aasg13
(dp3668
g15
g16
(g20
S'\xd5x\xe9&1\x08\xe0?'
p3669
tp3670
Rp3671
sg26
(lp3672
(g3667
g3665
F0.501
tp3673
assg3
F0.0
sg29
(lp3674
(lp3675
g3667
aa(lp3676
g3665
aasg2
F1.0
ssI254
(dp3677
g1
F1.0
sg7
(lp3678
(lp3679
g2061
aa(lp3680
g2505
aasg13
(dp3681
g15
g16
(g20
S'\xd5x\xe9&1\x08\xe0?'
p3682
tp3683
Rp3684
sg26
(lp3685
(g2061
g2505
F0.501
tp3686
assg3
F1.0
sg29
(lp3687
(lp3688
g2061
aa(lp3689
g2505
aasg2
F1.0
ssI255
(dp3690
g1
F-1.0
sg7
(lp3691
(lp3692
S'less'
p3693
aa(lp3694
S'lesser'
p3695
aasg13
(dp3696
g15
g16
(g20
S'\xd5x\xe9&1\x08\xe0?'
p3697
tp3698
Rp3699
sg26
(lp3700
(g3695
g3693
F0.501
tp3701
assg3
F0.0
sg29
(lp3702
(lp3703
g3695
aa(lp3704
g3693
aasg2
F1.0
ssI256
(dp3705
g1
F1.0
sg7
(lp3706
(lp3707
g2330
aa(lp3708
g2332
aasg13
(dp3709
g15
g16
(g20
S'\xd5x\xe9&1\x08\xe0?'
p3710
tp3711
Rp3712
sg26
(lp3713
(g2330
g2332
F0.501
tp3714
assg3
F1.0
sg29
(lp3715
(lp3716
g2330
aa(lp3717
g2332
aasg2
F1.0
ssI257
(dp3718
g1
F1.0
sg7
(lp3719
(lp3720
g629
aa(lp3721
g631
aasg13
(dp3722
g15
g16
(g20
S'\xd5x\xe9&1\x08\xe0?'
p3723
tp3724
Rp3725
sg26
(lp3726
(g629
g631
F0.501
tp3727
assg3
F1.0
sg29
(lp3728
(lp3729
g629
aa(lp3730
g631
aasg2
F1.0
ssI258
(dp3731
g1
F-1.0
sg7
(lp3732
(lp3733
g1364
aa(lp3734
g1366
aasg13
(dp3735
g15
g16
(g20
S'\xd5x\xe9&1\x08\xe0?'
p3736
tp3737
Rp3738
sg26
(lp3739
(g1366
g1364
F0.501
tp3740
assg3
F0.0
sg29
(lp3741
(lp3742
g1366
aa(lp3743
g1364
aasg2
F1.0
ssI259
(dp3744
g1
F1.0
sg7
(lp3745
(lp3746
g2967
aa(lp3747
g2969
aasg13
(dp3748
g15
g16
(g20
S'\xd5x\xe9&1\x08\xe0?'
p3749
tp3750
Rp3751
sg26
(lp3752
(g2967
g2969
F0.501
tp3753
assg3
F1.0
sg29
(lp3754
(lp3755
g2967
aa(lp3756
g2969
aasg2
F1.0
ssI260
(dp3757
g1
F-1.0
sg7
(lp3758
(lp3759
S'faster'
p3760
aa(lp3761
S'fastest'
p3762
aasg13
(dp3763
g15
g16
(g20
S'\xd5x\xe9&1\x08\xe0?'
p3764
tp3765
Rp3766
sg26
(lp3767
(g3762
g3760
F0.501
tp3768
assg3
F0.0
sg29
(lp3769
(lp3770
g3762
aa(lp3771
g3760
aasg2
F1.0
ssI261
(dp3772
g1
F-1.0
sg7
(lp3773
(lp3774
g3542
aa(lp3775
g3544
aasg13
(dp3776
g15
g16
(g20
S'\xd5x\xe9&1\x08\xe0?'
p3777
tp3778
Rp3779
sg26
(lp3780
(g3544
g3542
F0.501
tp3781
assg3
F0.0
sg29
(lp3782
(lp3783
g3544
aa(lp3784
g3542
aasg2
F1.0
ssI262
(dp3785
g1
F-1.0
sg7
(lp3786
(lp3787
S'safer'
p3788
aa(lp3789
S'safest'
p3790
aasg13
(dp3791
g15
g16
(g20
S'\xd5x\xe9&1\x08\xe0?'
p3792
tp3793
Rp3794
sg26
(lp3795
(g3790
g3788
F0.501
tp3796
assg3
F0.0
sg29
(lp3797
(lp3798
g3790
aa(lp3799
g3788
aasg2
F1.0
ssI263
(dp3800
g1
F-1.0
sg7
(lp3801
(lp3802
S'brave'
p3803
aa(lp3804
S'bravest'
p3805
aasg13
(dp3806
g15
g16
(g20
S'\xd5x\xe9&1\x08\xe0?'
p3807
tp3808
Rp3809
sg26
(lp3810
(g3805
g3803
F0.501
tp3811
assg3
F0.0
sg29
(lp3812
(lp3813
g3805
aa(lp3814
g3803
aasg2
F1.0
ssI264
(dp3815
g1
F-1.0
sg7
(lp3816
(lp3817
g1203
aa(lp3818
g1205
aasg13
(dp3819
g15
g16
(g20
S'\xd5x\xe9&1\x08\xe0?'
p3820
tp3821
Rp3822
sg26
(lp3823
(g1205
g1203
F0.501
tp3824
assg3
F0.0
sg29
(lp3825
(lp3826
g1205
aa(lp3827
g1203
aasg2
F1.0
ssI265
(dp3828
g1
F-1.0
sg7
(lp3829
(lp3830
S'proud'
p3831
aa(lp3832
S'prouder'
p3833
aasg13
(dp3834
g15
g16
(g20
S'\xd5x\xe9&1\x08\xe0?'
p3835
tp3836
Rp3837
sg26
(lp3838
(g3833
g3831
F0.501
tp3839
assg3
F0.0
sg29
(lp3840
(lp3841
g3833
aa(lp3842
g3831
aasg2
F1.0
ssI266
(dp3843
g1
F-1.0
sg7
(lp3844
(lp3845
g985
aa(lp3846
g987
aasg13
(dp3847
g15
g16
(g20
S'\xd5x\xe9&1\x08\xe0?'
p3848
tp3849
Rp3850
sg26
(lp3851
(g987
g985
F0.501
tp3852
assg3
F0.0
sg29
(lp3853
(lp3854
g987
aa(lp3855
g985
aasg2
F1.0
ssI267
(dp3856
g1
F-1.0
sg7
(lp3857
(lp3858
S'some'
p3859
aa(lp3860
S'most'
p3861
aasg13
(dp3862
g15
g16
(g20
S'\xd5x\xe9&1\x08\xe0?'
p3863
tp3864
Rp3865
sg26
(lp3866
(g3861
g3859
F0.501
tp3867
assg3
F0.0
sg29
(lp3868
(lp3869
g3861
aa(lp3870
g3859
aasg2
F1.0
ssI268
(dp3871
g1
F-1.0
sg7
(lp3872
(lp3873
S'happy'
p3874
aa(lp3875
g98
aasg13
(dp3876
g15
g16
(g20
S'\xd5x\xe9&1\x08\xe0?'
p3877
tp3878
Rp3879
sg26
(lp3880
(g98
g3874
F0.501
tp3881
assg3
F0.0
sg29
(lp3882
(lp3883
g98
aa(lp3884
g3874
aasg2
F1.0
ssI269
(dp3885
g1
F-1.0
sg7
(lp3886
(lp3887
S'rarer'
p3888
aa(lp3889
S'rarest'
p3890
aasg13
(dp3891
g15
g16
(g20
S'\xd5x\xe9&1\x08\xe0?'
p3892
tp3893
Rp3894
sg26
(lp3895
(g3890
g3888
F0.501
tp3896
assg3
F0.0
sg29
(lp3897
(lp3898
g3890
aa(lp3899
g3888
aasg2
F1.0
ssI270
(dp3900
g1
F-1.0
sg7
(lp3901
(lp3902
S'free'
p3903
aa(lp3904
S'freest'
p3905
aasg13
(dp3906
g15
g16
(g20
S'\xd5x\xe9&1\x08\xe0?'
p3907
tp3908
Rp3909
sg26
(lp3910
(g3905
g3903
F0.501
tp3911
assg3
F0.0
sg29
(lp3912
(lp3913
g3905
aa(lp3914
g3903
aasg2
F1.0
ssI271
(dp3915
g1
F-1.0
sg7
(lp3916
(lp3917
S'brighter'
p3918
aa(lp3919
S'brightest'
p3920
aasg13
(dp3921
g15
g16
(g20
S'\xd5x\xe9&1\x08\xe0?'
p3922
tp3923
Rp3924
sg26
(lp3925
(g3920
g3918
F0.501
tp3926
assg3
F0.0
sg29
(lp3927
(lp3928
g3920
aa(lp3929
g3918
aasg2
F1.0
ssI272
(dp3930
g1
F1.0
sg7
(lp3931
(lp3932
S'holy'
p3933
aa(lp3934
S'holier'
p3935
aasg13
(dp3936
g15
g16
(g20
S'\xd5x\xe9&1\x08\xe0?'
p3937
tp3938
Rp3939
sg26
(lp3940
(g3933
g3935
F0.501
tp3941
assg3
F1.0
sg29
(lp3942
(lp3943
g3933
aa(lp3944
g3935
aasg2
F1.0
ssI273
(dp3945
g1
F-1.0
sg7
(lp3946
(lp3947
S'strict'
p3948
aa(lp3949
S'strictest'
p3950
aasg13
(dp3951
g15
g16
(g20
S'\xd5x\xe9&1\x08\xe0?'
p3952
tp3953
Rp3954
sg26
(lp3955
(g3950
g3948
F0.501
tp3956
assg3
F0.0
sg29
(lp3957
(lp3958
g3950
aa(lp3959
g3948
aasg2
F1.0
ssI274
(dp3960
g1
F-1.0
sg7
(lp3961
(lp3962
S'safe'
p3963
aa(lp3964
S'safest'
p3965
aasg13
(dp3966
g15
g16
(g20
S'\xd5x\xe9&1\x08\xe0?'
p3967
tp3968
Rp3969
sg26
(lp3970
(g3965
g3963
F0.501
tp3971
assg3
F0.0
sg29
(lp3972
(lp3973
g3965
aa(lp3974
g3963
aasg2
F1.0
ssI275
(dp3975
g1
F-1.0
sg7
(lp3976
(lp3977
g820
aa(lp3978
g822
aasg13
(dp3979
g15
g16
(g20
S'\xd5x\xe9&1\x08\xe0?'
p3980
tp3981
Rp3982
sg26
(lp3983
(g822
g820
F0.501
tp3984
assg3
F0.0
sg29
(lp3985
(lp3986
g822
aa(lp3987
g820
aasg2
F1.0
ssI276
(dp3988
g1
F1.0
sg7
(lp3989
(lp3990
g687
aa(lp3991
g689
aasg13
(dp3992
g15
g16
(g20
S'\xd5x\xe9&1\x08\xe0?'
p3993
tp3994
Rp3995
sg26
(lp3996
(g687
g689
F0.501
tp3997
assg3
F1.0
sg29
(lp3998
(lp3999
g687
aa(lp4000
g689
aasg2
F1.0
ssI277
(dp4001
g1
F-1.0
sg7
(lp4002
(lp4003
g2856
aa(lp4004
g2858
aasg13
(dp4005
g15
g16
(g20
S'\xd5x\xe9&1\x08\xe0?'
p4006
tp4007
Rp4008
sg26
(lp4009
(g2858
g2856
F0.501
tp4010
assg3
F0.0
sg29
(lp4011
(lp4012
g2858
aa(lp4013
g2856
aasg2
F1.0
ssI278
(dp4014
g1
F-1.0
sg7
(lp4015
(lp4016
g3052
aa(lp4017
g1453
aasg13
(dp4018
g15
g16
(g20
S'\xd5x\xe9&1\x08\xe0?'
p4019
tp4020
Rp4021
sg26
(lp4022
(g1453
g3052
F0.501
tp4023
assg3
F0.0
sg29
(lp4024
(lp4025
g1453
aa(lp4026
g3052
aasg2
F1.0
ssI279
(dp4027
g1
F-1.0
sg7
(lp4028
(lp4029
g2995
aa(lp4030
g1322
aasg13
(dp4031
g15
g16
(g20
S'\xd5x\xe9&1\x08\xe0?'
p4032
tp4033
Rp4034
sg26
(lp4035
(g1322
g2995
F0.501
tp4036
assg3
F0.0
sg29
(lp4037
(lp4038
g1322
aa(lp4039
g2995
aasg2
F1.0
ssI280
(dp4040
g1
F-1.0
sg7
(lp4041
(lp4042
g3456
aa(lp4043
g3458
aasg13
(dp4044
g15
g16
(g20
S'\xd5x\xe9&1\x08\xe0?'
p4045
tp4046
Rp4047
sg26
(lp4048
(g3458
g3456
F0.501
tp4049
assg3
F0.0
sg29
(lp4050
(lp4051
g3458
aa(lp4052
g3456
aasg2
F1.0
ssI281
(dp4053
g1
F-1.0
sg7
(lp4054
(lp4055
S'fine'
p4056
aa(lp4057
g644
aasg13
(dp4058
g15
g16
(g20
S'\xd5x\xe9&1\x08\xe0?'
p4059
tp4060
Rp4061
sg26
(lp4062
(g644
g4056
F0.501
tp4063
assg3
F0.0
sg29
(lp4064
(lp4065
g644
aa(lp4066
g4056
aasg2
F1.0
ssI282
(dp4067
g1
F-1.0
sg7
(lp4068
(lp4069
g1015
aa(lp4070
g1017
aasg13
(dp4071
g15
g16
(g20
S'\xd5x\xe9&1\x08\xe0?'
p4072
tp4073
Rp4074
sg26
(lp4075
(g1017
g1015
F0.501
tp4076
assg3
F0.0
sg29
(lp4077
(lp4078
g1017
aa(lp4079
g1015
aasg2
F1.0
ssI283
(dp4080
g1
F-1.0
sg7
(lp4081
(lp4082
S'safe'
p4083
aa(lp4084
S'safest'
p4085
aasg13
(dp4086
g15
g16
(g20
S'\xd5x\xe9&1\x08\xe0?'
p4087
tp4088
Rp4089
sg26
(lp4090
(g4085
g4083
F0.501
tp4091
assg3
F0.0
sg29
(lp4092
(lp4093
g4085
aa(lp4094
g4083
aasg2
F1.0
ssI284
(dp4095
g1
F1.0
sg7
(lp4096
(lp4097
g1584
aa(lp4098
g12
aasg13
(dp4099
g15
g16
(g20
S'\xd5x\xe9&1\x08\xe0?'
p4100
tp4101
Rp4102
sg26
(lp4103
(g1584
g12
F0.501
tp4104
assg3
F1.0
sg29
(lp4105
(lp4106
g1584
aa(lp4107
g12
aasg2
F1.0
ssI285
(dp4108
g1
F1.0
sg7
(lp4109
(lp4110
g1030
aa(lp4111
g1032
aasg13
(dp4112
g15
g16
(g20
S'\xd5x\xe9&1\x08\xe0?'
p4113
tp4114
Rp4115
sg26
(lp4116
(g1030
g1032
F0.501
tp4117
assg3
F1.0
sg29
(lp4118
(lp4119
g1030
aa(lp4120
g1032
aasg2
F1.0
ssI286
(dp4121
g1
F-1.0
sg7
(lp4122
(lp4123
g925
aa(lp4124
g2941
aasg13
(dp4125
g15
g16
(g20
S'\xd5x\xe9&1\x08\xe0?'
p4126
tp4127
Rp4128
sg26
(lp4129
(g2941
g925
F0.501
tp4130
assg3
F0.0
sg29
(lp4131
(lp4132
g2941
aa(lp4133
g925
aasg2
F1.0
ssI287
(dp4134
g1
F-1.0
sg7
(lp4135
(lp4136
g1466
aa(lp4137
g1468
aasg13
(dp4138
g15
g16
(g20
S'\xd5x\xe9&1\x08\xe0?'
p4139
tp4140
Rp4141
sg26
(lp4142
(g1468
g1466
F0.501
tp4143
assg3
F0.0
sg29
(lp4144
(lp4145
g1468
aa(lp4146
g1466
aasg2
F1.0
ssI288
(dp4147
g1
F-1.0
sg7
(lp4148
(lp4149
g2573
aa(lp4150
g822
aasg13
(dp4151
g15
g16
(g20
S'\xd5x\xe9&1\x08\xe0?'
p4152
tp4153
Rp4154
sg26
(lp4155
(g822
g2573
F0.501
tp4156
assg3
F0.0
sg29
(lp4157
(lp4158
g822
aa(lp4159
g2573
aasg2
F1.0
ssI289
(dp4160
g1
F1.0
sg7
(lp4161
(lp4162
S'small'
p4163
aa(lp4164
S'smallest'
p4165
aasg13
(dp4166
g15
g16
(g20
S'\xd5x\xe9&1\x08\xe0?'
p4167
tp4168
Rp4169
sg26
(lp4170
(g4163
g4165
F0.501
tp4171
assg3
F1.0
sg29
(lp4172
(lp4173
g4163
aa(lp4174
g4165
aasg2
F1.0
ssI290
(dp4175
g1
F-1.0
sg7
(lp4176
(lp4177
S'far'
p4178
aa(lp4179
g2091
aasg13
(dp4180
g15
g16
(g20
S'\xd5x\xe9&1\x08\xe0?'
p4181
tp4182
Rp4183
sg26
(lp4184
(g2091
g4178
F0.501
tp4185
assg3
F0.0
sg29
(lp4186
(lp4187
g2091
aa(lp4188
g4178
aasg2
F1.0
ssI291
(dp4189
g1
F-1.0
sg7
(lp4190
(lp4191
g336
aa(lp4192
g338
aasg13
(dp4193
g15
g16
(g20
S'\xd5x\xe9&1\x08\xe0?'
p4194
tp4195
Rp4196
sg26
(lp4197
(g338
g336
F0.501
tp4198
assg3
F0.0
sg29
(lp4199
(lp4200
g338
aa(lp4201
g336
aasg2
F1.0
ssI292
(dp4202
g1
F-1.0
sg7
(lp4203
(lp4204
g3401
aa(lp4205
g3196
aasg13
(dp4206
g15
g16
(g20
S'\xd5x\xe9&1\x08\xe0?'
p4207
tp4208
Rp4209
sg26
(lp4210
(g3196
g3401
F0.501
tp4211
assg3
F0.0
sg29
(lp4212
(lp4213
g3196
aa(lp4214
g3401
aasg2
F1.0
ssI293
(dp4215
g1
F-1.0
sg7
(lp4216
(lp4217
g3788
aa(lp4218
g3790
aasg13
(dp4219
g15
g16
(g20
S'\xd5x\xe9&1\x08\xe0?'
p4220
tp4221
Rp4222
sg26
(lp4223
(g3790
g3788
F0.501
tp4224
assg3
F0.0
sg29
(lp4225
(lp4226
g3790
aa(lp4227
g3788
aasg2
F1.0
ssI294
(dp4228
g1
F-1.0
sg7
(lp4229
(lp4230
S'clear'
p4231
aa(lp4232
g912
aasg13
(dp4233
g15
g16
(g20
S'\xd5x\xe9&1\x08\xe0?'
p4234
tp4235
Rp4236
sg26
(lp4237
(g912
g4231
F0.501
tp4238
assg3
F0.0
sg29
(lp4239
(lp4240
g912
aa(lp4241
g4231
aasg2
F1.0
ssI295
(dp4242
g1
F1.0
sg7
(lp4243
(lp4244
S'smaller'
p4245
aa(lp4246
g3388
aasg13
(dp4247
g15
g16
(g20
S'\xd5x\xe9&1\x08\xe0?'
p4248
tp4249
Rp4250
sg26
(lp4251
(g4245
g3388
F0.501
tp4252
assg3
F1.0
sg29
(lp4253
(lp4254
g4245
aa(lp4255
g3388
aasg2
F1.0
ssI296
(dp4256
g1
F1.0
sg7
(lp4257
(lp4258
g1349
aa(lp4259
g1351
aasg13
(dp4260
g15
g16
(g20
S'\xd5x\xe9&1\x08\xe0?'
p4261
tp4262
Rp4263
sg26
(lp4264
(g1349
g1351
F0.501
tp4265
assg3
F1.0
sg29
(lp4266
(lp4267
g1349
aa(lp4268
g1351
aasg2
F1.0
ssI297
(dp4269
g1
F-1.0
sg7
(lp4270
(lp4271
S'pure'
p4272
aa(lp4273
S'purer'
p4274
aasg13
(dp4275
g15
g16
(g20
S'\xd5x\xe9&1\x08\xe0?'
p4276
tp4277
Rp4278
sg26
(lp4279
(g4274
g4272
F0.501
tp4280
assg3
F0.0
sg29
(lp4281
(lp4282
g4274
aa(lp4283
g4272
aasg2
F1.0
ssI298
(dp4284
g1
F-1.0
sg7
(lp4285
(lp4286
g1118
aa(lp4287
g1120
aasg13
(dp4288
g15
g16
(g20
S'\xd5x\xe9&1\x08\xe0?'
p4289
tp4290
Rp4291
sg26
(lp4292
(g1120
g1118
F0.501
tp4293
assg3
F0.0
sg29
(lp4294
(lp4295
g1120
aa(lp4296
g1118
aasg2
F1.0
ssI299
(dp4297
g1
F-1.0
sg7
(lp4298
(lp4299
g66
aa(lp4300
g68
aasg13
(dp4301
g15
g16
(g20
S'\xd5x\xe9&1\x08\xe0?'
p4302
tp4303
Rp4304
sg26
(lp4305
(g68
g66
F0.501
tp4306
assg3
F0.0
sg29
(lp4307
(lp4308
g68
aa(lp4309
g66
aasg2
F1.0
ssI300
(dp4310
g1
F-1.0
sg7
(lp4311
(lp4312
S'stronger'
p4313
aa(lp4314
S'strongest'
p4315
aasg13
(dp4316
g15
g16
(g20
S'\xd5x\xe9&1\x08\xe0?'
p4317
tp4318
Rp4319
sg26
(lp4320
(g4315
g4313
F0.501
tp4321
assg3
F0.0
sg29
(lp4322
(lp4323
g4315
aa(lp4324
g4313
aasg2
F1.0
ssI301
(dp4325
g1
F-1.0
sg7
(lp4326
(lp4327
S'harder'
p4328
aa(lp4329
S'hardest'
p4330
aasg13
(dp4331
g15
g16
(g20
S'\xd5x\xe9&1\x08\xe0?'
p4332
tp4333
Rp4334
sg26
(lp4335
(g4330
g4328
F0.501
tp4336
assg3
F0.0
sg29
(lp4337
(lp4338
g4330
aa(lp4339
g4328
aasg2
F1.0
ssI302
(dp4340
g1
F-1.0
sg7
(lp4341
(lp4342
S'newer'
p4343
aa(lp4344
S'newest'
p4345
aasg13
(dp4346
g15
g16
(g20
S'\xd5x\xe9&1\x08\xe0?'
p4347
tp4348
Rp4349
sg26
(lp4350
(g4345
g4343
F0.501
tp4351
assg3
F0.0
sg29
(lp4352
(lp4353
g4345
aa(lp4354
g4343
aasg2
F1.0
ssI303
(dp4355
g1
F-1.0
sg7
(lp4356
(lp4357
g4328
aa(lp4358
g4330
aasg13
(dp4359
g15
g16
(g20
S'\xd5x\xe9&1\x08\xe0?'
p4360
tp4361
Rp4362
sg26
(lp4363
(g4330
g4328
F0.501
tp4364
assg3
F0.0
sg29
(lp4365
(lp4366
g4330
aa(lp4367
g4328
aasg2
F1.0
ssI304
(dp4368
g1
F-1.0
sg7
(lp4369
(lp4370
g2089
aa(lp4371
g2091
aasg13
(dp4372
g15
g16
(g20
S'\xd5x\xe9&1\x08\xe0?'
p4373
tp4374
Rp4375
sg26
(lp4376
(g2091
g2089
F0.501
tp4377
assg3
F0.0
sg29
(lp4378
(lp4379
g2091
aa(lp4380
g2089
aasg2
F1.0
ssI305
(dp4381
g1
F-1.0
sg7
(lp4382
(lp4383
g1233
aa(lp4384
g1235
aasg13
(dp4385
g15
g16
(g20
S'\xd5x\xe9&1\x08\xe0?'
p4386
tp4387
Rp4388
sg26
(lp4389
(g1235
g1233
F0.501
tp4390
assg3
F0.0
sg29
(lp4391
(lp4392
g1235
aa(lp4393
g1233
aasg2
F1.0
ssI306
(dp4394
g1
F-1.0
sg7
(lp4395
(lp4396
g3624
aa(lp4397
g3626
aasg13
(dp4398
g15
g16
(g20
S'\xd5x\xe9&1\x08\xe0?'
p4399
tp4400
Rp4401
sg26
(lp4402
(g3626
g3624
F0.501
tp4403
assg3
F0.0
sg29
(lp4404
(lp4405
g3626
aa(lp4406
g3624
aasg2
F1.0
ssI307
(dp4407
g1
F-1.0
sg7
(lp4408
(lp4409
S'simple'
p4410
aa(lp4411
S'simplest'
p4412
aasg13
(dp4413
g15
g16
(g20
S'\xd5x\xe9&1\x08\xe0?'
p4414
tp4415
Rp4416
sg26
(lp4417
(g4412
g4410
F0.501
tp4418
assg3
F0.0
sg29
(lp4419
(lp4420
g4412
aa(lp4421
g4410
aasg2
F1.0
ssI308
(dp4422
g1
F1.0
sg7
(lp4423
(lp4424
S'thick'
p4425
aa(lp4426
S'thicker'
p4427
aasg13
(dp4428
g15
g16
(g20
S'\xd5x\xe9&1\x08\xe0?'
p4429
tp4430
Rp4431
sg26
(lp4432
(g4425
g4427
F0.501
tp4433
assg3
F1.0
sg29
(lp4434
(lp4435
g4425
aa(lp4436
g4427
aasg2
F1.0
ssI309
(dp4437
g1
F-1.0
sg7
(lp4438
(lp4439
g1320
aa(lp4440
g1322
aasg13
(dp4441
g15
g16
(g20
S'\xd5x\xe9&1\x08\xe0?'
p4442
tp4443
Rp4444
sg26
(lp4445
(g1322
g1320
F0.501
tp4446
assg3
F0.0
sg29
(lp4447
(lp4448
g1322
aa(lp4449
g1320
aasg2
F1.0
ssI310
(dp4450
g1
F-1.0
sg7
(lp4451
(lp4452
S'safer'
p4453
aa(lp4454
g3965
aasg13
(dp4455
g15
g16
(g20
S'\xd5x\xe9&1\x08\xe0?'
p4456
tp4457
Rp4458
sg26
(lp4459
(g3965
g4453
F0.501
tp4460
assg3
F0.0
sg29
(lp4461
(lp4462
g3965
aa(lp4463
g4453
aasg2
F1.0
ssI311
(dp4464
g1
F1.0
sg7
(lp4465
(lp4466
g3166
aa(lp4467
g487
aasg13
(dp4468
g15
g16
(g20
S'\xd5x\xe9&1\x08\xe0?'
p4469
tp4470
Rp4471
sg26
(lp4472
(g3166
g487
F0.501
tp4473
assg3
F1.0
sg29
(lp4474
(lp4475
g3166
aa(lp4476
g487
aasg2
F1.0
ssI312
(dp4477
g1
F-1.0
sg7
(lp4478
(lp4479
g1962
aa(lp4480
g1964
aasg13
(dp4481
g15
g16
(g20
S'\xd5x\xe9&1\x08\xe0?'
p4482
tp4483
Rp4484
sg26
(lp4485
(g1964
g1962
F0.501
tp4486
assg3
F0.0
sg29
(lp4487
(lp4488
g1964
aa(lp4489
g1962
aasg2
F1.0
ssI313
(dp4490
g1
F-1.0
sg7
(lp4491
(lp4492
g1276
aa(lp4493
g545
aasg13
(dp4494
g15
g16
(g20
S'\xd5x\xe9&1\x08\xe0?'
p4495
tp4496
Rp4497
sg26
(lp4498
(g545
g1276
F0.501
tp4499
assg3
F0.0
sg29
(lp4500
(lp4501
g545
aa(lp4502
g1276
aasg2
F1.0
ssI314
(dp4503
g1
F-1.0
sg7
(lp4504
(lp4505
S'broader'
p4506
aa(lp4507
S'broadest'
p4508
aasg13
(dp4509
g15
g16
(g20
S'\xd5x\xe9&1\x08\xe0?'
p4510
tp4511
Rp4512
sg26
(lp4513
(g4508
g4506
F0.501
tp4514
assg3
F0.0
sg29
(lp4515
(lp4516
g4508
aa(lp4517
g4506
aasg2
F1.0
ssI315
(dp4518
g1
F-1.0
sg7
(lp4519
(lp4520
S'hard'
p4521
aa(lp4522
g4330
aasg13
(dp4523
g15
g16
(g20
S'\xd5x\xe9&1\x08\xe0?'
p4524
tp4525
Rp4526
sg26
(lp4527
(g4330
g4521
F0.501
tp4528
assg3
F0.0
sg29
(lp4529
(lp4530
g4330
aa(lp4531
g4521
aasg2
F1.0
ssI316
(dp4532
g1
F-1.0
sg7
(lp4533
(lp4534
S'subtle'
p4535
aa(lp4536
S'subtler'
p4537
aasg13
(dp4538
g15
g16
(g20
S'\xd5x\xe9&1\x08\xe0?'
p4539
tp4540
Rp4541
sg26
(lp4542
(g4537
g4535
F0.501
tp4543
assg3
F0.0
sg29
(lp4544
(lp4545
g4537
aa(lp4546
g4535
aasg2
F1.0
ssI317
(dp4547
g1
F-1.0
sg7
(lp4548
(lp4549
g2063
aa(lp4550
g2505
aasg13
(dp4551
g15
g16
(g20
S'\xd5x\xe9&1\x08\xe0?'
p4552
tp4553
Rp4554
sg26
(lp4555
(g2505
g2063
F0.501
tp4556
assg3
F0.0
sg29
(lp4557
(lp4558
g2505
aa(lp4559
g2063
aasg2
F1.0
ssI318
(dp4560
g1
F-1.0
sg7
(lp4561
(lp4562
S'stricter'
p4563
aa(lp4564
S'strictest'
p4565
aasg13
(dp4566
g15
g16
(g20
S'\xd5x\xe9&1\x08\xe0?'
p4567
tp4568
Rp4569
sg26
(lp4570
(g4565
g4563
F0.501
tp4571
assg3
F0.0
sg29
(lp4572
(lp4573
g4565
aa(lp4574
g4563
aasg2
F1.0
ssI319
(dp4575
g1
F1.0
sg7
(lp4576
(lp4577
g2732
aa(lp4578
g502
aasg13
(dp4579
g15
g16
(g20
S'\xd5x\xe9&1\x08\xe0?'
p4580
tp4581
Rp4582
sg26
(lp4583
(g2732
g502
F0.501
tp4584
assg3
F1.0
sg29
(lp4585
(lp4586
g2732
aa(lp4587
g502
aasg2
F1.0
ssI320
(dp4588
g1
F-1.0
sg7
(lp4589
(lp4590
g321
aa(lp4591
g323
aasg13
(dp4592
g15
g16
(g20
S'\xd5x\xe9&1\x08\xe0?'
p4593
tp4594
Rp4595
sg26
(lp4596
(g323
g321
F0.501
tp4597
assg3
F0.0
sg29
(lp4598
(lp4599
g323
aa(lp4600
g321
aasg2
F1.0
ssI321
(dp4601
g1
F-1.0
sg7
(lp4602
(lp4603
g3500
aa(lp4604
g3502
aasg13
(dp4605
g15
g16
(g20
S'\xd5x\xe9&1\x08\xe0?'
p4606
tp4607
Rp4608
sg26
(lp4609
(g3502
g3500
F0.501
tp4610
assg3
F0.0
sg29
(lp4611
(lp4612
g3502
aa(lp4613
g3500
aasg2
F1.0
ssI322
(dp4614
g1
F1.0
sg7
(lp4615
(lp4616
g2559
aa(lp4617
g233
aasg13
(dp4618
g15
g16
(g20
S'\xd5x\xe9&1\x08\xe0?'
p4619
tp4620
Rp4621
sg26
(lp4622
(g2559
g233
F0.501
tp4623
assg3
F1.0
sg29
(lp4624
(lp4625
g2559
aa(lp4626
g233
aasg2
F1.0
ssI323
(dp4627
g1
F-1.0
sg7
(lp4628
(lp4629
S'old'
p4630
aa(lp4631
S'oldest'
p4632
aasg13
(dp4633
g15
g16
(g20
S'\xd5x\xe9&1\x08\xe0?'
p4634
tp4635
Rp4636
sg26
(lp4637
(g4632
g4630
F0.501
tp4638
assg3
F0.0
sg29
(lp4639
(lp4640
g4632
aa(lp4641
g4630
aasg2
F1.0
ssI324
(dp4642
g1
F1.0
sg7
(lp4643
(lp4644
g2174
aa(lp4645
g2176
aasg13
(dp4646
g15
g16
(g20
S'\xd5x\xe9&1\x08\xe0?'
p4647
tp4648
Rp4649
sg26
(lp4650
(g2174
g2176
F0.501
tp4651
assg3
F1.0
sg29
(lp4652
(lp4653
g2174
aa(lp4654
g2176
aasg2
F1.0
ssI325
(dp4655
g1
F1.0
sg7
(lp4656
(lp4657
S'many'
p4658
aa(lp4659
S'more'
p4660
aasg13
(dp4661
g15
g16
(g20
S'\xd5x\xe9&1\x08\xe0?'
p4662
tp4663
Rp4664
sg26
(lp4665
(g4658
g4660
F0.501
tp4666
assg3
F1.0
sg29
(lp4667
(lp4668
g4658
aa(lp4669
g4660
aasg2
F1.0
ssI326
(dp4670
g1
F1.0
sg7
(lp4671
(lp4672
S'grave'
p4673
aa(lp4674
S'gravest'
p4675
aasg13
(dp4676
g15
g16
(g20
S'\xd5x\xe9&1\x08\xe0?'
p4677
tp4678
Rp4679
sg26
(lp4680
(g4673
g4675
F0.501
tp4681
assg3
F1.0
sg29
(lp4682
(lp4683
g4673
aa(lp4684
g4675
aasg2
F1.0
ssI327
(dp4685
g1
F-1.0
sg7
(lp4686
(lp4687
S'warm'
p4688
aa(lp4689
S'warmest'
p4690
aasg13
(dp4691
g15
g16
(g20
S'\xd5x\xe9&1\x08\xe0?'
p4692
tp4693
Rp4694
sg26
(lp4695
(g4690
g4688
F0.501
tp4696
assg3
F0.0
sg29
(lp4697
(lp4698
g4690
aa(lp4699
g4688
aasg2
F1.0
ssI328
(dp4700
g1
F-1.0
sg7
(lp4701
(lp4702
g3903
aa(lp4703
g3905
aasg13
(dp4704
g15
g16
(g20
S'\xd5x\xe9&1\x08\xe0?'
p4705
tp4706
Rp4707
sg26
(lp4708
(g3905
g3903
F0.501
tp4709
assg3
F0.0
sg29
(lp4710
(lp4711
g3905
aa(lp4712
g3903
aasg2
F1.0
ssI329
(dp4713
g1
F-1.0
sg7
(lp4714
(lp4715
S'cheaper'
p4716
aa(lp4717
S'cheapest'
p4718
aasg13
(dp4719
g15
g16
(g20
S'\xd5x\xe9&1\x08\xe0?'
p4720
tp4721
Rp4722
sg26
(lp4723
(g4718
g4716
F0.501
tp4724
assg3
F0.0
sg29
(lp4725
(lp4726
g4718
aa(lp4727
g4716
aasg2
F1.0
ssI330
(dp4728
g1
F-1.0
sg7
(lp4729
(lp4730
S'mean'
p4731
aa(lp4732
S'meaner'
p4733
aasg13
(dp4734
g15
g16
(g20
S'\xd5x\xe9&1\x08\xe0?'
p4735
tp4736
Rp4737
sg26
(lp4738
(g4733
g4731
F0.501
tp4739
assg3
F0.0
sg29
(lp4740
(lp4741
g4733
aa(lp4742
g4731
aasg2
F1.0
ssI331
(dp4743
g1
F-1.0
sg7
(lp4744
(lp4745
g3194
aa(lp4746
g3196
aasg13
(dp4747
g15
g16
(g20
S'\xd5x\xe9&1\x08\xe0?'
p4748
tp4749
Rp4750
sg26
(lp4751
(g3196
g3194
F0.501
tp4752
assg3
F0.0
sg29
(lp4753
(lp4754
g3196
aa(lp4755
g3194
aasg2
F1.0
ssI332
(dp4756
g1
F1.0
sg7
(lp4757
(lp4758
g201
aa(lp4759
g203
aasg13
(dp4760
g15
g16
(g20
S'\xd5x\xe9&1\x08\xe0?'
p4761
tp4762
Rp4763
sg26
(lp4764
(g201
g203
F0.501
tp4765
assg3
F1.0
sg29
(lp4766
(lp4767
g201
aa(lp4768
g203
aasg2
F1.0
ssI333
(dp4769
g1
F-1.0
sg7
(lp4770
(lp4771
S'weak'
p4772
aa(lp4773
S'weakest'
p4774
aasg13
(dp4775
g15
g16
(g20
S'\xd5x\xe9&1\x08\xe0?'
p4776
tp4777
Rp4778
sg26
(lp4779
(g4774
g4772
F0.501
tp4780
assg3
F0.0
sg29
(lp4781
(lp4782
g4774
aa(lp4783
g4772
aasg2
F1.0
ssI334
(dp4784
g1
F-1.0
sg7
(lp4785
(lp4786
g940
aa(lp4787
g942
aasg13
(dp4788
g15
g16
(g20
S'\xd5x\xe9&1\x08\xe0?'
p4789
tp4790
Rp4791
sg26
(lp4792
(g942
g940
F0.501
tp4793
assg3
F0.0
sg29
(lp4794
(lp4795
g942
aa(lp4796
g940
aasg2
F1.0
ssI335
(dp4797
g1
F-1.0
sg7
(lp4798
(lp4799
g2631
aa(lp4800
g2633
aasg13
(dp4801
g15
g16
(g20
S'\xd5x\xe9&1\x08\xe0?'
p4802
tp4803
Rp4804
sg26
(lp4805
(g2633
g2631
F0.501
tp4806
assg3
F0.0
sg29
(lp4807
(lp4808
g2633
aa(lp4809
g2631
aasg2
F1.0
ssI336
(dp4810
g1
F-1.0
sg7
(lp4811
(lp4812
S'sure'
p4813
aa(lp4814
S'surer'
p4815
aasg13
(dp4816
g15
g16
(g20
S'\xd5x\xe9&1\x08\xe0?'
p4817
tp4818
Rp4819
sg26
(lp4820
(g4815
g4813
F0.501
tp4821
assg3
F0.0
sg29
(lp4822
(lp4823
g4815
aa(lp4824
g4813
aasg2
F1.0
ssI337
(dp4825
g1
F1.0
sg7
(lp4826
(lp4827
g276
aa(lp4828
g3082
aasg13
(dp4829
g15
g16
(g20
S'\xd5x\xe9&1\x08\xe0?'
p4830
tp4831
Rp4832
sg26
(lp4833
(g276
g3082
F0.501
tp4834
assg3
F1.0
sg29
(lp4835
(lp4836
g276
aa(lp4837
g3082
aasg2
F1.0
ssI338
(dp4838
g1
F-1.0
sg7
(lp4839
(lp4840
S'heavier'
p4841
aa(lp4842
S'heaviest'
p4843
aasg13
(dp4844
g15
g16
(g20
S'\xd5x\xe9&1\x08\xe0?'
p4845
tp4846
Rp4847
sg26
(lp4848
(g4843
g4841
F0.501
tp4849
assg3
F0.0
sg29
(lp4850
(lp4851
g4843
aa(lp4852
g4841
aasg2
F1.0
ssI339
(dp4853
g1
F1.0
sg7
(lp4854
(lp4855
g2815
aa(lp4856
g2817
aasg13
(dp4857
g15
g16
(g20
S'\xd5x\xe9&1\x08\xe0?'
p4858
tp4859
Rp4860
sg26
(lp4861
(g2815
g2817
F0.501
tp4862
assg3
F1.0
sg29
(lp4863
(lp4864
g2815
aa(lp4865
g2817
aasg2
F1.0
ssI340
(dp4866
g1
F-1.0
sg7
(lp4867
(lp4868
g3356
aa(lp4869
g3358
aasg13
(dp4870
g15
g16
(g20
S'\xd5x\xe9&1\x08\xe0?'
p4871
tp4872
Rp4873
sg26
(lp4874
(g3358
g3356
F0.501
tp4875
assg3
F0.0
sg29
(lp4876
(lp4877
g3358
aa(lp4878
g3356
aasg2
F1.0
ssI341
(dp4879
g1
F1.0
sg7
(lp4880
(lp4881
g1829
aa(lp4882
g1831
aasg13
(dp4883
g15
g16
(g20
S'\xd5x\xe9&1\x08\xe0?'
p4884
tp4885
Rp4886
sg26
(lp4887
(g1829
g1831
F0.501
tp4888
assg3
F1.0
sg29
(lp4889
(lp4890
g1829
aa(lp4891
g1831
aasg2
F1.0
ssI342
(dp4892
g1
F1.0
sg7
(lp4893
(lp4894
S'loose'
p4895
aa(lp4896
S'looser'
p4897
aasg13
(dp4898
g15
g16
(g20
S'\xd5x\xe9&1\x08\xe0?'
p4899
tp4900
Rp4901
sg26
(lp4902
(g4895
g4897
F0.501
tp4903
assg3
F1.0
sg29
(lp4904
(lp4905
g4895
aa(lp4906
g4897
aasg2
F1.0
ssI343
(dp4907
g1
F-1.0
sg7
(lp4908
(lp4909
g4313
aa(lp4910
g4315
aasg13
(dp4911
g15
g16
(g20
S'\xd5x\xe9&1\x08\xe0?'
p4912
tp4913
Rp4914
sg26
(lp4915
(g4315
g4313
F0.501
tp4916
assg3
F0.0
sg29
(lp4917
(lp4918
g4315
aa(lp4919
g4313
aasg2
F1.0
ssI344
(dp4920
g1
F-1.0
sg7
(lp4921
(lp4922
S'warm'
p4923
aa(lp4924
g3544
aasg13
(dp4925
g15
g16
(g20
S'\xd5x\xe9&1\x08\xe0?'
p4926
tp4927
Rp4928
sg26
(lp4929
(g3544
g4923
F0.501
tp4930
assg3
F0.0
sg29
(lp4931
(lp4932
g3544
aa(lp4933
g4923
aasg2
F1.0
ssI345
(dp4934
g1
F-1.0
sg7
(lp4935
(lp4936
g456
aa(lp4937
g3515
aasg13
(dp4938
g15
g16
(g20
S'\xd5x\xe9&1\x08\xe0?'
p4939
tp4940
Rp4941
sg26
(lp4942
(g3515
g456
F0.501
tp4943
assg3
F0.0
sg29
(lp4944
(lp4945
g3515
aa(lp4946
g456
aasg2
F1.0
ssI346
(dp4947
g1
F1.0
sg7
(lp4948
(lp4949
g2702
aa(lp4950
g2704
aasg13
(dp4951
g15
g16
(g20
S'\xd5x\xe9&1\x08\xe0?'
p4952
tp4953
Rp4954
sg26
(lp4955
(g2702
g2704
F0.501
tp4956
assg3
F1.0
sg29
(lp4957
(lp4958
g2702
aa(lp4959
g2704
aasg2
F1.0
ssI347
(dp4960
g1
F-1.0
sg7
(lp4961
(lp4962
S'smooth'
p4963
aa(lp4964
S'smoother'
p4965
aasg13
(dp4966
g15
g16
(g20
S'\xd5x\xe9&1\x08\xe0?'
p4967
tp4968
Rp4969
sg26
(lp4970
(g4965
g4963
F0.501
tp4971
assg3
F0.0
sg29
(lp4972
(lp4973
g4965
aa(lp4974
g4963
aasg2
F1.0
ssI348
(dp4975
g1
F-1.0
sg7
(lp4976
(lp4977
g3888
aa(lp4978
g3890
aasg13
(dp4979
g15
g16
(g20
S'\xd5x\xe9&1\x08\xe0?'
p4980
tp4981
Rp4982
sg26
(lp4983
(g3890
g3888
F0.501
tp4984
assg3
F0.0
sg29
(lp4985
(lp4986
g3890
aa(lp4987
g3888
aasg2
F1.0
ssI349
(dp4988
g1
F-1.0
sg7
(lp4989
(lp4990
g411
aa(lp4991
g413
aasg13
(dp4992
g15
g16
(g20
S'\xd5x\xe9&1\x08\xe0?'
p4993
tp4994
Rp4995
sg26
(lp4996
(g413
g411
F0.501
tp4997
assg3
F0.0
sg29
(lp4998
(lp4999
g413
aa(lp5000
g411
aasg2
F1.0
ssI350
(dp5001
g1
F1.0
sg7
(lp5002
(lp5003
g2759
aa(lp5004
g2761
aasg13
(dp5005
g15
g16
(g20
S'\xd5x\xe9&1\x08\xe0?'
p5006
tp5007
Rp5008
sg26
(lp5009
(g2759
g2761
F0.501
tp5010
assg3
F1.0
sg29
(lp5011
(lp5012
g2759
aa(lp5013
g2761
aasg2
F1.0
ssI351
(dp5014
g1
F1.0
sg7
(lp5015
(lp5016
g261
aa(lp5017
g263
aasg13
(dp5018
g15
g16
(g20
S'\xd5x\xe9&1\x08\xe0?'
p5019
tp5020
Rp5021
sg26
(lp5022
(g261
g263
F0.501
tp5023
assg3
F1.0
sg29
(lp5024
(lp5025
g261
aa(lp5026
g263
aasg2
F1.0
ssI352
(dp5027
g1
F-1.0
sg7
(lp5028
(lp5029
g3665
aa(lp5030
g3667
aasg13
(dp5031
g15
g16
(g20
S'\xd5x\xe9&1\x08\xe0?'
p5032
tp5033
Rp5034
sg26
(lp5035
(g3667
g3665
F0.501
tp5036
assg3
F0.0
sg29
(lp5037
(lp5038
g3667
aa(lp5039
g3665
aasg2
F1.0
ssI353
(dp5040
g1
F1.0
sg7
(lp5041
(lp5042
S'wet'
p5043
aa(lp5044
S'wetter'
p5045
aasg13
(dp5046
g15
g16
(g20
S'\xd5x\xe9&1\x08\xe0?'
p5047
tp5048
Rp5049
sg26
(lp5050
(g5043
g5045
F0.501
tp5051
assg3
F1.0
sg29
(lp5052
(lp5053
g5043
aa(lp5054
g5045
aasg2
F1.0
ssI354
(dp5055
g1
F-1.0
sg7
(lp5056
(lp5057
g2444
aa(lp5058
g2446
aasg13
(dp5059
g15
g16
(g20
S'\xd5x\xe9&1\x08\xe0?'
p5060
tp5061
Rp5062
sg26
(lp5063
(g2446
g2444
F0.501
tp5064
assg3
F0.0
sg29
(lp5065
(lp5066
g2446
aa(lp5067
g2444
aasg2
F1.0
ssI355
(dp5068
g1
F1.0
sg7
(lp5069
(lp5070
S'young'
p5071
aa(lp5072
S'youngest'
p5073
aasg13
(dp5074
g15
g16
(g20
S'\xd5x\xe9&1\x08\xe0?'
p5075
tp5076
Rp5077
sg26
(lp5078
(g5071
g5073
F0.501
tp5079
assg3
F1.0
sg29
(lp5080
(lp5081
g5071
aa(lp5082
g5073
aasg2
F1.0
ssI356
(dp5083
g1
F-1.0
sg7
(lp5084
(lp5085
g1771
aa(lp5086
g3251
aasg13
(dp5087
g15
g16
(g20
S'\xd5x\xe9&1\x08\xe0?'
p5088
tp5089
Rp5090
sg26
(lp5091
(g3251
g1771
F0.501
tp5092
assg3
F0.0
sg29
(lp5093
(lp5094
g3251
aa(lp5095
g1771
aasg2
F1.0
ssI357
(dp5096
g1
F1.0
sg7
(lp5097
(lp5098
g3933
aa(lp5099
g3935
aasg13
(dp5100
g15
g16
(g20
S'\xd5x\xe9&1\x08\xe0?'
p5101
tp5102
Rp5103
sg26
(lp5104
(g3933
g3935
F0.501
tp5105
assg3
F1.0
sg29
(lp5106
(lp5107
g3933
aa(lp5108
g3935
aasg2
F1.0
ssI358
(dp5109
g1
F-1.0
sg7
(lp5110
(lp5111
g805
aa(lp5112
g807
aasg13
(dp5113
g15
g16
(g20
S'\xd5x\xe9&1\x08\xe0?'
p5114
tp5115
Rp5116
sg26
(lp5117
(g807
g805
F0.501
tp5118
assg3
F0.0
sg29
(lp5119
(lp5120
g807
aa(lp5121
g805
aasg2
F1.0
ssI359
(dp5122
g1
F-1.0
sg7
(lp5123
(lp5124
g4410
aa(lp5125
g4412
aasg13
(dp5126
g15
g16
(g20
S'\xd5x\xe9&1\x08\xe0?'
p5127
tp5128
Rp5129
sg26
(lp5130
(g4412
g4410
F0.501
tp5131
assg3
F0.0
sg29
(lp5132
(lp5133
g4412
aa(lp5134
g4410
aasg2
F1.0
ssI360
(dp5135
g1
F1.0
sg7
(lp5136
(lp5137
S'narrow'
p5138
aa(lp5139
S'narrower'
p5140
aasg13
(dp5141
g15
g16
(g20
S'\xd5x\xe9&1\x08\xe0?'
p5142
tp5143
Rp5144
sg26
(lp5145
(g5138
g5140
F0.501
tp5146
assg3
F1.0
sg29
(lp5147
(lp5148
g5138
aa(lp5149
g5140
aasg2
F1.0
ssI361
(dp5150
g1
F1.0
sg7
(lp5151
(lp5152
g1495
aa(lp5153
g1497
aasg13
(dp5154
g15
g16
(g20
S'\xd5x\xe9&1\x08\xe0?'
p5155
tp5156
Rp5157
sg26
(lp5158
(g1495
g1497
F0.501
tp5159
assg3
F1.0
sg29
(lp5160
(lp5161
g1495
aa(lp5162
g1497
aasg2
F1.0
ssI362
(dp5163
g1
F-1.0
sg7
(lp5164
(lp5165
S'new'
p5166
aa(lp5167
S'newest'
p5168
aasg13
(dp5169
g15
g16
(g20
S'\xd5x\xe9&1\x08\xe0?'
p5170
tp5171
Rp5172
sg26
(lp5173
(g5168
g5166
F0.501
tp5174
assg3
F0.0
sg29
(lp5175
(lp5176
g5168
aa(lp5177
g5166
aasg2
F1.0
ssI363
(dp5178
g1
F1.0
sg7
(lp5179
(lp5180
g955
aa(lp5181
g957
aasg13
(dp5182
g15
g16
(g20
S'\xd5x\xe9&1\x08\xe0?'
p5183
tp5184
Rp5185
sg26
(lp5186
(g955
g957
F0.501
tp5187
assg3
F1.0
sg29
(lp5188
(lp5189
g955
aa(lp5190
g957
aasg2
F1.0
ssI364
(dp5191
g1
F-1.0
sg7
(lp5192
(lp5193
g1335
aa(lp5194
g1030
aasg13
(dp5195
g15
g16
(g20
S'\xd5x\xe9&1\x08\xe0?'
p5196
tp5197
Rp5198
sg26
(lp5199
(g1030
g1335
F0.501
tp5200
assg3
F0.0
sg29
(lp5201
(lp5202
g1030
aa(lp5203
g1335
aasg2
F1.0
ssI365
(dp5204
g1
F1.0
sg7
(lp5205
(lp5206
g3441
aa(lp5207
g3443
aasg13
(dp5208
g15
g16
(g20
S'\xd5x\xe9&1\x08\xe0?'
p5209
tp5210
Rp5211
sg26
(lp5212
(g3441
g3443
F0.501
tp5213
assg3
F1.0
sg29
(lp5214
(lp5215
g3441
aa(lp5216
g3443
aasg2
F1.0
ssI366
(dp5217
g1
F1.0
sg7
(lp5218
(lp5219
S'big'
p5220
aa(lp5221
S'biggest'
p5222
aasg13
(dp5223
g15
g16
(g20
S'\xd5x\xe9&1\x08\xe0?'
p5224
tp5225
Rp5226
sg26
(lp5227
(g5220
g5222
F0.501
tp5228
assg3
F1.0
sg29
(lp5229
(lp5230
g5220
aa(lp5231
g5222
aasg2
F1.0
ssI367
(dp5232
g1
F-1.0
sg7
(lp5233
(lp5234
S'costly'
p5235
aa(lp5236
S'costlier'
p5237
aasg13
(dp5238
g15
g16
(g20
S'\xd5x\xe9&1\x08\xe0?'
p5239
tp5240
Rp5241
sg26
(lp5242
(g5237
g5235
F0.501
tp5243
assg3
F0.0
sg29
(lp5244
(lp5245
g5237
aa(lp5246
g5235
aasg2
F1.0
ssI368
(dp5247
g1
F-1.0
sg7
(lp5248
(lp5249
g2117
aa(lp5250
g2119
aasg13
(dp5251
g15
g16
(g20
S'\xd5x\xe9&1\x08\xe0?'
p5252
tp5253
Rp5254
sg26
(lp5255
(g2119
g2117
F0.501
tp5256
assg3
F0.0
sg29
(lp5257
(lp5258
g2119
aa(lp5259
g2117
aasg2
F1.0
ssI369
(dp5260
g1
F1.0
sg7
(lp5261
(lp5262
S'poor'
p5263
aa(lp5264
S'poorest'
p5265
aasg13
(dp5266
g15
g16
(g20
S'\xd5x\xe9&1\x08\xe0?'
p5267
tp5268
Rp5269
sg26
(lp5270
(g5263
g5265
F0.501
tp5271
assg3
F1.0
sg29
(lp5272
(lp5273
g5263
aa(lp5274
g5265
aasg2
F1.0
ssI370
(dp5275
g1
F-1.0
sg7
(lp5276
(lp5277
g4506
aa(lp5278
g4508
aasg13
(dp5279
g15
g16
(g20
S'\xd5x\xe9&1\x08\xe0?'
p5280
tp5281
Rp5282
sg26
(lp5283
(g4508
g4506
F0.501
tp5284
assg3
F0.0
sg29
(lp5285
(lp5286
g4508
aa(lp5287
g4506
aasg2
F1.0
ssI371
(dp5288
g1
F-1.0
sg7
(lp5289
(lp5290
g4083
aa(lp5291
g4085
aasg13
(dp5292
g15
g16
(g20
S'\xd5x\xe9&1\x08\xe0?'
p5293
tp5294
Rp5295
sg26
(lp5296
(g4085
g4083
F0.501
tp5297
assg3
F0.0
sg29
(lp5298
(lp5299
g4085
aa(lp5300
g4083
aasg2
F1.0
ssI372
(dp5301
g1
F-1.0
sg7
(lp5302
(lp5303
S'smarter'
p5304
aa(lp5305
S'smartest'
p5306
aasg13
(dp5307
g15
g16
(g20
S'\xd5x\xe9&1\x08\xe0?'
p5308
tp5309
Rp5310
sg26
(lp5311
(g5306
g5304
F0.501
tp5312
assg3
F0.0
sg29
(lp5313
(lp5314
g5306
aa(lp5315
g5304
aasg2
F1.0
ssI373
(dp5316
g1
F1.0
sg7
(lp5317
(lp5318
g1932
aa(lp5319
g1934
aasg13
(dp5320
g15
g16
(g20
S'\xd5x\xe9&1\x08\xe0?'
p5321
tp5322
Rp5323
sg26
(lp5324
(g1932
g1934
F0.501
tp5325
assg3
F1.0
sg29
(lp5326
(lp5327
g1932
aa(lp5328
g1934
aasg2
F1.0
ssI374
(dp5329
g1
F1.0
sg7
(lp5330
(lp5331
S'bold'
p5332
aa(lp5333
S'bolder'
p5334
aasg13
(dp5335
g15
g16
(g20
S'\xd5x\xe9&1\x08\xe0?'
p5336
tp5337
Rp5338
sg26
(lp5339
(g5332
g5334
F0.501
tp5340
assg3
F1.0
sg29
(lp5341
(lp5342
g5332
aa(lp5343
g5334
aasg2
F1.0
ssI375
(dp5344
g1
F-1.0
sg7
(lp5345
(lp5346
S'far'
p5347
aa(lp5348
S'furthest'
p5349
aasg13
(dp5350
g15
g16
(g20
S'\xd5x\xe9&1\x08\xe0?'
p5351
tp5352
Rp5353
sg26
(lp5354
(g5349
g5347
F0.501
tp5355
assg3
F0.0
sg29
(lp5356
(lp5357
g5349
aa(lp5358
g5347
aasg2
F1.0
ssI376
(dp5359
g1
F-1.0
sg7
(lp5360
(lp5361
g1917
aa(lp5362
g1919
aasg13
(dp5363
g15
g16
(g20
S'\xd5x\xe9&1\x08\xe0?'
p5364
tp5365
Rp5366
sg26
(lp5367
(g1919
g1917
F0.501
tp5368
assg3
F0.0
sg29
(lp5369
(lp5370
g1919
aa(lp5371
g1917
aasg2
F1.0
ssI377
(dp5372
g1
F1.0
sg7
(lp5373
(lp5374
g5263
aa(lp5375
g5265
aasg13
(dp5376
g15
g16
(g20
S'\xd5x\xe9&1\x08\xe0?'
p5377
tp5378
Rp5379
sg26
(lp5380
(g5263
g5265
F0.501
tp5381
assg3
F1.0
sg29
(lp5382
(lp5383
g5263
aa(lp5384
g5265
aasg2
F1.0
ssI378
(dp5385
g1
F-1.0
sg7
(lp5386
(lp5387
S'bright'
p5388
aa(lp5389
S'brightest'
p5390
aasg13
(dp5391
g15
g16
(g20
S'\xd5x\xe9&1\x08\xe0?'
p5392
tp5393
Rp5394
sg26
(lp5395
(g5390
g5388
F0.501
tp5396
assg3
F0.0
sg29
(lp5397
(lp5398
g5390
aa(lp5399
g5388
aasg2
F1.0
ssI379
(dp5400
g1
F1.0
sg7
(lp5401
(lp5402
g4163
aa(lp5403
g4165
aasg13
(dp5404
g15
g16
(g20
S'\xd5x\xe9&1\x08\xe0?'
p5405
tp5406
Rp5407
sg26
(lp5408
(g4163
g4165
F0.501
tp5409
assg3
F1.0
sg29
(lp5410
(lp5411
g4163
aa(lp5412
g4165
aasg2
F1.0
ssI380
(dp5413
g1
F-1.0
sg7
(lp5414
(lp5415
g3180
aa(lp5416
g2431
aasg13
(dp5417
g15
g16
(g20
S'\xd5x\xe9&1\x08\xe0?'
p5418
tp5419
Rp5420
sg26
(lp5421
(g2431
g3180
F0.501
tp5422
assg3
F0.0
sg29
(lp5423
(lp5424
g2431
aa(lp5425
g3180
aasg2
F1.0
ssI381
(dp5426
g1
F1.0
sg7
(lp5427
(lp5428
g1436
aa(lp5429
g1438
aasg13
(dp5430
g15
g16
(g20
S'\xd5x\xe9&1\x08\xe0?'
p5431
tp5432
Rp5433
sg26
(lp5434
(g1436
g1438
F0.501
tp5435
assg3
F1.0
sg29
(lp5436
(lp5437
g1436
aa(lp5438
g1438
aasg2
F1.0
ssI382
(dp5439
g1
F1.0
sg7
(lp5440
(lp5441
g5071
aa(lp5442
g5073
aasg13
(dp5443
g15
g16
(g20
S'\xd5x\xe9&1\x08\xe0?'
p5444
tp5445
Rp5446
sg26
(lp5447
(g5071
g5073
F0.501
tp5448
assg3
F1.0
sg29
(lp5449
(lp5450
g5071
aa(lp5451
g5073
aasg2
F1.0
ssI383
(dp5452
g1
F-1.0
sg7
(lp5453
(lp5454
g5304
aa(lp5455
g5306
aasg13
(dp5456
g15
g16
(g20
S'\xd5x\xe9&1\x08\xe0?'
p5457
tp5458
Rp5459
sg26
(lp5460
(g5306
g5304
F0.501
tp5461
assg3
F0.0
sg29
(lp5462
(lp5463
g5306
aa(lp5464
g5304
aasg2
F1.0
ssI384
(dp5465
g1
F1.0
sg7
(lp5466
(lp5467
g81
aa(lp5468
g83
aasg13
(dp5469
g15
g16
(g20
S'\xd5x\xe9&1\x08\xe0?'
p5470
tp5471
Rp5472
sg26
(lp5473
(g81
g83
F0.501
tp5474
assg3
F1.0
sg29
(lp5475
(lp5476
g81
aa(lp5477
g83
aasg2
F1.0
ssI385
(dp5478
g1
F-1.0
sg7
(lp5479
(lp5480
g4630
aa(lp5481
g4632
aasg13
(dp5482
g15
g16
(g20
S'\xd5x\xe9&1\x08\xe0?'
p5483
tp5484
Rp5485
sg26
(lp5486
(g4632
g4630
F0.501
tp5487
assg3
F0.0
sg29
(lp5488
(lp5489
g4632
aa(lp5490
g4630
aasg2
F1.0
ssI386
(dp5491
g1
F-1.0
sg7
(lp5492
(lp5493
g925
aa(lp5494
g927
aasg13
(dp5495
g15
g16
(g20
S'\xd5x\xe9&1\x08\xe0?'
p5496
tp5497
Rp5498
sg26
(lp5499
(g927
g925
F0.501
tp5500
assg3
F0.0
sg29
(lp5501
(lp5502
g927
aa(lp5503
g925
aasg2
F1.0
ssI387
(dp5504
g1
F-1.0
sg7
(lp5505
(lp5506
S'poorer'
p5507
aa(lp5508
g5265
aasg13
(dp5509
g15
g16
(g20
S'\xd5x\xe9&1\x08\xe0?'
p5510
tp5511
Rp5512
sg26
(lp5513
(g5265
g5507
F0.501
tp5514
assg3
F0.0
sg29
(lp5515
(lp5516
g5265
aa(lp5517
g5507
aasg2
F1.0
ssI388
(dp5518
g1
F-1.0
sg7
(lp5519
(lp5520
g1248
aa(lp5521
g1250
aasg13
(dp5522
g15
g16
(g20
S'\xd5x\xe9&1\x08\xe0?'
p5523
tp5524
Rp5525
sg26
(lp5526
(g1250
g1248
F0.501
tp5527
assg3
F0.0
sg29
(lp5528
(lp5529
g1250
aa(lp5530
g1248
aasg2
F1.0
ssI389
(dp5531
g1
F1.0
sg7
(lp5532
(lp5533
g276
aa(lp5534
g3082
aasg13
(dp5535
g15
g16
(g20
S'\xd5x\xe9&1\x08\xe0?'
p5536
tp5537
Rp5538
sg26
(lp5539
(g276
g3082
F0.501
tp5540
assg3
F1.0
sg29
(lp5541
(lp5542
g276
aa(lp5543
g3082
aasg2
F1.0
ssI390
(dp5544
g1
F1.0
sg7
(lp5545
(lp5546
g291
aa(lp5547
g293
aasg13
(dp5548
g15
g16
(g20
S'\xd5x\xe9&1\x08\xe0?'
p5549
tp5550
Rp5551
sg26
(lp5552
(g291
g293
F0.501
tp5553
assg3
F1.0
sg29
(lp5554
(lp5555
g291
aa(lp5556
g293
aasg2
F1.0
ssI391
(dp5557
g1
F1.0
sg7
(lp5558
(lp5559
g4658
aa(lp5560
g4660
aasg13
(dp5561
g15
g16
(g20
S'\xd5x\xe9&1\x08\xe0?'
p5562
tp5563
Rp5564
sg26
(lp5565
(g4658
g4660
F0.501
tp5566
assg3
F1.0
sg29
(lp5567
(lp5568
g4658
aa(lp5569
g4660
aasg2
F1.0
ssI392
(dp5570
g1
F1.0
sg7
(lp5571
(lp5572
S'strict'
p5573
aa(lp5574
S'stricter'
p5575
aasg13
(dp5576
g15
g16
(g20
S'\xd5x\xe9&1\x08\xe0?'
p5577
tp5578
Rp5579
sg26
(lp5580
(g5573
g5575
F0.501
tp5581
assg3
F1.0
sg29
(lp5582
(lp5583
g5573
aa(lp5584
g5575
aasg2
F1.0
ssI393
(dp5585
g1
F1.0
sg7
(lp5586
(lp5587
g2787
aa(lp5588
g2789
aasg13
(dp5589
g15
g16
(g20
S'\xd5x\xe9&1\x08\xe0?'
p5590
tp5591
Rp5592
sg26
(lp5593
(g2787
g2789
F0.501
tp5594
assg3
F1.0
sg29
(lp5595
(lp5596
g2787
aa(lp5597
g2789
aasg2
F1.0
ssI394
(dp5598
g1
F-1.0
sg7
(lp5599
(lp5600
g1481
aa(lp5601
g631
aasg13
(dp5602
g15
g16
(g20
S'\xd5x\xe9&1\x08\xe0?'
p5603
tp5604
Rp5605
sg26
(lp5606
(g631
g1481
F0.501
tp5607
assg3
F0.0
sg29
(lp5608
(lp5609
g631
aa(lp5610
g1481
aasg2
F1.0
ssI395
(dp5611
g1
F-1.0
sg7
(lp5612
(lp5613
g5507
aa(lp5614
g5265
aasg13
(dp5615
g15
g16
(g20
S'\xd5x\xe9&1\x08\xe0?'
p5616
tp5617
Rp5618
sg26
(lp5619
(g5265
g5507
F0.501
tp5620
assg3
F0.0
sg29
(lp5621
(lp5622
g5265
aa(lp5623
g5507
aasg2
F1.0
ssI396
(dp5624
g1
F-1.0
sg7
(lp5625
(lp5626
S'bigger'
p5627
aa(lp5628
g158
aasg13
(dp5629
g15
g16
(g20
S'\xd5x\xe9&1\x08\xe0?'
p5630
tp5631
Rp5632
sg26
(lp5633
(g158
g5627
F0.501
tp5634
assg3
F0.0
sg29
(lp5635
(lp5636
g158
aa(lp5637
g5627
aasg2
F1.0
ssI397
(dp5638
g1
F-1.0
sg7
(lp5639
(lp5640
g4056
aa(lp5641
g644
aasg13
(dp5642
g15
g16
(g20
S'\xd5x\xe9&1\x08\xe0?'
p5643
tp5644
Rp5645
sg26
(lp5646
(g644
g4056
F0.501
tp5647
assg3
F0.0
sg29
(lp5648
(lp5649
g644
aa(lp5650
g4056
aasg2
F1.0
ssI398
(dp5651
g1
F1.0
sg7
(lp5652
(lp5653
g276
aa(lp5654
g278
aasg13
(dp5655
g15
g16
(g20
S'\xd5x\xe9&1\x08\xe0?'
p5656
tp5657
Rp5658
sg26
(lp5659
(g276
g278
F0.501
tp5660
assg3
F1.0
sg29
(lp5661
(lp5662
g276
aa(lp5663
g278
aasg2
F1.0
ssI399
(dp5664
g1
F-1.0
sg7
(lp5665
(lp5666
g1756
aa(lp5667
g1758
aasg13
(dp5668
g15
g16
(g20
S'\xd5x\xe9&1\x08\xe0?'
p5669
tp5670
Rp5671
sg26
(lp5672
(g1758
g1756
F0.501
tp5673
assg3
F0.0
sg29
(lp5674
(lp5675
g1758
aa(lp5676
g1756
aasg2
F1.0
ssI400
(dp5677
g1
F-1.0
sg7
(lp5678
(lp5679
S'new'
p5680
aa(lp5681
S'newer'
p5682
aasg13
(dp5683
g15
g16
(g20
S'\xd5x\xe9&1\x08\xe0?'
p5684
tp5685
Rp5686
sg26
(lp5687
(g5682
g5680
F0.501
tp5688
assg3
F0.0
sg29
(lp5689
(lp5690
g5682
aa(lp5691
g5680
aasg2
F1.0
ssI401
(dp5692
g1
F-1.0
sg7
(lp5693
(lp5694
g1613
aa(lp5695
g1615
aasg13
(dp5696
g15
g16
(g20
S'\xd5x\xe9&1\x08\xe0?'
p5697
tp5698
Rp5699
sg26
(lp5700
(g1615
g1613
F0.501
tp5701
assg3
F0.0
sg29
(lp5702
(lp5703
g1615
aa(lp5704
g1613
aasg2
F1.0
ssI402
(dp5705
g1
F1.0
sg7
(lp5706
(lp5707
g3095
aa(lp5708
g3097
aasg13
(dp5709
g15
g16
(g20
S'\xd5x\xe9&1\x08\xe0?'
p5710
tp5711
Rp5712
sg26
(lp5713
(g3095
g3097
F0.501
tp5714
assg3
F1.0
sg29
(lp5715
(lp5716
g3095
aa(lp5717
g3097
aasg2
F1.0
ssI403
(dp5718
g1
F-1.0
sg7
(lp5719
(lp5720
g3760
aa(lp5721
g3762
aasg13
(dp5722
g15
g16
(g20
S'\xd5x\xe9&1\x08\xe0?'
p5723
tp5724
Rp5725
sg26
(lp5726
(g3762
g3760
F0.501
tp5727
assg3
F0.0
sg29
(lp5728
(lp5729
g3762
aa(lp5730
g3760
aasg2
F1.0
ssI404
(dp5731
g1
F-1.0
sg7
(lp5732
(lp5733
g1218
aa(lp5734
g1220
aasg13
(dp5735
g15
g16
(g20
S'\xd5x\xe9&1\x08\xe0?'
p5736
tp5737
Rp5738
sg26
(lp5739
(g1220
g1218
F0.501
tp5740
assg3
F0.0
sg29
(lp5741
(lp5742
g1220
aa(lp5743
g1218
aasg2
F1.0
ssI405
(dp5744
g1
F-1.0
sg7
(lp5745
(lp5746
S'freer'
p5747
aa(lp5748
S'freest'
p5749
aasg13
(dp5750
g15
g16
(g20
S'\xd5x\xe9&1\x08\xe0?'
p5751
tp5752
Rp5753
sg26
(lp5754
(g5749
g5747
F0.501
tp5755
assg3
F0.0
sg29
(lp5756
(lp5757
g5749
aa(lp5758
g5747
aasg2
F1.0
ssI406
(dp5759
g1
F-1.0
sg7
(lp5760
(lp5761
g571
aa(lp5762
g573
aasg13
(dp5763
g15
g16
(g20
S'\xd5x\xe9&1\x08\xe0?'
p5764
tp5765
Rp5766
sg26
(lp5767
(g573
g571
F0.501
tp5768
assg3
F0.0
sg29
(lp5769
(lp5770
g573
aa(lp5771
g571
aasg2
F1.0
ssI407
(dp5772
g1
F1.0
sg7
(lp5773
(lp5774
g4245
aa(lp5775
g3388
aasg13
(dp5776
g15
g16
(g20
S'\xd5x\xe9&1\x08\xe0?'
p5777
tp5778
Rp5779
sg26
(lp5780
(g4245
g3388
F0.501
tp5781
assg3
F1.0
sg29
(lp5782
(lp5783
g4245
aa(lp5784
g3388
aasg2
F1.0
ssI408
(dp5785
g1
F1.0
sg7
(lp5786
(lp5787
g1335
aa(lp5788
g1032
aasg13
(dp5789
g15
g16
(g20
S'\xd5x\xe9&1\x08\xe0?'
p5790
tp5791
Rp5792
sg26
(lp5793
(g1335
g1032
F0.501
tp5794
assg3
F1.0
sg29
(lp5795
(lp5796
g1335
aa(lp5797
g1032
aasg2
F1.0
ssI409
(dp5798
g1
F-1.0
sg7
(lp5799
(lp5800
g3803
aa(lp5801
g3805
aasg13
(dp5802
g15
g16
(g20
S'\xd5x\xe9&1\x08\xe0?'
p5803
tp5804
Rp5805
sg26
(lp5806
(g3805
g3803
F0.501
tp5807
assg3
F0.0
sg29
(lp5808
(lp5809
g3805
aa(lp5810
g3803
aasg2
F1.0
ssI410
(dp5811
g1
F1.0
sg7
(lp5812
(lp5813
g5332
aa(lp5814
g5334
aasg13
(dp5815
g15
g16
(g20
S'\xd5x\xe9&1\x08\xe0?'
p5816
tp5817
Rp5818
sg26
(lp5819
(g5332
g5334
F0.501
tp5820
assg3
F1.0
sg29
(lp5821
(lp5822
g5332
aa(lp5823
g5334
aasg2
F1.0
ssI411
(dp5824
g1
F-1.0
sg7
(lp5825
(lp5826
g5166
aa(lp5827
g5168
aasg13
(dp5828
g15
g16
(g20
S'\xd5x\xe9&1\x08\xe0?'
p5829
tp5830
Rp5831
sg26
(lp5832
(g5168
g5166
F0.501
tp5833
assg3
F0.0
sg29
(lp5834
(lp5835
g5168
aa(lp5836
g5166
aasg2
F1.0
ssI412
(dp5837
g1
F-1.0
sg7
(lp5838
(lp5839
S'grave'
p5840
aa(lp5841
S'graver'
p5842
aasg13
(dp5843
g15
g16
(g20
S'\xd5x\xe9&1\x08\xe0?'
p5844
tp5845
Rp5846
sg26
(lp5847
(g5842
g5840
F0.501
tp5848
assg3
F0.0
sg29
(lp5849
(lp5850
g5842
aa(lp5851
g5840
aasg2
F1.0
ssI413
(dp5852
g1
F-1.0
sg7
(lp5853
(lp5854
g2601
aa(lp5855
g2603
aasg13
(dp5856
g15
g16
(g20
S'\xd5x\xe9&1\x08\xe0?'
p5857
tp5858
Rp5859
sg26
(lp5860
(g2603
g2601
F0.501
tp5861
assg3
F0.0
sg29
(lp5862
(lp5863
g2603
aa(lp5864
g2601
aasg2
F1.0
ssI414
(dp5865
g1
F-1.0
sg7
(lp5866
(lp5867
g4813
aa(lp5868
g4815
aasg13
(dp5869
g15
g16
(g20
S'\xd5x\xe9&1\x08\xe0?'
p5870
tp5871
Rp5872
sg26
(lp5873
(g4815
g4813
F0.501
tp5874
assg3
F0.0
sg29
(lp5875
(lp5876
g4815
aa(lp5877
g4813
aasg2
F1.0
ssI415
(dp5878
g1
F-1.0
sg7
(lp5879
(lp5880
g4923
aa(lp5881
g3544
aasg13
(dp5882
g15
g16
(g20
S'\xd5x\xe9&1\x08\xe0?'
p5883
tp5884
Rp5885
sg26
(lp5886
(g3544
g4923
F0.501
tp5887
assg3
F0.0
sg29
(lp5888
(lp5889
g3544
aa(lp5890
g4923
aasg2
F1.0
ssI416
(dp5891
g1
F1.0
sg7
(lp5892
(lp5893
g1902
aa(lp5894
g1904
aasg13
(dp5895
g15
g16
(g20
S'\xd5x\xe9&1\x08\xe0?'
p5896
tp5897
Rp5898
sg26
(lp5899
(g1902
g1904
F0.501
tp5900
assg3
F1.0
sg29
(lp5901
(lp5902
g1902
aa(lp5903
g1904
aasg2
F1.0
ssI417
(dp5904
g1
F1.0
sg7
(lp5905
(lp5906
g1276
aa(lp5907
g543
aasg13
(dp5908
g15
g16
(g20
S'\xd5x\xe9&1\x08\xe0?'
p5909
tp5910
Rp5911
sg26
(lp5912
(g1276
g543
F0.501
tp5913
assg3
F1.0
sg29
(lp5914
(lp5915
g1276
aa(lp5916
g543
aasg2
F1.0
ssI418
(dp5917
g1
F1.0
sg7
(lp5918
(lp5919
S'light'
p5920
aa(lp5921
S'lighter'
p5922
aasg13
(dp5923
g15
g16
(g20
S'\xd5x\xe9&1\x08\xe0?'
p5924
tp5925
Rp5926
sg26
(lp5927
(g5920
g5922
F0.501
tp5928
assg3
F1.0
sg29
(lp5929
(lp5930
g5920
aa(lp5931
g5922
aasg2
F1.0
ssI419
(dp5932
g1
F-1.0
sg7
(lp5933
(lp5934
g4343
aa(lp5935
g4345
aasg13
(dp5936
g15
g16
(g20
S'\xd5x\xe9&1\x08\xe0?'
p5937
tp5938
Rp5939
sg26
(lp5940
(g4345
g4343
F0.501
tp5941
assg3
F0.0
sg29
(lp5942
(lp5943
g4345
aa(lp5944
g4343
aasg2
F1.0
ssI420
(dp5945
g1
F-1.0
sg7
(lp5946
(lp5947
g51
aa(lp5948
g53
aasg13
(dp5949
g15
g16
(g20
S'\xd5x\xe9&1\x08\xe0?'
p5950
tp5951
Rp5952
sg26
(lp5953
(g53
g51
F0.501
tp5954
assg3
F0.0
sg29
(lp5955
(lp5956
g53
aa(lp5957
g51
aasg2
F1.0
ssI421
(dp5958
g1
F1.0
sg7
(lp5959
(lp5960
S'greater'
p5961
aa(lp5962
S'greatest'
p5963
aasg13
(dp5964
g15
g16
(g20
S'\xd5x\xe9&1\x08\xe0?'
p5965
tp5966
Rp5967
sg26
(lp5968
(g5961
g5963
F0.501
tp5969
assg3
F1.0
sg29
(lp5970
(lp5971
g5961
aa(lp5972
g5963
aasg2
F1.0
ssI422
(dp5973
g1
F-1.0
sg7
(lp5974
(lp5975
g599
aa(lp5976
g601
aasg13
(dp5977
g15
g16
(g20
S'\xd5x\xe9&1\x08\xe0?'
p5978
tp5979
Rp5980
sg26
(lp5981
(g601
g599
F0.501
tp5982
assg3
F0.0
sg29
(lp5983
(lp5984
g601
aa(lp5985
g599
aasg2
F1.0
ssI423
(dp5986
g1
F-1.0
sg7
(lp5987
(lp5988
g2189
aa(lp5989
g2191
aasg13
(dp5990
g15
g16
(g20
S'\xd5x\xe9&1\x08\xe0?'
p5991
tp5992
Rp5993
sg26
(lp5994
(g2191
g2189
F0.501
tp5995
assg3
F0.0
sg29
(lp5996
(lp5997
g2191
aa(lp5998
g2189
aasg2
F1.0
ssI424
(dp5999
g1
F1.0
sg7
(lp6000
(lp6001
g2061
aa(lp6002
g2063
aasg13
(dp6003
g15
g16
(g20
S'\xd5x\xe9&1\x08\xe0?'
p6004
tp6005
Rp6006
sg26
(lp6007
(g2061
g2063
F0.501
tp6008
assg3
F1.0
sg29
(lp6009
(lp6010
g2061
aa(lp6011
g2063
aasg2
F1.0
ssI425
(dp6012
g1
F-1.0
sg7
(lp6013
(lp6014
g4716
aa(lp6015
g4718
aasg13
(dp6016
g15
g16
(g20
S'\xd5x\xe9&1\x08\xe0?'
p6017
tp6018
Rp6019
sg26
(lp6020
(g4718
g4716
F0.501
tp6021
assg3
F0.0
sg29
(lp6022
(lp6023
g4718
aa(lp6024
g4716
aasg2
F1.0
ssI426
(dp6025
g1
F-1.0
sg7
(lp6026
(lp6027
g4731
aa(lp6028
g4733
aasg13
(dp6029
g15
g16
(g20
S'\xd5x\xe9&1\x08\xe0?'
p6030
tp6031
Rp6032
sg26
(lp6033
(g4733
g4731
F0.501
tp6034
assg3
F0.0
sg29
(lp6035
(lp6036
g4733
aa(lp6037
g4731
aasg2
F1.0
ssI427
(dp6038
g1
F-1.0
sg7
(lp6039
(lp6040
g4963
aa(lp6041
g4965
aasg13
(dp6042
g15
g16
(g20
S'\xd5x\xe9&1\x08\xe0?'
p6043
tp6044
Rp6045
sg26
(lp6046
(g4965
g4963
F0.501
tp6047
assg3
F0.0
sg29
(lp6048
(lp6049
g4965
aa(lp6050
g4963
aasg2
F1.0
ssI428
(dp6051
g1
F1.0
sg7
(lp6052
(lp6053
g306
aa(lp6054
g308
aasg13
(dp6055
g15
g16
(g20
S'\xd5x\xe9&1\x08\xe0?'
p6056
tp6057
Rp6058
sg26
(lp6059
(g306
g308
F0.501
tp6060
assg3
F1.0
sg29
(lp6061
(lp6062
g306
aa(lp6063
g308
aasg2
F1.0
ssI429
(dp6064
g1
F-1.0
sg7
(lp6065
(lp6066
g4563
aa(lp6067
g4565
aasg13
(dp6068
g15
g16
(g20
S'\xd5x\xe9&1\x08\xe0?'
p6069
tp6070
Rp6071
sg26
(lp6072
(g4565
g4563
F0.501
tp6073
assg3
F0.0
sg29
(lp6074
(lp6075
g4565
aa(lp6076
g4563
aasg2
F1.0
ssI430
(dp6077
g1
F-1.0
sg7
(lp6078
(lp6079
g2573
aa(lp6080
g820
aasg13
(dp6081
g15
g16
(g20
S'\xd5x\xe9&1\x08\xe0?'
p6082
tp6083
Rp6084
sg26
(lp6085
(g820
g2573
F0.501
tp6086
assg3
F0.0
sg29
(lp6087
(lp6088
g820
aa(lp6089
g2573
aasg2
F1.0
ssI431
(dp6090
g1
F-1.0
sg7
(lp6091
(lp6092
g777
aa(lp6093
g779
aasg13
(dp6094
g15
g16
(g20
S'\xd5x\xe9&1\x08\xe0?'
p6095
tp6096
Rp6097
sg26
(lp6098
(g779
g777
F0.501
tp6099
assg3
F0.0
sg29
(lp6100
(lp6101
g779
aa(lp6102
g777
aasg2
F1.0
ssI432
(dp6103
g1
F-1.0
sg7
(lp6104
(lp6105
g3693
aa(lp6106
g3695
aasg13
(dp6107
g15
g16
(g20
S'\xd5x\xe9&1\x08\xe0?'
p6108
tp6109
Rp6110
sg26
(lp6111
(g3695
g3693
F0.501
tp6112
assg3
F0.0
sg29
(lp6113
(lp6114
g3695
aa(lp6115
g3693
aasg2
F1.0
ssI433
(dp6116
g1
F-1.0
sg7
(lp6117
(lp6118
g925
aa(lp6119
g2941
aasg13
(dp6120
g15
g16
(g20
S'\xd5x\xe9&1\x08\xe0?'
p6121
tp6122
Rp6123
sg26
(lp6124
(g2941
g925
F0.501
tp6125
assg3
F0.0
sg29
(lp6126
(lp6127
g2941
aa(lp6128
g925
aasg2
F1.0
ssI434
(dp6129
g1
F1.0
sg7
(lp6130
(lp6131
g1698
aa(lp6132
g1700
aasg13
(dp6133
g15
g16
(g20
S'\xd5x\xe9&1\x08\xe0?'
p6134
tp6135
Rp6136
sg26
(lp6137
(g1698
g1700
F0.501
tp6138
assg3
F1.0
sg29
(lp6139
(lp6140
g1698
aa(lp6141
g1700
aasg2
F1.0
ssI435
(dp6142
g1
F-1.0
sg7
(lp6143
(lp6144
g1656
aa(lp6145
g764
aasg13
(dp6146
g15
g16
(g20
S'\xd5x\xe9&1\x08\xe0?'
p6147
tp6148
Rp6149
sg26
(lp6150
(g764
g1656
F0.501
tp6151
assg3
F0.0
sg29
(lp6152
(lp6153
g764
aa(lp6154
g1656
aasg2
F1.0
ssI436
(dp6155
g1
F1.0
sg7
(lp6156
(lp6157
g4056
aa(lp6158
g646
aasg13
(dp6159
g15
g16
(g20
S'\xd5x\xe9&1\x08\xe0?'
p6160
tp6161
Rp6162
sg26
(lp6163
(g4056
g646
F0.501
tp6164
assg3
F1.0
sg29
(lp6165
(lp6166
g4056
aa(lp6167
g646
aasg2
F1.0
ssI437
(dp6168
g1
F-1.0
sg7
(lp6169
(lp6170
g571
aa(lp6171
g1571
aasg13
(dp6172
g15
g16
(g20
S'\xd5x\xe9&1\x08\xe0?'
p6173
tp6174
Rp6175
sg26
(lp6176
(g1571
g571
F0.501
tp6177
assg3
F0.0
sg29
(lp6178
(lp6179
g1571
aa(lp6180
g571
aasg2
F1.0
ssI438
(dp6181
g1
F-1.0
sg7
(lp6182
(lp6183
g3486
aa(lp6184
g601
aasg13
(dp6185
g15
g16
(g20
S'\xd5x\xe9&1\x08\xe0?'
p6186
tp6187
Rp6188
sg26
(lp6189
(g601
g3486
F0.501
tp6190
assg3
F0.0
sg29
(lp6191
(lp6192
g601
aa(lp6193
g3486
aasg2
F1.0
ssI439
(dp6194
g1
F-1.0
sg7
(lp6195
(lp6196
g3371
aa(lp6197
g3373
aasg13
(dp6198
g15
g16
(g20
S'\xd5x\xe9&1\x08\xe0?'
p6199
tp6200
Rp6201
sg26
(lp6202
(g3373
g3371
F0.501
tp6203
assg3
F0.0
sg29
(lp6204
(lp6205
g3373
aa(lp6206
g3371
aasg2
F1.0
ssI440
(dp6207
g1
F-1.0
sg7
(lp6208
(lp6209
S'quicker'
p6210
aa(lp6211
g689
aasg13
(dp6212
g15
g16
(g20
S'\xd5x\xe9&1\x08\xe0?'
p6213
tp6214
Rp6215
sg26
(lp6216
(g689
g6210
F0.501
tp6217
assg3
F0.0
sg29
(lp6218
(lp6219
g689
aa(lp6220
g6210
aasg2
F1.0
ssI441
(dp6221
g1
F-1.0
sg7
(lp6222
(lp6223
g1771
aa(lp6224
g1773
aasg13
(dp6225
g15
g16
(g20
S'\xd5x\xe9&1\x08\xe0?'
p6226
tp6227
Rp6228
sg26
(lp6229
(g1773
g1771
F0.501
tp6230
assg3
F0.0
sg29
(lp6231
(lp6232
g1773
aa(lp6233
g1771
aasg2
F1.0
ssI442
(dp6234
g1
F-1.0
sg7
(lp6235
(lp6236
g4453
aa(lp6237
g3965
aasg13
(dp6238
g15
g16
(g20
S'\xd5x\xe9&1\x08\xe0?'
p6239
tp6240
Rp6241
sg26
(lp6242
(g3965
g4453
F0.501
tp6243
assg3
F0.0
sg29
(lp6244
(lp6245
g3965
aa(lp6246
g4453
aasg2
F1.0
ssI443
(dp6247
g1
F-1.0
sg7
(lp6248
(lp6249
g1932
aa(lp6250
g3291
aasg13
(dp6251
g15
g16
(g20
S'\xd5x\xe9&1\x08\xe0?'
p6252
tp6253
Rp6254
sg26
(lp6255
(g3291
g1932
F0.501
tp6256
assg3
F0.0
sg29
(lp6257
(lp6258
g3291
aa(lp6259
g1932
aasg2
F1.0
ssI444
(dp6260
g1
F-1.0
sg7
(lp6261
(lp6262
g659
aa(lp6263
g661
aasg13
(dp6264
g15
g16
(g20
S'\xd5x\xe9&1\x08\xe0?'
p6265
tp6266
Rp6267
sg26
(lp6268
(g661
g659
F0.501
tp6269
assg3
F0.0
sg29
(lp6270
(lp6271
g661
aa(lp6272
g659
aasg2
F1.0
ssI445
(dp6273
g1
F1.0
sg7
(lp6274
(lp6275
g5961
aa(lp6276
g5963
aasg13
(dp6277
g15
g16
(g20
S'\xd5x\xe9&1\x08\xe0?'
p6278
tp6279
Rp6280
sg26
(lp6281
(g5961
g5963
F0.501
tp6282
assg3
F1.0
sg29
(lp6283
(lp6284
g5961
aa(lp6285
g5963
aasg2
F1.0
ssI446
(dp6286
g1
F-1.0
sg7
(lp6287
(lp6288
g2219
aa(lp6289
g2221
aasg13
(dp6290
g15
g16
(g20
S'\xd5x\xe9&1\x08\xe0?'
p6291
tp6292
Rp6293
sg26
(lp6294
(g2221
g2219
F0.501
tp6295
assg3
F0.0
sg29
(lp6296
(lp6297
g2221
aa(lp6298
g2219
aasg2
F1.0
ssI447
(dp6299
g1
F-1.0
sg7
(lp6300
(lp6301
g762
aa(lp6302
g764
aasg13
(dp6303
g15
g16
(g20
S'\xd5x\xe9&1\x08\xe0?'
p6304
tp6305
Rp6306
sg26
(lp6307
(g764
g762
F0.501
tp6308
assg3
F0.0
sg29
(lp6309
(lp6310
g764
aa(lp6311
g762
aasg2
F1.0
ssI448
(dp6312
g1
F-1.0
sg7
(lp6313
(lp6314
g2573
aa(lp6315
g822
aasg13
(dp6316
g15
g16
(g20
S'\xd5x\xe9&1\x08\xe0?'
p6317
tp6318
Rp6319
sg26
(lp6320
(g822
g2573
F0.501
tp6321
assg3
F0.0
sg29
(lp6322
(lp6323
g822
aa(lp6324
g2573
aasg2
F1.0
ssI449
(dp6325
g1
F-1.0
sg7
(lp6326
(lp6327
S'long'
p6328
aa(lp6329
g1672
aasg13
(dp6330
g15
g16
(g20
S'\xd5x\xe9&1\x08\xe0?'
p6331
tp6332
Rp6333
sg26
(lp6334
(g1672
g6328
F0.501
tp6335
assg3
F0.0
sg29
(lp6336
(lp6337
g1672
aa(lp6338
g6328
aasg2
F1.0
ssI450
(dp6339
g1
F-1.0
sg7
(lp6340
(lp6341
g3831
aa(lp6342
g3833
aasg13
(dp6343
g15
g16
(g20
S'\xd5x\xe9&1\x08\xe0?'
p6344
tp6345
Rp6346
sg26
(lp6347
(g3833
g3831
F0.501
tp6348
assg3
F0.0
sg29
(lp6349
(lp6350
g3833
aa(lp6351
g3831
aasg2
F1.0
ssI451
(dp6352
g1
F1.0
sg7
(lp6353
(lp6354
g1392
aa(lp6355
g1394
aasg13
(dp6356
g15
g16
(g20
S'\xd5x\xe9&1\x08\xe0?'
p6357
tp6358
Rp6359
sg26
(lp6360
(g1392
g1394
F0.501
tp6361
assg3
F1.0
sg29
(lp6362
(lp6363
g1392
aa(lp6364
g1394
aasg2
F1.0
ssI452
(dp6365
g1
F1.0
sg7
(lp6366
(lp6367
g2003
aa(lp6368
g2005
aasg13
(dp6369
g15
g16
(g20
S'\xd5x\xe9&1\x08\xe0?'
p6370
tp6371
Rp6372
sg26
(lp6373
(g2003
g2005
F0.501
tp6374
assg3
F1.0
sg29
(lp6375
(lp6376
g2003
aa(lp6377
g2005
aasg2
F1.0
ssI453
(dp6378
g1
F1.0
sg7
(lp6379
(lp6380
g1000
aa(lp6381
g1002
aasg13
(dp6382
g15
g16
(g20
S'\xd5x\xe9&1\x08\xe0?'
p6383
tp6384
Rp6385
sg26
(lp6386
(g1000
g1002
F0.501
tp6387
assg3
F1.0
sg29
(lp6388
(lp6389
g1000
aa(lp6390
g1002
aasg2
F1.0
ssI454
(dp6391
g1
F-1.0
sg7
(lp6392
(lp6393
g4688
aa(lp6394
g4690
aasg13
(dp6395
g15
g16
(g20
S'\xd5x\xe9&1\x08\xe0?'
p6396
tp6397
Rp6398
sg26
(lp6399
(g4690
g4688
F0.501
tp6400
assg3
F0.0
sg29
(lp6401
(lp6402
g4690
aa(lp6403
g4688
aasg2
F1.0
ssI455
(dp6404
g1
F-1.0
sg7
(lp6405
(lp6406
g1947
aa(lp6407
g1949
aasg13
(dp6408
g15
g16
(g20
S'\xd5x\xe9&1\x08\xe0?'
p6409
tp6410
Rp6411
sg26
(lp6412
(g1949
g1947
F0.501
tp6413
assg3
F0.0
sg29
(lp6414
(lp6415
g1949
aa(lp6416
g1947
aasg2
F1.0
ssI456
(dp6417
g1
F-1.0
sg7
(lp6418
(lp6419
g1407
aa(lp6420
g867
aasg13
(dp6421
g15
g16
(g20
S'\xd5x\xe9&1\x08\xe0?'
p6422
tp6423
Rp6424
sg26
(lp6425
(g867
g1407
F0.501
tp6426
assg3
F0.0
sg29
(lp6427
(lp6428
g867
aa(lp6429
g1407
aasg2
F1.0
ssI457
(dp6430
g1
F-1.0
sg7
(lp6431
(lp6432
g1713
aa(lp6433
g1715
aasg13
(dp6434
g15
g16
(g20
S'\xd5x\xe9&1\x08\xe0?'
p6435
tp6436
Rp6437
sg26
(lp6438
(g1715
g1713
F0.501
tp6439
assg3
F0.0
sg29
(lp6440
(lp6441
g1715
aa(lp6442
g1713
aasg2
F1.0
ssI458
(dp6443
g1
F1.0
sg7
(lp6444
(lp6445
g1540
aa(lp6446
g1542
aasg13
(dp6447
g15
g16
(g20
S'\xd5x\xe9&1\x08\xe0?'
p6448
tp6449
Rp6450
sg26
(lp6451
(g1540
g1542
F0.501
tp6452
assg3
F1.0
sg29
(lp6453
(lp6454
g1540
aa(lp6455
g1542
aasg2
F1.0
ssI459
(dp6456
g1
F1.0
sg7
(lp6457
(lp6458
g629
aa(lp6459
g1481
aasg13
(dp6460
g15
g16
(g20
S'\xd5x\xe9&1\x08\xe0?'
p6461
tp6462
Rp6463
sg26
(lp6464
(g629
g1481
F0.501
tp6465
assg3
F1.0
sg29
(lp6466
(lp6467
g629
aa(lp6468
g1481
aasg2
F1.0
ssI460
(dp6469
g1
F-1.0
sg7
(lp6470
(lp6471
g3037
aa(lp6472
g3039
aasg13
(dp6473
g15
g16
(g20
S'\xd5x\xe9&1\x08\xe0?'
p6474
tp6475
Rp6476
sg26
(lp6477
(g3039
g3037
F0.501
tp6478
assg3
F0.0
sg29
(lp6479
(lp6480
g3039
aa(lp6481
g3037
aasg2
F1.0
ssI461
(dp6482
g1
F-1.0
sg7
(lp6483
(lp6484
g1173
aa(lp6485
g1175
aasg13
(dp6486
g15
g16
(g20
S'\xd5x\xe9&1\x08\xe0?'
p6487
tp6488
Rp6489
sg26
(lp6490
(g1175
g1173
F0.501
tp6491
assg3
F0.0
sg29
(lp6492
(lp6493
g1175
aa(lp6494
g1173
aasg2
F1.0
ssI462
(dp6495
g1
F-1.0
sg7
(lp6496
(lp6497
g5627
aa(lp6498
g158
aasg13
(dp6499
g15
g16
(g20
S'\xd5x\xe9&1\x08\xe0?'
p6500
tp6501
Rp6502
sg26
(lp6503
(g158
g5627
F0.501
tp6504
assg3
F0.0
sg29
(lp6505
(lp6506
g158
aa(lp6507
g5627
aasg2
F1.0
ssI463
(dp6508
g1
F1.0
sg7
(lp6509
(lp6510
g747
aa(lp6511
g749
aasg13
(dp6512
g15
g16
(g20
S'\xd5x\xe9&1\x08\xe0?'
p6513
tp6514
Rp6515
sg26
(lp6516
(g747
g749
F0.501
tp6517
assg3
F1.0
sg29
(lp6518
(lp6519
g747
aa(lp6520
g749
aasg2
F1.0
ssI464
(dp6521
g1
F1.0
sg7
(lp6522
(lp6523
g1276
aa(lp6524
g543
aasg13
(dp6525
g15
g16
(g20
S'\xd5x\xe9&1\x08\xe0?'
p6526
tp6527
Rp6528
sg26
(lp6529
(g1276
g543
F0.501
tp6530
assg3
F1.0
sg29
(lp6531
(lp6532
g1276
aa(lp6533
g543
aasg2
F1.0
ssI465
(dp6534
g1
F1.0
sg7
(lp6535
(lp6536
S'firm'
p6537
aa(lp6538
S'firmer'
p6539
aasg13
(dp6540
g15
g16
(g20
S'\xd5x\xe9&1\x08\xe0?'
p6541
tp6542
Rp6543
sg26
(lp6544
(g6537
g6539
F0.501
tp6545
assg3
F1.0
sg29
(lp6546
(lp6547
g6537
aa(lp6548
g6539
aasg2
F1.0
ssI466
(dp6549
g1
F-1.0
sg7
(lp6550
(lp6551
g515
aa(lp6552
g517
aasg13
(dp6553
g15
g16
(g20
S'\xd5x\xe9&1\x08\xe0?'
p6554
tp6555
Rp6556
sg26
(lp6557
(g517
g515
F0.501
tp6558
assg3
F0.0
sg29
(lp6559
(lp6560
g517
aa(lp6561
g515
aasg2
F1.0
ssI467
(dp6562
g1
F-1.0
sg7
(lp6563
(lp6564
g3009
aa(lp6565
g3011
aasg13
(dp6566
g15
g16
(g20
S'\xd5x\xe9&1\x08\xe0?'
p6567
tp6568
Rp6569
sg26
(lp6570
(g3011
g3009
F0.501
tp6571
assg3
F0.0
sg29
(lp6572
(lp6573
g3011
aa(lp6574
g3009
aasg2
F1.0
ssI468
(dp6575
g1
F-1.0
sg7
(lp6576
(lp6577
S'timely'
p6578
aa(lp6579
S'timelier'
p6580
aasg13
(dp6581
g15
g16
(g20
S'\xd5x\xe9&1\x08\xe0?'
p6582
tp6583
Rp6584
sg26
(lp6585
(g6580
g6578
F0.501
tp6586
assg3
F0.0
sg29
(lp6587
(lp6588
g6580
aa(lp6589
g6578
aasg2
F1.0
ssI469
(dp6590
g1
F1.0
sg7
(lp6591
(lp6592
g485
aa(lp6593
g487
aasg13
(dp6594
g15
g16
(g20
S'\xd5x\xe9&1\x08\xe0?'
p6595
tp6596
Rp6597
sg26
(lp6598
(g485
g487
F0.501
tp6599
assg3
F1.0
sg29
(lp6600
(lp6601
g485
aa(lp6602
g487
aasg2
F1.0
ssI470
(dp6603
g1
F-1.0
sg7
(lp6604
(lp6605
g2316
aa(lp6606
g719
aasg13
(dp6607
g15
g16
(g20
S'\xd5x\xe9&1\x08\xe0?'
p6608
tp6609
Rp6610
sg26
(lp6611
(g719
g2316
F0.501
tp6612
assg3
F0.0
sg29
(lp6613
(lp6614
g719
aa(lp6615
g2316
aasg2
F1.0
ssI471
(dp6616
g1
F-1.0
sg7
(lp6617
(lp6618
g426
aa(lp6619
g428
aasg13
(dp6620
g15
g16
(g20
S'\xd5x\xe9&1\x08\xe0?'
p6621
tp6622
Rp6623
sg26
(lp6624
(g428
g426
F0.501
tp6625
assg3
F0.0
sg29
(lp6626
(lp6627
g428
aa(lp6628
g426
aasg2
F1.0
ssI472
(dp6629
g1
F1.0
sg7
(lp6630
(lp6631
g4056
aa(lp6632
g646
aasg13
(dp6633
g15
g16
(g20
S'\xd5x\xe9&1\x08\xe0?'
p6634
tp6635
Rp6636
sg26
(lp6637
(g4056
g646
F0.501
tp6638
assg3
F1.0
sg29
(lp6639
(lp6640
g4056
aa(lp6641
g646
aasg2
F1.0
ssI473
(dp6642
g1
F-1.0
sg7
(lp6643
(lp6644
g1188
aa(lp6645
g1190
aasg13
(dp6646
g15
g16
(g20
S'\xd5x\xe9&1\x08\xe0?'
p6647
tp6648
Rp6649
sg26
(lp6650
(g1190
g1188
F0.501
tp6651
assg3
F0.0
sg29
(lp6652
(lp6653
g1190
aa(lp6654
g1188
aasg2
F1.0
ssI474
(dp6655
g1
F-1.0
sg7
(lp6656
(lp6657
g3471
aa(lp6658
g3473
aasg13
(dp6659
g15
g16
(g20
S'\xd5x\xe9&1\x08\xe0?'
p6660
tp6661
Rp6662
sg26
(lp6663
(g3473
g3471
F0.501
tp6664
assg3
F0.0
sg29
(lp6665
(lp6666
g3473
aa(lp6667
g3471
aasg2
F1.0
ssI475
(dp6668
g1
F1.0
sg7
(lp6669
(lp6670
g6537
aa(lp6671
g6539
aasg13
(dp6672
g15
g16
(g20
S'\xd5x\xe9&1\x08\xe0?'
p6673
tp6674
Rp6675
sg26
(lp6676
(g6537
g6539
F0.501
tp6677
assg3
F1.0
sg29
(lp6678
(lp6679
g6537
aa(lp6680
g6539
aasg2
F1.0
ssI476
(dp6681
g1
F-1.0
sg7
(lp6682
(lp6683
g3874
aa(lp6684
g98
aasg13
(dp6685
g15
g16
(g20
S'\xd5x\xe9&1\x08\xe0?'
p6686
tp6687
Rp6688
sg26
(lp6689
(g98
g3874
F0.501
tp6690
assg3
F0.0
sg29
(lp6691
(lp6692
g98
aa(lp6693
g3874
aasg2
F1.0
ssI477
(dp6694
g1
F-1.0
sg7
(lp6695
(lp6696
g1771
aa(lp6697
g3251
aasg13
(dp6698
g15
g16
(g20
S'\xd5x\xe9&1\x08\xe0?'
p6699
tp6700
Rp6701
sg26
(lp6702
(g3251
g1771
F0.501
tp6703
assg3
F0.0
sg29
(lp6704
(lp6705
g3251
aa(lp6706
g1771
aasg2
F1.0
ssI478
(dp6707
g1
F-1.0
sg7
(lp6708
(lp6709
g732
aa(lp6710
g734
aasg13
(dp6711
g15
g16
(g20
S'\xd5x\xe9&1\x08\xe0?'
p6712
tp6713
Rp6714
sg26
(lp6715
(g734
g732
F0.501
tp6716
assg3
F0.0
sg29
(lp6717
(lp6718
g734
aa(lp6719
g732
aasg2
F1.0
ssI479
(dp6720
g1
F-1.0
sg7
(lp6721
(lp6722
g1932
aa(lp6723
g3291
aasg13
(dp6724
g15
g16
(g20
S'\xd5x\xe9&1\x08\xe0?'
p6725
tp6726
Rp6727
sg26
(lp6728
(g3291
g1932
F0.501
tp6729
assg3
F0.0
sg29
(lp6730
(lp6731
g3291
aa(lp6732
g1932
aasg2
F1.0
ssI480
(dp6733
g1
F1.0
sg7
(lp6734
(lp6735
g3125
aa(lp6736
g1615
aasg13
(dp6737
g15
g16
(g20
S'\xd5x\xe9&1\x08\xe0?'
p6738
tp6739
Rp6740
sg26
(lp6741
(g3125
g1615
F0.501
tp6742
assg3
F1.0
sg29
(lp6743
(lp6744
g3125
aa(lp6745
g1615
aasg2
F1.0
ssI481
(dp6746
g1
F1.0
sg7
(lp6747
(lp6748
g171
aa(lp6749
g173
aasg13
(dp6750
g15
g16
(g20
S'\xd5x\xe9&1\x08\xe0?'
p6751
tp6752
Rp6753
sg26
(lp6754
(g171
g173
F0.501
tp6755
assg3
F1.0
sg29
(lp6756
(lp6757
g171
aa(lp6758
g173
aasg2
F1.0
ssI482
(dp6759
g1
F-1.0
sg7
(lp6760
(lp6761
g2247
aa(lp6762
g2249
aasg13
(dp6763
g15
g16
(g20
S'\xd5x\xe9&1\x08\xe0?'
p6764
tp6765
Rp6766
sg26
(lp6767
(g2249
g2247
F0.501
tp6768
assg3
F0.0
sg29
(lp6769
(lp6770
g2249
aa(lp6771
g2247
aasg2
F1.0
ssI483
(dp6772
g1
F-1.0
sg7
(lp6773
(lp6774
g2459
aa(lp6775
g2461
aasg13
(dp6776
g15
g16
(g20
S'\xd5x\xe9&1\x08\xe0?'
p6777
tp6778
Rp6779
sg26
(lp6780
(g2461
g2459
F0.501
tp6781
assg3
F0.0
sg29
(lp6782
(lp6783
g2461
aa(lp6784
g2459
aasg2
F1.0
ssI484
(dp6785
g1
F-1.0
sg7
(lp6786
(lp6787
g4772
aa(lp6788
g4774
aasg13
(dp6789
g15
g16
(g20
S'\xd5x\xe9&1\x08\xe0?'
p6790
tp6791
Rp6792
sg26
(lp6793
(g4774
g4772
F0.501
tp6794
assg3
F0.0
sg29
(lp6795
(lp6796
g4774
aa(lp6797
g4772
aasg2
F1.0
ssI485
(dp6798
g1
F-1.0
sg7
(lp6799
(lp6800
g1451
aa(lp6801
g1453
aasg13
(dp6802
g15
g16
(g20
S'\xd5x\xe9&1\x08\xe0?'
p6803
tp6804
Rp6805
sg26
(lp6806
(g1453
g1451
F0.501
tp6807
assg3
F0.0
sg29
(lp6808
(lp6809
g1453
aa(lp6810
g1451
aasg2
F1.0
ssI486
(dp6811
g1
F-1.0
sg7
(lp6812
(lp6813
g4231
aa(lp6814
g912
aasg13
(dp6815
g15
g16
(g20
S'\xd5x\xe9&1\x08\xe0?'
p6816
tp6817
Rp6818
sg26
(lp6819
(g912
g4231
F0.501
tp6820
assg3
F0.0
sg29
(lp6821
(lp6822
g912
aa(lp6823
g4231
aasg2
F1.0
ssI487
(dp6824
g1
F-1.0
sg7
(lp6825
(lp6826
g5347
aa(lp6827
g5349
aasg13
(dp6828
g15
g16
(g20
S'\xd5x\xe9&1\x08\xe0?'
p6829
tp6830
Rp6831
sg26
(lp6832
(g5349
g5347
F0.501
tp6833
assg3
F0.0
sg29
(lp6834
(lp6835
g5349
aa(lp6836
g5347
aasg2
F1.0
ssI488
(dp6837
g1
F-1.0
sg7
(lp6838
(lp6839
S'simpler'
p6840
aa(lp6841
g987
aasg13
(dp6842
g15
g16
(g20
S'\xd5x\xe9&1\x08\xe0?'
p6843
tp6844
Rp6845
sg26
(lp6846
(g987
g6840
F0.501
tp6847
assg3
F0.0
sg29
(lp6848
(lp6849
g987
aa(lp6850
g6840
aasg2
F1.0
ssI489
(dp6851
g1
F1.0
sg7
(lp6852
(lp6853
g5573
aa(lp6854
g5575
aasg13
(dp6855
g15
g16
(g20
S'\xd5x\xe9&1\x08\xe0?'
p6856
tp6857
Rp6858
sg26
(lp6859
(g5573
g5575
F0.501
tp6860
assg3
F1.0
sg29
(lp6861
(lp6862
g5573
aa(lp6863
g5575
aasg2
F1.0
ssI490
(dp6864
g1
F-1.0
sg7
(lp6865
(lp6866
g2146
aa(lp6867
g2005
aasg13
(dp6868
g15
g16
(g20
S'\xd5x\xe9&1\x08\xe0?'
p6869
tp6870
Rp6871
sg26
(lp6872
(g2005
g2146
F0.501
tp6873
assg3
F0.0
sg29
(lp6874
(lp6875
g2005
aa(lp6876
g2146
aasg2
F1.0
ssI491
(dp6877
g1
F-1.0
sg7
(lp6878
(lp6879
g3222
aa(lp6880
g3224
aasg13
(dp6881
g15
g16
(g20
S'\xd5x\xe9&1\x08\xe0?'
p6882
tp6883
Rp6884
sg26
(lp6885
(g3224
g3222
F0.501
tp6886
assg3
F0.0
sg29
(lp6887
(lp6888
g3224
aa(lp6889
g3222
aasg2
F1.0
ssI492
(dp6890
g1
F-1.0
sg7
(lp6891
(lp6892
g3609
aa(lp6893
g3611
aasg13
(dp6894
g15
g16
(g20
S'\xd5x\xe9&1\x08\xe0?'
p6895
tp6896
Rp6897
sg26
(lp6898
(g3611
g3609
F0.501
tp6899
assg3
F0.0
sg29
(lp6900
(lp6901
g3611
aa(lp6902
g3609
aasg2
F1.0
ssI493
(dp6903
g1
F-1.0
sg7
(lp6904
(lp6905
g6578
aa(lp6906
g6580
aasg13
(dp6907
g15
g16
(g20
S'\xd5x\xe9&1\x08\xe0?'
p6908
tp6909
Rp6910
sg26
(lp6911
(g6580
g6578
F0.501
tp6912
assg3
F0.0
sg29
(lp6913
(lp6914
g6580
aa(lp6915
g6578
aasg2
F1.0
ssI494
(dp6916
g1
F-1.0
sg7
(lp6917
(lp6918
g865
aa(lp6919
g867
aasg13
(dp6920
g15
g16
(g20
S'\xd5x\xe9&1\x08\xe0?'
p6921
tp6922
Rp6923
sg26
(lp6924
(g867
g865
F0.501
tp6925
assg3
F0.0
sg29
(lp6926
(lp6927
g867
aa(lp6928
g865
aasg2
F1.0
ssI495
(dp6929
g1
F1.0
sg7
(lp6930
(lp6931
g762
aa(lp6932
g1656
aasg13
(dp6933
g15
g16
(g20
S'\xd5x\xe9&1\x08\xe0?'
p6934
tp6935
Rp6936
sg26
(lp6937
(g762
g1656
F0.501
tp6938
assg3
F1.0
sg29
(lp6939
(lp6940
g762
aa(lp6941
g1656
aasg2
F1.0
ssI496
(dp6942
g1
F-1.0
sg7
(lp6943
(lp6944
g4841
aa(lp6945
g4843
aasg13
(dp6946
g15
g16
(g20
S'\xd5x\xe9&1\x08\xe0?'
p6947
tp6948
Rp6949
sg26
(lp6950
(g4843
g4841
F0.501
tp6951
assg3
F0.0
sg29
(lp6952
(lp6953
g4843
aa(lp6954
g4841
aasg2
F1.0
ssI497
(dp6955
g1
F-1.0
sg7
(lp6956
(lp6957
g1146
aa(lp6958
g68
aasg13
(dp6959
g15
g16
(g20
S'\xd5x\xe9&1\x08\xe0?'
p6960
tp6961
Rp6962
sg26
(lp6963
(g68
g1146
F0.501
tp6964
assg3
F0.0
sg29
(lp6965
(lp6966
g68
aa(lp6967
g1146
aasg2
F1.0
ssI498
(dp6968
g1
F1.0
sg7
(lp6969
(lp6970
g4425
aa(lp6971
g4427
aasg13
(dp6972
g15
g16
(g20
S'\xd5x\xe9&1\x08\xe0?'
p6973
tp6974
Rp6975
sg26
(lp6976
(g4425
g4427
F0.501
tp6977
assg3
F1.0
sg29
(lp6978
(lp6979
g4425
aa(lp6980
g4427
aasg2
F1.0
ssI499
(dp6981
g1
F1.0
sg7
(lp6982
(lp6983
S'broad'
p6984
aa(lp6985
S'broader'
p6986
aasg13
(dp6987
g15
g16
(g20
S'\xd5x\xe9&1\x08\xe0?'
p6988
tp6989
Rp6990
sg26
(lp6991
(g6984
g6986
F0.501
tp6992
assg3
F1.0
sg29
(lp6993
(lp6994
g6984
aa(lp6995
g6986
aasg2
F1.0
ssI500
(dp6996
g1
F-1.0
sg7
(lp6997
(lp6998
g3963
aa(lp6999
g3965
aasg13
(dp7000
g15
g16
(g20
S'\xd5x\xe9&1\x08\xe0?'
p7001
tp7002
Rp7003
sg26
(lp7004
(g3965
g3963
F0.501
tp7005
assg3
F0.0
sg29
(lp7006
(lp7007
g3965
aa(lp7008
g3963
aasg2
F1.0
ssI501
(dp7009
g1
F-1.0
sg7
(lp7010
(lp7011
g1728
aa(lp7012
g1730
aasg13
(dp7013
g15
g16
(g20
S'\xd5x\xe9&1\x08\xe0?'
p7014
tp7015
Rp7016
sg26
(lp7017
(g1730
g1728
F0.501
tp7018
assg3
F0.0
sg29
(lp7019
(lp7020
g1730
aa(lp7021
g1728
aasg2
F1.0
ssI502
(dp7022
g1
F-1.0
sg7
(lp7023
(lp7024
g3918
aa(lp7025
g3920
aasg13
(dp7026
g15
g16
(g20
S'\xd5x\xe9&1\x08\xe0?'
p7027
tp7028
Rp7029
sg26
(lp7030
(g3920
g3918
F0.501
tp7031
assg3
F0.0
sg29
(lp7032
(lp7033
g3920
aa(lp7034
g3918
aasg2
F1.0
ssI503
(dp7035
g1
F-1.0
sg7
(lp7036
(lp7037
g1510
aa(lp7038
g1512
aasg13
(dp7039
g15
g16
(g20
S'\xd5x\xe9&1\x08\xe0?'
p7040
tp7041
Rp7042
sg26
(lp7043
(g1512
g1510
F0.501
tp7044
assg3
F0.0
sg29
(lp7045
(lp7046
g1512
aa(lp7047
g1510
aasg2
F1.0
ssI504
(dp7048
g1
F1.0
sg7
(lp7049
(lp7050
g1335
aa(lp7051
g1032
aasg13
(dp7052
g15
g16
(g20
S'\xd5x\xe9&1\x08\xe0?'
p7053
tp7054
Rp7055
sg26
(lp7056
(g1335
g1032
F0.501
tp7057
assg3
F1.0
sg29
(lp7058
(lp7059
g1335
aa(lp7060
g1032
aasg2
F1.0
ssI505
(dp7061
g1
F-1.0
sg7
(lp7062
(lp7063
g5680
aa(lp7064
g5682
aasg13
(dp7065
g15
g16
(g20
S'\xd5x\xe9&1\x08\xe0?'
p7066
tp7067
Rp7068
sg26
(lp7069
(g5682
g5680
F0.501
tp7070
assg3
F0.0
sg29
(lp7071
(lp7072
g5682
aa(lp7073
g5680
aasg2
F1.0
ssI506
(dp7074
g1
F1.0
sg7
(lp7075
(lp7076
S'well'
p7077
aa(lp7078
S'better'
p7079
aasg13
(dp7080
g15
g16
(g20
S'\xd5x\xe9&1\x08\xe0?'
p7081
tp7082
Rp7083
sg26
(lp7084
(g7077
g7079
F0.501
tp7085
assg3
F1.0
sg29
(lp7086
(lp7087
g7077
aa(lp7088
g7079
aasg2
F1.0
ssI507
(dp7089
g1
F1.0
sg7
(lp7090
(lp7091
g1103
aa(lp7092
g1105
aasg13
(dp7093
g15
g16
(g20
S'\xd5x\xe9&1\x08\xe0?'
p7094
tp7095
Rp7096
sg26
(lp7097
(g1103
g1105
F0.501
tp7098
assg3
F1.0
sg29
(lp7099
(lp7100
g1103
aa(lp7101
g1105
aasg2
F1.0
ssI508
(dp7102
g1
F-1.0
sg7
(lp7103
(lp7104
g4521
aa(lp7105
g4330
aasg13
(dp7106
g15
g16
(g20
S'\xd5x\xe9&1\x08\xe0?'
p7107
tp7108
Rp7109
sg26
(lp7110
(g4330
g4521
F0.501
tp7111
assg3
F0.0
sg29
(lp7112
(lp7113
g4330
aa(lp7114
g4521
aasg2
F1.0
ssI509
(dp7115
g1
F1.0
sg7
(lp7116
(lp7117
g7077
aa(lp7118
g7079
aasg13
(dp7119
g15
g16
(g20
S'\xd5x\xe9&1\x08\xe0?'
p7120
tp7121
Rp7122
sg26
(lp7123
(g7077
g7079
F0.501
tp7124
assg3
F1.0
sg29
(lp7125
(lp7126
g7077
aa(lp7127
g7079
aasg2
F1.0
ssI510
(dp7128
g1
F1.0
sg7
(lp7129
(lp7130
g2371
aa(lp7131
g2373
aasg13
(dp7132
g15
g16
(g20
S'\xd5x\xe9&1\x08\xe0?'
p7133
tp7134
Rp7135
sg26
(lp7136
(g2371
g2373
F0.501
tp7137
assg3
F1.0
sg29
(lp7138
(lp7139
g2371
aa(lp7140
g2373
aasg2
F1.0
ssI511
(dp7141
g1
F-1.0
sg7
(lp7142
(lp7143
g4178
aa(lp7144
g2091
aasg13
(dp7145
g15
g16
(g20
S'\xd5x\xe9&1\x08\xe0?'
p7146
tp7147
Rp7148
sg26
(lp7149
(g2091
g4178
F0.501
tp7150
assg3
F0.0
sg29
(lp7151
(lp7152
g2091
aa(lp7153
g4178
aasg2
F1.0
ssI512
(dp7154
g1
F1.0
sg7
(lp7155
(lp7156
g5043
aa(lp7157
g5045
aasg13
(dp7158
g15
g16
(g20
S'\xd5x\xe9&1\x08\xe0?'
p7159
tp7160
Rp7161
sg26
(lp7162
(g5043
g5045
F0.501
tp7163
assg3
F1.0
sg29
(lp7164
(lp7165
g5043
aa(lp7166
g5045
aasg2
F1.0
ssI513
(dp7167
g1
F-1.0
sg7
(lp7168
(lp7169
g6840
aa(lp7170
g987
aasg13
(dp7171
g15
g16
(g20
S'\xd5x\xe9&1\x08\xe0?'
p7172
tp7173
Rp7174
sg26
(lp7175
(g987
g6840
F0.501
tp7176
assg3
F0.0
sg29
(lp7177
(lp7178
g987
aa(lp7179
g6840
aasg2
F1.0
ssI514
(dp7180
g1
F-1.0
sg7
(lp7181
(lp7182
g5388
aa(lp7183
g5390
aasg13
(dp7184
g15
g16
(g20
S'\xd5x\xe9&1\x08\xe0?'
p7185
tp7186
Rp7187
sg26
(lp7188
(g5390
g5388
F0.501
tp7189
assg3
F0.0
sg29
(lp7190
(lp7191
g5390
aa(lp7192
g5388
aasg2
F1.0
ssI515
(dp7193
g1
F-1.0
sg7
(lp7194
(lp7195
S'brave'
p7196
aa(lp7197
S'braver'
p7198
aasg13
(dp7199
g15
g16
(g20
S'\xd5x\xe9&1\x08\xe0?'
p7200
tp7201
Rp7202
sg26
(lp7203
(g7198
g7196
F0.501
tp7204
assg3
F0.0
sg29
(lp7205
(lp7206
g7198
aa(lp7207
g7196
aasg2
F1.0
ssI516
(dp7208
g1
F1.0
sg7
(lp7209
(lp7210
S'later'
p7211
aa(lp7212
S'latest'
p7213
aasg13
(dp7214
g15
g16
(g20
S'\xd5x\xe9&1\x08\xe0?'
p7215
tp7216
Rp7217
sg26
(lp7218
(g7211
g7213
F0.501
tp7219
assg3
F1.0
sg29
(lp7220
(lp7221
g7211
aa(lp7222
g7213
aasg2
F1.0
ssI517
(dp7223
g1
F-1.0
sg7
(lp7224
(lp7225
g3859
aa(lp7226
g3861
aasg13
(dp7227
g15
g16
(g20
S'\xd5x\xe9&1\x08\xe0?'
p7228
tp7229
Rp7230
sg26
(lp7231
(g3861
g3859
F0.501
tp7232
assg3
F0.0
sg29
(lp7233
(lp7234
g3861
aa(lp7235
g3859
aasg2
F1.0
ssI518
(dp7236
g1
F-1.0
sg7
(lp7237
(lp7238
g7196
aa(lp7239
g7198
aasg13
(dp7240
g15
g16
(g20
S'\xd5x\xe9&1\x08\xe0?'
p7241
tp7242
Rp7243
sg26
(lp7244
(g7198
g7196
F0.501
tp7245
assg3
F0.0
sg29
(lp7246
(lp7247
g7198
aa(lp7248
g7196
aasg2
F1.0
ssI519
(dp7249
g1
F-1.0
sg7
(lp7250
(lp7251
g2587
aa(lp7252
g338
aasg13
(dp7253
g15
g16
(g20
S'\xd5x\xe9&1\x08\xe0?'
p7254
tp7255
Rp7256
sg26
(lp7257
(g338
g2587
F0.501
tp7258
assg3
F0.0
sg29
(lp7259
(lp7260
g338
aa(lp7261
g2587
aasg2
F1.0
ssI520
(dp7262
g1
F1.0
sg7
(lp7263
(lp7264
g3066
aa(lp7265
g3068
aasg13
(dp7266
g15
g16
(g20
S'V\x0e-\xb2\x9d\xef\xdf?'
p7267
tp7268
Rp7269
sg26
(lp7270
(g3066
g3068
F0.499
tp7271
assg3
F1.0
sg29
(lp7272
(lp7273
g3066
aa(lp7274
g3068
aasg2
F1.0
ssI521
(dp7275
g1
F-1.0
sg7
(lp7276
(lp7277
g1934
aa(lp7278
g3291
aasg13
(dp7279
g15
g16
(g20
S'\xd5x\xe9&1\x08\xe0?'
p7280
tp7281
Rp7282
sg26
(lp7283
(g3291
g1934
F0.501
tp7284
assg3
F0.0
sg29
(lp7285
(lp7286
g3291
aa(lp7287
g1934
aasg2
F1.0
ssI522
(dp7288
g1
F1.0
sg7
(lp7289
(lp7290
g7211
aa(lp7291
g7213
aasg13
(dp7292
g15
g16
(g20
S'\xd5x\xe9&1\x08\xe0?'
p7293
tp7294
Rp7295
sg26
(lp7296
(g7211
g7213
F0.501
tp7297
assg3
F1.0
sg29
(lp7298
(lp7299
g7211
aa(lp7300
g7213
aasg2
F1.0
ssI523
(dp7301
g1
F1.0
sg7
(lp7302
(lp7303
g1857
aa(lp7304
g1859
aasg13
(dp7305
g15
g16
(g20
S'\xd5x\xe9&1\x08\xe0?'
p7306
tp7307
Rp7308
sg26
(lp7309
(g1857
g1859
F0.501
tp7310
assg3
F1.0
sg29
(lp7311
(lp7312
g1857
aa(lp7313
g1859
aasg2
F1.0
ssI524
(dp7314
g1
F-1.0
sg7
(lp7315
(lp7316
g3139
aa(lp7317
g2858
aasg13
(dp7318
g15
g16
(g20
S'\xd5x\xe9&1\x08\xe0?'
p7319
tp7320
Rp7321
sg26
(lp7322
(g2858
g3139
F0.501
tp7323
assg3
F0.0
sg29
(lp7324
(lp7325
g2858
aa(lp7326
g3139
aasg2
F1.0
ssI525
(dp7327
g1
F-1.0
sg7
(lp7328
(lp7329
g2414
aa(lp7330
g2416
aasg13
(dp7331
g15
g16
(g20
S'\xd5x\xe9&1\x08\xe0?'
p7332
tp7333
Rp7334
sg26
(lp7335
(g2416
g2414
F0.501
tp7336
assg3
F0.0
sg29
(lp7337
(lp7338
g2416
aa(lp7339
g2414
aasg2
F1.0
ssI526
(dp7340
g1
F-1.0
sg7
(lp7341
(lp7342
g4272
aa(lp7343
g4274
aasg13
(dp7344
g15
g16
(g20
S'\xd5x\xe9&1\x08\xe0?'
p7345
tp7346
Rp7347
sg26
(lp7348
(g4274
g4272
F0.501
tp7349
assg3
F0.0
sg29
(lp7350
(lp7351
g4274
aa(lp7352
g4272
aasg2
F1.0
ssI527
(dp7353
g1
F1.0
sg7
(lp7354
(lp7355
g500
aa(lp7356
g502
aasg13
(dp7357
g15
g16
(g20
S'\xd5x\xe9&1\x08\xe0?'
p7358
tp7359
Rp7360
sg26
(lp7361
(g500
g502
F0.501
tp7362
assg3
F1.0
sg29
(lp7363
(lp7364
g500
aa(lp7365
g502
aasg2
F1.0
ssI528
(dp7366
g1
F-1.0
sg7
(lp7367
(lp7368
g895
aa(lp7369
g897
aasg13
(dp7370
g15
g16
(g20
S'\xd5x\xe9&1\x08\xe0?'
p7371
tp7372
Rp7373
sg26
(lp7374
(g897
g895
F0.501
tp7375
assg3
F0.0
sg29
(lp7376
(lp7377
g897
aa(lp7378
g895
aasg2
F1.0
ssI529
(dp7379
g1
F-1.0
sg7
(lp7380
(lp7381
g381
aa(lp7382
g383
aasg13
(dp7383
g15
g16
(g20
S'\xd5x\xe9&1\x08\xe0?'
p7384
tp7385
Rp7386
sg26
(lp7387
(g383
g381
F0.501
tp7388
assg3
F0.0
sg29
(lp7389
(lp7390
g383
aa(lp7391
g381
aasg2
F1.0
ssI530
(dp7392
g1
F-1.0
sg7
(lp7393
(lp7394
g1407
aa(lp7395
g865
aasg13
(dp7396
g15
g16
(g20
S'\xd5x\xe9&1\x08\xe0?'
p7397
tp7398
Rp7399
sg26
(lp7400
(g865
g1407
F0.501
tp7401
assg3
F0.0
sg29
(lp7402
(lp7403
g865
aa(lp7404
g1407
aasg2
F1.0
ssI531
(dp7405
g1
F1.0
sg7
(lp7406
(lp7407
g6984
aa(lp7408
g6986
aasg13
(dp7409
g15
g16
(g20
S'\xd5x\xe9&1\x08\xe0?'
p7410
tp7411
Rp7412
sg26
(lp7413
(g6984
g6986
F0.501
tp7414
assg3
F1.0
sg29
(lp7415
(lp7416
g6984
aa(lp7417
g6986
aasg2
F1.0
ssI532
(dp7418
g1
F-1.0
sg7
(lp7419
(lp7420
g5840
aa(lp7421
g5842
aasg13
(dp7422
g15
g16
(g20
S'\xd5x\xe9&1\x08\xe0?'
p7423
tp7424
Rp7425
sg26
(lp7426
(g5842
g5840
F0.501
tp7427
assg3
F0.0
sg29
(lp7428
(lp7429
g5842
aa(lp7430
g5840
aasg2
F1.0
ssI533
(dp7431
g1
F1.0
sg7
(lp7432
(lp7433
g1887
aa(lp7434
g1889
aasg13
(dp7435
g15
g16
(g20
S'\xd5x\xe9&1\x08\xe0?'
p7436
tp7437
Rp7438
sg26
(lp7439
(g1887
g1889
F0.501
tp7440
assg3
F1.0
sg29
(lp7441
(lp7442
g1887
aa(lp7443
g1889
aasg2
F1.0
ssI534
(dp7444
g1
F1.0
sg7
(lp7445
(lp7446
g5220
aa(lp7447
g5222
aasg13
(dp7448
g15
g16
(g20
S'\xd5x\xe9&1\x08\xe0?'
p7449
tp7450
Rp7451
sg26
(lp7452
(g5220
g5222
F0.501
tp7453
assg3
F1.0
sg29
(lp7454
(lp7455
g5220
aa(lp7456
g5222
aasg2
F1.0
ssI535
(dp7457
g1
F-1.0
sg7
(lp7458
(lp7459
g927
aa(lp7460
g2941
aasg13
(dp7461
g15
g16
(g20
S'\xd5x\xe9&1\x08\xe0?'
p7462
tp7463
Rp7464
sg26
(lp7465
(g2941
g927
F0.501
tp7466
assg3
F0.0
sg29
(lp7467
(lp7468
g2941
aa(lp7469
g927
aasg2
F1.0
ssI536
(dp7470
g1
F-1.0
sg7
(lp7471
(lp7472
g3515
aa(lp7473
g458
aasg13
(dp7474
g15
g16
(g20
S'\xd5x\xe9&1\x08\xe0?'
p7475
tp7476
Rp7477
sg26
(lp7478
(g458
g3515
F0.501
tp7479
assg3
F0.0
sg29
(lp7480
(lp7481
g458
aa(lp7482
g3515
aasg2
F1.0
ssI537
(dp7483
g1
F-1.0
sg7
(lp7484
(lp7485
g1525
aa(lp7486
g1527
aasg13
(dp7487
g15
g16
(g20
S'\xd5x\xe9&1\x08\xe0?'
p7488
tp7489
Rp7490
sg26
(lp7491
(g1527
g1525
F0.501
tp7492
assg3
F0.0
sg29
(lp7493
(lp7494
g1527
aa(lp7495
g1525
aasg2
F1.0
ssI538
(dp7496
g1
F-1.0
sg7
(lp7497
(lp7498
g2146
aa(lp7499
g2005
aasg13
(dp7500
g15
g16
(g20
S'\xd5x\xe9&1\x08\xe0?'
p7501
tp7502
Rp7503
sg26
(lp7504
(g2005
g2146
F0.501
tp7505
assg3
F0.0
sg29
(lp7506
(lp7507
g2005
aa(lp7508
g2146
aasg2
F1.0
ssI539
(dp7509
g1
F1.0
sg7
(lp7510
(lp7511
g3386
aa(lp7512
g3388
aasg13
(dp7513
g15
g16
(g20
S'\xd5x\xe9&1\x08\xe0?'
p7514
tp7515
Rp7516
sg26
(lp7517
(g3386
g3388
F0.501
tp7518
assg3
F1.0
sg29
(lp7519
(lp7520
g3386
aa(lp7521
g3388
aasg2
F1.0
ssI540
(dp7522
g1
F1.0
sg7
(lp7523
(lp7524
g4895
aa(lp7525
g4897
aasg13
(dp7526
g15
g16
(g20
S'\xd5x\xe9&1\x08\xe0?'
p7527
tp7528
Rp7529
sg26
(lp7530
(g4895
g4897
F0.501
tp7531
assg3
F1.0
sg29
(lp7532
(lp7533
g4895
aa(lp7534
g4897
aasg2
F1.0
ssI541
(dp7535
g1
F-1.0
sg7
(lp7536
(lp7537
g6328
aa(lp7538
g1672
aasg13
(dp7539
g15
g16
(g20
S'\xd5x\xe9&1\x08\xe0?'
p7540
tp7541
Rp7542
sg26
(lp7543
(g1672
g6328
F0.501
tp7544
assg3
F0.0
sg29
(lp7545
(lp7546
g1672
aa(lp7547
g6328
aasg2
F1.0
ssI542
(dp7548
g1
F1.0
sg7
(lp7549
(lp7550
g5138
aa(lp7551
g5140
aasg13
(dp7552
g15
g16
(g20
S'\xd5x\xe9&1\x08\xe0?'
p7553
tp7554
Rp7555
sg26
(lp7556
(g5138
g5140
F0.501
tp7557
assg3
F1.0
sg29
(lp7558
(lp7559
g5138
aa(lp7560
g5140
aasg2
F1.0
ssI543
(dp7561
g1
F-1.0
sg7
(lp7562
(lp7563
g1786
aa(lp7564
g1788
aasg13
(dp7565
g15
g16
(g20
S'\xd5x\xe9&1\x08\xe0?'
p7566
tp7567
Rp7568
sg26
(lp7569
(g1788
g1786
F0.501
tp7570
assg3
F0.0
sg29
(lp7571
(lp7572
g1788
aa(lp7573
g1786
aasg2
F1.0
ssI544
(dp7574
g1
F-1.0
sg7
(lp7575
(lp7576
g5235
aa(lp7577
g5237
aasg13
(dp7578
g15
g16
(g20
S'\xd5x\xe9&1\x08\xe0?'
p7579
tp7580
Rp7581
sg26
(lp7582
(g5237
g5235
F0.501
tp7583
assg3
F0.0
sg29
(lp7584
(lp7585
g5237
aa(lp7586
g5235
aasg2
F1.0
ssI545
(dp7587
g1
F1.0
sg7
(lp7588
(lp7589
g970
aa(lp7590
g972
aasg13
(dp7591
g15
g16
(g20
S'\xd5x\xe9&1\x08\xe0?'
p7592
tp7593
Rp7594
sg26
(lp7595
(g970
g972
F0.501
tp7596
assg3
F1.0
sg29
(lp7597
(lp7598
g970
aa(lp7599
g972
aasg2
F1.0
ssI546
(dp7600
g1
F1.0
sg7
(lp7601
(lp7602
g2925
aa(lp7603
g2927
aasg13
(dp7604
g15
g16
(g20
S'\xd5x\xe9&1\x08\xe0?'
p7605
tp7606
Rp7607
sg26
(lp7608
(g2925
g2927
F0.501
tp7609
assg3
F1.0
sg29
(lp7610
(lp7611
g2925
aa(lp7612
g2927
aasg2
F1.0
ssI547
(dp7613
g1
F1.0
sg7
(lp7614
(lp7615
g4673
aa(lp7616
g4675
aasg13
(dp7617
g15
g16
(g20
S'\xd5x\xe9&1\x08\xe0?'
p7618
tp7619
Rp7620
sg26
(lp7621
(g4673
g4675
F0.501
tp7622
assg3
F1.0
sg29
(lp7623
(lp7624
g4673
aa(lp7625
g4675
aasg2
F1.0
ssI548
(dp7626
g1
F-1.0
sg7
(lp7627
(lp7628
g3948
aa(lp7629
g3950
aasg13
(dp7630
g15
g16
(g20
S'\xd5x\xe9&1\x08\xe0?'
p7631
tp7632
Rp7633
sg26
(lp7634
(g3950
g3948
F0.501
tp7635
assg3
F0.0
sg29
(lp7636
(lp7637
g3950
aa(lp7638
g3948
aasg2
F1.0
ssI549
(dp7639
g1
F1.0
sg7
(lp7640
(lp7641
g5920
aa(lp7642
g5922
aasg13
(dp7643
g15
g16
(g20
S'\xd5x\xe9&1\x08\xe0?'
p7644
tp7645
Rp7646
sg26
(lp7647
(g5920
g5922
F0.501
tp7648
assg3
F1.0
sg29
(lp7649
(lp7650
g5920
aa(lp7651
g5922
aasg2
F1.0
ssI550
(dp7652
g1
F-1.0
sg7
(lp7653
(lp7654
g6210
aa(lp7655
g689
aasg13
(dp7656
g15
g16
(g20
S'\xd5x\xe9&1\x08\xe0?'
p7657
tp7658
Rp7659
sg26
(lp7660
(g689
g6210
F0.501
tp7661
assg3
F0.0
sg29
(lp7662
(lp7663
g689
aa(lp7664
g6210
aasg2
F1.0
ssI551
(dp7665
g1
F1.0
sg7
(lp7666
(lp7667
g278
aa(lp7668
g3082
aasg13
(dp7669
g15
g16
(g20
S'\xd5x\xe9&1\x08\xe0?'
p7670
tp7671
Rp7672
sg26
(lp7673
(g278
g3082
F0.501
tp7674
assg3
F1.0
sg29
(lp7675
(lp7676
g278
aa(lp7677
g3082
aasg2
F1.0
ssI552
(dp7678
g1
F-1.0
sg7
(lp7679
(lp7680
g850
aa(lp7681
g852
aasg13
(dp7682
g15
g16
(g20
S'\xd5x\xe9&1\x08\xe0?'
p7683
tp7684
Rp7685
sg26
(lp7686
(g852
g850
F0.501
tp7687
assg3
F0.0
sg29
(lp7688
(lp7689
g852
aa(lp7690
g850
aasg2
F1.0
ssI553
(dp7691
g1
F-1.0
sg7
(lp7692
(lp7693
g4535
aa(lp7694
g4537
aasg13
(dp7695
g15
g16
(g20
S'\xd5x\xe9&1\x08\xe0?'
p7696
tp7697
Rp7698
sg26
(lp7699
(g4537
g4535
F0.501
tp7700
assg3
F0.0
sg29
(lp7701
(lp7702
g4537
aa(lp7703
g4535
aasg2
F1.0
ssI554
(dp7704
g1
F-1.0
sg7
(lp7705
(lp7706
g1670
aa(lp7707
g1672
aasg13
(dp7708
g15
g16
(g20
S'\xd5x\xe9&1\x08\xe0?'
p7709
tp7710
Rp7711
sg26
(lp7712
(g1672
g1670
F0.501
tp7713
assg3
F0.0
sg29
(lp7714
(lp7715
g1672
aa(lp7716
g1670
aasg2
F1.0
ssI555
(dp7717
g1
F-1.0
sg7
(lp7718
(lp7719
g5747
aa(lp7720
g5749
aasg13
(dp7721
g15
g16
(g20
S'\xd5x\xe9&1\x08\xe0?'
p7722
tp7723
Rp7724
sg26
(lp7725
(g5749
g5747
F0.501
tp7726
assg3
F0.0
sg29
(lp7727
(lp7728
g5749
aa(lp7729
g5747
aasg2
F1.0
sss.