(dp0
S'tau'
p1
F-0.3793103448275862
sS'|tau|'
p2
F1.0
sS'pairwise'
p3
F0.3103448275862069
sS'ranking'
p4
(dp5
I0
(dp6
g1
F-1.0
sS'gold'
p7
(lp8
(lp9
S'heavy'
p10
aa(lp11
S'heaviest'
p12
aasS'raw'
p13
(dp14
S'prob*'
p15
cnumpy.core.multiarray
scalar
p16
(cnumpy
dtype
p17
(S'f8'
p18
I0
I1
tp19
Rp20
(I3
S'<'
p21
NNNI-1
I-1
I0
tp22
bS'\xd5x\xe9&1\x08\xe0?'
p23
tp24
Rp25
sS'link-probs'
p26
(lp27
(g12
g10
F0.501
tp28
assg3
F0.0
sS'algo'
p29
(lp30
(lp31
g12
aa(lp32
g10
aasg2
F1.0
ssI1
(dp33
g1
F-1.0
sg7
(lp34
(lp35
S'up'
p36
aa(lp37
S'upper'
p38
aasg13
(dp39
g15
g16
(g20
S'\xd5x\xe9&1\x08\xe0?'
p40
tp41
Rp42
sg26
(lp43
(g38
g36
F0.501
tp44
assg3
F0.0
sg29
(lp45
(lp46
g38
aa(lp47
g36
aasg2
F1.0
ssI2
(dp48
g1
F-1.0
sg7
(lp49
(lp50
S'stark'
p51
aa(lp52
S'starker'
p53
aasg13
(dp54
g15
g16
(g20
S'\xd5x\xe9&1\x08\xe0?'
p55
tp56
Rp57
sg26
(lp58
(g53
g51
F0.501
tp59
assg3
F0.0
sg29
(lp60
(lp61
g53
aa(lp62
g51
aasg2
F1.0
ssI3
(dp63
g1
F-1.0
sg7
(lp64
(lp65
S'far'
p66
aa(lp67
S'furthest'
p68
aasg13
(dp69
g15
g16
(g20
S'\xd5x\xe9&1\x08\xe0?'
p70
tp71
Rp72
sg26
(lp73
(g68
g66
F0.501
tp74
assg3
F0.0
sg29
(lp75
(lp76
g68
aa(lp77
g66
aasg2
F1.0
ssI4
(dp78
g1
F-1.0
sg7
(lp79
(lp80
S'clean'
p81
aa(lp82
S'cleanest'
p83
aasg13
(dp84
g15
g16
(g20
S'\xd5x\xe9&1\x08\xe0?'
p85
tp86
Rp87
sg26
(lp88
(g83
g81
F0.501
tp89
assg3
F0.0
sg29
(lp90
(lp91
g83
aa(lp92
g81
aasg2
F1.0
ssI5
(dp93
g1
F-1.0
sg7
(lp94
(lp95
S'brighter'
p96
aa(lp97
S'brightest'
p98
aasg13
(dp99
g15
g16
(g20
S'\xd5x\xe9&1\x08\xe0?'
p100
tp101
Rp102
sg26
(lp103
(g98
g96
F0.501
tp104
assg3
F0.0
sg29
(lp105
(lp106
g98
aa(lp107
g96
aasg2
F1.0
ssI6
(dp108
g1
F-1.0
sg7
(lp109
(lp110
S'older'
p111
aa(lp112
S'oldest'
p113
aasg13
(dp114
g15
g16
(g20
S'\xd5x\xe9&1\x08\xe0?'
p115
tp116
Rp117
sg26
(lp118
(g113
g111
F0.501
tp119
assg3
F0.0
sg29
(lp120
(lp121
g113
aa(lp122
g111
aasg2
F1.0
ssI7
(dp123
g1
F-1.0
sg7
(lp124
(lp125
S'bright'
p126
aa(lp127
g98
aasg13
(dp128
g15
g16
(g20
S'\xd5x\xe9&1\x08\xe0?'
p129
tp130
Rp131
sg26
(lp132
(g98
g126
F0.501
tp133
assg3
F0.0
sg29
(lp134
(lp135
g98
aa(lp136
g126
aasg2
F1.0
ssI8
(dp137
g1
F-1.0
sg7
(lp138
(lp139
S'dirty'
p140
aa(lp141
S'dirtier'
p142
aasg13
(dp143
g15
g16
(g20
S'\xd5x\xe9&1\x08\xe0?'
p144
tp145
Rp146
sg26
(lp147
(g142
g140
F0.501
tp148
assg3
F0.0
sg29
(lp149
(lp150
g142
aa(lp151
g140
aasg2
F1.0
ssI9
(dp152
g1
F1.0
sg7
(lp153
(lp154
S'ill'
p155
aa(lp156
S'worst'
p157
aasg13
(dp158
g15
g16
(g20
S'\xd5x\xe9&1\x08\xe0?'
p159
tp160
Rp161
sg26
(lp162
(g155
g157
F0.501
tp163
assg3
F1.0
sg29
(lp164
(lp165
g155
aa(lp166
g157
aasg2
F1.0
ssI10
(dp167
g1
F-1.0
sg7
(lp168
(lp169
S'friendly'
p170
aa(lp171
S'friendlier'
p172
aasg13
(dp173
g15
g16
(g20
S'\xd5x\xe9&1\x08\xe0?'
p174
tp175
Rp176
sg26
(lp177
(g172
g170
F0.501
tp178
assg3
F0.0
sg29
(lp179
(lp180
g172
aa(lp181
g170
aasg2
F1.0
ssI11
(dp182
g1
F-1.0
sg7
(lp183
(lp184
S'old'
p185
aa(lp186
S'oldest'
p187
aasg13
(dp188
g15
g16
(g20
S'\xd5x\xe9&1\x08\xe0?'
p189
tp190
Rp191
sg26
(lp192
(g187
g185
F0.501
tp193
assg3
F0.0
sg29
(lp194
(lp195
g187
aa(lp196
g185
aasg2
F1.0
ssI12
(dp197
g1
F-1.0
sg7
(lp198
(lp199
S'cheap'
p200
aa(lp201
S'cheapest'
p202
aasg13
(dp203
g15
g16
(g20
S'\xd5x\xe9&1\x08\xe0?'
p204
tp205
Rp206
sg26
(lp207
(g202
g200
F0.501
tp208
assg3
F0.0
sg29
(lp209
(lp210
g202
aa(lp211
g200
aasg2
F1.0
ssI13
(dp212
g1
F1.0
sg7
(lp213
(lp214
S'wet'
p215
aa(lp216
S'wetter'
p217
aasg13
(dp218
g15
g16
(g20
S'\xd5x\xe9&1\x08\xe0?'
p219
tp220
Rp221
sg26
(lp222
(g215
g217
F0.501
tp223
assg3
F1.0
sg29
(lp224
(lp225
g215
aa(lp226
g217
aasg2
F1.0
ssI14
(dp227
g1
F-1.0
sg7
(lp228
(lp229
S'dumb'
p230
aa(lp231
S'dumber'
p232
aasg13
(dp233
g15
g16
(g20
S'\xd5x\xe9&1\x08\xe0?'
p234
tp235
Rp236
sg26
(lp237
(g232
g230
F0.501
tp238
assg3
F0.0
sg29
(lp239
(lp240
g232
aa(lp241
g230
aasg2
F1.0
ssI15
(dp242
g1
F-1.0
sg7
(lp243
(lp244
g230
aa(lp245
g232
aasg13
(dp246
g15
g16
(g20
S'\xd5x\xe9&1\x08\xe0?'
p247
tp248
Rp249
sg26
(lp250
(g232
g230
F0.501
tp251
assg3
F0.0
sg29
(lp252
(lp253
g232
aa(lp254
g230
aasg2
F1.0
ssI16
(dp255
g1
F-1.0
sg7
(lp256
(lp257
S'tight'
p258
aa(lp259
S'tighter'
p260
aasg13
(dp261
g15
g16
(g20
S'\xd5x\xe9&1\x08\xe0?'
p262
tp263
Rp264
sg26
(lp265
(g260
g258
F0.501
tp266
assg3
F0.0
sg29
(lp267
(lp268
g260
aa(lp269
g258
aasg2
F1.0
ssI17
(dp270
g1
F-1.0
sg7
(lp271
(lp272
S'full'
p273
aa(lp274
S'fuller'
p275
aasg13
(dp276
g15
g16
(g20
S'\xd5x\xe9&1\x08\xe0?'
p277
tp278
Rp279
sg26
(lp280
(g275
g273
F0.501
tp281
assg3
F0.0
sg29
(lp282
(lp283
g275
aa(lp284
g273
aasg2
F1.0
ssI18
(dp285
g1
F-1.0
sg7
(lp286
(lp287
S'rarer'
p288
aa(lp289
S'rarest'
p290
aasg13
(dp291
g15
g16
(g20
S'\xd5x\xe9&1\x08\xe0?'
p292
tp293
Rp294
sg26
(lp295
(g290
g288
F0.501
tp296
assg3
F0.0
sg29
(lp297
(lp298
g290
aa(lp299
g288
aasg2
F1.0
ssI19
(dp300
g1
F-1.0
sg7
(lp301
(lp302
S'wealthier'
p303
aa(lp304
S'wealthiest'
p305
aasg13
(dp306
g15
g16
(g20
S'\xd5x\xe9&1\x08\xe0?'
p307
tp308
Rp309
sg26
(lp310
(g305
g303
F0.501
tp311
assg3
F0.0
sg29
(lp312
(lp313
g305
aa(lp314
g303
aasg2
F1.0
ssI20
(dp315
g1
F-1.0
sg7
(lp316
(lp317
S'brave'
p318
aa(lp319
S'bravest'
p320
aasg13
(dp321
g15
g16
(g20
S'\xd5x\xe9&1\x08\xe0?'
p322
tp323
Rp324
sg26
(lp325
(g320
g318
F0.501
tp326
assg3
F0.0
sg29
(lp327
(lp328
g320
aa(lp329
g318
aasg2
F1.0
ssI21
(dp330
g1
F-1.0
sg7
(lp331
(lp332
g273
aa(lp333
S'fullest'
p334
aasg13
(dp335
g15
g16
(g20
S'\xd5x\xe9&1\x08\xe0?'
p336
tp337
Rp338
sg26
(lp339
(g334
g273
F0.501
tp340
assg3
F0.0
sg29
(lp341
(lp342
g334
aa(lp343
g273
aasg2
F1.0
ssI22
(dp344
g1
F1.0
sg7
(lp345
(lp346
S'richer'
p347
aa(lp348
S'richest'
p349
aasg13
(dp350
g15
g16
(g20
S'\xd5x\xe9&1\x08\xe0?'
p351
tp352
Rp353
sg26
(lp354
(g347
g349
F0.501
tp355
assg3
F1.0
sg29
(lp356
(lp357
g347
aa(lp358
g349
aasg2
F1.0
ssI23
(dp359
g1
F-1.0
sg7
(lp360
(lp361
S'full'
p362
aa(lp363
S'fuller'
p364
aasg13
(dp365
g15
g16
(g20
S'\xd5x\xe9&1\x08\xe0?'
p366
tp367
Rp368
sg26
(lp369
(g364
g362
F0.501
tp370
assg3
F0.0
sg29
(lp371
(lp372
g364
aa(lp373
g362
aasg2
F1.0
ssI24
(dp374
g1
F-1.0
sg7
(lp375
(lp376
g51
aa(lp377
g53
aasg13
(dp378
g15
g16
(g20
S'\xd5x\xe9&1\x08\xe0?'
p379
tp380
Rp381
sg26
(lp382
(g53
g51
F0.501
tp383
assg3
F0.0
sg29
(lp384
(lp385
g53
aa(lp386
g51
aasg2
F1.0
ssI25
(dp387
g1
F1.0
sg7
(lp388
(lp389
S'ill'
p390
aa(lp391
S'worse'
p392
aasg13
(dp393
g15
g16
(g20
S'\xd5x\xe9&1\x08\xe0?'
p394
tp395
Rp396
sg26
(lp397
(g390
g392
F0.501
tp398
assg3
F1.0
sg29
(lp399
(lp400
g390
aa(lp401
g392
aasg2
F1.0
ssI26
(dp402
g1
F1.0
sg7
(lp403
(lp404
S'wealthy'
p405
aa(lp406
g303
aasg13
(dp407
g15
g16
(g20
S'\xd5x\xe9&1\x08\xe0?'
p408
tp409
Rp410
sg26
(lp411
(g405
g303
F0.501
tp412
assg3
F1.0
sg29
(lp413
(lp414
g405
aa(lp415
g303
aasg2
F1.0
ssI27
(dp416
g1
F1.0
sg7
(lp417
(lp418
S'loose'
p419
aa(lp420
S'looser'
p421
aasg13
(dp422
g15
g16
(g20
S'\xd5x\xe9&1\x08\xe0?'
p423
tp424
Rp425
sg26
(lp426
(g419
g421
F0.501
tp427
assg3
F1.0
sg29
(lp428
(lp429
g419
aa(lp430
g421
aasg2
F1.0
ssI28
(dp431
g1
F1.0
sg7
(lp432
(lp433
S'fine'
p434
aa(lp435
S'finest'
p436
aasg13
(dp437
g15
g16
(g20
S'\xd5x\xe9&1\x08\xe0?'
p438
tp439
Rp440
sg26
(lp441
(g434
g436
F0.501
tp442
assg3
F1.0
sg29
(lp443
(lp444
g434
aa(lp445
g436
aasg2
F1.0
ssI29
(dp446
g1
F-1.0
sg7
(lp447
(lp448
S'mean'
p449
aa(lp450
S'meaner'
p451
aasg13
(dp452
g15
g16
(g20
S'\xd5x\xe9&1\x08\xe0?'
p453
tp454
Rp455
sg26
(lp456
(g451
g449
F0.501
tp457
assg3
F0.0
sg29
(lp458
(lp459
g451
aa(lp460
g449
aasg2
F1.0
ssI30
(dp461
g1
F-1.0
sg7
(lp462
(lp463
S'smooth'
p464
aa(lp465
S'smoother'
p466
aasg13
(dp467
g15
g16
(g20
S'\xd5x\xe9&1\x08\xe0?'
p468
tp469
Rp470
sg26
(lp471
(g466
g464
F0.501
tp472
assg3
F0.0
sg29
(lp473
(lp474
g466
aa(lp475
g464
aasg2
F1.0
ssI31
(dp476
g1
F-1.0
sg7
(lp477
(lp478
S'bright'
p479
aa(lp480
S'brightest'
p481
aasg13
(dp482
g15
g16
(g20
S'\xd5x\xe9&1\x08\xe0?'
p483
tp484
Rp485
sg26
(lp486
(g481
g479
F0.501
tp487
assg3
F0.0
sg29
(lp488
(lp489
g481
aa(lp490
g479
aasg2
F1.0
ssI32
(dp491
g1
F-1.0
sg7
(lp492
(lp493
S'heavy'
p494
aa(lp495
S'heaviest'
p496
aasg13
(dp497
g15
g16
(g20
S'\xd5x\xe9&1\x08\xe0?'
p498
tp499
Rp500
sg26
(lp501
(g496
g494
F0.501
tp502
assg3
F0.0
sg29
(lp503
(lp504
g496
aa(lp505
g494
aasg2
F1.0
ssI33
(dp506
g1
F-1.0
sg7
(lp507
(lp508
S'full'
p509
aa(lp510
S'fullest'
p511
aasg13
(dp512
g15
g16
(g20
S'\xd5x\xe9&1\x08\xe0?'
p513
tp514
Rp515
sg26
(lp516
(g511
g509
F0.501
tp517
assg3
F0.0
sg29
(lp518
(lp519
g511
aa(lp520
g509
aasg2
F1.0
ssI34
(dp521
g1
F1.0
sg7
(lp522
(lp523
S'some'
p524
aa(lp525
S'most'
p526
aasg13
(dp527
g15
g16
(g20
S'\xd5x\xe9&1\x08\xe0?'
p528
tp529
Rp530
sg26
(lp531
(g524
g526
F0.501
tp532
assg3
F1.0
sg29
(lp533
(lp534
g524
aa(lp535
g526
aasg2
F1.0
ssI35
(dp536
g1
F-1.0
sg7
(lp537
(lp538
S'further'
p539
aa(lp540
S'furthest'
p541
aasg13
(dp542
g15
g16
(g20
S'\xd5x\xe9&1\x08\xe0?'
p543
tp544
Rp545
sg26
(lp546
(g541
g539
F0.501
tp547
assg3
F0.0
sg29
(lp548
(lp549
g541
aa(lp550
g539
aasg2
F1.0
ssI36
(dp551
g1
F1.0
sg7
(lp552
(lp553
S'late'
p554
aa(lp555
S'latest'
p556
aasg13
(dp557
g15
g16
(g20
S'\xd5x\xe9&1\x08\xe0?'
p558
tp559
Rp560
sg26
(lp561
(g554
g556
F0.501
tp562
assg3
F1.0
sg29
(lp563
(lp564
g554
aa(lp565
g556
aasg2
F1.0
ssI37
(dp566
g1
F1.0
sg7
(lp567
(lp568
g554
aa(lp569
g556
aasg13
(dp570
g15
g16
(g20
S'\xd5x\xe9&1\x08\xe0?'
p571
tp572
Rp573
sg26
(lp574
(g554
g556
F0.501
tp575
assg3
F1.0
sg29
(lp576
(lp577
g554
aa(lp578
g556
aasg2
F1.0
ssI38
(dp579
g1
F1.0
sg7
(lp580
(lp581
S'stupide'
p582
aa(lp583
S'stupider'
p584
aasg13
(dp585
g15
g16
(g20
S'\xd5x\xe9&1\x08\xe0?'
p586
tp587
Rp588
sg26
(lp589
(g582
g584
F0.501
tp590
assg3
F1.0
sg29
(lp591
(lp592
g582
aa(lp593
g584
aasg2
F1.0
ssI39
(dp594
g1
F-1.0
sg7
(lp595
(lp596
S'happier'
p597
aa(lp598
S'happiest'
p599
aasg13
(dp600
g15
g16
(g20
S'\xd5x\xe9&1\x08\xe0?'
p601
tp602
Rp603
sg26
(lp604
(g599
g597
F0.501
tp605
assg3
F0.0
sg29
(lp606
(lp607
g599
aa(lp608
g597
aasg2
F1.0
ssI40
(dp609
g1
F-1.0
sg7
(lp610
(lp611
S'far'
p612
aa(lp613
S'furthest'
p614
aasg13
(dp615
g15
g16
(g20
S'\xd5x\xe9&1\x08\xe0?'
p616
tp617
Rp618
sg26
(lp619
(g614
g612
F0.501
tp620
assg3
F0.0
sg29
(lp621
(lp622
g614
aa(lp623
g612
aasg2
F1.0
ssI41
(dp624
g1
F-1.0
sg7
(lp625
(lp626
S'mighty'
p627
aa(lp628
S'mightier'
p629
aasg13
(dp630
g15
g16
(g20
S'\xd5x\xe9&1\x08\xe0?'
p631
tp632
Rp633
sg26
(lp634
(g629
g627
F0.501
tp635
assg3
F0.0
sg29
(lp636
(lp637
g629
aa(lp638
g627
aasg2
F1.0
ssI42
(dp639
g1
F1.0
sg7
(lp640
(lp641
S'graver'
p642
aa(lp643
S'gravest'
p644
aasg13
(dp645
g15
g16
(g20
S'\xd5x\xe9&1\x08\xe0?'
p646
tp647
Rp648
sg26
(lp649
(g642
g644
F0.501
tp650
assg3
F1.0
sg29
(lp651
(lp652
g642
aa(lp653
g644
aasg2
F1.0
ssI43
(dp654
g1
F1.0
sg7
(lp655
(lp656
g582
aa(lp657
g584
aasg13
(dp658
g15
g16
(g20
S'\xd5x\xe9&1\x08\xe0?'
p659
tp660
Rp661
sg26
(lp662
(g582
g584
F0.501
tp663
assg3
F1.0
sg29
(lp664
(lp665
g582
aa(lp666
g584
aasg2
F1.0
ssI44
(dp667
g1
F1.0
sg7
(lp668
(lp669
S'finer'
p670
aa(lp671
g436
aasg13
(dp672
g15
g16
(g20
S'\xd5x\xe9&1\x08\xe0?'
p673
tp674
Rp675
sg26
(lp676
(g670
g436
F0.501
tp677
assg3
F1.0
sg29
(lp678
(lp679
g670
aa(lp680
g436
aasg2
F1.0
ssI45
(dp681
g1
F1.0
sg7
(lp682
(lp683
S'bold'
p684
aa(lp685
S'bolder'
p686
aasg13
(dp687
g15
g16
(g20
S'\xd5x\xe9&1\x08\xe0?'
p688
tp689
Rp690
sg26
(lp691
(g684
g686
F0.501
tp692
assg3
F1.0
sg29
(lp693
(lp694
g684
aa(lp695
g686
aasg2
F1.0
ssI46
(dp696
g1
F-1.0
sg7
(lp697
(lp698
S'mild'
p699
aa(lp700
S'milder'
p701
aasg13
(dp702
g15
g16
(g20
S'\xd5x\xe9&1\x08\xe0?'
p703
tp704
Rp705
sg26
(lp706
(g701
g699
F0.501
tp707
assg3
F0.0
sg29
(lp708
(lp709
g701
aa(lp710
g699
aasg2
F1.0
ssI47
(dp711
g1
F1.0
sg7
(lp712
(lp713
S'slim'
p714
aa(lp715
S'slimmer'
p716
aasg13
(dp717
g15
g16
(g20
S'\xd5x\xe9&1\x08\xe0?'
p718
tp719
Rp720
sg26
(lp721
(g714
g716
F0.501
tp722
assg3
F1.0
sg29
(lp723
(lp724
g714
aa(lp725
g716
aasg2
F1.0
ssI48
(dp726
g1
F1.0
sg7
(lp727
(lp728
g155
aa(lp729
g157
aasg13
(dp730
g15
g16
(g20
S'\xd5x\xe9&1\x08\xe0?'
p731
tp732
Rp733
sg26
(lp734
(g155
g157
F0.501
tp735
assg3
F1.0
sg29
(lp736
(lp737
g155
aa(lp738
g157
aasg2
F1.0
ssI49
(dp739
g1
F-1.0
sg7
(lp740
(lp741
S'shorter'
p742
aa(lp743
S'shortest'
p744
aasg13
(dp745
g15
g16
(g20
S'\xd5x\xe9&1\x08\xe0?'
p746
tp747
Rp748
sg26
(lp749
(g744
g742
F0.501
tp750
assg3
F0.0
sg29
(lp751
(lp752
g744
aa(lp753
g742
aasg2
F1.0
ssI50
(dp754
g1
F-1.0
sg7
(lp755
(lp756
S'warmer'
p757
aa(lp758
S'warmest'
p759
aasg13
(dp760
g15
g16
(g20
S'\xd5x\xe9&1\x08\xe0?'
p761
tp762
Rp763
sg26
(lp764
(g759
g757
F0.501
tp765
assg3
F0.0
sg29
(lp766
(lp767
g759
aa(lp768
g757
aasg2
F1.0
ssI51
(dp769
g1
F-1.0
sg7
(lp770
(lp771
S'fierce'
p772
aa(lp773
S'fiercer'
p774
aasg13
(dp775
g15
g16
(g20
S'\xd5x\xe9&1\x08\xe0?'
p776
tp777
Rp778
sg26
(lp779
(g774
g772
F0.501
tp780
assg3
F0.0
sg29
(lp781
(lp782
g774
aa(lp783
g772
aasg2
F1.0
ssI52
(dp784
g1
F-1.0
sg7
(lp785
(lp786
S'smarter'
p787
aa(lp788
S'smartest'
p789
aasg13
(dp790
g15
g16
(g20
S'\xd5x\xe9&1\x08\xe0?'
p791
tp792
Rp793
sg26
(lp794
(g789
g787
F0.501
tp795
assg3
F0.0
sg29
(lp796
(lp797
g789
aa(lp798
g787
aasg2
F1.0
ssI53
(dp799
g1
F-1.0
sg7
(lp800
(lp801
S'warmer'
p802
aa(lp803
S'warmest'
p804
aasg13
(dp805
g15
g16
(g20
S'\xd5x\xe9&1\x08\xe0?'
p806
tp807
Rp808
sg26
(lp809
(g804
g802
F0.501
tp810
assg3
F0.0
sg29
(lp811
(lp812
g804
aa(lp813
g802
aasg2
F1.0
ssI54
(dp814
g1
F1.0
sg7
(lp815
(lp816
S'funny'
p817
aa(lp818
S'funnier'
p819
aasg13
(dp820
g15
g16
(g20
S'\xd5x\xe9&1\x08\xe0?'
p821
tp822
Rp823
sg26
(lp824
(g817
g819
F0.501
tp825
assg3
F1.0
sg29
(lp826
(lp827
g817
aa(lp828
g819
aasg2
F1.0
ssI55
(dp829
g1
F-1.0
sg7
(lp830
(lp831
S'soft'
p832
aa(lp833
S'softer'
p834
aasg13
(dp835
g15
g16
(g20
S'\xd5x\xe9&1\x08\xe0?'
p836
tp837
Rp838
sg26
(lp839
(g834
g832
F0.501
tp840
assg3
F0.0
sg29
(lp841
(lp842
g834
aa(lp843
g832
aasg2
F1.0
ssI56
(dp844
g1
F1.0
sg7
(lp845
(lp846
g215
aa(lp847
g217
aasg13
(dp848
g15
g16
(g20
S'\xd5x\xe9&1\x08\xe0?'
p849
tp850
Rp851
sg26
(lp852
(g215
g217
F0.501
tp853
assg3
F1.0
sg29
(lp854
(lp855
g215
aa(lp856
g217
aasg2
F1.0
ssI57
(dp857
g1
F1.0
sg7
(lp858
(lp859
S'large'
p860
aa(lp861
S'largest'
p862
aasg13
(dp863
g15
g16
(g20
S'\xd5x\xe9&1\x08\xe0?'
p864
tp865
Rp866
sg26
(lp867
(g860
g862
F0.501
tp868
assg3
F1.0
sg29
(lp869
(lp870
g860
aa(lp871
g862
aasg2
F1.0
ssI58
(dp872
g1
F1.0
sg7
(lp873
(lp874
g817
aa(lp875
g819
aasg13
(dp876
g15
g16
(g20
S'\xd5x\xe9&1\x08\xe0?'
p877
tp878
Rp879
sg26
(lp880
(g817
g819
F0.501
tp881
assg3
F1.0
sg29
(lp882
(lp883
g817
aa(lp884
g819
aasg2
F1.0
ssI59
(dp885
g1
F1.0
sg7
(lp886
(lp887
S'richer'
p888
aa(lp889
S'richest'
p890
aasg13
(dp891
g15
g16
(g20
S'\xd5x\xe9&1\x08\xe0?'
p892
tp893
Rp894
sg26
(lp895
(g888
g890
F0.501
tp896
assg3
F1.0
sg29
(lp897
(lp898
g888
aa(lp899
g890
aasg2
F1.0
ssI60
(dp900
g1
F1.0
sg7
(lp901
(lp902
S'graver'
p903
aa(lp904
S'gravest'
p905
aasg13
(dp906
g15
g16
(g20
S'\xd5x\xe9&1\x08\xe0?'
p907
tp908
Rp909
sg26
(lp910
(g903
g905
F0.501
tp911
assg3
F1.0
sg29
(lp912
(lp913
g903
aa(lp914
g905
aasg2
F1.0
ssI61
(dp915
g1
F-1.0
sg7
(lp916
(lp917
S'smarter'
p918
aa(lp919
S'smartest'
p920
aasg13
(dp921
g15
g16
(g20
S'\xd5x\xe9&1\x08\xe0?'
p922
tp923
Rp924
sg26
(lp925
(g920
g918
F0.501
tp926
assg3
F0.0
sg29
(lp927
(lp928
g920
aa(lp929
g918
aasg2
F1.0
ssI62
(dp930
g1
F-1.0
sg7
(lp931
(lp932
S'costly'
p933
aa(lp934
S'costlier'
p935
aasg13
(dp936
g15
g16
(g20
S'\xd5x\xe9&1\x08\xe0?'
p937
tp938
Rp939
sg26
(lp940
(g935
g933
F0.501
tp941
assg3
F0.0
sg29
(lp942
(lp943
g935
aa(lp944
g933
aasg2
F1.0
ssI63
(dp945
g1
F-1.0
sg7
(lp946
(lp947
g140
aa(lp948
g142
aasg13
(dp949
g15
g16
(g20
S'\xd5x\xe9&1\x08\xe0?'
p950
tp951
Rp952
sg26
(lp953
(g142
g140
F0.501
tp954
assg3
F0.0
sg29
(lp955
(lp956
g142
aa(lp957
g140
aasg2
F1.0
ssI64
(dp958
g1
F-1.0
sg7
(lp959
(lp960
g434
aa(lp961
g670
aasg13
(dp962
g15
g16
(g20
S'\xd5x\xe9&1\x08\xe0?'
p963
tp964
Rp965
sg26
(lp966
(g670
g434
F0.501
tp967
assg3
F0.0
sg29
(lp968
(lp969
g670
aa(lp970
g434
aasg2
F1.0
ssI65
(dp971
g1
F-1.0
sg7
(lp972
(lp973
S'wealthier'
p974
aa(lp975
S'wealthiest'
p976
aasg13
(dp977
g15
g16
(g20
S'\xd5x\xe9&1\x08\xe0?'
p978
tp979
Rp980
sg26
(lp981
(g976
g974
F0.501
tp982
assg3
F0.0
sg29
(lp983
(lp984
g976
aa(lp985
g974
aasg2
F1.0
ssI66
(dp986
g1
F1.0
sg7
(lp987
(lp988
S'deep'
p989
aa(lp990
S'deepest'
p991
aasg13
(dp992
g15
g16
(g20
S'\xd5x\xe9&1\x08\xe0?'
p993
tp994
Rp995
sg26
(lp996
(g989
g991
F0.501
tp997
assg3
F1.0
sg29
(lp998
(lp999
g989
aa(lp1000
g991
aasg2
F1.0
ssI67
(dp1001
g1
F-1.0
sg7
(lp1002
(lp1003
g303
aa(lp1004
g305
aasg13
(dp1005
g15
g16
(g20
S'\xd5x\xe9&1\x08\xe0?'
p1006
tp1007
Rp1008
sg26
(lp1009
(g305
g303
F0.501
tp1010
assg3
F0.0
sg29
(lp1011
(lp1012
g305
aa(lp1013
g303
aasg2
F1.0
ssI68
(dp1014
g1
F-1.0
sg7
(lp1015
(lp1016
S'further'
p1017
aa(lp1018
g614
aasg13
(dp1019
g15
g16
(g20
S'\xd5x\xe9&1\x08\xe0?'
p1020
tp1021
Rp1022
sg26
(lp1023
(g614
g1017
F0.501
tp1024
assg3
F0.0
sg29
(lp1025
(lp1026
g614
aa(lp1027
g1017
aasg2
F1.0
ssI69
(dp1028
g1
F1.0
sg7
(lp1029
(lp1030
g405
aa(lp1031
g303
aasg13
(dp1032
g15
g16
(g20
S'\xd5x\xe9&1\x08\xe0?'
p1033
tp1034
Rp1035
sg26
(lp1036
(g405
g303
F0.501
tp1037
assg3
F1.0
sg29
(lp1038
(lp1039
g405
aa(lp1040
g303
aasg2
F1.0
ssI70
(dp1041
g1
F-1.0
sg7
(lp1042
(lp1043
g434
aa(lp1044
g670
aasg13
(dp1045
g15
g16
(g20
S'\xd5x\xe9&1\x08\xe0?'
p1046
tp1047
Rp1048
sg26
(lp1049
(g670
g434
F0.501
tp1050
assg3
F0.0
sg29
(lp1051
(lp1052
g670
aa(lp1053
g434
aasg2
F1.0
ssI71
(dp1054
g1
F-1.0
sg7
(lp1055
(lp1056
S'weaker'
p1057
aa(lp1058
S'weakest'
p1059
aasg13
(dp1060
g15
g16
(g20
S'\xd5x\xe9&1\x08\xe0?'
p1061
tp1062
Rp1063
sg26
(lp1064
(g1059
g1057
F0.501
tp1065
assg3
F0.0
sg29
(lp1066
(lp1067
g1059
aa(lp1068
g1057
aasg2
F1.0
ssI72
(dp1069
g1
F1.0
sg7
(lp1070
(lp1071
S'sharp'
p1072
aa(lp1073
S'sharper'
p1074
aasg13
(dp1075
g15
g16
(g20
S'\xd5x\xe9&1\x08\xe0?'
p1076
tp1077
Rp1078
sg26
(lp1079
(g1072
g1074
F0.501
tp1080
assg3
F1.0
sg29
(lp1081
(lp1082
g1072
aa(lp1083
g1074
aasg2
F1.0
ssI73
(dp1084
g1
F1.0
sg7
(lp1085
(lp1086
g347
aa(lp1087
g349
aasg13
(dp1088
g15
g16
(g20
S'\xd5x\xe9&1\x08\xe0?'
p1089
tp1090
Rp1091
sg26
(lp1092
(g347
g349
F0.501
tp1093
assg3
F1.0
sg29
(lp1094
(lp1095
g347
aa(lp1096
g349
aasg2
F1.0
ssI74
(dp1097
g1
F-1.0
sg7
(lp1098
(lp1099
g126
aa(lp1100
g98
aasg13
(dp1101
g15
g16
(g20
S'\xd5x\xe9&1\x08\xe0?'
p1102
tp1103
Rp1104
sg26
(lp1105
(g98
g126
F0.501
tp1106
assg3
F0.0
sg29
(lp1107
(lp1108
g98
aa(lp1109
g126
aasg2
F1.0
ssI75
(dp1110
g1
F1.0
sg7
(lp1111
(lp1112
S'dre'
p1113
aa(lp1114
S'drier'
p1115
aasg13
(dp1116
g15
g16
(g20
S'\xd5x\xe9&1\x08\xe0?'
p1117
tp1118
Rp1119
sg26
(lp1120
(g1113
g1115
F0.501
tp1121
assg3
F1.0
sg29
(lp1122
(lp1123
g1113
aa(lp1124
g1115
aasg2
F1.0
ssI76
(dp1125
g1
F1.0
sg7
(lp1126
(lp1127
g405
aa(lp1128
g305
aasg13
(dp1129
g15
g16
(g20
S'\xd5x\xe9&1\x08\xe0?'
p1130
tp1131
Rp1132
sg26
(lp1133
(g405
g305
F0.501
tp1134
assg3
F1.0
sg29
(lp1135
(lp1136
g405
aa(lp1137
g305
aasg2
F1.0
ssI77
(dp1138
g1
F1.0
sg7
(lp1139
(lp1140
S'clean'
p1141
aa(lp1142
S'cleaner'
p1143
aasg13
(dp1144
g15
g16
(g20
S'\xd5x\xe9&1\x08\xe0?'
p1145
tp1146
Rp1147
sg26
(lp1148
(g1141
g1143
F0.501
tp1149
assg3
F1.0
sg29
(lp1150
(lp1151
g1141
aa(lp1152
g1143
aasg2
F1.0
ssI78
(dp1153
g1
F-1.0
sg7
(lp1154
(lp1155
S'heavier'
p1156
aa(lp1157
g12
aasg13
(dp1158
g15
g16
(g20
S'\xd5x\xe9&1\x08\xe0?'
p1159
tp1160
Rp1161
sg26
(lp1162
(g12
g1156
F0.501
tp1163
assg3
F0.0
sg29
(lp1164
(lp1165
g12
aa(lp1166
g1156
aasg2
F1.0
ssI79
(dp1167
g1
F-1.0
sg7
(lp1168
(lp1169
S'brighter'
p1170
aa(lp1171
S'brightest'
p1172
aasg13
(dp1173
g15
g16
(g20
S'\xd5x\xe9&1\x08\xe0?'
p1174
tp1175
Rp1176
sg26
(lp1177
(g1172
g1170
F0.501
tp1178
assg3
F0.0
sg29
(lp1179
(lp1180
g1172
aa(lp1181
g1170
aasg2
F1.0
ssI80
(dp1182
g1
F-1.0
sg7
(lp1183
(lp1184
S'brave'
p1185
aa(lp1186
S'braver'
p1187
aasg13
(dp1188
g15
g16
(g20
S'\xd5x\xe9&1\x08\xe0?'
p1189
tp1190
Rp1191
sg26
(lp1192
(g1187
g1185
F0.501
tp1193
assg3
F0.0
sg29
(lp1194
(lp1195
g1187
aa(lp1196
g1185
aasg2
F1.0
ssI81
(dp1197
g1
F-1.0
sg7
(lp1198
(lp1199
S'sad'
p1200
aa(lp1201
S'sadder'
p1202
aasg13
(dp1203
g15
g16
(g20
S'\xd5x\xe9&1\x08\xe0?'
p1204
tp1205
Rp1206
sg26
(lp1207
(g1202
g1200
F0.501
tp1208
assg3
F0.0
sg29
(lp1209
(lp1210
g1202
aa(lp1211
g1200
aasg2
F1.0
ssI82
(dp1212
g1
F-1.0
sg7
(lp1213
(lp1214
g185
aa(lp1215
g187
aasg13
(dp1216
g15
g16
(g20
S'\xd5x\xe9&1\x08\xe0?'
p1217
tp1218
Rp1219
sg26
(lp1220
(g187
g185
F0.501
tp1221
assg3
F0.0
sg29
(lp1222
(lp1223
g187
aa(lp1224
g185
aasg2
F1.0
ssI83
(dp1225
g1
F-1.0
sg7
(lp1226
(lp1227
S'sunny'
p1228
aa(lp1229
S'sunnier'
p1230
aasg13
(dp1231
g15
g16
(g20
S'\xd5x\xe9&1\x08\xe0?'
p1232
tp1233
Rp1234
sg26
(lp1235
(g1230
g1228
F0.501
tp1236
assg3
F0.0
sg29
(lp1237
(lp1238
g1230
aa(lp1239
g1228
aasg2
F1.0
ssI84
(dp1240
g1
F-1.0
sg7
(lp1241
(lp1242
g1185
aa(lp1243
S'bravest'
p1244
aasg13
(dp1245
g15
g16
(g20
S'\xd5x\xe9&1\x08\xe0?'
p1246
tp1247
Rp1248
sg26
(lp1249
(g1244
g1185
F0.501
tp1250
assg3
F0.0
sg29
(lp1251
(lp1252
g1244
aa(lp1253
g1185
aasg2
F1.0
ssI85
(dp1254
g1
F-1.0
sg7
(lp1255
(lp1256
S'lengthy'
p1257
aa(lp1258
S'lengthier'
p1259
aasg13
(dp1260
g15
g16
(g20
S'\xd5x\xe9&1\x08\xe0?'
p1261
tp1262
Rp1263
sg26
(lp1264
(g1259
g1257
F0.501
tp1265
assg3
F0.0
sg29
(lp1266
(lp1267
g1259
aa(lp1268
g1257
aasg2
F1.0
ssI86
(dp1269
g1
F-1.0
sg7
(lp1270
(lp1271
g318
aa(lp1272
g320
aasg13
(dp1273
g15
g16
(g20
S'\xd5x\xe9&1\x08\xe0?'
p1274
tp1275
Rp1276
sg26
(lp1277
(g320
g318
F0.501
tp1278
assg3
F0.0
sg29
(lp1279
(lp1280
g320
aa(lp1281
g318
aasg2
F1.0
ssI87
(dp1282
g1
F-1.0
sg7
(lp1283
(lp1284
S'clean'
p1285
aa(lp1286
S'cleanest'
p1287
aasg13
(dp1288
g15
g16
(g20
S'\xd5x\xe9&1\x08\xe0?'
p1289
tp1290
Rp1291
sg26
(lp1292
(g1287
g1285
F0.501
tp1293
assg3
F0.0
sg29
(lp1294
(lp1295
g1287
aa(lp1296
g1285
aasg2
F1.0
ssI88
(dp1297
g1
F-1.0
sg7
(lp1298
(lp1299
S'grave'
p1300
aa(lp1301
g903
aasg13
(dp1302
g15
g16
(g20
S'\xd5x\xe9&1\x08\xe0?'
p1303
tp1304
Rp1305
sg26
(lp1306
(g903
g1300
F0.501
tp1307
assg3
F0.0
sg29
(lp1308
(lp1309
g903
aa(lp1310
g1300
aasg2
F1.0
ssI89
(dp1311
g1
F-1.0
sg7
(lp1312
(lp1313
g494
aa(lp1314
g496
aasg13
(dp1315
g15
g16
(g20
S'\xd5x\xe9&1\x08\xe0?'
p1316
tp1317
Rp1318
sg26
(lp1319
(g496
g494
F0.501
tp1320
assg3
F0.0
sg29
(lp1321
(lp1322
g496
aa(lp1323
g494
aasg2
F1.0
ssI90
(dp1324
g1
F1.0
sg7
(lp1325
(lp1326
g714
aa(lp1327
g716
aasg13
(dp1328
g15
g16
(g20
S'\xd5x\xe9&1\x08\xe0?'
p1329
tp1330
Rp1331
sg26
(lp1332
(g714
g716
F0.501
tp1333
assg3
F1.0
sg29
(lp1334
(lp1335
g714
aa(lp1336
g716
aasg2
F1.0
ssI91
(dp1337
g1
F-1.0
sg7
(lp1338
(lp1339
g933
aa(lp1340
g935
aasg13
(dp1341
g15
g16
(g20
S'\xd5x\xe9&1\x08\xe0?'
p1342
tp1343
Rp1344
sg26
(lp1345
(g935
g933
F0.501
tp1346
assg3
F0.0
sg29
(lp1347
(lp1348
g935
aa(lp1349
g933
aasg2
F1.0
ssI92
(dp1350
g1
F-1.0
sg7
(lp1351
(lp1352
S'freer'
p1353
aa(lp1354
S'freest'
p1355
aasg13
(dp1356
g15
g16
(g20
S'\xd5x\xe9&1\x08\xe0?'
p1357
tp1358
Rp1359
sg26
(lp1360
(g1355
g1353
F0.501
tp1361
assg3
F0.0
sg29
(lp1362
(lp1363
g1355
aa(lp1364
g1353
aasg2
F1.0
ssI93
(dp1365
g1
F-1.0
sg7
(lp1366
(lp1367
S'stricter'
p1368
aa(lp1369
S'strictest'
p1370
aasg13
(dp1371
g15
g16
(g20
S'\xd5x\xe9&1\x08\xe0?'
p1372
tp1373
Rp1374
sg26
(lp1375
(g1370
g1368
F0.501
tp1376
assg3
F0.0
sg29
(lp1377
(lp1378
g1370
aa(lp1379
g1368
aasg2
F1.0
ssI94
(dp1380
g1
F-1.0
sg7
(lp1381
(lp1382
S'larger'
p1383
aa(lp1384
S'largest'
p1385
aasg13
(dp1386
g15
g16
(g20
S'\xd5x\xe9&1\x08\xe0?'
p1387
tp1388
Rp1389
sg26
(lp1390
(g1385
g1383
F0.501
tp1391
assg3
F0.0
sg29
(lp1392
(lp1393
g1385
aa(lp1394
g1383
aasg2
F1.0
ssI95
(dp1395
g1
F1.0
sg7
(lp1396
(lp1397
g1113
aa(lp1398
g1115
aasg13
(dp1399
g15
g16
(g20
S'\xd5x\xe9&1\x08\xe0?'
p1400
tp1401
Rp1402
sg26
(lp1403
(g1113
g1115
F0.501
tp1404
assg3
F1.0
sg29
(lp1405
(lp1406
g1113
aa(lp1407
g1115
aasg2
F1.0
ssI96
(dp1408
g1
F-1.0
sg7
(lp1409
(lp1410
S'weaker'
p1411
aa(lp1412
S'weakest'
p1413
aasg13
(dp1414
g15
g16
(g20
S'\xd5x\xe9&1\x08\xe0?'
p1415
tp1416
Rp1417
sg26
(lp1418
(g1413
g1411
F0.501
tp1419
assg3
F0.0
sg29
(lp1420
(lp1421
g1413
aa(lp1422
g1411
aasg2
F1.0
ssI97
(dp1423
g1
F1.0
sg7
(lp1424
(lp1425
g419
aa(lp1426
g421
aasg13
(dp1427
g15
g16
(g20
S'\xd5x\xe9&1\x08\xe0?'
p1428
tp1429
Rp1430
sg26
(lp1431
(g419
g421
F0.501
tp1432
assg3
F1.0
sg29
(lp1433
(lp1434
g419
aa(lp1435
g421
aasg2
F1.0
ssI98
(dp1436
g1
F-1.0
sg7
(lp1437
(lp1438
S'sick'
p1439
aa(lp1440
S'sicker'
p1441
aasg13
(dp1442
g15
g16
(g20
S'\xd5x\xe9&1\x08\xe0?'
p1443
tp1444
Rp1445
sg26
(lp1446
(g1441
g1439
F0.501
tp1447
assg3
F0.0
sg29
(lp1448
(lp1449
g1441
aa(lp1450
g1439
aasg2
F1.0
ssI99
(dp1451
g1
F-1.0
sg7
(lp1452
(lp1453
g36
aa(lp1454
g38
aasg13
(dp1455
g15
g16
(g20
S'\xd5x\xe9&1\x08\xe0?'
p1456
tp1457
Rp1458
sg26
(lp1459
(g38
g36
F0.501
tp1460
assg3
F0.0
sg29
(lp1461
(lp1462
g38
aa(lp1463
g36
aasg2
F1.0
ssI100
(dp1464
g1
F-1.0
sg7
(lp1465
(lp1466
S'smart'
p1467
aa(lp1468
g920
aasg13
(dp1469
g15
g16
(g20
S'\xd5x\xe9&1\x08\xe0?'
p1470
tp1471
Rp1472
sg26
(lp1473
(g920
g1467
F0.501
tp1474
assg3
F0.0
sg29
(lp1475
(lp1476
g920
aa(lp1477
g1467
aasg2
F1.0
ssI101
(dp1478
g1
F-1.0
sg7
(lp1479
(lp1480
S'shorter'
p1481
aa(lp1482
S'shortest'
p1483
aasg13
(dp1484
g15
g16
(g20
S'\xd5x\xe9&1\x08\xe0?'
p1485
tp1486
Rp1487
sg26
(lp1488
(g1483
g1481
F0.501
tp1489
assg3
F0.0
sg29
(lp1490
(lp1491
g1483
aa(lp1492
g1481
aasg2
F1.0
ssI102
(dp1493
g1
F1.0
sg7
(lp1494
(lp1495
S'thick'
p1496
aa(lp1497
S'thicker'
p1498
aasg13
(dp1499
g15
g16
(g20
S'\xd5x\xe9&1\x08\xe0?'
p1500
tp1501
Rp1502
sg26
(lp1503
(g1496
g1498
F0.501
tp1504
assg3
F1.0
sg29
(lp1505
(lp1506
g1496
aa(lp1507
g1498
aasg2
F1.0
ssI103
(dp1508
g1
F-1.0
sg7
(lp1509
(lp1510
S'rarer'
p1511
aa(lp1512
S'rarest'
p1513
aasg13
(dp1514
g15
g16
(g20
S'\xd5x\xe9&1\x08\xe0?'
p1515
tp1516
Rp1517
sg26
(lp1518
(g1513
g1511
F0.501
tp1519
assg3
F0.0
sg29
(lp1520
(lp1521
g1513
aa(lp1522
g1511
aasg2
F1.0
ssI104
(dp1523
g1
F1.0
sg7
(lp1524
(lp1525
S'finer'
p1526
aa(lp1527
S'finest'
p1528
aasg13
(dp1529
g15
g16
(g20
S'\xd5x\xe9&1\x08\xe0?'
p1530
tp1531
Rp1532
sg26
(lp1533
(g1526
g1528
F0.501
tp1534
assg3
F1.0
sg29
(lp1535
(lp1536
g1526
aa(lp1537
g1528
aasg2
F1.0
ssI105
(dp1538
g1
F-1.0
sg7
(lp1539
(lp1540
S'new'
p1541
aa(lp1542
S'newer'
p1543
aasg13
(dp1544
g15
g16
(g20
S'\xd5x\xe9&1\x08\xe0?'
p1545
tp1546
Rp1547
sg26
(lp1548
(g1543
g1541
F0.501
tp1549
assg3
F0.0
sg29
(lp1550
(lp1551
g1543
aa(lp1552
g1541
aasg2
F1.0
ssI106
(dp1553
g1
F1.0
sg7
(lp1554
(lp1555
g888
aa(lp1556
g890
aasg13
(dp1557
g15
g16
(g20
S'\xd5x\xe9&1\x08\xe0?'
p1558
tp1559
Rp1560
sg26
(lp1561
(g888
g890
F0.501
tp1562
assg3
F1.0
sg29
(lp1563
(lp1564
g888
aa(lp1565
g890
aasg2
F1.0
ssI107
(dp1566
g1
F-1.0
sg7
(lp1567
(lp1568
S'safe'
p1569
aa(lp1570
S'safest'
p1571
aasg13
(dp1572
g15
g16
(g20
S'\xd5x\xe9&1\x08\xe0?'
p1573
tp1574
Rp1575
sg26
(lp1576
(g1571
g1569
F0.501
tp1577
assg3
F0.0
sg29
(lp1578
(lp1579
g1571
aa(lp1580
g1569
aasg2
F1.0
ssI108
(dp1581
g1
F1.0
sg7
(lp1582
(lp1583
S'swift'
p1584
aa(lp1585
S'swifter'
p1586
aasg13
(dp1587
g15
g16
(g20
S'\xd5x\xe9&1\x08\xe0?'
p1588
tp1589
Rp1590
sg26
(lp1591
(g1584
g1586
F0.501
tp1592
assg3
F1.0
sg29
(lp1593
(lp1594
g1584
aa(lp1595
g1586
aasg2
F1.0
ssI109
(dp1596
g1
F-1.0
sg7
(lp1597
(lp1598
g1257
aa(lp1599
g1259
aasg13
(dp1600
g15
g16
(g20
S'\xd5x\xe9&1\x08\xe0?'
p1601
tp1602
Rp1603
sg26
(lp1604
(g1259
g1257
F0.501
tp1605
assg3
F0.0
sg29
(lp1606
(lp1607
g1259
aa(lp1608
g1257
aasg2
F1.0
ssI110
(dp1609
g1
F1.0
sg7
(lp1610
(lp1611
S'wealthy'
p1612
aa(lp1613
S'wealthiest'
p1614
aasg13
(dp1615
g15
g16
(g20
S'\xd5x\xe9&1\x08\xe0?'
p1616
tp1617
Rp1618
sg26
(lp1619
(g1612
g1614
F0.501
tp1620
assg3
F1.0
sg29
(lp1621
(lp1622
g1612
aa(lp1623
g1614
aasg2
F1.0
ssI111
(dp1624
g1
F1.0
sg7
(lp1625
(lp1626
g1526
aa(lp1627
g1528
aasg13
(dp1628
g15
g16
(g20
S'\xd5x\xe9&1\x08\xe0?'
p1629
tp1630
Rp1631
sg26
(lp1632
(g1526
g1528
F0.501
tp1633
assg3
F1.0
sg29
(lp1634
(lp1635
g1526
aa(lp1636
g1528
aasg2
F1.0
ssI112
(dp1637
g1
F-1.0
sg7
(lp1638
(lp1639
S'clever'
p1640
aa(lp1641
S'cleverer'
p1642
aasg13
(dp1643
g15
g16
(g20
S'\xd5x\xe9&1\x08\xe0?'
p1644
tp1645
Rp1646
sg26
(lp1647
(g1642
g1640
F0.501
tp1648
assg3
F0.0
sg29
(lp1649
(lp1650
g1642
aa(lp1651
g1640
aasg2
F1.0
ssI113
(dp1652
g1
F-1.0
sg7
(lp1653
(lp1654
g479
aa(lp1655
g481
aasg13
(dp1656
g15
g16
(g20
S'\xd5x\xe9&1\x08\xe0?'
p1657
tp1658
Rp1659
sg26
(lp1660
(g481
g479
F0.501
tp1661
assg3
F0.0
sg29
(lp1662
(lp1663
g481
aa(lp1664
g479
aasg2
F1.0
ssI114
(dp1665
g1
F-1.0
sg7
(lp1666
(lp1667
g200
aa(lp1668
g202
aasg13
(dp1669
g15
g16
(g20
S'\xd5x\xe9&1\x08\xe0?'
p1670
tp1671
Rp1672
sg26
(lp1673
(g202
g200
F0.501
tp1674
assg3
F0.0
sg29
(lp1675
(lp1676
g202
aa(lp1677
g200
aasg2
F1.0
ssI115
(dp1678
g1
F1.0
sg7
(lp1679
(lp1680
S'dear'
p1681
aa(lp1682
S'dearer'
p1683
aasg13
(dp1684
g15
g16
(g20
S'\xd5x\xe9&1\x08\xe0?'
p1685
tp1686
Rp1687
sg26
(lp1688
(g1681
g1683
F0.501
tp1689
assg3
F1.0
sg29
(lp1690
(lp1691
g1681
aa(lp1692
g1683
aasg2
F1.0
ssI116
(dp1693
g1
F-1.0
sg7
(lp1694
(lp1695
g275
aa(lp1696
g334
aasg13
(dp1697
g15
g16
(g20
S'\xd5x\xe9&1\x08\xe0?'
p1698
tp1699
Rp1700
sg26
(lp1701
(g334
g275
F0.501
tp1702
assg3
F0.0
sg29
(lp1703
(lp1704
g334
aa(lp1705
g275
aasg2
F1.0
ssI117
(dp1706
g1
F-1.0
sg7
(lp1707
(lp1708
g1170
aa(lp1709
g1172
aasg13
(dp1710
g15
g16
(g20
S'\xd5x\xe9&1\x08\xe0?'
p1711
tp1712
Rp1713
sg26
(lp1714
(g1172
g1170
F0.501
tp1715
assg3
F0.0
sg29
(lp1716
(lp1717
g1172
aa(lp1718
g1170
aasg2
F1.0
ssI118
(dp1719
g1
F-1.0
sg7
(lp1720
(lp1721
g597
aa(lp1722
g599
aasg13
(dp1723
g15
g16
(g20
S'\xd5x\xe9&1\x08\xe0?'
p1724
tp1725
Rp1726
sg26
(lp1727
(g599
g597
F0.501
tp1728
assg3
F0.0
sg29
(lp1729
(lp1730
g599
aa(lp1731
g597
aasg2
F1.0
ssI119
(dp1732
g1
F1.0
sg7
(lp1733
(lp1734
S'hon'
p1735
aa(lp1736
S'honest'
p1737
aasg13
(dp1738
g15
g16
(g20
S'\xd5x\xe9&1\x08\xe0?'
p1739
tp1740
Rp1741
sg26
(lp1742
(g1735
g1737
F0.501
tp1743
assg3
F1.0
sg29
(lp1744
(lp1745
g1735
aa(lp1746
g1737
aasg2
F1.0
ssI120
(dp1747
g1
F-1.0
sg7
(lp1748
(lp1749
g539
aa(lp1750
g541
aasg13
(dp1751
g15
g16
(g20
S'\xd5x\xe9&1\x08\xe0?'
p1752
tp1753
Rp1754
sg26
(lp1755
(g541
g539
F0.501
tp1756
assg3
F0.0
sg29
(lp1757
(lp1758
g541
aa(lp1759
g539
aasg2
F1.0
ssI121
(dp1760
g1
F-1.0
sg7
(lp1761
(lp1762
g1467
aa(lp1763
g920
aasg13
(dp1764
g15
g16
(g20
S'\xd5x\xe9&1\x08\xe0?'
p1765
tp1766
Rp1767
sg26
(lp1768
(g920
g1467
F0.501
tp1769
assg3
F0.0
sg29
(lp1770
(lp1771
g920
aa(lp1772
g1467
aasg2
F1.0
ssI122
(dp1773
g1
F-1.0
sg7
(lp1774
(lp1775
S'safe'
p1776
aa(lp1777
S'safest'
p1778
aasg13
(dp1779
g15
g16
(g20
S'\xd5x\xe9&1\x08\xe0?'
p1780
tp1781
Rp1782
sg26
(lp1783
(g1778
g1776
F0.501
tp1784
assg3
F0.0
sg29
(lp1785
(lp1786
g1778
aa(lp1787
g1776
aasg2
F1.0
ssI123
(dp1788
g1
F-1.0
sg7
(lp1789
(lp1790
g81
aa(lp1791
g83
aasg13
(dp1792
g15
g16
(g20
S'\xd5x\xe9&1\x08\xe0?'
p1793
tp1794
Rp1795
sg26
(lp1796
(g83
g81
F0.501
tp1797
assg3
F0.0
sg29
(lp1798
(lp1799
g83
aa(lp1800
g81
aasg2
F1.0
ssI124
(dp1801
g1
F-1.0
sg7
(lp1802
(lp1803
g1187
aa(lp1804
g1244
aasg13
(dp1805
g15
g16
(g20
S'V\x0e-\xb2\x9d\xef\xdf?'
p1806
tp1807
Rp1808
sg26
(lp1809
(g1244
g1187
F0.499
tp1810
assg3
F0.0
sg29
(lp1811
(lp1812
g1244
aa(lp1813
g1187
aasg2
F1.0
ssI125
(dp1814
g1
F-1.0
sg7
(lp1815
(lp1816
g170
aa(lp1817
g172
aasg13
(dp1818
g15
g16
(g20
S'\xd5x\xe9&1\x08\xe0?'
p1819
tp1820
Rp1821
sg26
(lp1822
(g172
g170
F0.501
tp1823
assg3
F0.0
sg29
(lp1824
(lp1825
g172
aa(lp1826
g170
aasg2
F1.0
ssI126
(dp1827
g1
F-1.0
sg7
(lp1828
(lp1829
S'stricter'
p1830
aa(lp1831
S'strictest'
p1832
aasg13
(dp1833
g15
g16
(g20
S'\xd5x\xe9&1\x08\xe0?'
p1834
tp1835
Rp1836
sg26
(lp1837
(g1832
g1830
F0.501
tp1838
assg3
F0.0
sg29
(lp1839
(lp1840
g1832
aa(lp1841
g1830
aasg2
F1.0
ssI127
(dp1842
g1
F1.0
sg7
(lp1843
(lp1844
g1584
aa(lp1845
g1586
aasg13
(dp1846
g15
g16
(g20
S'\xd5x\xe9&1\x08\xe0?'
p1847
tp1848
Rp1849
sg26
(lp1850
(g1584
g1586
F0.501
tp1851
assg3
F1.0
sg29
(lp1852
(lp1853
g1584
aa(lp1854
g1586
aasg2
F1.0
ssI128
(dp1855
g1
F-1.0
sg7
(lp1856
(lp1857
S'smart'
p1858
aa(lp1859
S'smartest'
p1860
aasg13
(dp1861
g15
g16
(g20
S'\xd5x\xe9&1\x08\xe0?'
p1862
tp1863
Rp1864
sg26
(lp1865
(g1860
g1858
F0.501
tp1866
assg3
F0.0
sg29
(lp1867
(lp1868
g1860
aa(lp1869
g1858
aasg2
F1.0
ssI129
(dp1870
g1
F-1.0
sg7
(lp1871
(lp1872
g1353
aa(lp1873
g1355
aasg13
(dp1874
g15
g16
(g20
S'\xd5x\xe9&1\x08\xe0?'
p1875
tp1876
Rp1877
sg26
(lp1878
(g1355
g1353
F0.501
tp1879
assg3
F0.0
sg29
(lp1880
(lp1881
g1355
aa(lp1882
g1353
aasg2
F1.0
ssI130
(dp1883
g1
F-1.0
sg7
(lp1884
(lp1885
S'hard'
p1886
aa(lp1887
S'hardest'
p1888
aasg13
(dp1889
g15
g16
(g20
S'\xd5x\xe9&1\x08\xe0?'
p1890
tp1891
Rp1892
sg26
(lp1893
(g1888
g1886
F0.501
tp1894
assg3
F0.0
sg29
(lp1895
(lp1896
g1888
aa(lp1897
g1886
aasg2
F1.0
ssI131
(dp1898
g1
F-1.0
sg7
(lp1899
(lp1900
S'fairer'
p1901
aa(lp1902
S'fairest'
p1903
aasg13
(dp1904
g15
g16
(g20
S'\xd5x\xe9&1\x08\xe0?'
p1905
tp1906
Rp1907
sg26
(lp1908
(g1903
g1901
F0.501
tp1909
assg3
F0.0
sg29
(lp1910
(lp1911
g1903
aa(lp1912
g1901
aasg2
F1.0
ssI132
(dp1913
g1
F-1.0
sg7
(lp1914
(lp1915
S'scarce'
p1916
aa(lp1917
S'scarcer'
p1918
aasg13
(dp1919
g15
g16
(g20
S'\xd5x\xe9&1\x08\xe0?'
p1920
tp1921
Rp1922
sg26
(lp1923
(g1918
g1916
F0.501
tp1924
assg3
F0.0
sg29
(lp1925
(lp1926
g1918
aa(lp1927
g1916
aasg2
F1.0
ssI133
(dp1928
g1
F1.0
sg7
(lp1929
(lp1930
S'soon'
p1931
aa(lp1932
S'sooner'
p1933
aasg13
(dp1934
g15
g16
(g20
S'\xd5x\xe9&1\x08\xe0?'
p1935
tp1936
Rp1937
sg26
(lp1938
(g1931
g1933
F0.501
tp1939
assg3
F1.0
sg29
(lp1940
(lp1941
g1931
aa(lp1942
g1933
aasg2
F1.0
ssI134
(dp1943
g1
F-1.0
sg7
(lp1944
(lp1945
S'old'
p1946
aa(lp1947
g113
aasg13
(dp1948
g15
g16
(g20
S'\xd5x\xe9&1\x08\xe0?'
p1949
tp1950
Rp1951
sg26
(lp1952
(g113
g1946
F0.501
tp1953
assg3
F0.0
sg29
(lp1954
(lp1955
g113
aa(lp1956
g1946
aasg2
F1.0
ssI135
(dp1957
g1
F-1.0
sg7
(lp1958
(lp1959
g1285
aa(lp1960
g1287
aasg13
(dp1961
g15
g16
(g20
S'\xd5x\xe9&1\x08\xe0?'
p1962
tp1963
Rp1964
sg26
(lp1965
(g1287
g1285
F0.501
tp1966
assg3
F0.0
sg29
(lp1967
(lp1968
g1287
aa(lp1969
g1285
aasg2
F1.0
ssI136
(dp1970
g1
F-1.0
sg7
(lp1971
(lp1972
S'brave'
p1973
aa(lp1974
S'braver'
p1975
aasg13
(dp1976
g15
g16
(g20
S'\xd5x\xe9&1\x08\xe0?'
p1977
tp1978
Rp1979
sg26
(lp1980
(g1975
g1973
F0.501
tp1981
assg3
F0.0
sg29
(lp1982
(lp1983
g1975
aa(lp1984
g1973
aasg2
F1.0
ssI137
(dp1985
g1
F-1.0
sg7
(lp1986
(lp1987
S'darker'
p1988
aa(lp1989
S'darkest'
p1990
aasg13
(dp1991
g15
g16
(g20
S'\xd5x\xe9&1\x08\xe0?'
p1992
tp1993
Rp1994
sg26
(lp1995
(g1990
g1988
F0.501
tp1996
assg3
F0.0
sg29
(lp1997
(lp1998
g1990
aa(lp1999
g1988
aasg2
F1.0
ssI138
(dp2000
g1
F-1.0
sg7
(lp2001
(lp2002
g1300
aa(lp2003
g903
aasg13
(dp2004
g15
g16
(g20
S'\xd5x\xe9&1\x08\xe0?'
p2005
tp2006
Rp2007
sg26
(lp2008
(g903
g1300
F0.501
tp2009
assg3
F0.0
sg29
(lp2010
(lp2011
g903
aa(lp2012
g1300
aasg2
F1.0
ssI139
(dp2013
g1
F-1.0
sg7
(lp2014
(lp2015
g258
aa(lp2016
g260
aasg13
(dp2017
g15
g16
(g20
S'\xd5x\xe9&1\x08\xe0?'
p2018
tp2019
Rp2020
sg26
(lp2021
(g260
g258
F0.501
tp2022
assg3
F0.0
sg29
(lp2023
(lp2024
g260
aa(lp2025
g258
aasg2
F1.0
ssI140
(dp2026
g1
F-1.0
sg7
(lp2027
(lp2028
S'sweet'
p2029
aa(lp2030
S'sweeter'
p2031
aasg13
(dp2032
g15
g16
(g20
S'\xd5x\xe9&1\x08\xe0?'
p2033
tp2034
Rp2035
sg26
(lp2036
(g2031
g2029
F0.501
tp2037
assg3
F0.0
sg29
(lp2038
(lp2039
g2031
aa(lp2040
g2029
aasg2
F1.0
ssI141
(dp2041
g1
F-1.0
sg7
(lp2042
(lp2043
g699
aa(lp2044
g701
aasg13
(dp2045
g15
g16
(g20
S'\xd5x\xe9&1\x08\xe0?'
p2046
tp2047
Rp2048
sg26
(lp2049
(g701
g699
F0.501
tp2050
assg3
F0.0
sg29
(lp2051
(lp2052
g701
aa(lp2053
g699
aasg2
F1.0
ssI142
(dp2054
g1
F-1.0
sg7
(lp2055
(lp2056
g612
aa(lp2057
g614
aasg13
(dp2058
g15
g16
(g20
S'\xd5x\xe9&1\x08\xe0?'
p2059
tp2060
Rp2061
sg26
(lp2062
(g614
g612
F0.501
tp2063
assg3
F0.0
sg29
(lp2064
(lp2065
g614
aa(lp2066
g612
aasg2
F1.0
ssI143
(dp2067
g1
F-1.0
sg7
(lp2068
(lp2069
g832
aa(lp2070
g834
aasg13
(dp2071
g15
g16
(g20
S'\xd5x\xe9&1\x08\xe0?'
p2072
tp2073
Rp2074
sg26
(lp2075
(g834
g832
F0.501
tp2076
assg3
F0.0
sg29
(lp2077
(lp2078
g834
aa(lp2079
g832
aasg2
F1.0
ssI144
(dp2080
g1
F-1.0
sg7
(lp2081
(lp2082
g66
aa(lp2083
g68
aasg13
(dp2084
g15
g16
(g20
S'\xd5x\xe9&1\x08\xe0?'
p2085
tp2086
Rp2087
sg26
(lp2088
(g68
g66
F0.501
tp2089
assg3
F0.0
sg29
(lp2090
(lp2091
g68
aa(lp2092
g66
aasg2
F1.0
ssI145
(dp2093
g1
F1.0
sg7
(lp2094
(lp2095
S'moist'
p2096
aa(lp2097
S'moister'
p2098
aasg13
(dp2099
g15
g16
(g20
S'\xd5x\xe9&1\x08\xe0?'
p2100
tp2101
Rp2102
sg26
(lp2103
(g2096
g2098
F0.501
tp2104
assg3
F1.0
sg29
(lp2105
(lp2106
g2096
aa(lp2107
g2098
aasg2
F1.0
ssI146
(dp2108
g1
F1.0
sg7
(lp2109
(lp2110
g1612
aa(lp2111
g1614
aasg13
(dp2112
g15
g16
(g20
S'\xd5x\xe9&1\x08\xe0?'
p2113
tp2114
Rp2115
sg26
(lp2116
(g1612
g1614
F0.501
tp2117
assg3
F1.0
sg29
(lp2118
(lp2119
g1612
aa(lp2120
g1614
aasg2
F1.0
ssI147
(dp2121
g1
F1.0
sg7
(lp2122
(lp2123
g1072
aa(lp2124
g1074
aasg13
(dp2125
g15
g16
(g20
S'\xd5x\xe9&1\x08\xe0?'
p2126
tp2127
Rp2128
sg26
(lp2129
(g1072
g1074
F0.501
tp2130
assg3
F1.0
sg29
(lp2131
(lp2132
g1072
aa(lp2133
g1074
aasg2
F1.0
ssI148
(dp2134
g1
F1.0
sg7
(lp2135
(lp2136
S'late'
p2137
aa(lp2138
S'latest'
p2139
aasg13
(dp2140
g15
g16
(g20
S'\xd5x\xe9&1\x08\xe0?'
p2141
tp2142
Rp2143
sg26
(lp2144
(g2137
g2139
F0.501
tp2145
assg3
F1.0
sg29
(lp2146
(lp2147
g2137
aa(lp2148
g2139
aasg2
F1.0
ssI149
(dp2149
g1
F1.0
sg7
(lp2150
(lp2151
g81
aa(lp2152
S'cleaner'
p2153
aasg13
(dp2154
g15
g16
(g20
S'\xd5x\xe9&1\x08\xe0?'
p2155
tp2156
Rp2157
sg26
(lp2158
(g81
g2153
F0.501
tp2159
assg3
F1.0
sg29
(lp2160
(lp2161
g81
aa(lp2162
g2153
aasg2
F1.0
ssI150
(dp2163
g1
F1.0
sg7
(lp2164
(lp2165
S'east'
p2166
aa(lp2167
S'easier'
p2168
aasg13
(dp2169
g15
g16
(g20
S'\xd5x\xe9&1\x08\xe0?'
p2170
tp2171
Rp2172
sg26
(lp2173
(g2166
g2168
F0.501
tp2174
assg3
F1.0
sg29
(lp2175
(lp2176
g2166
aa(lp2177
g2168
aasg2
F1.0
ssI151
(dp2178
g1
F-1.0
sg7
(lp2179
(lp2180
S'freer'
p2181
aa(lp2182
S'freest'
p2183
aasg13
(dp2184
g15
g16
(g20
S'\xd5x\xe9&1\x08\xe0?'
p2185
tp2186
Rp2187
sg26
(lp2188
(g2183
g2181
F0.501
tp2189
assg3
F0.0
sg29
(lp2190
(lp2191
g2183
aa(lp2192
g2181
aasg2
F1.0
ssI152
(dp2193
g1
F-1.0
sg7
(lp2194
(lp2195
g1776
aa(lp2196
g1778
aasg13
(dp2197
g15
g16
(g20
S'\xd5x\xe9&1\x08\xe0?'
p2198
tp2199
Rp2200
sg26
(lp2201
(g1778
g1776
F0.501
tp2202
assg3
F0.0
sg29
(lp2203
(lp2204
g1778
aa(lp2205
g1776
aasg2
F1.0
ssI153
(dp2206
g1
F1.0
sg7
(lp2207
(lp2208
g390
aa(lp2209
g392
aasg13
(dp2210
g15
g16
(g20
S'\xd5x\xe9&1\x08\xe0?'
p2211
tp2212
Rp2213
sg26
(lp2214
(g390
g392
F0.501
tp2215
assg3
F1.0
sg29
(lp2216
(lp2217
g390
aa(lp2218
g392
aasg2
F1.0
ssI154
(dp2219
g1
F1.0
sg7
(lp2220
(lp2221
g1931
aa(lp2222
g1933
aasg13
(dp2223
g15
g16
(g20
S'\xd5x\xe9&1\x08\xe0?'
p2224
tp2225
Rp2226
sg26
(lp2227
(g1931
g1933
F0.501
tp2228
assg3
F1.0
sg29
(lp2229
(lp2230
g1931
aa(lp2231
g1933
aasg2
F1.0
ssI155
(dp2232
g1
F-1.0
sg7
(lp2233
(lp2234
g1543
aa(lp2235
S'newest'
p2236
aasg13
(dp2237
g15
g16
(g20
S'\xd5x\xe9&1\x08\xe0?'
p2238
tp2239
Rp2240
sg26
(lp2241
(g2236
g1543
F0.501
tp2242
assg3
F0.0
sg29
(lp2243
(lp2244
g2236
aa(lp2245
g1543
aasg2
F1.0
ssI156
(dp2246
g1
F-1.0
sg7
(lp2247
(lp2248
g1946
aa(lp2249
g113
aasg13
(dp2250
g15
g16
(g20
S'\xd5x\xe9&1\x08\xe0?'
p2251
tp2252
Rp2253
sg26
(lp2254
(g113
g1946
F0.501
tp2255
assg3
F0.0
sg29
(lp2256
(lp2257
g113
aa(lp2258
g1946
aasg2
F1.0
ssI157
(dp2259
g1
F-1.0
sg7
(lp2260
(lp2261
S'happier'
p2262
aa(lp2263
S'happiest'
p2264
aasg13
(dp2265
g15
g16
(g20
S'\xd5x\xe9&1\x08\xe0?'
p2266
tp2267
Rp2268
sg26
(lp2269
(g2264
g2262
F0.501
tp2270
assg3
F0.0
sg29
(lp2271
(lp2272
g2264
aa(lp2273
g2262
aasg2
F1.0
ssI158
(dp2274
g1
F-1.0
sg7
(lp2275
(lp2276
g1411
aa(lp2277
g1413
aasg13
(dp2278
g15
g16
(g20
S'\xd5x\xe9&1\x08\xe0?'
p2279
tp2280
Rp2281
sg26
(lp2282
(g1413
g1411
F0.501
tp2283
assg3
F0.0
sg29
(lp2284
(lp2285
g1413
aa(lp2286
g1411
aasg2
F1.0
ssI159
(dp2287
g1
F-1.0
sg7
(lp2288
(lp2289
g627
aa(lp2290
g629
aasg13
(dp2291
g15
g16
(g20
S'\xd5x\xe9&1\x08\xe0?'
p2292
tp2293
Rp2294
sg26
(lp2295
(g629
g627
F0.501
tp2296
assg3
F0.0
sg29
(lp2297
(lp2298
g629
aa(lp2299
g627
aasg2
F1.0
ssI160
(dp2300
g1
F-1.0
sg7
(lp2301
(lp2302
S'cheap'
p2303
aa(lp2304
S'cheapest'
p2305
aasg13
(dp2306
g15
g16
(g20
S'\xd5x\xe9&1\x08\xe0?'
p2307
tp2308
Rp2309
sg26
(lp2310
(g2305
g2303
F0.501
tp2311
assg3
F0.0
sg29
(lp2312
(lp2313
g2305
aa(lp2314
g2303
aasg2
F1.0
ssI161
(dp2315
g1
F1.0
sg7
(lp2316
(lp2317
g989
aa(lp2318
g991
aasg13
(dp2319
g15
g16
(g20
S'\xd5x\xe9&1\x08\xe0?'
p2320
tp2321
Rp2322
sg26
(lp2323
(g989
g991
F0.501
tp2324
assg3
F1.0
sg29
(lp2325
(lp2326
g989
aa(lp2327
g991
aasg2
F1.0
ssI162
(dp2328
g1
F1.0
sg7
(lp2329
(lp2330
S'quick'
p2331
aa(lp2332
S'quickest'
p2333
aasg13
(dp2334
g15
g16
(g20
S'\xd5x\xe9&1\x08\xe0?'
p2335
tp2336
Rp2337
sg26
(lp2338
(g2331
g2333
F0.501
tp2339
assg3
F1.0
sg29
(lp2340
(lp2341
g2331
aa(lp2342
g2333
aasg2
F1.0
ssI163
(dp2343
g1
F-1.0
sg7
(lp2344
(lp2345
g1830
aa(lp2346
g1832
aasg13
(dp2347
g15
g16
(g20
S'\xd5x\xe9&1\x08\xe0?'
p2348
tp2349
Rp2350
sg26
(lp2351
(g1832
g1830
F0.501
tp2352
assg3
F0.0
sg29
(lp2353
(lp2354
g1832
aa(lp2355
g1830
aasg2
F1.0
ssI164
(dp2356
g1
F1.0
sg7
(lp2357
(lp2358
S'large'
p2359
aa(lp2360
g1385
aasg13
(dp2361
g15
g16
(g20
S'\xd5x\xe9&1\x08\xe0?'
p2362
tp2363
Rp2364
sg26
(lp2365
(g2359
g1385
F0.501
tp2366
assg3
F1.0
sg29
(lp2367
(lp2368
g2359
aa(lp2369
g1385
aasg2
F1.0
ssI165
(dp2370
g1
F1.0
sg7
(lp2371
(lp2372
S'east'
p2373
aa(lp2374
S'easier'
p2375
aasg13
(dp2376
g15
g16
(g20
S'\xd5x\xe9&1\x08\xe0?'
p2377
tp2378
Rp2379
sg26
(lp2380
(g2373
g2375
F0.501
tp2381
assg3
F1.0
sg29
(lp2382
(lp2383
g2373
aa(lp2384
g2375
aasg2
F1.0
ssI166
(dp2385
g1
F-1.0
sg7
(lp2386
(lp2387
S'darker'
p2388
aa(lp2389
S'darkest'
p2390
aasg13
(dp2391
g15
g16
(g20
S'\xd5x\xe9&1\x08\xe0?'
p2392
tp2393
Rp2394
sg26
(lp2395
(g2390
g2388
F0.501
tp2396
assg3
F0.0
sg29
(lp2397
(lp2398
g2390
aa(lp2399
g2388
aasg2
F1.0
ssI167
(dp2400
g1
F-1.0
sg7
(lp2401
(lp2402
g288
aa(lp2403
g290
aasg13
(dp2404
g15
g16
(g20
S'\xd5x\xe9&1\x08\xe0?'
p2405
tp2406
Rp2407
sg26
(lp2408
(g290
g288
F0.501
tp2409
assg3
F0.0
sg29
(lp2410
(lp2411
g290
aa(lp2412
g288
aasg2
F1.0
ssI168
(dp2413
g1
F-1.0
sg7
(lp2414
(lp2415
g1187
aa(lp2416
g1244
aasg13
(dp2417
g15
g16
(g20
S'V\x0e-\xb2\x9d\xef\xdf?'
p2418
tp2419
Rp2420
sg26
(lp2421
(g1244
g1187
F0.499
tp2422
assg3
F0.0
sg29
(lp2423
(lp2424
g1244
aa(lp2425
g1187
aasg2
F1.0
ssI169
(dp2426
g1
F1.0
sg7
(lp2427
(lp2428
g2359
aa(lp2429
g1385
aasg13
(dp2430
g15
g16
(g20
S'\xd5x\xe9&1\x08\xe0?'
p2431
tp2432
Rp2433
sg26
(lp2434
(g2359
g1385
F0.501
tp2435
assg3
F1.0
sg29
(lp2436
(lp2437
g2359
aa(lp2438
g1385
aasg2
F1.0
ssI170
(dp2439
g1
F-1.0
sg7
(lp2440
(lp2441
g1439
aa(lp2442
g1441
aasg13
(dp2443
g15
g16
(g20
S'\xd5x\xe9&1\x08\xe0?'
p2444
tp2445
Rp2446
sg26
(lp2447
(g1441
g1439
F0.501
tp2448
assg3
F0.0
sg29
(lp2449
(lp2450
g1441
aa(lp2451
g1439
aasg2
F1.0
ssI171
(dp2452
g1
F-1.0
sg7
(lp2453
(lp2454
S'fuller'
p2455
aa(lp2456
S'fullest'
p2457
aasg13
(dp2458
g15
g16
(g20
S'\xd5x\xe9&1\x08\xe0?'
p2459
tp2460
Rp2461
sg26
(lp2462
(g2457
g2455
F0.501
tp2463
assg3
F0.0
sg29
(lp2464
(lp2465
g2457
aa(lp2466
g2455
aasg2
F1.0
ssI172
(dp2467
g1
F1.0
sg7
(lp2468
(lp2469
g670
aa(lp2470
g436
aasg13
(dp2471
g15
g16
(g20
S'\xd5x\xe9&1\x08\xe0?'
p2472
tp2473
Rp2474
sg26
(lp2475
(g670
g436
F0.501
tp2476
assg3
F1.0
sg29
(lp2477
(lp2478
g670
aa(lp2479
g436
aasg2
F1.0
ssI173
(dp2480
g1
F-1.0
sg7
(lp2481
(lp2482
g1057
aa(lp2483
g1059
aasg13
(dp2484
g15
g16
(g20
S'\xd5x\xe9&1\x08\xe0?'
p2485
tp2486
Rp2487
sg26
(lp2488
(g1059
g1057
F0.501
tp2489
assg3
F0.0
sg29
(lp2490
(lp2491
g1059
aa(lp2492
g1057
aasg2
F1.0
ssI174
(dp2493
g1
F1.0
sg7
(lp2494
(lp2495
g2373
aa(lp2496
g2375
aasg13
(dp2497
g15
g16
(g20
S'\xd5x\xe9&1\x08\xe0?'
p2498
tp2499
Rp2500
sg26
(lp2501
(g2373
g2375
F0.501
tp2502
assg3
F1.0
sg29
(lp2503
(lp2504
g2373
aa(lp2505
g2375
aasg2
F1.0
ssI175
(dp2506
g1
F-1.0
sg7
(lp2507
(lp2508
g918
aa(lp2509
g920
aasg13
(dp2510
g15
g16
(g20
S'\xd5x\xe9&1\x08\xe0?'
p2511
tp2512
Rp2513
sg26
(lp2514
(g920
g918
F0.501
tp2515
assg3
F0.0
sg29
(lp2516
(lp2517
g920
aa(lp2518
g918
aasg2
F1.0
ssI176
(dp2519
g1
F1.0
sg7
(lp2520
(lp2521
g642
aa(lp2522
g644
aasg13
(dp2523
g15
g16
(g20
S'\xd5x\xe9&1\x08\xe0?'
p2524
tp2525
Rp2526
sg26
(lp2527
(g642
g644
F0.501
tp2528
assg3
F1.0
sg29
(lp2529
(lp2530
g642
aa(lp2531
g644
aasg2
F1.0
ssI177
(dp2532
g1
F-1.0
sg7
(lp2533
(lp2534
g2373
aa(lp2535
S'easiest'
p2536
aasg13
(dp2537
g15
g16
(g20
S'\xd5x\xe9&1\x08\xe0?'
p2538
tp2539
Rp2540
sg26
(lp2541
(g2536
g2373
F0.501
tp2542
assg3
F0.0
sg29
(lp2543
(lp2544
g2536
aa(lp2545
g2373
aasg2
F1.0
ssI178
(dp2546
g1
F1.0
sg7
(lp2547
(lp2548
g1141
aa(lp2549
g1143
aasg13
(dp2550
g15
g16
(g20
S'\xd5x\xe9&1\x08\xe0?'
p2551
tp2552
Rp2553
sg26
(lp2554
(g1141
g1143
F0.501
tp2555
assg3
F1.0
sg29
(lp2556
(lp2557
g1141
aa(lp2558
g1143
aasg2
F1.0
ssI179
(dp2559
g1
F1.0
sg7
(lp2560
(lp2561
S'holy'
p2562
aa(lp2563
S'holier'
p2564
aasg13
(dp2565
g15
g16
(g20
S'\xd5x\xe9&1\x08\xe0?'
p2566
tp2567
Rp2568
sg26
(lp2569
(g2562
g2564
F0.501
tp2570
assg3
F1.0
sg29
(lp2571
(lp2572
g2562
aa(lp2573
g2564
aasg2
F1.0
ssI180
(dp2574
g1
F-1.0
sg7
(lp2575
(lp2576
S'earlier'
p2577
aa(lp2578
S'earliest'
p2579
aasg13
(dp2580
g15
g16
(g20
S'\xd5x\xe9&1\x08\xe0?'
p2581
tp2582
Rp2583
sg26
(lp2584
(g2579
g2577
F0.501
tp2585
assg3
F0.0
sg29
(lp2586
(lp2587
g2579
aa(lp2588
g2577
aasg2
F1.0
ssI181
(dp2589
g1
F1.0
sg7
(lp2590
(lp2591
S'near'
p2592
aa(lp2593
S'nearest'
p2594
aasg13
(dp2595
g15
g16
(g20
S'\xd5x\xe9&1\x08\xe0?'
p2596
tp2597
Rp2598
sg26
(lp2599
(g2592
g2594
F0.501
tp2600
assg3
F1.0
sg29
(lp2601
(lp2602
g2592
aa(lp2603
g2594
aasg2
F1.0
ssI182
(dp2604
g1
F-1.0
sg7
(lp2605
(lp2606
S'hard'
p2607
aa(lp2608
S'hardest'
p2609
aasg13
(dp2610
g15
g16
(g20
S'\xd5x\xe9&1\x08\xe0?'
p2611
tp2612
Rp2613
sg26
(lp2614
(g2609
g2607
F0.501
tp2615
assg3
F0.0
sg29
(lp2616
(lp2617
g2609
aa(lp2618
g2607
aasg2
F1.0
ssI183
(dp2619
g1
F1.0
sg7
(lp2620
(lp2621
S'quick'
p2622
aa(lp2623
S'quickest'
p2624
aasg13
(dp2625
g15
g16
(g20
S'\xd5x\xe9&1\x08\xe0?'
p2626
tp2627
Rp2628
sg26
(lp2629
(g2622
g2624
F0.501
tp2630
assg3
F1.0
sg29
(lp2631
(lp2632
g2622
aa(lp2633
g2624
aasg2
F1.0
ssI184
(dp2634
g1
F-1.0
sg7
(lp2635
(lp2636
S'east'
p2637
aa(lp2638
S'easiest'
p2639
aasg13
(dp2640
g15
g16
(g20
S'\xd5x\xe9&1\x08\xe0?'
p2641
tp2642
Rp2643
sg26
(lp2644
(g2639
g2637
F0.501
tp2645
assg3
F0.0
sg29
(lp2646
(lp2647
g2639
aa(lp2648
g2637
aasg2
F1.0
ssI185
(dp2649
g1
F1.0
sg7
(lp2650
(lp2651
g2096
aa(lp2652
g2098
aasg13
(dp2653
g15
g16
(g20
S'\xd5x\xe9&1\x08\xe0?'
p2654
tp2655
Rp2656
sg26
(lp2657
(g2096
g2098
F0.501
tp2658
assg3
F1.0
sg29
(lp2659
(lp2660
g2096
aa(lp2661
g2098
aasg2
F1.0
ssI186
(dp2662
g1
F-1.0
sg7
(lp2663
(lp2664
g10
aa(lp2665
g12
aasg13
(dp2666
g15
g16
(g20
S'\xd5x\xe9&1\x08\xe0?'
p2667
tp2668
Rp2669
sg26
(lp2670
(g12
g10
F0.501
tp2671
assg3
F0.0
sg29
(lp2672
(lp2673
g12
aa(lp2674
g10
aasg2
F1.0
ssI187
(dp2675
g1
F-1.0
sg7
(lp2676
(lp2677
S'cheaper'
p2678
aa(lp2679
g202
aasg13
(dp2680
g15
g16
(g20
S'\xd5x\xe9&1\x08\xe0?'
p2681
tp2682
Rp2683
sg26
(lp2684
(g202
g2678
F0.501
tp2685
assg3
F0.0
sg29
(lp2686
(lp2687
g202
aa(lp2688
g2678
aasg2
F1.0
ssI188
(dp2689
g1
F-1.0
sg7
(lp2690
(lp2691
S'cheaper'
p2692
aa(lp2693
S'cheapest'
p2694
aasg13
(dp2695
g15
g16
(g20
S'\xd5x\xe9&1\x08\xe0?'
p2696
tp2697
Rp2698
sg26
(lp2699
(g2694
g2692
F0.501
tp2700
assg3
F0.0
sg29
(lp2701
(lp2702
g2694
aa(lp2703
g2692
aasg2
F1.0
ssI189
(dp2704
g1
F-1.0
sg7
(lp2705
(lp2706
S'larger'
p2707
aa(lp2708
S'largest'
p2709
aasg13
(dp2710
g15
g16
(g20
S'\xd5x\xe9&1\x08\xe0?'
p2711
tp2712
Rp2713
sg26
(lp2714
(g2709
g2707
F0.501
tp2715
assg3
F0.0
sg29
(lp2716
(lp2717
g2709
aa(lp2718
g2707
aasg2
F1.0
ssI190
(dp2719
g1
F-1.0
sg7
(lp2720
(lp2721
g772
aa(lp2722
g774
aasg13
(dp2723
g15
g16
(g20
S'\xd5x\xe9&1\x08\xe0?'
p2724
tp2725
Rp2726
sg26
(lp2727
(g774
g772
F0.501
tp2728
assg3
F0.0
sg29
(lp2729
(lp2730
g774
aa(lp2731
g772
aasg2
F1.0
ssI191
(dp2732
g1
F-1.0
sg7
(lp2733
(lp2734
g757
aa(lp2735
g759
aasg13
(dp2736
g15
g16
(g20
S'\xd5x\xe9&1\x08\xe0?'
p2737
tp2738
Rp2739
sg26
(lp2740
(g759
g757
F0.501
tp2741
assg3
F0.0
sg29
(lp2742
(lp2743
g759
aa(lp2744
g757
aasg2
F1.0
ssI192
(dp2745
g1
F-1.0
sg7
(lp2746
(lp2747
g2637
aa(lp2748
g2639
aasg13
(dp2749
g15
g16
(g20
S'\xd5x\xe9&1\x08\xe0?'
p2750
tp2751
Rp2752
sg26
(lp2753
(g2639
g2637
F0.501
tp2754
assg3
F0.0
sg29
(lp2755
(lp2756
g2639
aa(lp2757
g2637
aasg2
F1.0
ssI193
(dp2758
g1
F-1.0
sg7
(lp2759
(lp2760
g2707
aa(lp2761
g2709
aasg13
(dp2762
g15
g16
(g20
S'\xd5x\xe9&1\x08\xe0?'
p2763
tp2764
Rp2765
sg26
(lp2766
(g2709
g2707
F0.501
tp2767
assg3
F0.0
sg29
(lp2768
(lp2769
g2709
aa(lp2770
g2707
aasg2
F1.0
ssI194
(dp2771
g1
F1.0
sg7
(lp2772
(lp2773
g2622
aa(lp2774
g2624
aasg13
(dp2775
g15
g16
(g20
S'\xd5x\xe9&1\x08\xe0?'
p2776
tp2777
Rp2778
sg26
(lp2779
(g2622
g2624
F0.501
tp2780
assg3
F1.0
sg29
(lp2781
(lp2782
g2622
aa(lp2783
g2624
aasg2
F1.0
ssI195
(dp2784
g1
F-1.0
sg7
(lp2785
(lp2786
g1156
aa(lp2787
g12
aasg13
(dp2788
g15
g16
(g20
S'\xd5x\xe9&1\x08\xe0?'
p2789
tp2790
Rp2791
sg26
(lp2792
(g12
g1156
F0.501
tp2793
assg3
F0.0
sg29
(lp2794
(lp2795
g12
aa(lp2796
g1156
aasg2
F1.0
ssI196
(dp2797
g1
F-1.0
sg7
(lp2798
(lp2799
S'cleaner'
p2800
aa(lp2801
S'cleanest'
p2802
aasg13
(dp2803
g15
g16
(g20
S'\xd5x\xe9&1\x08\xe0?'
p2804
tp2805
Rp2806
sg26
(lp2807
(g2802
g2800
F0.501
tp2808
assg3
F0.0
sg29
(lp2809
(lp2810
g2802
aa(lp2811
g2800
aasg2
F1.0
ssI197
(dp2812
g1
F-1.0
sg7
(lp2813
(lp2814
g1017
aa(lp2815
g614
aasg13
(dp2816
g15
g16
(g20
S'\xd5x\xe9&1\x08\xe0?'
p2817
tp2818
Rp2819
sg26
(lp2820
(g614
g1017
F0.501
tp2821
assg3
F0.0
sg29
(lp2822
(lp2823
g614
aa(lp2824
g1017
aasg2
F1.0
ssI198
(dp2825
g1
F-1.0
sg7
(lp2826
(lp2827
g2181
aa(lp2828
g2183
aasg13
(dp2829
g15
g16
(g20
S'\xd5x\xe9&1\x08\xe0?'
p2830
tp2831
Rp2832
sg26
(lp2833
(g2183
g2181
F0.501
tp2834
assg3
F0.0
sg29
(lp2835
(lp2836
g2183
aa(lp2837
g2181
aasg2
F1.0
ssI199
(dp2838
g1
F-1.0
sg7
(lp2839
(lp2840
g1886
aa(lp2841
g1888
aasg13
(dp2842
g15
g16
(g20
S'\xd5x\xe9&1\x08\xe0?'
p2843
tp2844
Rp2845
sg26
(lp2846
(g1888
g1886
F0.501
tp2847
assg3
F0.0
sg29
(lp2848
(lp2849
g1888
aa(lp2850
g1886
aasg2
F1.0
ssI200
(dp2851
g1
F-1.0
sg7
(lp2852
(lp2853
S'new'
p2854
aa(lp2855
S'newer'
p2856
aasg13
(dp2857
g15
g16
(g20
S'\xd5x\xe9&1\x08\xe0?'
p2858
tp2859
Rp2860
sg26
(lp2861
(g2856
g2854
F0.501
tp2862
assg3
F0.0
sg29
(lp2863
(lp2864
g2856
aa(lp2865
g2854
aasg2
F1.0
ssI201
(dp2866
g1
F-1.0
sg7
(lp2867
(lp2868
g1228
aa(lp2869
g1230
aasg13
(dp2870
g15
g16
(g20
S'\xd5x\xe9&1\x08\xe0?'
p2871
tp2872
Rp2873
sg26
(lp2874
(g1230
g1228
F0.501
tp2875
assg3
F0.0
sg29
(lp2876
(lp2877
g1230
aa(lp2878
g1228
aasg2
F1.0
ssI202
(dp2879
g1
F-1.0
sg7
(lp2880
(lp2881
S'timely'
p2882
aa(lp2883
S'timelier'
p2884
aasg13
(dp2885
g15
g16
(g20
S'\xd5x\xe9&1\x08\xe0?'
p2886
tp2887
Rp2888
sg26
(lp2889
(g2884
g2882
F0.501
tp2890
assg3
F0.0
sg29
(lp2891
(lp2892
g2884
aa(lp2893
g2882
aasg2
F1.0
ssI203
(dp2894
g1
F-1.0
sg7
(lp2895
(lp2896
g974
aa(lp2897
g976
aasg13
(dp2898
g15
g16
(g20
S'\xd5x\xe9&1\x08\xe0?'
p2899
tp2900
Rp2901
sg26
(lp2902
(g976
g974
F0.501
tp2903
assg3
F0.0
sg29
(lp2904
(lp2905
g976
aa(lp2906
g974
aasg2
F1.0
ssI204
(dp2907
g1
F1.0
sg7
(lp2908
(lp2909
g81
aa(lp2910
g2153
aasg13
(dp2911
g15
g16
(g20
S'\xd5x\xe9&1\x08\xe0?'
p2912
tp2913
Rp2914
sg26
(lp2915
(g81
g2153
F0.501
tp2916
assg3
F1.0
sg29
(lp2917
(lp2918
g81
aa(lp2919
g2153
aasg2
F1.0
ssI205
(dp2920
g1
F-1.0
sg7
(lp2921
(lp2922
S'older'
p2923
aa(lp2924
S'oldest'
p2925
aasg13
(dp2926
g15
g16
(g20
S'\xd5x\xe9&1\x08\xe0?'
p2927
tp2928
Rp2929
sg26
(lp2930
(g2925
g2923
F0.501
tp2931
assg3
F0.0
sg29
(lp2932
(lp2933
g2925
aa(lp2934
g2923
aasg2
F1.0
ssI206
(dp2935
g1
F-1.0
sg7
(lp2936
(lp2937
g2854
aa(lp2938
g2856
aasg13
(dp2939
g15
g16
(g20
S'\xd5x\xe9&1\x08\xe0?'
p2940
tp2941
Rp2942
sg26
(lp2943
(g2856
g2854
F0.501
tp2944
assg3
F0.0
sg29
(lp2945
(lp2946
g2856
aa(lp2947
g2854
aasg2
F1.0
ssI207
(dp2948
g1
F-1.0
sg7
(lp2949
(lp2950
g2153
aa(lp2951
g83
aasg13
(dp2952
g15
g16
(g20
S'\xd5x\xe9&1\x08\xe0?'
p2953
tp2954
Rp2955
sg26
(lp2956
(g83
g2153
F0.501
tp2957
assg3
F0.0
sg29
(lp2958
(lp2959
g83
aa(lp2960
g2153
aasg2
F1.0
ssI208
(dp2961
g1
F-1.0
sg7
(lp2962
(lp2963
S'heavier'
p2964
aa(lp2965
S'heaviest'
p2966
aasg13
(dp2967
g15
g16
(g20
S'\xd5x\xe9&1\x08\xe0?'
p2968
tp2969
Rp2970
sg26
(lp2971
(g2966
g2964
F0.501
tp2972
assg3
F0.0
sg29
(lp2973
(lp2974
g2966
aa(lp2975
g2964
aasg2
F1.0
ssI209
(dp2976
g1
F1.0
sg7
(lp2977
(lp2978
g405
aa(lp2979
g305
aasg13
(dp2980
g15
g16
(g20
S'\xd5x\xe9&1\x08\xe0?'
p2981
tp2982
Rp2983
sg26
(lp2984
(g405
g305
F0.501
tp2985
assg3
F1.0
sg29
(lp2986
(lp2987
g405
aa(lp2988
g305
aasg2
F1.0
ssI210
(dp2989
g1
F1.0
sg7
(lp2990
(lp2991
g860
aa(lp2992
g862
aasg13
(dp2993
g15
g16
(g20
S'\xd5x\xe9&1\x08\xe0?'
p2994
tp2995
Rp2996
sg26
(lp2997
(g860
g862
F0.501
tp2998
assg3
F1.0
sg29
(lp2999
(lp3000
g860
aa(lp3001
g862
aasg2
F1.0
ssI211
(dp3002
g1
F-1.0
sg7
(lp3003
(lp3004
g1988
aa(lp3005
g1990
aasg13
(dp3006
g15
g16
(g20
S'\xd5x\xe9&1\x08\xe0?'
p3007
tp3008
Rp3009
sg26
(lp3010
(g1990
g1988
F0.501
tp3011
assg3
F0.0
sg29
(lp3012
(lp3013
g1990
aa(lp3014
g1988
aasg2
F1.0
ssI212
(dp3015
g1
F-1.0
sg7
(lp3016
(lp3017
g2303
aa(lp3018
g2305
aasg13
(dp3019
g15
g16
(g20
S'\xd5x\xe9&1\x08\xe0?'
p3020
tp3021
Rp3022
sg26
(lp3023
(g2305
g2303
F0.501
tp3024
assg3
F0.0
sg29
(lp3025
(lp3026
g2305
aa(lp3027
g2303
aasg2
F1.0
ssI213
(dp3028
g1
F-1.0
sg7
(lp3029
(lp3030
g2388
aa(lp3031
g2390
aasg13
(dp3032
g15
g16
(g20
S'\xd5x\xe9&1\x08\xe0?'
p3033
tp3034
Rp3035
sg26
(lp3036
(g2390
g2388
F0.501
tp3037
assg3
F0.0
sg29
(lp3038
(lp3039
g2390
aa(lp3040
g2388
aasg2
F1.0
ssI214
(dp3041
g1
F-1.0
sg7
(lp3042
(lp3043
S'newer'
p3044
aa(lp3045
S'newest'
p3046
aasg13
(dp3047
g15
g16
(g20
S'\xd5x\xe9&1\x08\xe0?'
p3048
tp3049
Rp3050
sg26
(lp3051
(g3046
g3044
F0.501
tp3052
assg3
F0.0
sg29
(lp3053
(lp3054
g3046
aa(lp3055
g3044
aasg2
F1.0
ssI215
(dp3056
g1
F-1.0
sg7
(lp3057
(lp3058
g2153
aa(lp3059
g83
aasg13
(dp3060
g15
g16
(g20
S'\xd5x\xe9&1\x08\xe0?'
p3061
tp3062
Rp3063
sg26
(lp3064
(g83
g2153
F0.501
tp3065
assg3
F0.0
sg29
(lp3066
(lp3067
g83
aa(lp3068
g2153
aasg2
F1.0
ssI216
(dp3069
g1
F-1.0
sg7
(lp3070
(lp3071
g1858
aa(lp3072
g1860
aasg13
(dp3073
g15
g16
(g20
S'\xd5x\xe9&1\x08\xe0?'
p3074
tp3075
Rp3076
sg26
(lp3077
(g1860
g1858
F0.501
tp3078
assg3
F0.0
sg29
(lp3079
(lp3080
g1860
aa(lp3081
g1858
aasg2
F1.0
ssI217
(dp3082
g1
F-1.0
sg7
(lp3083
(lp3084
g464
aa(lp3085
g466
aasg13
(dp3086
g15
g16
(g20
S'\xd5x\xe9&1\x08\xe0?'
p3087
tp3088
Rp3089
sg26
(lp3090
(g466
g464
F0.501
tp3091
assg3
F0.0
sg29
(lp3092
(lp3093
g466
aa(lp3094
g464
aasg2
F1.0
ssI218
(dp3095
g1
F1.0
sg7
(lp3096
(lp3097
g684
aa(lp3098
g686
aasg13
(dp3099
g15
g16
(g20
S'\xd5x\xe9&1\x08\xe0?'
p3100
tp3101
Rp3102
sg26
(lp3103
(g684
g686
F0.501
tp3104
assg3
F1.0
sg29
(lp3105
(lp3106
g684
aa(lp3107
g686
aasg2
F1.0
ssI219
(dp3108
g1
F-1.0
sg7
(lp3109
(lp3110
g1973
aa(lp3111
g1975
aasg13
(dp3112
g15
g16
(g20
S'\xd5x\xe9&1\x08\xe0?'
p3113
tp3114
Rp3115
sg26
(lp3116
(g1975
g1973
F0.501
tp3117
assg3
F0.0
sg29
(lp3118
(lp3119
g1975
aa(lp3120
g1973
aasg2
F1.0
ssI220
(dp3121
g1
F1.0
sg7
(lp3122
(lp3123
S'speedy'
p3124
aa(lp3125
S'speedier'
p3126
aasg13
(dp3127
g15
g16
(g20
S'\xd5x\xe9&1\x08\xe0?'
p3128
tp3129
Rp3130
sg26
(lp3131
(g3124
g3126
F0.501
tp3132
assg3
F1.0
sg29
(lp3133
(lp3134
g3124
aa(lp3135
g3126
aasg2
F1.0
ssI221
(dp3136
g1
F1.0
sg7
(lp3137
(lp3138
g1735
aa(lp3139
g1737
aasg13
(dp3140
g15
g16
(g20
S'\xd5x\xe9&1\x08\xe0?'
p3141
tp3142
Rp3143
sg26
(lp3144
(g1735
g1737
F0.501
tp3145
assg3
F1.0
sg29
(lp3146
(lp3147
g1735
aa(lp3148
g1737
aasg2
F1.0
ssI222
(dp3149
g1
F1.0
sg7
(lp3150
(lp3151
g3124
aa(lp3152
g3126
aasg13
(dp3153
g15
g16
(g20
S'\xd5x\xe9&1\x08\xe0?'
p3154
tp3155
Rp3156
sg26
(lp3157
(g3124
g3126
F0.501
tp3158
assg3
F1.0
sg29
(lp3159
(lp3160
g3124
aa(lp3161
g3126
aasg2
F1.0
ssI223
(dp3162
g1
F1.0
sg7
(lp3163
(lp3164
S'deep'
p3165
aa(lp3166
S'deepest'
p3167
aasg13
(dp3168
g15
g16
(g20
S'\xd5x\xe9&1\x08\xe0?'
p3169
tp3170
Rp3171
sg26
(lp3172
(g3165
g3167
F0.501
tp3173
assg3
F1.0
sg29
(lp3174
(lp3175
g3165
aa(lp3176
g3167
aasg2
F1.0
ssI224
(dp3177
g1
F-1.0
sg7
(lp3178
(lp3179
g1481
aa(lp3180
g1483
aasg13
(dp3181
g15
g16
(g20
S'\xd5x\xe9&1\x08\xe0?'
p3182
tp3183
Rp3184
sg26
(lp3185
(g1483
g1481
F0.501
tp3186
assg3
F0.0
sg29
(lp3187
(lp3188
g1483
aa(lp3189
g1481
aasg2
F1.0
ssI225
(dp3190
g1
F-1.0
sg7
(lp3191
(lp3192
g273
aa(lp3193
g334
aasg13
(dp3194
g15
g16
(g20
S'\xd5x\xe9&1\x08\xe0?'
p3195
tp3196
Rp3197
sg26
(lp3198
(g334
g273
F0.501
tp3199
assg3
F0.0
sg29
(lp3200
(lp3201
g334
aa(lp3202
g273
aasg2
F1.0
ssI226
(dp3203
g1
F-1.0
sg7
(lp3204
(lp3205
g787
aa(lp3206
g789
aasg13
(dp3207
g15
g16
(g20
S'\xd5x\xe9&1\x08\xe0?'
p3208
tp3209
Rp3210
sg26
(lp3211
(g789
g787
F0.501
tp3212
assg3
F0.0
sg29
(lp3213
(lp3214
g789
aa(lp3215
g787
aasg2
F1.0
ssI227
(dp3216
g1
F1.0
sg7
(lp3217
(lp3218
g524
aa(lp3219
g526
aasg13
(dp3220
g15
g16
(g20
S'\xd5x\xe9&1\x08\xe0?'
p3221
tp3222
Rp3223
sg26
(lp3224
(g524
g526
F0.501
tp3225
assg3
F1.0
sg29
(lp3226
(lp3227
g524
aa(lp3228
g526
aasg2
F1.0
ssI228
(dp3229
g1
F1.0
sg7
(lp3230
(lp3231
S'well'
p3232
aa(lp3233
S'best'
p3234
aasg13
(dp3235
g15
g16
(g20
S'\xd5x\xe9&1\x08\xe0?'
p3236
tp3237
Rp3238
sg26
(lp3239
(g3232
g3234
F0.501
tp3240
assg3
F1.0
sg29
(lp3241
(lp3242
g3232
aa(lp3243
g3234
aasg2
F1.0
ssI229
(dp3244
g1
F-1.0
sg7
(lp3245
(lp3246
S'fairer'
p3247
aa(lp3248
S'fairest'
p3249
aasg13
(dp3250
g15
g16
(g20
S'\xd5x\xe9&1\x08\xe0?'
p3251
tp3252
Rp3253
sg26
(lp3254
(g3249
g3247
F0.501
tp3255
assg3
F0.0
sg29
(lp3256
(lp3257
g3249
aa(lp3258
g3247
aasg2
F1.0
ssI230
(dp3259
g1
F-1.0
sg7
(lp3260
(lp3261
g1901
aa(lp3262
g1903
aasg13
(dp3263
g15
g16
(g20
S'\xd5x\xe9&1\x08\xe0?'
p3264
tp3265
Rp3266
sg26
(lp3267
(g1903
g1901
F0.501
tp3268
assg3
F0.0
sg29
(lp3269
(lp3270
g1903
aa(lp3271
g1901
aasg2
F1.0
ssI231
(dp3272
g1
F-1.0
sg7
(lp3273
(lp3274
g1511
aa(lp3275
g1513
aasg13
(dp3276
g15
g16
(g20
S'\xd5x\xe9&1\x08\xe0?'
p3277
tp3278
Rp3279
sg26
(lp3280
(g1513
g1511
F0.501
tp3281
assg3
F0.0
sg29
(lp3282
(lp3283
g1513
aa(lp3284
g1511
aasg2
F1.0
ssI232
(dp3285
g1
F-1.0
sg7
(lp3286
(lp3287
g273
aa(lp3288
g275
aasg13
(dp3289
g15
g16
(g20
S'\xd5x\xe9&1\x08\xe0?'
p3290
tp3291
Rp3292
sg26
(lp3293
(g275
g273
F0.501
tp3294
assg3
F0.0
sg29
(lp3295
(lp3296
g275
aa(lp3297
g273
aasg2
F1.0
ssI233
(dp3298
g1
F1.0
sg7
(lp3299
(lp3300
S'wealthy'
p3301
aa(lp3302
S'wealthier'
p3303
aasg13
(dp3304
g15
g16
(g20
S'\xd5x\xe9&1\x08\xe0?'
p3305
tp3306
Rp3307
sg26
(lp3308
(g3301
g3303
F0.501
tp3309
assg3
F1.0
sg29
(lp3310
(lp3311
g3301
aa(lp3312
g3303
aasg2
F1.0
ssI234
(dp3313
g1
F-1.0
sg7
(lp3314
(lp3315
S'earlier'
p3316
aa(lp3317
S'earliest'
p3318
aasg13
(dp3319
g15
g16
(g20
S'\xd5x\xe9&1\x08\xe0?'
p3320
tp3321
Rp3322
sg26
(lp3323
(g3318
g3316
F0.501
tp3324
assg3
F0.0
sg29
(lp3325
(lp3326
g3318
aa(lp3327
g3316
aasg2
F1.0
ssI235
(dp3328
g1
F-1.0
sg7
(lp3329
(lp3330
g1541
aa(lp3331
g1543
aasg13
(dp3332
g15
g16
(g20
S'\xd5x\xe9&1\x08\xe0?'
p3333
tp3334
Rp3335
sg26
(lp3336
(g1543
g1541
F0.501
tp3337
assg3
F0.0
sg29
(lp3338
(lp3339
g1543
aa(lp3340
g1541
aasg2
F1.0
ssI236
(dp3341
g1
F-1.0
sg7
(lp3342
(lp3343
g1185
aa(lp3344
g1244
aasg13
(dp3345
g15
g16
(g20
S'\xd5x\xe9&1\x08\xe0?'
p3346
tp3347
Rp3348
sg26
(lp3349
(g1244
g1185
F0.501
tp3350
assg3
F0.0
sg29
(lp3351
(lp3352
g1244
aa(lp3353
g1185
aasg2
F1.0
ssI237
(dp3354
g1
F-1.0
sg7
(lp3355
(lp3356
g2373
aa(lp3357
g2536
aasg13
(dp3358
g15
g16
(g20
S'\xd5x\xe9&1\x08\xe0?'
p3359
tp3360
Rp3361
sg26
(lp3362
(g2536
g2373
F0.501
tp3363
assg3
F0.0
sg29
(lp3364
(lp3365
g2536
aa(lp3366
g2373
aasg2
F1.0
ssI238
(dp3367
g1
F-1.0
sg7
(lp3368
(lp3369
g3316
aa(lp3370
g3318
aasg13
(dp3371
g15
g16
(g20
S'\xd5x\xe9&1\x08\xe0?'
p3372
tp3373
Rp3374
sg26
(lp3375
(g3318
g3316
F0.501
tp3376
assg3
F0.0
sg29
(lp3377
(lp3378
g3318
aa(lp3379
g3316
aasg2
F1.0
ssI239
(dp3380
g1
F-1.0
sg7
(lp3381
(lp3382
g2800
aa(lp3383
g2802
aasg13
(dp3384
g15
g16
(g20
S'\xd5x\xe9&1\x08\xe0?'
p3385
tp3386
Rp3387
sg26
(lp3388
(g2802
g2800
F0.501
tp3389
assg3
F0.0
sg29
(lp3390
(lp3391
g2802
aa(lp3392
g2800
aasg2
F1.0
ssI240
(dp3393
g1
F1.0
sg7
(lp3394
(lp3395
g2592
aa(lp3396
g2594
aasg13
(dp3397
g15
g16
(g20
S'\xd5x\xe9&1\x08\xe0?'
p3398
tp3399
Rp3400
sg26
(lp3401
(g2592
g2594
F0.501
tp3402
assg3
F1.0
sg29
(lp3403
(lp3404
g2592
aa(lp3405
g2594
aasg2
F1.0
ssI241
(dp3406
g1
F-1.0
sg7
(lp3407
(lp3408
S'grave'
p3409
aa(lp3410
S'graver'
p3411
aasg13
(dp3412
g15
g16
(g20
S'\xd5x\xe9&1\x08\xe0?'
p3413
tp3414
Rp3415
sg26
(lp3416
(g3411
g3409
F0.501
tp3417
assg3
F0.0
sg29
(lp3418
(lp3419
g3411
aa(lp3420
g3409
aasg2
F1.0
ssI242
(dp3421
g1
F-1.0
sg7
(lp3422
(lp3423
S'braver'
p3424
aa(lp3425
S'bravest'
p3426
aasg13
(dp3427
g15
g16
(g20
S'V\x0e-\xb2\x9d\xef\xdf?'
p3428
tp3429
Rp3430
sg26
(lp3431
(g3426
g3424
F0.499
tp3432
assg3
F0.0
sg29
(lp3433
(lp3434
g3426
aa(lp3435
g3424
aasg2
F1.0
ssI243
(dp3436
g1
F-1.0
sg7
(lp3437
(lp3438
g1383
aa(lp3439
g1385
aasg13
(dp3440
g15
g16
(g20
S'\xd5x\xe9&1\x08\xe0?'
p3441
tp3442
Rp3443
sg26
(lp3444
(g1385
g1383
F0.501
tp3445
assg3
F0.0
sg29
(lp3446
(lp3447
g1385
aa(lp3448
g1383
aasg2
F1.0
ssI244
(dp3449
g1
F-1.0
sg7
(lp3450
(lp3451
g2262
aa(lp3452
g2264
aasg13
(dp3453
g15
g16
(g20
S'\xd5x\xe9&1\x08\xe0?'
p3454
tp3455
Rp3456
sg26
(lp3457
(g2264
g2262
F0.501
tp3458
assg3
F0.0
sg29
(lp3459
(lp3460
g2264
aa(lp3461
g2262
aasg2
F1.0
ssI245
(dp3462
g1
F-1.0
sg7
(lp3463
(lp3464
g1543
aa(lp3465
g2236
aasg13
(dp3466
g15
g16
(g20
S'\xd5x\xe9&1\x08\xe0?'
p3467
tp3468
Rp3469
sg26
(lp3470
(g2236
g1543
F0.501
tp3471
assg3
F0.0
sg29
(lp3472
(lp3473
g2236
aa(lp3474
g1543
aasg2
F1.0
ssI246
(dp3475
g1
F-1.0
sg7
(lp3476
(lp3477
g2678
aa(lp3478
g202
aasg13
(dp3479
g15
g16
(g20
S'\xd5x\xe9&1\x08\xe0?'
p3480
tp3481
Rp3482
sg26
(lp3483
(g202
g2678
F0.501
tp3484
assg3
F0.0
sg29
(lp3485
(lp3486
g202
aa(lp3487
g2678
aasg2
F1.0
ssI247
(dp3488
g1
F-1.0
sg7
(lp3489
(lp3490
g2692
aa(lp3491
g2694
aasg13
(dp3492
g15
g16
(g20
S'\xd5x\xe9&1\x08\xe0?'
p3493
tp3494
Rp3495
sg26
(lp3496
(g2694
g2692
F0.501
tp3497
assg3
F0.0
sg29
(lp3498
(lp3499
g2694
aa(lp3500
g2692
aasg2
F1.0
ssI248
(dp3501
g1
F-1.0
sg7
(lp3502
(lp3503
g2577
aa(lp3504
g2579
aasg13
(dp3505
g15
g16
(g20
S'\xd5x\xe9&1\x08\xe0?'
p3506
tp3507
Rp3508
sg26
(lp3509
(g2579
g2577
F0.501
tp3510
assg3
F0.0
sg29
(lp3511
(lp3512
g2579
aa(lp3513
g2577
aasg2
F1.0
ssI249
(dp3514
g1
F1.0
sg7
(lp3515
(lp3516
g3232
aa(lp3517
g3234
aasg13
(dp3518
g15
g16
(g20
S'\xd5x\xe9&1\x08\xe0?'
p3519
tp3520
Rp3521
sg26
(lp3522
(g3232
g3234
F0.501
tp3523
assg3
F1.0
sg29
(lp3524
(lp3525
g3232
aa(lp3526
g3234
aasg2
F1.0
ssI250
(dp3527
g1
F1.0
sg7
(lp3528
(lp3529
g2331
aa(lp3530
g2333
aasg13
(dp3531
g15
g16
(g20
S'\xd5x\xe9&1\x08\xe0?'
p3532
tp3533
Rp3534
sg26
(lp3535
(g2331
g2333
F0.501
tp3536
assg3
F1.0
sg29
(lp3537
(lp3538
g2331
aa(lp3539
g2333
aasg2
F1.0
ssI251
(dp3540
g1
F-1.0
sg7
(lp3541
(lp3542
g1185
aa(lp3543
g1187
aasg13
(dp3544
g15
g16
(g20
S'\xd5x\xe9&1\x08\xe0?'
p3545
tp3546
Rp3547
sg26
(lp3548
(g1187
g1185
F0.501
tp3549
assg3
F0.0
sg29
(lp3550
(lp3551
g1187
aa(lp3552
g1185
aasg2
F1.0
ssI252
(dp3553
g1
F-1.0
sg7
(lp3554
(lp3555
g1569
aa(lp3556
g1571
aasg13
(dp3557
g15
g16
(g20
S'\xd5x\xe9&1\x08\xe0?'
p3558
tp3559
Rp3560
sg26
(lp3561
(g1571
g1569
F0.501
tp3562
assg3
F0.0
sg29
(lp3563
(lp3564
g1571
aa(lp3565
g1569
aasg2
F1.0
ssI253
(dp3566
g1
F-1.0
sg7
(lp3567
(lp3568
g2029
aa(lp3569
g2031
aasg13
(dp3570
g15
g16
(g20
S'\xd5x\xe9&1\x08\xe0?'
p3571
tp3572
Rp3573
sg26
(lp3574
(g2031
g2029
F0.501
tp3575
assg3
F0.0
sg29
(lp3576
(lp3577
g2031
aa(lp3578
g2029
aasg2
F1.0
ssI254
(dp3579
g1
F1.0
sg7
(lp3580
(lp3581
g903
aa(lp3582
g905
aasg13
(dp3583
g15
g16
(g20
S'\xd5x\xe9&1\x08\xe0?'
p3584
tp3585
Rp3586
sg26
(lp3587
(g903
g905
F0.501
tp3588
assg3
F1.0
sg29
(lp3589
(lp3590
g903
aa(lp3591
g905
aasg2
F1.0
ssI255
(dp3592
g1
F1.0
sg7
(lp3593
(lp3594
g3301
aa(lp3595
g3303
aasg13
(dp3596
g15
g16
(g20
S'\xd5x\xe9&1\x08\xe0?'
p3597
tp3598
Rp3599
sg26
(lp3600
(g3301
g3303
F0.501
tp3601
assg3
F1.0
sg29
(lp3602
(lp3603
g3301
aa(lp3604
g3303
aasg2
F1.0
ssI256
(dp3605
g1
F-1.0
sg7
(lp3606
(lp3607
g3409
aa(lp3608
g3411
aasg13
(dp3609
g15
g16
(g20
S'\xd5x\xe9&1\x08\xe0?'
p3610
tp3611
Rp3612
sg26
(lp3613
(g3411
g3409
F0.501
tp3614
assg3
F0.0
sg29
(lp3615
(lp3616
g3411
aa(lp3617
g3409
aasg2
F1.0
ssI257
(dp3618
g1
F-1.0
sg7
(lp3619
(lp3620
S'fine'
p3621
aa(lp3622
S'finer'
p3623
aasg13
(dp3624
g15
g16
(g20
S'\xd5x\xe9&1\x08\xe0?'
p3625
tp3626
Rp3627
sg26
(lp3628
(g3623
g3621
F0.501
tp3629
assg3
F0.0
sg29
(lp3630
(lp3631
g3623
aa(lp3632
g3621
aasg2
F1.0
ssI258
(dp3633
g1
F-1.0
sg7
(lp3634
(lp3635
g3424
aa(lp3636
g3426
aasg13
(dp3637
g15
g16
(g20
S'V\x0e-\xb2\x9d\xef\xdf?'
p3638
tp3639
Rp3640
sg26
(lp3641
(g3426
g3424
F0.499
tp3642
assg3
F0.0
sg29
(lp3643
(lp3644
g3426
aa(lp3645
g3424
aasg2
F1.0
ssI259
(dp3646
g1
F1.0
sg7
(lp3647
(lp3648
g2562
aa(lp3649
g2564
aasg13
(dp3650
g15
g16
(g20
S'\xd5x\xe9&1\x08\xe0?'
p3651
tp3652
Rp3653
sg26
(lp3654
(g2562
g2564
F0.501
tp3655
assg3
F1.0
sg29
(lp3656
(lp3657
g2562
aa(lp3658
g2564
aasg2
F1.0
ssI260
(dp3659
g1
F1.0
sg7
(lp3660
(lp3661
g1496
aa(lp3662
g1498
aasg13
(dp3663
g15
g16
(g20
S'\xd5x\xe9&1\x08\xe0?'
p3664
tp3665
Rp3666
sg26
(lp3667
(g1496
g1498
F0.501
tp3668
assg3
F1.0
sg29
(lp3669
(lp3670
g1496
aa(lp3671
g1498
aasg2
F1.0
ssI261
(dp3672
g1
F1.0
sg7
(lp3673
(lp3674
g1681
aa(lp3675
g1683
aasg13
(dp3676
g15
g16
(g20
S'\xd5x\xe9&1\x08\xe0?'
p3677
tp3678
Rp3679
sg26
(lp3680
(g1681
g1683
F0.501
tp3681
assg3
F1.0
sg29
(lp3682
(lp3683
g1681
aa(lp3684
g1683
aasg2
F1.0
ssI262
(dp3685
g1
F-1.0
sg7
(lp3686
(lp3687
g449
aa(lp3688
g451
aasg13
(dp3689
g15
g16
(g20
S'\xd5x\xe9&1\x08\xe0?'
p3690
tp3691
Rp3692
sg26
(lp3693
(g451
g449
F0.501
tp3694
assg3
F0.0
sg29
(lp3695
(lp3696
g451
aa(lp3697
g449
aasg2
F1.0
ssI263
(dp3698
g1
F-1.0
sg7
(lp3699
(lp3700
g1200
aa(lp3701
g1202
aasg13
(dp3702
g15
g16
(g20
S'\xd5x\xe9&1\x08\xe0?'
p3703
tp3704
Rp3705
sg26
(lp3706
(g1202
g1200
F0.501
tp3707
assg3
F0.0
sg29
(lp3708
(lp3709
g1202
aa(lp3710
g1200
aasg2
F1.0
ssI264
(dp3711
g1
F-1.0
sg7
(lp3712
(lp3713
g2455
aa(lp3714
g2457
aasg13
(dp3715
g15
g16
(g20
S'\xd5x\xe9&1\x08\xe0?'
p3716
tp3717
Rp3718
sg26
(lp3719
(g2457
g2455
F0.501
tp3720
assg3
F0.0
sg29
(lp3721
(lp3722
g2457
aa(lp3723
g2455
aasg2
F1.0
ssI265
(dp3724
g1
F-1.0
sg7
(lp3725
(lp3726
g2607
aa(lp3727
g2609
aasg13
(dp3728
g15
g16
(g20
S'\xd5x\xe9&1\x08\xe0?'
p3729
tp3730
Rp3731
sg26
(lp3732
(g2609
g2607
F0.501
tp3733
assg3
F0.0
sg29
(lp3734
(lp3735
g2609
aa(lp3736
g2607
aasg2
F1.0
ssI266
(dp3737
g1
F1.0
sg7
(lp3738
(lp3739
S'fine'
p3740
aa(lp3741
S'finest'
p3742
aasg13
(dp3743
g15
g16
(g20
S'\xd5x\xe9&1\x08\xe0?'
p3744
tp3745
Rp3746
sg26
(lp3747
(g3740
g3742
F0.501
tp3748
assg3
F1.0
sg29
(lp3749
(lp3750
g3740
aa(lp3751
g3742
aasg2
F1.0
ssI267
(dp3752
g1
F1.0
sg7
(lp3753
(lp3754
g2166
aa(lp3755
g2168
aasg13
(dp3756
g15
g16
(g20
S'\xd5x\xe9&1\x08\xe0?'
p3757
tp3758
Rp3759
sg26
(lp3760
(g2166
g2168
F0.501
tp3761
assg3
F1.0
sg29
(lp3762
(lp3763
g2166
aa(lp3764
g2168
aasg2
F1.0
ssI268
(dp3765
g1
F-1.0
sg7
(lp3766
(lp3767
g2882
aa(lp3768
g2884
aasg13
(dp3769
g15
g16
(g20
S'\xd5x\xe9&1\x08\xe0?'
p3770
tp3771
Rp3772
sg26
(lp3773
(g2884
g2882
F0.501
tp3774
assg3
F0.0
sg29
(lp3775
(lp3776
g2884
aa(lp3777
g2882
aasg2
F1.0
ssI269
(dp3778
g1
F-1.0
sg7
(lp3779
(lp3780
g1916
aa(lp3781
g1918
aasg13
(dp3782
g15
g16
(g20
S'\xd5x\xe9&1\x08\xe0?'
p3783
tp3784
Rp3785
sg26
(lp3786
(g1918
g1916
F0.501
tp3787
assg3
F0.0
sg29
(lp3788
(lp3789
g1918
aa(lp3790
g1916
aasg2
F1.0
ssI270
(dp3791
g1
F-1.0
sg7
(lp3792
(lp3793
S'steep'
p3794
aa(lp3795
S'steeper'
p3796
aasg13
(dp3797
g15
g16
(g20
S'\xd5x\xe9&1\x08\xe0?'
p3798
tp3799
Rp3800
sg26
(lp3801
(g3796
g3794
F0.501
tp3802
assg3
F0.0
sg29
(lp3803
(lp3804
g3796
aa(lp3805
g3794
aasg2
F1.0
ssI271
(dp3806
g1
F1.0
sg7
(lp3807
(lp3808
g434
aa(lp3809
g436
aasg13
(dp3810
g15
g16
(g20
S'\xd5x\xe9&1\x08\xe0?'
p3811
tp3812
Rp3813
sg26
(lp3814
(g434
g436
F0.501
tp3815
assg3
F1.0
sg29
(lp3816
(lp3817
g434
aa(lp3818
g436
aasg2
F1.0
ssI272
(dp3819
g1
F1.0
sg7
(lp3820
(lp3821
g3740
aa(lp3822
g3742
aasg13
(dp3823
g15
g16
(g20
S'\xd5x\xe9&1\x08\xe0?'
p3824
tp3825
Rp3826
sg26
(lp3827
(g3740
g3742
F0.501
tp3828
assg3
F1.0
sg29
(lp3829
(lp3830
g3740
aa(lp3831
g3742
aasg2
F1.0
ssI273
(dp3832
g1
F-1.0
sg7
(lp3833
(lp3834
g362
aa(lp3835
g364
aasg13
(dp3836
g15
g16
(g20
S'\xd5x\xe9&1\x08\xe0?'
p3837
tp3838
Rp3839
sg26
(lp3840
(g364
g362
F0.501
tp3841
assg3
F0.0
sg29
(lp3842
(lp3843
g364
aa(lp3844
g362
aasg2
F1.0
ssI274
(dp3845
g1
F-1.0
sg7
(lp3846
(lp3847
g2964
aa(lp3848
g2966
aasg13
(dp3849
g15
g16
(g20
S'\xd5x\xe9&1\x08\xe0?'
p3850
tp3851
Rp3852
sg26
(lp3853
(g2966
g2964
F0.501
tp3854
assg3
F0.0
sg29
(lp3855
(lp3856
g2966
aa(lp3857
g2964
aasg2
F1.0
ssI275
(dp3858
g1
F-1.0
sg7
(lp3859
(lp3860
g3621
aa(lp3861
g3623
aasg13
(dp3862
g15
g16
(g20
S'\xd5x\xe9&1\x08\xe0?'
p3863
tp3864
Rp3865
sg26
(lp3866
(g3623
g3621
F0.501
tp3867
assg3
F0.0
sg29
(lp3868
(lp3869
g3623
aa(lp3870
g3621
aasg2
F1.0
ssI276
(dp3871
g1
F-1.0
sg7
(lp3872
(lp3873
g509
aa(lp3874
g511
aasg13
(dp3875
g15
g16
(g20
S'\xd5x\xe9&1\x08\xe0?'
p3876
tp3877
Rp3878
sg26
(lp3879
(g511
g509
F0.501
tp3880
assg3
F0.0
sg29
(lp3881
(lp3882
g511
aa(lp3883
g509
aasg2
F1.0
ssI277
(dp3884
g1
F-1.0
sg7
(lp3885
(lp3886
g2923
aa(lp3887
g2925
aasg13
(dp3888
g15
g16
(g20
S'\xd5x\xe9&1\x08\xe0?'
p3889
tp3890
Rp3891
sg26
(lp3892
(g2925
g2923
F0.501
tp3893
assg3
F0.0
sg29
(lp3894
(lp3895
g2925
aa(lp3896
g2923
aasg2
F1.0
ssI278
(dp3897
g1
F-1.0
sg7
(lp3898
(lp3899
g3044
aa(lp3900
g3046
aasg13
(dp3901
g15
g16
(g20
S'\xd5x\xe9&1\x08\xe0?'
p3902
tp3903
Rp3904
sg26
(lp3905
(g3046
g3044
F0.501
tp3906
assg3
F0.0
sg29
(lp3907
(lp3908
g3046
aa(lp3909
g3044
aasg2
F1.0
ssI279
(dp3910
g1
F-1.0
sg7
(lp3911
(lp3912
g3794
aa(lp3913
g3796
aasg13
(dp3914
g15
g16
(g20
S'\xd5x\xe9&1\x08\xe0?'
p3915
tp3916
Rp3917
sg26
(lp3918
(g3796
g3794
F0.501
tp3919
assg3
F0.0
sg29
(lp3920
(lp3921
g3796
aa(lp3922
g3794
aasg2
F1.0
ssI280
(dp3923
g1
F-1.0
sg7
(lp3924
(lp3925
g1640
aa(lp3926
g1642
aasg13
(dp3927
g15
g16
(g20
S'\xd5x\xe9&1\x08\xe0?'
p3928
tp3929
Rp3930
sg26
(lp3931
(g1642
g1640
F0.501
tp3932
assg3
F0.0
sg29
(lp3933
(lp3934
g1642
aa(lp3935
g1640
aasg2
F1.0
ssI281
(dp3936
g1
F1.0
sg7
(lp3937
(lp3938
g3165
aa(lp3939
g3167
aasg13
(dp3940
g15
g16
(g20
S'\xd5x\xe9&1\x08\xe0?'
p3941
tp3942
Rp3943
sg26
(lp3944
(g3165
g3167
F0.501
tp3945
assg3
F1.0
sg29
(lp3946
(lp3947
g3165
aa(lp3948
g3167
aasg2
F1.0
ssI282
(dp3949
g1
F-1.0
sg7
(lp3950
(lp3951
g111
aa(lp3952
g113
aasg13
(dp3953
g15
g16
(g20
S'\xd5x\xe9&1\x08\xe0?'
p3954
tp3955
Rp3956
sg26
(lp3957
(g113
g111
F0.501
tp3958
assg3
F0.0
sg29
(lp3959
(lp3960
g113
aa(lp3961
g111
aasg2
F1.0
ssI283
(dp3962
g1
F-1.0
sg7
(lp3963
(lp3964
g802
aa(lp3965
g804
aasg13
(dp3966
g15
g16
(g20
S'\xd5x\xe9&1\x08\xe0?'
p3967
tp3968
Rp3969
sg26
(lp3970
(g804
g802
F0.501
tp3971
assg3
F0.0
sg29
(lp3972
(lp3973
g804
aa(lp3974
g802
aasg2
F1.0
ssI284
(dp3975
g1
F-1.0
sg7
(lp3976
(lp3977
g3247
aa(lp3978
g3249
aasg13
(dp3979
g15
g16
(g20
S'\xd5x\xe9&1\x08\xe0?'
p3980
tp3981
Rp3982
sg26
(lp3983
(g3249
g3247
F0.501
tp3984
assg3
F0.0
sg29
(lp3985
(lp3986
g3249
aa(lp3987
g3247
aasg2
F1.0
ssI285
(dp3988
g1
F-1.0
sg7
(lp3989
(lp3990
g275
aa(lp3991
g334
aasg13
(dp3992
g15
g16
(g20
S'\xd5x\xe9&1\x08\xe0?'
p3993
tp3994
Rp3995
sg26
(lp3996
(g334
g275
F0.501
tp3997
assg3
F0.0
sg29
(lp3998
(lp3999
g334
aa(lp4000
g275
aasg2
F1.0
ssI286
(dp4001
g1
F-1.0
sg7
(lp4002
(lp4003
g742
aa(lp4004
g744
aasg13
(dp4005
g15
g16
(g20
S'\xd5x\xe9&1\x08\xe0?'
p4006
tp4007
Rp4008
sg26
(lp4009
(g744
g742
F0.501
tp4010
assg3
F0.0
sg29
(lp4011
(lp4012
g744
aa(lp4013
g742
aasg2
F1.0
ssI287
(dp4014
g1
F1.0
sg7
(lp4015
(lp4016
g2137
aa(lp4017
g2139
aasg13
(dp4018
g15
g16
(g20
S'\xd5x\xe9&1\x08\xe0?'
p4019
tp4020
Rp4021
sg26
(lp4022
(g2137
g2139
F0.501
tp4023
assg3
F1.0
sg29
(lp4024
(lp4025
g2137
aa(lp4026
g2139
aasg2
F1.0
ssI288
(dp4027
g1
F-1.0
sg7
(lp4028
(lp4029
g1368
aa(lp4030
g1370
aasg13
(dp4031
g15
g16
(g20
S'\xd5x\xe9&1\x08\xe0?'
p4032
tp4033
Rp4034
sg26
(lp4035
(g1370
g1368
F0.501
tp4036
assg3
F0.0
sg29
(lp4037
(lp4038
g1370
aa(lp4039
g1368
aasg2
F1.0
ssI289
(dp4040
g1
F-1.0
sg7
(lp4041
(lp4042
g96
aa(lp4043
g98
aasg13
(dp4044
g15
g16
(g20
S'\xd5x\xe9&1\x08\xe0?'
p4045
tp4046
Rp4047
sg26
(lp4048
(g98
g96
F0.501
tp4049
assg3
F0.0
sg29
(lp4050
(lp4051
g98
aa(lp4052
g96
aasg2
F1.0
sss.