(dp0
S'tau'
p1
F-0.03529411764705882
sS'|tau|'
p2
F1.0
sS'pairwise'
p3
F0.4823529411764706
sS'ranking'
p4
(dp5
I0
(dp6
g1
F-1.0
sS'gold'
p7
(lp8
(lp9
S'admirable'
p10
aa(lp11
S'upstanding'
p12
aasS'raw'
p13
(dp14
S'prob*'
p15
cnumpy.core.multiarray
scalar
p16
(cnumpy
dtype
p17
(S'f8'
p18
I0
I1
tp19
Rp20
(I3
S'<'
p21
NNNI-1
I-1
I0
tp22
bS'\xd5x\xe9&1\x08\xe0?'
p23
tp24
Rp25
sS'link-probs'
p26
(lp27
(g12
g10
F0.501
tp28
assg3
F0.0
sS'algo'
p29
(lp30
(lp31
g12
aa(lp32
g10
aasg2
F1.0
ssI1
(dp33
g1
F-1.0
sg7
(lp34
(lp35
S'awful'
p36
aa(lp37
S'shitty'
p38
aasg13
(dp39
g15
g16
(g20
S'\xd5x\xe9&1\x08\xe0?'
p40
tp41
Rp42
sg26
(lp43
(g38
g36
F0.501
tp44
assg3
F0.0
sg29
(lp45
(lp46
g38
aa(lp47
g36
aasg2
F1.0
ssI2
(dp48
g1
F1.0
sg7
(lp49
(lp50
S'plenty'
p51
aa(lp52
S'vast'
p53
aasg13
(dp54
g15
g16
(g20
S'\xd5x\xe9&1\x08\xe0?'
p55
tp56
Rp57
sg26
(lp58
(g51
g53
F0.501
tp59
assg3
F1.0
sg29
(lp60
(lp61
g51
aa(lp62
g53
aasg2
F1.0
ssI3
(dp63
g1
F-1.0
sg7
(lp64
(lp65
S'excessive'
p66
aa(lp67
S'huge'
p68
aasg13
(dp69
g15
g16
(g20
S'\xd5x\xe9&1\x08\xe0?'
p70
tp71
Rp72
sg26
(lp73
(g68
g66
F0.501
tp74
assg3
F0.0
sg29
(lp75
(lp76
g68
aa(lp77
g66
aasg2
F1.0
ssI4
(dp78
g1
F-1.0
sg7
(lp79
(lp80
S'formidable'
p81
aa(lp82
S'immense'
p83
aasg13
(dp84
g15
g16
(g20
S'\xd5x\xe9&1\x08\xe0?'
p85
tp86
Rp87
sg26
(lp88
(g83
g81
F0.501
tp89
assg3
F0.0
sg29
(lp90
(lp91
g83
aa(lp92
g81
aasg2
F1.0
ssI5
(dp93
g1
F1.0
sg7
(lp94
(lp95
S'graver'
p96
aa(lp97
S'life-threatening'
p98
aasg13
(dp99
g15
g16
(g20
S'\xd5x\xe9&1\x08\xe0?'
p100
tp101
Rp102
sg26
(lp103
(g96
g98
F0.501
tp104
assg3
F1.0
sg29
(lp105
(lp106
g96
aa(lp107
g98
aasg2
F1.0
ssI6
(dp108
g1
F1.0
sg7
(lp109
(lp110
S'major'
p111
aa(lp112
S'staggering'
p113
aasg13
(dp114
g15
g16
(g20
S'\xd5x\xe9&1\x08\xe0?'
p115
tp116
Rp117
sg26
(lp118
(g111
g113
F0.501
tp119
assg3
F1.0
sg29
(lp120
(lp121
g111
aa(lp122
g113
aasg2
F1.0
ssI7
(dp123
g1
F1.0
sg7
(lp124
(lp125
S'commonplace'
p126
aa(lp127
S'universal'
p128
aasg13
(dp129
g15
g16
(g20
S'\xd5x\xe9&1\x08\xe0?'
p130
tp131
Rp132
sg26
(lp133
(g126
g128
F0.501
tp134
assg3
F1.0
sg29
(lp135
(lp136
g126
aa(lp137
g128
aasg2
F1.0
ssI8
(dp138
g1
F1.0
sg7
(lp139
(lp140
S'fairest'
p141
aa(lp142
S'beautiful'
p143
aasg13
(dp144
g15
g16
(g20
S'\xd5x\xe9&1\x08\xe0?'
p145
tp146
Rp147
sg26
(lp148
(g141
g143
F0.501
tp149
assg3
F1.0
sg29
(lp150
(lp151
g141
aa(lp152
g143
aasg2
F1.0
ssI9
(dp153
g1
F1.0
sg7
(lp154
(lp155
S'lovelier'
p156
aa(lp157
S'breathtaking'
p158
aasg13
(dp159
g15
g16
(g20
S'\xd5x\xe9&1\x08\xe0?'
p160
tp161
Rp162
sg26
(lp163
(g156
g158
F0.501
tp164
assg3
F1.0
sg29
(lp165
(lp166
g156
aa(lp167
g158
aasg2
F1.0
ssI10
(dp168
g1
F-1.0
sg7
(lp169
(lp170
S'pleased'
p171
aa(lp172
S'overwhelmed'
p173
aasg13
(dp174
g15
g16
(g20
S'\xd5x\xe9&1\x08\xe0?'
p175
tp176
Rp177
sg26
(lp178
(g173
g171
F0.501
tp179
assg3
F0.0
sg29
(lp180
(lp181
g173
aa(lp182
g171
aasg2
F1.0
ssI11
(dp183
g1
F1.0
sg7
(lp184
(lp185
S'sizeable'
p186
aa(lp187
S'immense'
p188
aasg13
(dp189
g15
g16
(g20
S'\xd5x\xe9&1\x08\xe0?'
p190
tp191
Rp192
sg26
(lp193
(g186
g188
F0.501
tp194
assg3
F1.0
sg29
(lp195
(lp196
g186
aa(lp197
g188
aasg2
F1.0
ssI12
(dp198
g1
F-1.0
sg7
(lp199
(lp200
g53
aa(lp201
S'abundant'
p202
aasg13
(dp203
g15
g16
(g20
S'\xd5x\xe9&1\x08\xe0?'
p204
tp205
Rp206
sg26
(lp207
(g202
g53
F0.501
tp208
assg3
F0.0
sg29
(lp209
(lp210
g202
aa(lp211
g53
aasg2
F1.0
ssI13
(dp212
g1
F-1.0
sg7
(lp213
(lp214
S'better'
p215
aa(lp216
S'exceptional'
p217
aasg13
(dp218
g15
g16
(g20
S'\xd5x\xe9&1\x08\xe0?'
p219
tp220
Rp221
sg26
(lp222
(g217
g215
F0.501
tp223
assg3
F0.0
sg29
(lp224
(lp225
g217
aa(lp226
g215
aasg2
F1.0
ssI14
(dp227
g1
F-1.0
sg7
(lp228
(lp229
S'general'
p230
aa(lp231
S'broad'
p232
aasg13
(dp233
g15
g16
(g20
S'\xd5x\xe9&1\x08\xe0?'
p234
tp235
Rp236
sg26
(lp237
(g232
g230
F0.501
tp238
assg3
F0.0
sg29
(lp239
(lp240
g232
aa(lp241
g230
aasg2
F1.0
ssI15
(dp242
g1
F1.0
sg7
(lp243
(lp244
S'low'
p245
aa(lp246
S'limited'
p247
aasg13
(dp248
g15
g16
(g20
S'\xd5x\xe9&1\x08\xe0?'
p249
tp250
Rp251
sg26
(lp252
(g245
g247
F0.501
tp253
assg3
F1.0
sg29
(lp254
(lp255
g245
aa(lp256
g247
aasg2
F1.0
ssI16
(dp257
g1
F1.0
sg7
(lp258
(lp259
g126
aa(lp260
S'global'
p261
aasg13
(dp262
g15
g16
(g20
S'\xd5x\xe9&1\x08\xe0?'
p263
tp264
Rp265
sg26
(lp266
(g126
g261
F0.501
tp267
assg3
F1.0
sg29
(lp268
(lp269
g126
aa(lp270
g261
aasg2
F1.0
ssI17
(dp271
g1
F-1.0
sg7
(lp272
(lp273
g171
aa(lp274
g173
aasg13
(dp275
g15
g16
(g20
S'\xd5x\xe9&1\x08\xe0?'
p276
tp277
Rp278
sg26
(lp279
(g173
g171
F0.501
tp280
assg3
F0.0
sg29
(lp281
(lp282
g173
aa(lp283
g171
aasg2
F1.0
ssI18
(dp284
g1
F-1.0
sg7
(lp285
(lp286
S'intact'
p287
aa(lp288
S'sturdy'
p289
aasg13
(dp290
g15
g16
(g20
S'\xd5x\xe9&1\x08\xe0?'
p291
tp292
Rp293
sg26
(lp294
(g289
g287
F0.501
tp295
assg3
F0.0
sg29
(lp296
(lp297
g289
aa(lp298
g287
aasg2
F1.0
ssI19
(dp299
g1
F-1.0
sg7
(lp300
(lp301
S'bad'
p302
aa(lp303
S'horrific'
p304
aasg13
(dp305
g15
g16
(g20
S'\xd5x\xe9&1\x08\xe0?'
p306
tp307
Rp308
sg26
(lp309
(g304
g302
F0.501
tp310
assg3
F0.0
sg29
(lp311
(lp312
g304
aa(lp313
g302
aasg2
F1.0
ssI20
(dp314
g1
F1.0
sg7
(lp315
(lp316
g126
aa(lp317
S'comprehensive'
p318
aasg13
(dp319
g15
g16
(g20
S'\xd5x\xe9&1\x08\xe0?'
p320
tp321
Rp322
sg26
(lp323
(g126
g318
F0.501
tp324
assg3
F1.0
sg29
(lp325
(lp326
g126
aa(lp327
g318
aasg2
F1.0
ssI21
(dp328
g1
F-1.0
sg7
(lp329
(lp330
S'scarce'
p331
aa(lp332
S'inadequate'
p333
aasg13
(dp334
g15
g16
(g20
S'\xd5x\xe9&1\x08\xe0?'
p335
tp336
Rp337
sg26
(lp338
(g333
g331
F0.501
tp339
assg3
F0.0
sg29
(lp340
(lp341
g333
aa(lp342
g331
aasg2
F1.0
ssI22
(dp343
g1
F-1.0
sg7
(lp344
(lp345
S'limited'
p346
aa(lp347
S'meagre'
p348
aasg13
(dp349
g15
g16
(g20
S'\xd5x\xe9&1\x08\xe0?'
p350
tp351
Rp352
sg26
(lp353
(g348
g346
F0.501
tp354
assg3
F0.0
sg29
(lp355
(lp356
g348
aa(lp357
g346
aasg2
F1.0
ssI23
(dp358
g1
F-1.0
sg7
(lp359
(lp360
S'minute'
p361
aa(lp362
S'miniscule'
p363
aasg13
(dp364
g15
g16
(g20
S'\xd5x\xe9&1\x08\xe0?'
p365
tp366
Rp367
sg26
(lp368
(g363
g361
F0.501
tp369
assg3
F0.0
sg29
(lp370
(lp371
g363
aa(lp372
g361
aasg2
F1.0
ssI24
(dp373
g1
F1.0
sg7
(lp374
(lp375
S'colossal'
p376
aa(lp377
S'overwhelming'
p378
aasg13
(dp379
g15
g16
(g20
S'\xd5x\xe9&1\x08\xe0?'
p380
tp381
Rp382
sg26
(lp383
(g376
g378
F0.501
tp384
assg3
F1.0
sg29
(lp385
(lp386
g376
aa(lp387
g378
aasg2
F1.0
ssI25
(dp388
g1
F-1.0
sg7
(lp389
(lp390
S'fairer'
p391
aa(lp392
g141
aasg13
(dp393
g15
g16
(g20
S'\xd5x\xe9&1\x08\xe0?'
p394
tp395
Rp396
sg26
(lp397
(g141
g391
F0.501
tp398
assg3
F0.0
sg29
(lp399
(lp400
g141
aa(lp401
g391
aasg2
F1.0
ssI26
(dp402
g1
F1.0
sg7
(lp403
(lp404
S'few'
p405
aa(lp406
S'little'
p407
aasg13
(dp408
g15
g16
(g20
S'\xd5x\xe9&1\x08\xe0?'
p409
tp410
Rp411
sg26
(lp412
(g405
g407
F0.501
tp413
assg3
F1.0
sg29
(lp414
(lp415
g405
aa(lp416
g407
aasg2
F1.0
ssI27
(dp417
g1
F1.0
sg7
(lp418
(lp419
g318
aa(lp420
g128
aasg13
(dp421
g15
g16
(g20
S'\xd5x\xe9&1\x08\xe0?'
p422
tp423
Rp424
sg26
(lp425
(g318
g128
F0.501
tp426
assg3
F1.0
sg29
(lp427
(lp428
g318
aa(lp429
g128
aasg2
F1.0
ssI28
(dp430
g1
F1.0
sg7
(lp431
(lp432
g405
aa(lp433
g407
aasg13
(dp434
g15
g16
(g20
S'\xd5x\xe9&1\x08\xe0?'
p435
tp436
Rp437
sg26
(lp438
(g405
g407
F0.501
tp439
assg3
F1.0
sg29
(lp440
(lp441
g405
aa(lp442
g407
aasg2
F1.0
ssI29
(dp443
g1
F-1.0
sg7
(lp444
(lp445
g81
aa(lp446
g376
aasg13
(dp447
g15
g16
(g20
S'\xd5x\xe9&1\x08\xe0?'
p448
tp449
Rp450
sg26
(lp451
(g376
g81
F0.501
tp452
assg3
F0.0
sg29
(lp453
(lp454
g376
aa(lp455
g81
aasg2
F1.0
ssI30
(dp456
g1
F-1.0
sg7
(lp457
(lp458
S'fine'
p459
aa(lp460
S'satisfactory'
p461
aasg13
(dp462
g15
g16
(g20
S'\xd5x\xe9&1\x08\xe0?'
p463
tp464
Rp465
sg26
(lp466
(g461
g459
F0.501
tp467
assg3
F0.0
sg29
(lp468
(lp469
g461
aa(lp470
g459
aasg2
F1.0
ssI31
(dp471
g1
F-1.0
sg7
(lp472
(lp473
S'celebrated'
p474
aa(lp475
S'noteworthy'
p476
aasg13
(dp477
g15
g16
(g20
S'\xd5x\xe9&1\x08\xe0?'
p478
tp479
Rp480
sg26
(lp481
(g476
g474
F0.501
tp482
assg3
F0.0
sg29
(lp483
(lp484
g476
aa(lp485
g474
aasg2
F1.0
ssI32
(dp486
g1
F1.0
sg7
(lp487
(lp488
S'sizeable'
p489
aa(lp490
g83
aasg13
(dp491
g15
g16
(g20
S'\xd5x\xe9&1\x08\xe0?'
p492
tp493
Rp494
sg26
(lp495
(g489
g83
F0.501
tp496
assg3
F1.0
sg29
(lp497
(lp498
g489
aa(lp499
g83
aasg2
F1.0
ssI33
(dp500
g1
F1.0
sg7
(lp501
(lp502
S'remarkable'
p503
aa(lp504
S'perfect'
p505
aasg13
(dp506
g15
g16
(g20
S'\xd5x\xe9&1\x08\xe0?'
p507
tp508
Rp509
sg26
(lp510
(g503
g505
F0.501
tp511
assg3
F1.0
sg29
(lp512
(lp513
g503
aa(lp514
g505
aasg2
F1.0
ssI34
(dp515
g1
F1.0
sg7
(lp516
(lp517
S'incorrect'
p518
aa(lp519
S'unsatisfactory'
p520
aasg13
(dp521
g15
g16
(g20
S'\xd5x\xe9&1\x08\xe0?'
p522
tp523
Rp524
sg26
(lp525
(g518
g520
F0.501
tp526
assg3
F1.0
sg29
(lp527
(lp528
g518
aa(lp529
g520
aasg2
F1.0
ssI35
(dp530
g1
F1.0
sg7
(lp531
(lp532
S'a-okay'
p533
aa(lp534
S'faultless'
p535
aasg13
(dp536
g15
g16
(g20
S'\xd5x\xe9&1\x08\xe0?'
p537
tp538
Rp539
sg26
(lp540
(g533
g535
F0.501
tp541
assg3
F1.0
sg29
(lp542
(lp543
g533
aa(lp544
g535
aasg2
F1.0
ssI36
(dp545
g1
F-1.0
sg7
(lp546
(lp547
S'cute'
p548
aa(lp549
g158
aasg13
(dp550
g15
g16
(g20
S'\xd5x\xe9&1\x08\xe0?'
p551
tp552
Rp553
sg26
(lp554
(g158
g548
F0.501
tp555
assg3
F0.0
sg29
(lp556
(lp557
g158
aa(lp558
g548
aasg2
F1.0
ssI37
(dp559
g1
F1.0
sg7
(lp560
(lp561
g489
aa(lp562
g378
aasg13
(dp563
g15
g16
(g20
S'\xd5x\xe9&1\x08\xe0?'
p564
tp565
Rp566
sg26
(lp567
(g489
g378
F0.501
tp568
assg3
F1.0
sg29
(lp569
(lp570
g489
aa(lp571
g378
aasg2
F1.0
ssI38
(dp572
g1
F1.0
sg7
(lp573
(lp574
g217
aa(lp575
g505
aasg13
(dp576
g15
g16
(g20
S'\xd5x\xe9&1\x08\xe0?'
p577
tp578
Rp579
sg26
(lp580
(g217
g505
F0.501
tp581
assg3
F1.0
sg29
(lp582
(lp583
g217
aa(lp584
g505
aasg2
F1.0
ssI39
(dp585
g1
F1.0
sg7
(lp586
(lp587
g126
aa(lp588
g128
aasg13
(dp589
g15
g16
(g20
S'\xd5x\xe9&1\x08\xe0?'
p590
tp591
Rp592
sg26
(lp593
(g126
g128
F0.501
tp594
assg3
F1.0
sg29
(lp595
(lp596
g126
aa(lp597
g128
aasg2
F1.0
ssI40
(dp598
g1
F-1.0
sg7
(lp599
(lp600
g333
aa(lp601
S'unacceptable'
p602
aasg13
(dp603
g15
g16
(g20
S'\xd5x\xe9&1\x08\xe0?'
p604
tp605
Rp606
sg26
(lp607
(g602
g333
F0.501
tp608
assg3
F0.0
sg29
(lp609
(lp610
g602
aa(lp611
g333
aasg2
F1.0
ssI41
(dp612
g1
F-1.0
sg7
(lp613
(lp614
g346
aa(lp615
S'scant'
p616
aasg13
(dp617
g15
g16
(g20
S'\xd5x\xe9&1\x08\xe0?'
p618
tp619
Rp620
sg26
(lp621
(g616
g346
F0.501
tp622
assg3
F0.0
sg29
(lp623
(lp624
g616
aa(lp625
g346
aasg2
F1.0
ssI42
(dp626
g1
F-1.0
sg7
(lp627
(lp628
S'formidable'
p629
aa(lp630
S'daunting'
p631
aasg13
(dp632
g15
g16
(g20
S'\xd5x\xe9&1\x08\xe0?'
p633
tp634
Rp635
sg26
(lp636
(g631
g629
F0.501
tp637
assg3
F0.0
sg29
(lp638
(lp639
g631
aa(lp640
g629
aasg2
F1.0
ssI43
(dp641
g1
F-1.0
sg7
(lp642
(lp643
g348
aa(lp644
g616
aasg13
(dp645
g15
g16
(g20
S'\xd5x\xe9&1\x08\xe0?'
p646
tp647
Rp648
sg26
(lp649
(g616
g348
F0.501
tp650
assg3
F0.0
sg29
(lp651
(lp652
g616
aa(lp653
g348
aasg2
F1.0
ssI44
(dp654
g1
F-1.0
sg7
(lp655
(lp656
g81
aa(lp657
g376
aasg13
(dp658
g15
g16
(g20
S'\xd5x\xe9&1\x08\xe0?'
p659
tp660
Rp661
sg26
(lp662
(g376
g81
F0.501
tp663
assg3
F0.0
sg29
(lp664
(lp665
g376
aa(lp666
g81
aasg2
F1.0
ssI45
(dp667
g1
F1.0
sg7
(lp668
(lp669
S'costly'
p670
aa(lp671
S'excessive'
p672
aasg13
(dp673
g15
g16
(g20
S'\xd5x\xe9&1\x08\xe0?'
p674
tp675
Rp676
sg26
(lp677
(g670
g672
F0.501
tp678
assg3
F1.0
sg29
(lp679
(lp680
g670
aa(lp681
g672
aasg2
F1.0
ssI46
(dp682
g1
F-1.0
sg7
(lp683
(lp684
S'fine'
p685
aa(lp686
S'adequate'
p687
aasg13
(dp688
g15
g16
(g20
S'\xd5x\xe9&1\x08\xe0?'
p689
tp690
Rp691
sg26
(lp692
(g687
g685
F0.501
tp693
assg3
F0.0
sg29
(lp694
(lp695
g687
aa(lp696
g685
aasg2
F1.0
ssI47
(dp697
g1
F1.0
sg7
(lp698
(lp699
S'low'
p700
aa(lp701
S'limited'
p702
aasg13
(dp703
g15
g16
(g20
S'\xd5x\xe9&1\x08\xe0?'
p704
tp705
Rp706
sg26
(lp707
(g700
g702
F0.501
tp708
assg3
F1.0
sg29
(lp709
(lp710
g700
aa(lp711
g702
aasg2
F1.0
ssI48
(dp712
g1
F-1.0
sg7
(lp713
(lp714
g215
aa(lp715
g503
aasg13
(dp716
g15
g16
(g20
S'\xd5x\xe9&1\x08\xe0?'
p717
tp718
Rp719
sg26
(lp720
(g503
g215
F0.501
tp721
assg3
F0.0
sg29
(lp722
(lp723
g503
aa(lp724
g215
aasg2
F1.0
ssI49
(dp725
g1
F1.0
sg7
(lp726
(lp727
S'improper'
p728
aa(lp729
g518
aasg13
(dp730
g15
g16
(g20
S'\xd5x\xe9&1\x08\xe0?'
p731
tp732
Rp733
sg26
(lp734
(g728
g518
F0.501
tp735
assg3
F1.0
sg29
(lp736
(lp737
g728
aa(lp738
g518
aasg2
F1.0
ssI50
(dp739
g1
F1.0
sg7
(lp740
(lp741
g533
aa(lp742
S'appropriate'
p743
aasg13
(dp744
g15
g16
(g20
S'\xd5x\xe9&1\x08\xe0?'
p745
tp746
Rp747
sg26
(lp748
(g533
g743
F0.501
tp749
assg3
F1.0
sg29
(lp750
(lp751
g533
aa(lp752
g743
aasg2
F1.0
ssI51
(dp753
g1
F1.0
sg7
(lp754
(lp755
g376
aa(lp756
S'tremendous'
p757
aasg13
(dp758
g15
g16
(g20
S'\xd5x\xe9&1\x08\xe0?'
p759
tp760
Rp761
sg26
(lp762
(g376
g757
F0.501
tp763
assg3
F1.0
sg29
(lp764
(lp765
g376
aa(lp766
g757
aasg2
F1.0
ssI52
(dp767
g1
F-1.0
sg7
(lp768
(lp769
S'general'
p770
aa(lp771
g318
aasg13
(dp772
g15
g16
(g20
S'\xd5x\xe9&1\x08\xe0?'
p773
tp774
Rp775
sg26
(lp776
(g318
g770
F0.501
tp777
assg3
F0.0
sg29
(lp778
(lp779
g318
aa(lp780
g770
aasg2
F1.0
ssI53
(dp781
g1
F1.0
sg7
(lp782
(lp783
g83
aa(lp784
g757
aasg13
(dp785
g15
g16
(g20
S'\xd5x\xe9&1\x08\xe0?'
p786
tp787
Rp788
sg26
(lp789
(g83
g757
F0.501
tp790
assg3
F1.0
sg29
(lp791
(lp792
g83
aa(lp793
g757
aasg2
F1.0
ssI54
(dp794
g1
F-1.0
sg7
(lp795
(lp796
S'minute'
p797
aa(lp798
S'miniscule'
p799
aasg13
(dp800
g15
g16
(g20
S'\xd5x\xe9&1\x08\xe0?'
p801
tp802
Rp803
sg26
(lp804
(g799
g797
F0.501
tp805
assg3
F0.0
sg29
(lp806
(lp807
g799
aa(lp808
g797
aasg2
F1.0
ssI55
(dp809
g1
F1.0
sg7
(lp810
(lp811
S'remarkable'
p812
aa(lp813
S'spectacular'
p814
aasg13
(dp815
g15
g16
(g20
S'\xd5x\xe9&1\x08\xe0?'
p816
tp817
Rp818
sg26
(lp819
(g812
g814
F0.501
tp820
assg3
F1.0
sg29
(lp821
(lp822
g812
aa(lp823
g814
aasg2
F1.0
ssI56
(dp824
g1
F-1.0
sg7
(lp825
(lp826
g346
aa(lp827
g348
aasg13
(dp828
g15
g16
(g20
S'\xd5x\xe9&1\x08\xe0?'
p829
tp830
Rp831
sg26
(lp832
(g348
g346
F0.501
tp833
assg3
F0.0
sg29
(lp834
(lp835
g348
aa(lp836
g346
aasg2
F1.0
ssI57
(dp837
g1
F-1.0
sg7
(lp838
(lp839
g215
aa(lp840
g217
aasg13
(dp841
g15
g16
(g20
S'\xd5x\xe9&1\x08\xe0?'
p842
tp843
Rp844
sg26
(lp845
(g217
g215
F0.501
tp846
assg3
F0.0
sg29
(lp847
(lp848
g217
aa(lp849
g215
aasg2
F1.0
ssI58
(dp850
g1
F1.0
sg7
(lp851
(lp852
g261
aa(lp853
g128
aasg13
(dp854
g15
g16
(g20
S'\xd5x\xe9&1\x08\xe0?'
p855
tp856
Rp857
sg26
(lp858
(g261
g128
F0.501
tp859
assg3
F1.0
sg29
(lp860
(lp861
g261
aa(lp862
g128
aasg2
F1.0
ssI59
(dp863
g1
F1.0
sg7
(lp864
(lp865
g83
aa(lp866
g378
aasg13
(dp867
g15
g16
(g20
S'\xd5x\xe9&1\x08\xe0?'
p868
tp869
Rp870
sg26
(lp871
(g83
g378
F0.501
tp872
assg3
F1.0
sg29
(lp873
(lp874
g83
aa(lp875
g378
aasg2
F1.0
ssI60
(dp876
g1
F-1.0
sg7
(lp877
(lp878
g348
aa(lp879
g616
aasg13
(dp880
g15
g16
(g20
S'\xd5x\xe9&1\x08\xe0?'
p881
tp882
Rp883
sg26
(lp884
(g616
g348
F0.501
tp885
assg3
F0.0
sg29
(lp886
(lp887
g616
aa(lp888
g348
aasg2
F1.0
ssI61
(dp889
g1
F1.0
sg7
(lp890
(lp891
g186
aa(lp892
g188
aasg13
(dp893
g15
g16
(g20
S'\xd5x\xe9&1\x08\xe0?'
p894
tp895
Rp896
sg26
(lp897
(g186
g188
F0.501
tp898
assg3
F1.0
sg29
(lp899
(lp900
g186
aa(lp901
g188
aasg2
F1.0
ssI62
(dp902
g1
F-1.0
sg7
(lp903
(lp904
g797
aa(lp905
g799
aasg13
(dp906
g15
g16
(g20
S'\xd5x\xe9&1\x08\xe0?'
p907
tp908
Rp909
sg26
(lp910
(g799
g797
F0.501
tp911
assg3
F0.0
sg29
(lp912
(lp913
g799
aa(lp914
g797
aasg2
F1.0
ssI63
(dp915
g1
F-1.0
sg7
(lp916
(lp917
g318
aa(lp918
g261
aasg13
(dp919
g15
g16
(g20
S'\xd5x\xe9&1\x08\xe0?'
p920
tp921
Rp922
sg26
(lp923
(g261
g318
F0.501
tp924
assg3
F0.0
sg29
(lp925
(lp926
g261
aa(lp927
g318
aasg2
F1.0
ssI64
(dp928
g1
F-1.0
sg7
(lp929
(lp930
g81
aa(lp931
g83
aasg13
(dp932
g15
g16
(g20
S'\xd5x\xe9&1\x08\xe0?'
p933
tp934
Rp935
sg26
(lp936
(g83
g81
F0.501
tp937
assg3
F0.0
sg29
(lp938
(lp939
g83
aa(lp940
g81
aasg2
F1.0
ssI65
(dp941
g1
F1.0
sg7
(lp942
(lp943
g261
aa(lp944
g128
aasg13
(dp945
g15
g16
(g20
S'\xd5x\xe9&1\x08\xe0?'
p946
tp947
Rp948
sg26
(lp949
(g261
g128
F0.501
tp950
assg3
F1.0
sg29
(lp951
(lp952
g261
aa(lp953
g128
aasg2
F1.0
ssI66
(dp954
g1
F1.0
sg7
(lp955
(lp956
S'breathtaking'
p957
aa(lp958
S'marvellous'
p959
aasg13
(dp960
g15
g16
(g20
S'\xd5x\xe9&1\x08\xe0?'
p961
tp962
Rp963
sg26
(lp964
(g957
g959
F0.501
tp965
assg3
F1.0
sg29
(lp966
(lp967
g957
aa(lp968
g959
aasg2
F1.0
ssI67
(dp969
g1
F1.0
sg7
(lp970
(lp971
g376
aa(lp972
g757
aasg13
(dp973
g15
g16
(g20
S'\xd5x\xe9&1\x08\xe0?'
p974
tp975
Rp976
sg26
(lp977
(g376
g757
F0.501
tp978
assg3
F1.0
sg29
(lp979
(lp980
g376
aa(lp981
g757
aasg2
F1.0
ssI68
(dp982
g1
F1.0
sg7
(lp983
(lp984
g232
aa(lp985
S'diverse'
p986
aasg13
(dp987
g15
g16
(g20
S'\xd5x\xe9&1\x08\xe0?'
p988
tp989
Rp990
sg26
(lp991
(g232
g986
F0.501
tp992
assg3
F1.0
sg29
(lp993
(lp994
g232
aa(lp995
g986
aasg2
F1.0
ssI69
(dp996
g1
F1.0
sg7
(lp997
(lp998
S'adequate'
p999
aa(lp1000
S'fine'
p1001
aasg13
(dp1002
g15
g16
(g20
S'\xd5x\xe9&1\x08\xe0?'
p1003
tp1004
Rp1005
sg26
(lp1006
(g999
g1001
F0.501
tp1007
assg3
F1.0
sg29
(lp1008
(lp1009
g999
aa(lp1010
g1001
aasg2
F1.0
ssI70
(dp1011
g1
F-1.0
sg7
(lp1012
(lp1013
S'tough'
p1014
aa(lp1015
g629
aasg13
(dp1016
g15
g16
(g20
S'\xd5x\xe9&1\x08\xe0?'
p1017
tp1018
Rp1019
sg26
(lp1020
(g629
g1014
F0.501
tp1021
assg3
F0.0
sg29
(lp1022
(lp1023
g629
aa(lp1024
g1014
aasg2
F1.0
ssI71
(dp1025
g1
F1.0
sg7
(lp1026
(lp1027
g245
aa(lp1028
g247
aasg13
(dp1029
g15
g16
(g20
S'\xd5x\xe9&1\x08\xe0?'
p1030
tp1031
Rp1032
sg26
(lp1033
(g245
g247
F0.501
tp1034
assg3
F1.0
sg29
(lp1035
(lp1036
g245
aa(lp1037
g247
aasg2
F1.0
ssI72
(dp1038
g1
F-1.0
sg7
(lp1039
(lp1040
g230
aa(lp1041
S'wide-ranging'
p1042
aasg13
(dp1043
g15
g16
(g20
S'\xd5x\xe9&1\x08\xe0?'
p1044
tp1045
Rp1046
sg26
(lp1047
(g1042
g230
F0.501
tp1048
assg3
F0.0
sg29
(lp1049
(lp1050
g1042
aa(lp1051
g230
aasg2
F1.0
ssI73
(dp1052
g1
F-1.0
sg7
(lp1053
(lp1054
g333
aa(lp1055
g602
aasg13
(dp1056
g15
g16
(g20
S'\xd5x\xe9&1\x08\xe0?'
p1057
tp1058
Rp1059
sg26
(lp1060
(g602
g333
F0.501
tp1061
assg3
F0.0
sg29
(lp1062
(lp1063
g602
aa(lp1064
g333
aasg2
F1.0
ssI74
(dp1065
g1
F-1.0
sg7
(lp1066
(lp1067
g302
aa(lp1068
g304
aasg13
(dp1069
g15
g16
(g20
S'\xd5x\xe9&1\x08\xe0?'
p1070
tp1071
Rp1072
sg26
(lp1073
(g304
g302
F0.501
tp1074
assg3
F0.0
sg29
(lp1075
(lp1076
g304
aa(lp1077
g302
aasg2
F1.0
ssI75
(dp1078
g1
F1.0
sg7
(lp1079
(lp1080
S'exorbitant'
p1081
aa(lp1082
g672
aasg13
(dp1083
g15
g16
(g20
S'\xd5x\xe9&1\x08\xe0?'
p1084
tp1085
Rp1086
sg26
(lp1087
(g1081
g672
F0.501
tp1088
assg3
F1.0
sg29
(lp1089
(lp1090
g1081
aa(lp1091
g672
aasg2
F1.0
ssI76
(dp1092
g1
F-1.0
sg7
(lp1093
(lp1094
g331
aa(lp1095
g333
aasg13
(dp1096
g15
g16
(g20
S'\xd5x\xe9&1\x08\xe0?'
p1097
tp1098
Rp1099
sg26
(lp1100
(g333
g331
F0.501
tp1101
assg3
F0.0
sg29
(lp1102
(lp1103
g333
aa(lp1104
g331
aasg2
F1.0
ssI77
(dp1105
g1
F-1.0
sg7
(lp1106
(lp1107
S'spectacular'
p1108
aa(lp1109
g957
aasg13
(dp1110
g15
g16
(g20
S'\xd5x\xe9&1\x08\xe0?'
p1111
tp1112
Rp1113
sg26
(lp1114
(g957
g1108
F0.501
tp1115
assg3
F0.0
sg29
(lp1116
(lp1117
g957
aa(lp1118
g1108
aasg2
F1.0
ssI78
(dp1119
g1
F1.0
sg7
(lp1120
(lp1121
g111
aa(lp1122
g113
aasg13
(dp1123
g15
g16
(g20
S'\xd5x\xe9&1\x08\xe0?'
p1124
tp1125
Rp1126
sg26
(lp1127
(g111
g113
F0.501
tp1128
assg3
F1.0
sg29
(lp1129
(lp1130
g111
aa(lp1131
g113
aasg2
F1.0
ssI79
(dp1132
g1
F-1.0
sg7
(lp1133
(lp1134
S'okay'
p1135
aa(lp1136
g535
aasg13
(dp1137
g15
g16
(g20
S'\xd5x\xe9&1\x08\xe0?'
p1138
tp1139
Rp1140
sg26
(lp1141
(g535
g1135
F0.501
tp1142
assg3
F0.0
sg29
(lp1143
(lp1144
g535
aa(lp1145
g1135
aasg2
F1.0
ssI80
(dp1146
g1
F-1.0
sg7
(lp1147
(lp1148
g287
aa(lp1149
g289
aasg13
(dp1150
g15
g16
(g20
S'\xd5x\xe9&1\x08\xe0?'
p1151
tp1152
Rp1153
sg26
(lp1154
(g289
g287
F0.501
tp1155
assg3
F0.0
sg29
(lp1156
(lp1157
g289
aa(lp1158
g287
aasg2
F1.0
ssI81
(dp1159
g1
F-1.0
sg7
(lp1160
(lp1161
g230
aa(lp1162
g1042
aasg13
(dp1163
g15
g16
(g20
S'\xd5x\xe9&1\x08\xe0?'
p1164
tp1165
Rp1166
sg26
(lp1167
(g1042
g230
F0.501
tp1168
assg3
F0.0
sg29
(lp1169
(lp1170
g1042
aa(lp1171
g230
aasg2
F1.0
ssI82
(dp1172
g1
F1.0
sg7
(lp1173
(lp1174
g728
aa(lp1175
g520
aasg13
(dp1176
g15
g16
(g20
S'\xd5x\xe9&1\x08\xe0?'
p1177
tp1178
Rp1179
sg26
(lp1180
(g728
g520
F0.501
tp1181
assg3
F1.0
sg29
(lp1182
(lp1183
g728
aa(lp1184
g520
aasg2
F1.0
ssI83
(dp1185
g1
F1.0
sg7
(lp1186
(lp1187
S'indigent'
p1188
aa(lp1189
S'bankrupt'
p1190
aasg13
(dp1191
g15
g16
(g20
S'\xd5x\xe9&1\x08\xe0?'
p1192
tp1193
Rp1194
sg26
(lp1195
(g1188
g1190
F0.501
tp1196
assg3
F1.0
sg29
(lp1197
(lp1198
g1188
aa(lp1199
g1190
aasg2
F1.0
ssI84
(dp1200
g1
F1.0
sg7
(lp1201
(lp1202
g728
aa(lp1203
g518
aasg13
(dp1204
g15
g16
(g20
S'\xd5x\xe9&1\x08\xe0?'
p1205
tp1206
Rp1207
sg26
(lp1208
(g728
g518
F0.501
tp1209
assg3
F1.0
sg29
(lp1210
(lp1211
g728
aa(lp1212
g518
aasg2
F1.0
ssI85
(dp1213
g1
F1.0
sg7
(lp1214
(lp1215
g489
aa(lp1216
g81
aasg13
(dp1217
g15
g16
(g20
S'\xd5x\xe9&1\x08\xe0?'
p1218
tp1219
Rp1220
sg26
(lp1221
(g489
g81
F0.501
tp1222
assg3
F1.0
sg29
(lp1223
(lp1224
g489
aa(lp1225
g81
aasg2
F1.0
ssI86
(dp1226
g1
F-1.0
sg7
(lp1227
(lp1228
g215
aa(lp1229
g503
aasg13
(dp1230
g15
g16
(g20
S'\xd5x\xe9&1\x08\xe0?'
p1231
tp1232
Rp1233
sg26
(lp1234
(g503
g215
F0.501
tp1235
assg3
F0.0
sg29
(lp1236
(lp1237
g503
aa(lp1238
g215
aasg2
F1.0
ssI87
(dp1239
g1
F-1.0
sg7
(lp1240
(lp1241
g331
aa(lp1242
g602
aasg13
(dp1243
g15
g16
(g20
S'\xd5x\xe9&1\x08\xe0?'
p1244
tp1245
Rp1246
sg26
(lp1247
(g602
g331
F0.501
tp1248
assg3
F0.0
sg29
(lp1249
(lp1250
g602
aa(lp1251
g331
aasg2
F1.0
ssI88
(dp1252
g1
F1.0
sg7
(lp1253
(lp1254
g96
aa(lp1255
g98
aasg13
(dp1256
g15
g16
(g20
S'\xd5x\xe9&1\x08\xe0?'
p1257
tp1258
Rp1259
sg26
(lp1260
(g96
g98
F0.501
tp1261
assg3
F1.0
sg29
(lp1262
(lp1263
g96
aa(lp1264
g98
aasg2
F1.0
ssI89
(dp1265
g1
F1.0
sg7
(lp1266
(lp1267
g700
aa(lp1268
g702
aasg13
(dp1269
g15
g16
(g20
S'\xd5x\xe9&1\x08\xe0?'
p1270
tp1271
Rp1272
sg26
(lp1273
(g700
g702
F0.501
tp1274
assg3
F1.0
sg29
(lp1275
(lp1276
g700
aa(lp1277
g702
aasg2
F1.0
ssI90
(dp1278
g1
F-1.0
sg7
(lp1279
(lp1280
g459
aa(lp1281
g461
aasg13
(dp1282
g15
g16
(g20
S'\xd5x\xe9&1\x08\xe0?'
p1283
tp1284
Rp1285
sg26
(lp1286
(g461
g459
F0.501
tp1287
assg3
F0.0
sg29
(lp1288
(lp1289
g461
aa(lp1290
g459
aasg2
F1.0
ssI91
(dp1291
g1
F-1.0
sg7
(lp1292
(lp1293
g1014
aa(lp1294
g631
aasg13
(dp1295
g15
g16
(g20
S'\xd5x\xe9&1\x08\xe0?'
p1296
tp1297
Rp1298
sg26
(lp1299
(g631
g1014
F0.501
tp1300
assg3
F0.0
sg29
(lp1301
(lp1302
g631
aa(lp1303
g1014
aasg2
F1.0
ssI92
(dp1304
g1
F-1.0
sg7
(lp1305
(lp1306
g331
aa(lp1307
g602
aasg13
(dp1308
g15
g16
(g20
S'\xd5x\xe9&1\x08\xe0?'
p1309
tp1310
Rp1311
sg26
(lp1312
(g602
g331
F0.501
tp1313
assg3
F0.0
sg29
(lp1314
(lp1315
g602
aa(lp1316
g331
aasg2
F1.0
ssI93
(dp1317
g1
F-1.0
sg7
(lp1318
(lp1319
g361
aa(lp1320
g363
aasg13
(dp1321
g15
g16
(g20
S'\xd5x\xe9&1\x08\xe0?'
p1322
tp1323
Rp1324
sg26
(lp1325
(g363
g361
F0.501
tp1326
assg3
F0.0
sg29
(lp1327
(lp1328
g363
aa(lp1329
g361
aasg2
F1.0
ssI94
(dp1330
g1
F-1.0
sg7
(lp1331
(lp1332
S'hardworking'
p1333
aa(lp1334
S'tenacious'
p1335
aasg13
(dp1336
g15
g16
(g20
S'\xd5x\xe9&1\x08\xe0?'
p1337
tp1338
Rp1339
sg26
(lp1340
(g1335
g1333
F0.501
tp1341
assg3
F0.0
sg29
(lp1342
(lp1343
g1335
aa(lp1344
g1333
aasg2
F1.0
ssI95
(dp1345
g1
F-1.0
sg7
(lp1346
(lp1347
g66
aa(lp1348
g68
aasg13
(dp1349
g15
g16
(g20
S'\xd5x\xe9&1\x08\xe0?'
p1350
tp1351
Rp1352
sg26
(lp1353
(g68
g66
F0.501
tp1354
assg3
F0.0
sg29
(lp1355
(lp1356
g68
aa(lp1357
g66
aasg2
F1.0
ssI96
(dp1358
g1
F1.0
sg7
(lp1359
(lp1360
g217
aa(lp1361
g505
aasg13
(dp1362
g15
g16
(g20
S'\xd5x\xe9&1\x08\xe0?'
p1363
tp1364
Rp1365
sg26
(lp1366
(g217
g505
F0.501
tp1367
assg3
F1.0
sg29
(lp1368
(lp1369
g217
aa(lp1370
g505
aasg2
F1.0
ssI97
(dp1371
g1
F-1.0
sg7
(lp1372
(lp1373
S'fitting'
p1374
aa(lp1375
g999
aasg13
(dp1376
g15
g16
(g20
S'\xd5x\xe9&1\x08\xe0?'
p1377
tp1378
Rp1379
sg26
(lp1380
(g999
g1374
F0.501
tp1381
assg3
F0.0
sg29
(lp1382
(lp1383
g999
aa(lp1384
g1374
aasg2
F1.0
ssI98
(dp1385
g1
F-1.0
sg7
(lp1386
(lp1387
S'delighted'
p1388
aa(lp1389
g173
aasg13
(dp1390
g15
g16
(g20
S'\xd5x\xe9&1\x08\xe0?'
p1391
tp1392
Rp1393
sg26
(lp1394
(g173
g1388
F0.501
tp1395
assg3
F0.0
sg29
(lp1396
(lp1397
g173
aa(lp1398
g1388
aasg2
F1.0
ssI99
(dp1399
g1
F-1.0
sg7
(lp1400
(lp1401
S'uncomfortable'
p1402
aa(lp1403
S'embarrassed'
p1404
aasg13
(dp1405
g15
g16
(g20
S'\xd5x\xe9&1\x08\xe0?'
p1406
tp1407
Rp1408
sg26
(lp1409
(g1404
g1402
F0.501
tp1410
assg3
F0.0
sg29
(lp1411
(lp1412
g1404
aa(lp1413
g1402
aasg2
F1.0
ssI100
(dp1414
g1
F-1.0
sg7
(lp1415
(lp1416
g629
aa(lp1417
g631
aasg13
(dp1418
g15
g16
(g20
S'\xd5x\xe9&1\x08\xe0?'
p1419
tp1420
Rp1421
sg26
(lp1422
(g631
g629
F0.501
tp1423
assg3
F0.0
sg29
(lp1424
(lp1425
g631
aa(lp1426
g629
aasg2
F1.0
ssI101
(dp1427
g1
F1.0
sg7
(lp1428
(lp1429
g518
aa(lp1430
g520
aasg13
(dp1431
g15
g16
(g20
S'\xd5x\xe9&1\x08\xe0?'
p1432
tp1433
Rp1434
sg26
(lp1435
(g518
g520
F0.501
tp1436
assg3
F1.0
sg29
(lp1437
(lp1438
g518
aa(lp1439
g520
aasg2
F1.0
ssI102
(dp1440
g1
F-1.0
sg7
(lp1441
(lp1442
g391
aa(lp1443
g141
aasg13
(dp1444
g15
g16
(g20
S'\xd5x\xe9&1\x08\xe0?'
p1445
tp1446
Rp1447
sg26
(lp1448
(g141
g391
F0.501
tp1449
assg3
F0.0
sg29
(lp1450
(lp1451
g141
aa(lp1452
g391
aasg2
F1.0
ssI103
(dp1453
g1
F1.0
sg7
(lp1454
(lp1455
g81
aa(lp1456
g378
aasg13
(dp1457
g15
g16
(g20
S'\xd5x\xe9&1\x08\xe0?'
p1458
tp1459
Rp1460
sg26
(lp1461
(g81
g378
F0.501
tp1462
assg3
F1.0
sg29
(lp1463
(lp1464
g81
aa(lp1465
g378
aasg2
F1.0
ssI104
(dp1466
g1
F-1.0
sg7
(lp1467
(lp1468
S'fine'
p1469
aa(lp1470
S'satisfactory'
p1471
aasg13
(dp1472
g15
g16
(g20
S'\xd5x\xe9&1\x08\xe0?'
p1473
tp1474
Rp1475
sg26
(lp1476
(g1471
g1469
F0.501
tp1477
assg3
F0.0
sg29
(lp1478
(lp1479
g1471
aa(lp1480
g1469
aasg2
F1.0
ssI105
(dp1481
g1
F1.0
sg7
(lp1482
(lp1483
S'staggering'
p1484
aa(lp1485
S'tremendous'
p1486
aasg13
(dp1487
g15
g16
(g20
S'\xd5x\xe9&1\x08\xe0?'
p1488
tp1489
Rp1490
sg26
(lp1491
(g1484
g1486
F0.501
tp1492
assg3
F1.0
sg29
(lp1493
(lp1494
g1484
aa(lp1495
g1486
aasg2
F1.0
ssI106
(dp1496
g1
F-1.0
sg7
(lp1497
(lp1498
g10
aa(lp1499
g12
aasg13
(dp1500
g15
g16
(g20
S'\xd5x\xe9&1\x08\xe0?'
p1501
tp1502
Rp1503
sg26
(lp1504
(g12
g10
F0.501
tp1505
assg3
F0.0
sg29
(lp1506
(lp1507
g12
aa(lp1508
g10
aasg2
F1.0
ssI107
(dp1509
g1
F-1.0
sg7
(lp1510
(lp1511
S'tremendous'
p1512
aa(lp1513
g188
aasg13
(dp1514
g15
g16
(g20
S'\xd5x\xe9&1\x08\xe0?'
p1515
tp1516
Rp1517
sg26
(lp1518
(g188
g1512
F0.501
tp1519
assg3
F0.0
sg29
(lp1520
(lp1521
g188
aa(lp1522
g1512
aasg2
F1.0
ssI108
(dp1523
g1
F1.0
sg7
(lp1524
(lp1525
g812
aa(lp1526
g814
aasg13
(dp1527
g15
g16
(g20
S'\xd5x\xe9&1\x08\xe0?'
p1528
tp1529
Rp1530
sg26
(lp1531
(g812
g814
F0.501
tp1532
assg3
F1.0
sg29
(lp1533
(lp1534
g812
aa(lp1535
g814
aasg2
F1.0
ssI109
(dp1536
g1
F-1.0
sg7
(lp1537
(lp1538
g474
aa(lp1539
g476
aasg13
(dp1540
g15
g16
(g20
S'\xd5x\xe9&1\x08\xe0?'
p1541
tp1542
Rp1543
sg26
(lp1544
(g476
g474
F0.501
tp1545
assg3
F0.0
sg29
(lp1546
(lp1547
g476
aa(lp1548
g474
aasg2
F1.0
ssI110
(dp1549
g1
F1.0
sg7
(lp1550
(lp1551
g126
aa(lp1552
g318
aasg13
(dp1553
g15
g16
(g20
S'\xd5x\xe9&1\x08\xe0?'
p1554
tp1555
Rp1556
sg26
(lp1557
(g126
g318
F0.501
tp1558
assg3
F1.0
sg29
(lp1559
(lp1560
g126
aa(lp1561
g318
aasg2
F1.0
ssI111
(dp1562
g1
F1.0
sg7
(lp1563
(lp1564
g503
aa(lp1565
g505
aasg13
(dp1566
g15
g16
(g20
S'\xd5x\xe9&1\x08\xe0?'
p1567
tp1568
Rp1569
sg26
(lp1570
(g503
g505
F0.501
tp1571
assg3
F1.0
sg29
(lp1572
(lp1573
g503
aa(lp1574
g505
aasg2
F1.0
ssI112
(dp1575
g1
F-1.0
sg7
(lp1576
(lp1577
g1014
aa(lp1578
g629
aasg13
(dp1579
g15
g16
(g20
S'\xd5x\xe9&1\x08\xe0?'
p1580
tp1581
Rp1582
sg26
(lp1583
(g629
g1014
F0.501
tp1584
assg3
F0.0
sg29
(lp1585
(lp1586
g629
aa(lp1587
g1014
aasg2
F1.0
ssI113
(dp1588
g1
F1.0
sg7
(lp1589
(lp1590
g126
aa(lp1591
g261
aasg13
(dp1592
g15
g16
(g20
S'\xd5x\xe9&1\x08\xe0?'
p1593
tp1594
Rp1595
sg26
(lp1596
(g126
g261
F0.501
tp1597
assg3
F1.0
sg29
(lp1598
(lp1599
g126
aa(lp1600
g261
aasg2
F1.0
ssI114
(dp1601
g1
F1.0
sg7
(lp1602
(lp1603
g489
aa(lp1604
g376
aasg13
(dp1605
g15
g16
(g20
S'\xd5x\xe9&1\x08\xe0?'
p1606
tp1607
Rp1608
sg26
(lp1609
(g489
g376
F0.501
tp1610
assg3
F1.0
sg29
(lp1611
(lp1612
g489
aa(lp1613
g376
aasg2
F1.0
ssI115
(dp1614
g1
F1.0
sg7
(lp1615
(lp1616
g156
aa(lp1617
g158
aasg13
(dp1618
g15
g16
(g20
S'\xd5x\xe9&1\x08\xe0?'
p1619
tp1620
Rp1621
sg26
(lp1622
(g156
g158
F0.501
tp1623
assg3
F1.0
sg29
(lp1624
(lp1625
g156
aa(lp1626
g158
aasg2
F1.0
ssI116
(dp1627
g1
F-1.0
sg7
(lp1628
(lp1629
g1014
aa(lp1630
g631
aasg13
(dp1631
g15
g16
(g20
S'\xd5x\xe9&1\x08\xe0?'
p1632
tp1633
Rp1634
sg26
(lp1635
(g631
g1014
F0.501
tp1636
assg3
F0.0
sg29
(lp1637
(lp1638
g631
aa(lp1639
g1014
aasg2
F1.0
ssI117
(dp1640
g1
F-1.0
sg7
(lp1641
(lp1642
g1374
aa(lp1643
g999
aasg13
(dp1644
g15
g16
(g20
S'\xd5x\xe9&1\x08\xe0?'
p1645
tp1646
Rp1647
sg26
(lp1648
(g999
g1374
F0.501
tp1649
assg3
F0.0
sg29
(lp1650
(lp1651
g999
aa(lp1652
g1374
aasg2
F1.0
ssI118
(dp1653
g1
F1.0
sg7
(lp1654
(lp1655
g533
aa(lp1656
g743
aasg13
(dp1657
g15
g16
(g20
S'\xd5x\xe9&1\x08\xe0?'
p1658
tp1659
Rp1660
sg26
(lp1661
(g533
g743
F0.501
tp1662
assg3
F1.0
sg29
(lp1663
(lp1664
g533
aa(lp1665
g743
aasg2
F1.0
ssI119
(dp1666
g1
F1.0
sg7
(lp1667
(lp1668
g141
aa(lp1669
g143
aasg13
(dp1670
g15
g16
(g20
S'\xd5x\xe9&1\x08\xe0?'
p1671
tp1672
Rp1673
sg26
(lp1674
(g141
g143
F0.501
tp1675
assg3
F1.0
sg29
(lp1676
(lp1677
g141
aa(lp1678
g143
aasg2
F1.0
ssI120
(dp1679
g1
F1.0
sg7
(lp1680
(lp1681
g489
aa(lp1682
g378
aasg13
(dp1683
g15
g16
(g20
S'\xd5x\xe9&1\x08\xe0?'
p1684
tp1685
Rp1686
sg26
(lp1687
(g489
g378
F0.501
tp1688
assg3
F1.0
sg29
(lp1689
(lp1690
g489
aa(lp1691
g378
aasg2
F1.0
ssI121
(dp1692
g1
F-1.0
sg7
(lp1693
(lp1694
g1402
aa(lp1695
g1404
aasg13
(dp1696
g15
g16
(g20
S'\xd5x\xe9&1\x08\xe0?'
p1697
tp1698
Rp1699
sg26
(lp1700
(g1404
g1402
F0.501
tp1701
assg3
F0.0
sg29
(lp1702
(lp1703
g1404
aa(lp1704
g1402
aasg2
F1.0
ssI122
(dp1705
g1
F-1.0
sg7
(lp1706
(lp1707
g1108
aa(lp1708
g959
aasg13
(dp1709
g15
g16
(g20
S'\xd5x\xe9&1\x08\xe0?'
p1710
tp1711
Rp1712
sg26
(lp1713
(g959
g1108
F0.501
tp1714
assg3
F0.0
sg29
(lp1715
(lp1716
g959
aa(lp1717
g1108
aasg2
F1.0
ssI123
(dp1718
g1
F-1.0
sg7
(lp1719
(lp1720
g1512
aa(lp1721
g188
aasg13
(dp1722
g15
g16
(g20
S'\xd5x\xe9&1\x08\xe0?'
p1723
tp1724
Rp1725
sg26
(lp1726
(g188
g1512
F0.501
tp1727
assg3
F0.0
sg29
(lp1728
(lp1729
g188
aa(lp1730
g1512
aasg2
F1.0
ssI124
(dp1731
g1
F-1.0
sg7
(lp1732
(lp1733
g230
aa(lp1734
g232
aasg13
(dp1735
g15
g16
(g20
S'\xd5x\xe9&1\x08\xe0?'
p1736
tp1737
Rp1738
sg26
(lp1739
(g232
g230
F0.501
tp1740
assg3
F0.0
sg29
(lp1741
(lp1742
g232
aa(lp1743
g230
aasg2
F1.0
ssI125
(dp1744
g1
F1.0
sg7
(lp1745
(lp1746
g533
aa(lp1747
g535
aasg13
(dp1748
g15
g16
(g20
S'\xd5x\xe9&1\x08\xe0?'
p1749
tp1750
Rp1751
sg26
(lp1752
(g533
g535
F0.501
tp1753
assg3
F1.0
sg29
(lp1754
(lp1755
g533
aa(lp1756
g535
aasg2
F1.0
ssI126
(dp1757
g1
F1.0
sg7
(lp1758
(lp1759
g489
aa(lp1760
g81
aasg13
(dp1761
g15
g16
(g20
S'\xd5x\xe9&1\x08\xe0?'
p1762
tp1763
Rp1764
sg26
(lp1765
(g489
g81
F0.501
tp1766
assg3
F1.0
sg29
(lp1767
(lp1768
g489
aa(lp1769
g81
aasg2
F1.0
ssI127
(dp1770
g1
F-1.0
sg7
(lp1771
(lp1772
g346
aa(lp1773
g616
aasg13
(dp1774
g15
g16
(g20
S'\xd5x\xe9&1\x08\xe0?'
p1775
tp1776
Rp1777
sg26
(lp1778
(g616
g346
F0.501
tp1779
assg3
F0.0
sg29
(lp1780
(lp1781
g616
aa(lp1782
g346
aasg2
F1.0
ssI128
(dp1783
g1
F1.0
sg7
(lp1784
(lp1785
g1081
aa(lp1786
g672
aasg13
(dp1787
g15
g16
(g20
S'\xd5x\xe9&1\x08\xe0?'
p1788
tp1789
Rp1790
sg26
(lp1791
(g1081
g672
F0.501
tp1792
assg3
F1.0
sg29
(lp1793
(lp1794
g1081
aa(lp1795
g672
aasg2
F1.0
ssI129
(dp1796
g1
F1.0
sg7
(lp1797
(lp1798
g376
aa(lp1799
g378
aasg13
(dp1800
g15
g16
(g20
S'\xd5x\xe9&1\x08\xe0?'
p1801
tp1802
Rp1803
sg26
(lp1804
(g376
g378
F0.501
tp1805
assg3
F1.0
sg29
(lp1806
(lp1807
g376
aa(lp1808
g378
aasg2
F1.0
ssI130
(dp1809
g1
F-1.0
sg7
(lp1810
(lp1811
g51
aa(lp1812
g202
aasg13
(dp1813
g15
g16
(g20
S'\xd5x\xe9&1\x08\xe0?'
p1814
tp1815
Rp1816
sg26
(lp1817
(g202
g51
F0.501
tp1818
assg3
F0.0
sg29
(lp1819
(lp1820
g202
aa(lp1821
g51
aasg2
F1.0
ssI131
(dp1822
g1
F1.0
sg7
(lp1823
(lp1824
g670
aa(lp1825
g672
aasg13
(dp1826
g15
g16
(g20
S'\xd5x\xe9&1\x08\xe0?'
p1827
tp1828
Rp1829
sg26
(lp1830
(g670
g672
F0.501
tp1831
assg3
F1.0
sg29
(lp1832
(lp1833
g670
aa(lp1834
g672
aasg2
F1.0
ssI132
(dp1835
g1
F-1.0
sg7
(lp1836
(lp1837
g53
aa(lp1838
g202
aasg13
(dp1839
g15
g16
(g20
S'\xd5x\xe9&1\x08\xe0?'
p1840
tp1841
Rp1842
sg26
(lp1843
(g202
g53
F0.501
tp1844
assg3
F0.0
sg29
(lp1845
(lp1846
g202
aa(lp1847
g53
aasg2
F1.0
ssI133
(dp1848
g1
F1.0
sg7
(lp1849
(lp1850
g489
aa(lp1851
g83
aasg13
(dp1852
g15
g16
(g20
S'\xd5x\xe9&1\x08\xe0?'
p1853
tp1854
Rp1855
sg26
(lp1856
(g489
g83
F0.501
tp1857
assg3
F1.0
sg29
(lp1858
(lp1859
g489
aa(lp1860
g83
aasg2
F1.0
ssI134
(dp1861
g1
F1.0
sg7
(lp1862
(lp1863
S'stringent'
p1864
aa(lp1865
S'severe'
p1866
aasg13
(dp1867
g15
g16
(g20
S'\xd5x\xe9&1\x08\xe0?'
p1868
tp1869
Rp1870
sg26
(lp1871
(g1864
g1866
F0.501
tp1872
assg3
F1.0
sg29
(lp1873
(lp1874
g1864
aa(lp1875
g1866
aasg2
F1.0
ssI135
(dp1876
g1
F1.0
sg7
(lp1877
(lp1878
g113
aa(lp1879
S'tremendous'
p1880
aasg13
(dp1881
g15
g16
(g20
S'\xd5x\xe9&1\x08\xe0?'
p1882
tp1883
Rp1884
sg26
(lp1885
(g113
g1880
F0.501
tp1886
assg3
F1.0
sg29
(lp1887
(lp1888
g113
aa(lp1889
g1880
aasg2
F1.0
ssI136
(dp1890
g1
F1.0
sg7
(lp1891
(lp1892
g533
aa(lp1893
S'fine'
p1894
aasg13
(dp1895
g15
g16
(g20
S'\xd5x\xe9&1\x08\xe0?'
p1896
tp1897
Rp1898
sg26
(lp1899
(g533
g1894
F0.501
tp1900
assg3
F1.0
sg29
(lp1901
(lp1902
g533
aa(lp1903
g1894
aasg2
F1.0
ssI137
(dp1904
g1
F1.0
sg7
(lp1905
(lp1906
g83
aa(lp1907
g378
aasg13
(dp1908
g15
g16
(g20
S'\xd5x\xe9&1\x08\xe0?'
p1909
tp1910
Rp1911
sg26
(lp1912
(g83
g378
F0.501
tp1913
assg3
F1.0
sg29
(lp1914
(lp1915
g83
aa(lp1916
g378
aasg2
F1.0
ssI138
(dp1917
g1
F-1.0
sg7
(lp1918
(lp1919
g1108
aa(lp1920
g957
aasg13
(dp1921
g15
g16
(g20
S'\xd5x\xe9&1\x08\xe0?'
p1922
tp1923
Rp1924
sg26
(lp1925
(g957
g1108
F0.501
tp1926
assg3
F0.0
sg29
(lp1927
(lp1928
g957
aa(lp1929
g1108
aasg2
F1.0
ssI139
(dp1930
g1
F-1.0
sg7
(lp1931
(lp1932
g743
aa(lp1933
g535
aasg13
(dp1934
g15
g16
(g20
S'\xd5x\xe9&1\x08\xe0?'
p1935
tp1936
Rp1937
sg26
(lp1938
(g535
g743
F0.501
tp1939
assg3
F0.0
sg29
(lp1940
(lp1941
g535
aa(lp1942
g743
aasg2
F1.0
ssI140
(dp1943
g1
F-1.0
sg7
(lp1944
(lp1945
g83
aa(lp1946
g376
aasg13
(dp1947
g15
g16
(g20
S'\xd5x\xe9&1\x08\xe0?'
p1948
tp1949
Rp1950
sg26
(lp1951
(g376
g83
F0.501
tp1952
assg3
F0.0
sg29
(lp1953
(lp1954
g376
aa(lp1955
g83
aasg2
F1.0
ssI141
(dp1956
g1
F1.0
sg7
(lp1957
(lp1958
g113
aa(lp1959
g1880
aasg13
(dp1960
g15
g16
(g20
S'\xd5x\xe9&1\x08\xe0?'
p1961
tp1962
Rp1963
sg26
(lp1964
(g113
g1880
F0.501
tp1965
assg3
F1.0
sg29
(lp1966
(lp1967
g113
aa(lp1968
g1880
aasg2
F1.0
ssI142
(dp1969
g1
F1.0
sg7
(lp1970
(lp1971
g1188
aa(lp1972
g1190
aasg13
(dp1973
g15
g16
(g20
S'\xd5x\xe9&1\x08\xe0?'
p1974
tp1975
Rp1976
sg26
(lp1977
(g1188
g1190
F0.501
tp1978
assg3
F1.0
sg29
(lp1979
(lp1980
g1188
aa(lp1981
g1190
aasg2
F1.0
ssI143
(dp1982
g1
F-1.0
sg7
(lp1983
(lp1984
g743
aa(lp1985
g535
aasg13
(dp1986
g15
g16
(g20
S'\xd5x\xe9&1\x08\xe0?'
p1987
tp1988
Rp1989
sg26
(lp1990
(g535
g743
F0.501
tp1991
assg3
F0.0
sg29
(lp1992
(lp1993
g535
aa(lp1994
g743
aasg2
F1.0
ssI144
(dp1995
g1
F-1.0
sg7
(lp1996
(lp1997
g36
aa(lp1998
g38
aasg13
(dp1999
g15
g16
(g20
S'\xd5x\xe9&1\x08\xe0?'
p2000
tp2001
Rp2002
sg26
(lp2003
(g38
g36
F0.501
tp2004
assg3
F0.0
sg29
(lp2005
(lp2006
g38
aa(lp2007
g36
aasg2
F1.0
ssI145
(dp2008
g1
F-1.0
sg7
(lp2009
(lp2010
g1388
aa(lp2011
g173
aasg13
(dp2012
g15
g16
(g20
S'\xd5x\xe9&1\x08\xe0?'
p2013
tp2014
Rp2015
sg26
(lp2016
(g173
g1388
F0.501
tp2017
assg3
F0.0
sg29
(lp2018
(lp2019
g173
aa(lp2020
g1388
aasg2
F1.0
ssI146
(dp2021
g1
F-1.0
sg7
(lp2022
(lp2023
g685
aa(lp2024
g687
aasg13
(dp2025
g15
g16
(g20
S'\xd5x\xe9&1\x08\xe0?'
p2026
tp2027
Rp2028
sg26
(lp2029
(g687
g685
F0.501
tp2030
assg3
F0.0
sg29
(lp2031
(lp2032
g687
aa(lp2033
g685
aasg2
F1.0
ssI147
(dp2034
g1
F-1.0
sg7
(lp2035
(lp2036
g1469
aa(lp2037
g1471
aasg13
(dp2038
g15
g16
(g20
S'\xd5x\xe9&1\x08\xe0?'
p2039
tp2040
Rp2041
sg26
(lp2042
(g1471
g1469
F0.501
tp2043
assg3
F0.0
sg29
(lp2044
(lp2045
g1471
aa(lp2046
g1469
aasg2
F1.0
ssI148
(dp2047
g1
F1.0
sg7
(lp2048
(lp2049
g232
aa(lp2050
g986
aasg13
(dp2051
g15
g16
(g20
S'\xd5x\xe9&1\x08\xe0?'
p2052
tp2053
Rp2054
sg26
(lp2055
(g232
g986
F0.501
tp2056
assg3
F1.0
sg29
(lp2057
(lp2058
g232
aa(lp2059
g986
aasg2
F1.0
ssI149
(dp2060
g1
F1.0
sg7
(lp2061
(lp2062
g318
aa(lp2063
g128
aasg13
(dp2064
g15
g16
(g20
S'\xd5x\xe9&1\x08\xe0?'
p2065
tp2066
Rp2067
sg26
(lp2068
(g318
g128
F0.501
tp2069
assg3
F1.0
sg29
(lp2070
(lp2071
g318
aa(lp2072
g128
aasg2
F1.0
ssI150
(dp2073
g1
F1.0
sg7
(lp2074
(lp2075
g1864
aa(lp2076
g1866
aasg13
(dp2077
g15
g16
(g20
S'\xd5x\xe9&1\x08\xe0?'
p2078
tp2079
Rp2080
sg26
(lp2081
(g1864
g1866
F0.501
tp2082
assg3
F1.0
sg29
(lp2083
(lp2084
g1864
aa(lp2085
g1866
aasg2
F1.0
ssI151
(dp2086
g1
F1.0
sg7
(lp2087
(lp2088
g1484
aa(lp2089
g1486
aasg13
(dp2090
g15
g16
(g20
S'\xd5x\xe9&1\x08\xe0?'
p2091
tp2092
Rp2093
sg26
(lp2094
(g1484
g1486
F0.501
tp2095
assg3
F1.0
sg29
(lp2096
(lp2097
g1484
aa(lp2098
g1486
aasg2
F1.0
ssI152
(dp2099
g1
F-1.0
sg7
(lp2100
(lp2101
g230
aa(lp2102
g986
aasg13
(dp2103
g15
g16
(g20
S'\xd5x\xe9&1\x08\xe0?'
p2104
tp2105
Rp2106
sg26
(lp2107
(g986
g230
F0.501
tp2108
assg3
F0.0
sg29
(lp2109
(lp2110
g986
aa(lp2111
g230
aasg2
F1.0
ssI153
(dp2112
g1
F-1.0
sg7
(lp2113
(lp2114
g1333
aa(lp2115
g1335
aasg13
(dp2116
g15
g16
(g20
S'\xd5x\xe9&1\x08\xe0?'
p2117
tp2118
Rp2119
sg26
(lp2120
(g1335
g1333
F0.501
tp2121
assg3
F0.0
sg29
(lp2122
(lp2123
g1335
aa(lp2124
g1333
aasg2
F1.0
ssI154
(dp2125
g1
F1.0
sg7
(lp2126
(lp2127
g81
aa(lp2128
g378
aasg13
(dp2129
g15
g16
(g20
S'\xd5x\xe9&1\x08\xe0?'
p2130
tp2131
Rp2132
sg26
(lp2133
(g81
g378
F0.501
tp2134
assg3
F1.0
sg29
(lp2135
(lp2136
g81
aa(lp2137
g378
aasg2
F1.0
ssI155
(dp2138
g1
F1.0
sg7
(lp2139
(lp2140
g489
aa(lp2141
g376
aasg13
(dp2142
g15
g16
(g20
S'\xd5x\xe9&1\x08\xe0?'
p2143
tp2144
Rp2145
sg26
(lp2146
(g489
g376
F0.501
tp2147
assg3
F1.0
sg29
(lp2148
(lp2149
g489
aa(lp2150
g376
aasg2
F1.0
ssI156
(dp2151
g1
F1.0
sg7
(lp2152
(lp2153
g51
aa(lp2154
g53
aasg13
(dp2155
g15
g16
(g20
S'\xd5x\xe9&1\x08\xe0?'
p2156
tp2157
Rp2158
sg26
(lp2159
(g51
g53
F0.501
tp2160
assg3
F1.0
sg29
(lp2161
(lp2162
g51
aa(lp2163
g53
aasg2
F1.0
ssI157
(dp2164
g1
F-1.0
sg7
(lp2165
(lp2166
g51
aa(lp2167
g202
aasg13
(dp2168
g15
g16
(g20
S'\xd5x\xe9&1\x08\xe0?'
p2169
tp2170
Rp2171
sg26
(lp2172
(g202
g51
F0.501
tp2173
assg3
F0.0
sg29
(lp2174
(lp2175
g202
aa(lp2176
g51
aasg2
F1.0
ssI158
(dp2177
g1
F-1.0
sg7
(lp2178
(lp2179
g548
aa(lp2180
g158
aasg13
(dp2181
g15
g16
(g20
S'\xd5x\xe9&1\x08\xe0?'
p2182
tp2183
Rp2184
sg26
(lp2185
(g158
g548
F0.501
tp2186
assg3
F0.0
sg29
(lp2187
(lp2188
g158
aa(lp2189
g548
aasg2
F1.0
ssI159
(dp2190
g1
F1.0
sg7
(lp2191
(lp2192
g999
aa(lp2193
g1001
aasg13
(dp2194
g15
g16
(g20
S'\xd5x\xe9&1\x08\xe0?'
p2195
tp2196
Rp2197
sg26
(lp2198
(g999
g1001
F0.501
tp2199
assg3
F1.0
sg29
(lp2200
(lp2201
g999
aa(lp2202
g1001
aasg2
F1.0
ssI160
(dp2203
g1
F1.0
sg7
(lp2204
(lp2205
g533
aa(lp2206
g1894
aasg13
(dp2207
g15
g16
(g20
S'\xd5x\xe9&1\x08\xe0?'
p2208
tp2209
Rp2210
sg26
(lp2211
(g533
g1894
F0.501
tp2212
assg3
F1.0
sg29
(lp2213
(lp2214
g533
aa(lp2215
g1894
aasg2
F1.0
ssI161
(dp2216
g1
F-1.0
sg7
(lp2217
(lp2218
g770
aa(lp2219
g318
aasg13
(dp2220
g15
g16
(g20
S'\xd5x\xe9&1\x08\xe0?'
p2221
tp2222
Rp2223
sg26
(lp2224
(g318
g770
F0.501
tp2225
assg3
F0.0
sg29
(lp2226
(lp2227
g318
aa(lp2228
g770
aasg2
F1.0
ssI162
(dp2229
g1
F-1.0
sg7
(lp2230
(lp2231
g1108
aa(lp2232
g959
aasg13
(dp2233
g15
g16
(g20
S'\xd5x\xe9&1\x08\xe0?'
p2234
tp2235
Rp2236
sg26
(lp2237
(g959
g1108
F0.501
tp2238
assg3
F0.0
sg29
(lp2239
(lp2240
g959
aa(lp2241
g1108
aasg2
F1.0
ssI163
(dp2242
g1
F-1.0
sg7
(lp2243
(lp2244
g230
aa(lp2245
g986
aasg13
(dp2246
g15
g16
(g20
S'\xd5x\xe9&1\x08\xe0?'
p2247
tp2248
Rp2249
sg26
(lp2250
(g986
g230
F0.501
tp2251
assg3
F0.0
sg29
(lp2252
(lp2253
g986
aa(lp2254
g230
aasg2
F1.0
ssI164
(dp2255
g1
F-1.0
sg7
(lp2256
(lp2257
g83
aa(lp2258
g376
aasg13
(dp2259
g15
g16
(g20
S'\xd5x\xe9&1\x08\xe0?'
p2260
tp2261
Rp2262
sg26
(lp2263
(g376
g83
F0.501
tp2264
assg3
F0.0
sg29
(lp2265
(lp2266
g376
aa(lp2267
g83
aasg2
F1.0
ssI165
(dp2268
g1
F-1.0
sg7
(lp2269
(lp2270
g318
aa(lp2271
g261
aasg13
(dp2272
g15
g16
(g20
S'\xd5x\xe9&1\x08\xe0?'
p2273
tp2274
Rp2275
sg26
(lp2276
(g261
g318
F0.501
tp2277
assg3
F0.0
sg29
(lp2278
(lp2279
g261
aa(lp2280
g318
aasg2
F1.0
ssI166
(dp2281
g1
F1.0
sg7
(lp2282
(lp2283
g83
aa(lp2284
g757
aasg13
(dp2285
g15
g16
(g20
S'\xd5x\xe9&1\x08\xe0?'
p2286
tp2287
Rp2288
sg26
(lp2289
(g83
g757
F0.501
tp2290
assg3
F1.0
sg29
(lp2291
(lp2292
g83
aa(lp2293
g757
aasg2
F1.0
ssI167
(dp2294
g1
F1.0
sg7
(lp2295
(lp2296
g957
aa(lp2297
g959
aasg13
(dp2298
g15
g16
(g20
S'\xd5x\xe9&1\x08\xe0?'
p2299
tp2300
Rp2301
sg26
(lp2302
(g957
g959
F0.501
tp2303
assg3
F1.0
sg29
(lp2304
(lp2305
g957
aa(lp2306
g959
aasg2
F1.0
ssI168
(dp2307
g1
F1.0
sg7
(lp2308
(lp2309
g728
aa(lp2310
g520
aasg13
(dp2311
g15
g16
(g20
S'\xd5x\xe9&1\x08\xe0?'
p2312
tp2313
Rp2314
sg26
(lp2315
(g728
g520
F0.501
tp2316
assg3
F1.0
sg29
(lp2317
(lp2318
g728
aa(lp2319
g520
aasg2
F1.0
ssI169
(dp2320
g1
F-1.0
sg7
(lp2321
(lp2322
g1135
aa(lp2323
g535
aasg13
(dp2324
g15
g16
(g20
S'\xd5x\xe9&1\x08\xe0?'
p2325
tp2326
Rp2327
sg26
(lp2328
(g535
g1135
F0.501
tp2329
assg3
F0.0
sg29
(lp2330
(lp2331
g535
aa(lp2332
g1135
aasg2
F1.0
sss.