(dp0
S'tau'
p1
F-0.4028776978417266
sS'|tau|'
p2
F1.0
sS'pairwise'
p3
F0.29856115107913667
sS'ranking'
p4
(dp5
I0
(dp6
g1
F-1.0
sS'gold'
p7
(lp8
(lp9
S'less'
p10
aa(lp11
S'lesser'
p12
aasS'raw'
p13
(dp14
S'prob*'
p15
cnumpy.core.multiarray
scalar
p16
(cnumpy
dtype
p17
(S'f8'
p18
I0
I1
tp19
Rp20
(I3
S'<'
p21
NNNI-1
I-1
I0
tp22
bS'\xd5x\xe9&1\x08\xe0?'
p23
tp24
Rp25
sS'link-probs'
p26
(lp27
(g12
g10
F0.501
tp28
assg3
F0.0
sS'algo'
p29
(lp30
(lp31
g12
aa(lp32
g10
aasg2
F1.0
ssI1
(dp33
g1
F-1.0
sg7
(lp34
(lp35
S'further'
p36
aa(lp37
S'furthest'
p38
aasg13
(dp39
g15
g16
(g20
S'\xd5x\xe9&1\x08\xe0?'
p40
tp41
Rp42
sg26
(lp43
(g38
g36
F0.501
tp44
assg3
F0.0
sg29
(lp45
(lp46
g38
aa(lp47
g36
aasg2
F1.0
ssI2
(dp48
g1
F-1.0
sg7
(lp49
(lp50
S'dead'
p51
aa(lp52
S'deader'
p53
aasg13
(dp54
g15
g16
(g20
S'\xd5x\xe9&1\x08\xe0?'
p55
tp56
Rp57
sg26
(lp58
(g53
g51
F0.501
tp59
assg3
F0.0
sg29
(lp60
(lp61
g53
aa(lp62
g51
aasg2
F1.0
ssI3
(dp63
g1
F-1.0
sg7
(lp64
(lp65
S'greater'
p66
aa(lp67
S'greatest'
p68
aasg13
(dp69
g15
g16
(g20
S'\xd5x\xe9&1\x08\xe0?'
p70
tp71
Rp72
sg26
(lp73
(g68
g66
F0.501
tp74
assg3
F0.0
sg29
(lp75
(lp76
g68
aa(lp77
g66
aasg2
F1.0
ssI4
(dp78
g1
F-1.0
sg7
(lp79
(lp80
S'braver'
p81
aa(lp82
S'bravest'
p83
aasg13
(dp84
g15
g16
(g20
S'V\x0e-\xb2\x9d\xef\xdf?'
p85
tp86
Rp87
sg26
(lp88
(g83
g81
F0.499
tp89
assg3
F0.0
sg29
(lp90
(lp91
g83
aa(lp92
g81
aasg2
F1.0
ssI5
(dp93
g1
F1.0
sg7
(lp94
(lp95
S'moist'
p96
aa(lp97
S'moister'
p98
aasg13
(dp99
g15
g16
(g20
S'\xd5x\xe9&1\x08\xe0?'
p100
tp101
Rp102
sg26
(lp103
(g96
g98
F0.501
tp104
assg3
F1.0
sg29
(lp105
(lp106
g96
aa(lp107
g98
aasg2
F1.0
ssI6
(dp108
g1
F-1.0
sg7
(lp109
(lp110
S'mild'
p111
aa(lp112
S'milder'
p113
aasg13
(dp114
g15
g16
(g20
S'\xd5x\xe9&1\x08\xe0?'
p115
tp116
Rp117
sg26
(lp118
(g113
g111
F0.501
tp119
assg3
F0.0
sg29
(lp120
(lp121
g113
aa(lp122
g111
aasg2
F1.0
ssI7
(dp123
g1
F-1.0
sg7
(lp124
(lp125
S'later'
p126
aa(lp127
S'latest'
p128
aasg13
(dp129
g15
g16
(g20
S'\xd5x\xe9&1\x08\xe0?'
p130
tp131
Rp132
sg26
(lp133
(g128
g126
F0.501
tp134
assg3
F0.0
sg29
(lp135
(lp136
g128
aa(lp137
g126
aasg2
F1.0
ssI8
(dp138
g1
F1.0
sg7
(lp139
(lp140
S'hon'
p141
aa(lp142
S'honest'
p143
aasg13
(dp144
g15
g16
(g20
S'\xd5x\xe9&1\x08\xe0?'
p145
tp146
Rp147
sg26
(lp148
(g141
g143
F0.501
tp149
assg3
F1.0
sg29
(lp150
(lp151
g141
aa(lp152
g143
aasg2
F1.0
ssI9
(dp153
g1
F1.0
sg7
(lp154
(lp155
S'holy'
p156
aa(lp157
S'holier'
p158
aasg13
(dp159
g15
g16
(g20
S'\xd5x\xe9&1\x08\xe0?'
p160
tp161
Rp162
sg26
(lp163
(g156
g158
F0.501
tp164
assg3
F1.0
sg29
(lp165
(lp166
g156
aa(lp167
g158
aasg2
F1.0
ssI10
(dp168
g1
F-1.0
sg7
(lp169
(lp170
S'bigger'
p171
aa(lp172
S'biggest'
p173
aasg13
(dp174
g15
g16
(g20
S'\xd5x\xe9&1\x08\xe0?'
p175
tp176
Rp177
sg26
(lp178
(g173
g171
F0.501
tp179
assg3
F0.0
sg29
(lp180
(lp181
g173
aa(lp182
g171
aasg2
F1.0
ssI11
(dp183
g1
F1.0
sg7
(lp184
(lp185
S'early'
p186
aa(lp187
S'earliest'
p188
aasg13
(dp189
g15
g16
(g20
S'\xd5x\xe9&1\x08\xe0?'
p190
tp191
Rp192
sg26
(lp193
(g186
g188
F0.501
tp194
assg3
F1.0
sg29
(lp195
(lp196
g186
aa(lp197
g188
aasg2
F1.0
ssI12
(dp198
g1
F-1.0
sg7
(lp199
(lp200
S'safe'
p201
aa(lp202
S'safest'
p203
aasg13
(dp204
g15
g16
(g20
S'\xd5x\xe9&1\x08\xe0?'
p205
tp206
Rp207
sg26
(lp208
(g203
g201
F0.501
tp209
assg3
F0.0
sg29
(lp210
(lp211
g203
aa(lp212
g201
aasg2
F1.0
ssI13
(dp213
g1
F-1.0
sg7
(lp214
(lp215
S'dark'
p216
aa(lp217
S'darkest'
p218
aasg13
(dp219
g15
g16
(g20
S'\xd5x\xe9&1\x08\xe0?'
p220
tp221
Rp222
sg26
(lp223
(g218
g216
F0.501
tp224
assg3
F0.0
sg29
(lp225
(lp226
g218
aa(lp227
g216
aasg2
F1.0
ssI14
(dp228
g1
F-1.0
sg7
(lp229
(lp230
S'stronger'
p231
aa(lp232
S'strongest'
p233
aasg13
(dp234
g15
g16
(g20
S'\xd5x\xe9&1\x08\xe0?'
p235
tp236
Rp237
sg26
(lp238
(g233
g231
F0.501
tp239
assg3
F0.0
sg29
(lp240
(lp241
g233
aa(lp242
g231
aasg2
F1.0
ssI15
(dp243
g1
F-1.0
sg7
(lp244
(lp245
S'broader'
p246
aa(lp247
S'broadest'
p248
aasg13
(dp249
g15
g16
(g20
S'\xd5x\xe9&1\x08\xe0?'
p250
tp251
Rp252
sg26
(lp253
(g248
g246
F0.501
tp254
assg3
F0.0
sg29
(lp255
(lp256
g248
aa(lp257
g246
aasg2
F1.0
ssI16
(dp258
g1
F1.0
sg7
(lp259
(lp260
S'late'
p261
aa(lp262
S'latest'
p263
aasg13
(dp264
g15
g16
(g20
S'\xd5x\xe9&1\x08\xe0?'
p265
tp266
Rp267
sg26
(lp268
(g261
g263
F0.501
tp269
assg3
F1.0
sg29
(lp270
(lp271
g261
aa(lp272
g263
aasg2
F1.0
ssI17
(dp273
g1
F-1.0
sg7
(lp274
(lp275
S'cleaner'
p276
aa(lp277
S'cleanest'
p278
aasg13
(dp279
g15
g16
(g20
S'\xd5x\xe9&1\x08\xe0?'
p280
tp281
Rp282
sg26
(lp283
(g278
g276
F0.501
tp284
assg3
F0.0
sg29
(lp285
(lp286
g278
aa(lp287
g276
aasg2
F1.0
ssI18
(dp288
g1
F-1.0
sg7
(lp289
(lp290
S'warm'
p291
aa(lp292
S'warmest'
p293
aasg13
(dp294
g15
g16
(g20
S'\xd5x\xe9&1\x08\xe0?'
p295
tp296
Rp297
sg26
(lp298
(g293
g291
F0.501
tp299
assg3
F0.0
sg29
(lp300
(lp301
g293
aa(lp302
g291
aasg2
F1.0
ssI19
(dp303
g1
F-1.0
sg7
(lp304
(lp305
S'warmer'
p306
aa(lp307
S'warmest'
p308
aasg13
(dp309
g15
g16
(g20
S'\xd5x\xe9&1\x08\xe0?'
p310
tp311
Rp312
sg26
(lp313
(g308
g306
F0.501
tp314
assg3
F0.0
sg29
(lp315
(lp316
g308
aa(lp317
g306
aasg2
F1.0
ssI20
(dp318
g1
F-1.0
sg7
(lp319
(lp320
S'cheap'
p321
aa(lp322
S'cheapest'
p323
aasg13
(dp324
g15
g16
(g20
S'\xd5x\xe9&1\x08\xe0?'
p325
tp326
Rp327
sg26
(lp328
(g323
g321
F0.501
tp329
assg3
F0.0
sg29
(lp330
(lp331
g323
aa(lp332
g321
aasg2
F1.0
ssI21
(dp333
g1
F-1.0
sg7
(lp334
(lp335
S'weak'
p336
aa(lp337
S'weakest'
p338
aasg13
(dp339
g15
g16
(g20
S'\xd5x\xe9&1\x08\xe0?'
p340
tp341
Rp342
sg26
(lp343
(g338
g336
F0.501
tp344
assg3
F0.0
sg29
(lp345
(lp346
g338
aa(lp347
g336
aasg2
F1.0
ssI22
(dp348
g1
F-1.0
sg7
(lp349
(lp350
S'quicker'
p351
aa(lp352
S'quickest'
p353
aasg13
(dp354
g15
g16
(g20
S'\xd5x\xe9&1\x08\xe0?'
p355
tp356
Rp357
sg26
(lp358
(g353
g351
F0.501
tp359
assg3
F0.0
sg29
(lp360
(lp361
g353
aa(lp362
g351
aasg2
F1.0
ssI23
(dp363
g1
F-1.0
sg7
(lp364
(lp365
S'clean'
p366
aa(lp367
S'cleanest'
p368
aasg13
(dp369
g15
g16
(g20
S'\xd5x\xe9&1\x08\xe0?'
p370
tp371
Rp372
sg26
(lp373
(g368
g366
F0.501
tp374
assg3
F0.0
sg29
(lp375
(lp376
g368
aa(lp377
g366
aasg2
F1.0
ssI24
(dp378
g1
F-1.0
sg7
(lp379
(lp380
S'heavier'
p381
aa(lp382
S'heaviest'
p383
aasg13
(dp384
g15
g16
(g20
S'\xd5x\xe9&1\x08\xe0?'
p385
tp386
Rp387
sg26
(lp388
(g383
g381
F0.501
tp389
assg3
F0.0
sg29
(lp390
(lp391
g383
aa(lp392
g381
aasg2
F1.0
ssI25
(dp393
g1
F-1.0
sg7
(lp394
(lp395
S'friendly'
p396
aa(lp397
S'friendlier'
p398
aasg13
(dp399
g15
g16
(g20
S'\xd5x\xe9&1\x08\xe0?'
p400
tp401
Rp402
sg26
(lp403
(g398
g396
F0.501
tp404
assg3
F0.0
sg29
(lp405
(lp406
g398
aa(lp407
g396
aasg2
F1.0
ssI26
(dp408
g1
F1.0
sg7
(lp409
(lp410
S'many'
p411
aa(lp412
S'more'
p413
aasg13
(dp414
g15
g16
(g20
S'\xd5x\xe9&1\x08\xe0?'
p415
tp416
Rp417
sg26
(lp418
(g411
g413
F0.501
tp419
assg3
F1.0
sg29
(lp420
(lp421
g411
aa(lp422
g413
aasg2
F1.0
ssI27
(dp423
g1
F-1.0
sg7
(lp424
(lp425
S'free'
p426
aa(lp427
S'freer'
p428
aasg13
(dp429
g15
g16
(g20
S'\xd5x\xe9&1\x08\xe0?'
p430
tp431
Rp432
sg26
(lp433
(g428
g426
F0.501
tp434
assg3
F0.0
sg29
(lp435
(lp436
g428
aa(lp437
g426
aasg2
F1.0
ssI28
(dp438
g1
F-1.0
sg7
(lp439
(lp440
S'bright'
p441
aa(lp442
S'brightest'
p443
aasg13
(dp444
g15
g16
(g20
S'\xd5x\xe9&1\x08\xe0?'
p445
tp446
Rp447
sg26
(lp448
(g443
g441
F0.501
tp449
assg3
F0.0
sg29
(lp450
(lp451
g443
aa(lp452
g441
aasg2
F1.0
ssI29
(dp453
g1
F1.0
sg7
(lp454
(lp455
g261
aa(lp456
g263
aasg13
(dp457
g15
g16
(g20
S'\xd5x\xe9&1\x08\xe0?'
p458
tp459
Rp460
sg26
(lp461
(g261
g263
F0.501
tp462
assg3
F1.0
sg29
(lp463
(lp464
g261
aa(lp465
g263
aasg2
F1.0
ssI30
(dp466
g1
F-1.0
sg7
(lp467
(lp468
S'brighter'
p469
aa(lp470
g443
aasg13
(dp471
g15
g16
(g20
S'\xd5x\xe9&1\x08\xe0?'
p472
tp473
Rp474
sg26
(lp475
(g443
g469
F0.501
tp476
assg3
F0.0
sg29
(lp477
(lp478
g443
aa(lp479
g469
aasg2
F1.0
ssI31
(dp480
g1
F-1.0
sg7
(lp481
(lp482
S'shorter'
p483
aa(lp484
S'shortest'
p485
aasg13
(dp486
g15
g16
(g20
S'\xd5x\xe9&1\x08\xe0?'
p487
tp488
Rp489
sg26
(lp490
(g485
g483
F0.501
tp491
assg3
F0.0
sg29
(lp492
(lp493
g485
aa(lp494
g483
aasg2
F1.0
ssI32
(dp495
g1
F-1.0
sg7
(lp496
(lp497
g426
aa(lp498
g428
aasg13
(dp499
g15
g16
(g20
S'\xd5x\xe9&1\x08\xe0?'
p500
tp501
Rp502
sg26
(lp503
(g428
g426
F0.501
tp504
assg3
F0.0
sg29
(lp505
(lp506
g428
aa(lp507
g426
aasg2
F1.0
ssI33
(dp508
g1
F1.0
sg7
(lp509
(lp510
S'little'
p511
aa(lp512
S'least'
p513
aasg13
(dp514
g15
g16
(g20
S'\xd5x\xe9&1\x08\xe0?'
p515
tp516
Rp517
sg26
(lp518
(g511
g513
F0.501
tp519
assg3
F1.0
sg29
(lp520
(lp521
g511
aa(lp522
g513
aasg2
F1.0
ssI34
(dp523
g1
F-1.0
sg7
(lp524
(lp525
S'green'
p526
aa(lp527
S'greener'
p528
aasg13
(dp529
g15
g16
(g20
S'\xd5x\xe9&1\x08\xe0?'
p530
tp531
Rp532
sg26
(lp533
(g528
g526
F0.501
tp534
assg3
F0.0
sg29
(lp535
(lp536
g528
aa(lp537
g526
aasg2
F1.0
ssI35
(dp538
g1
F-1.0
sg7
(lp539
(lp540
S'freer'
p541
aa(lp542
S'freest'
p543
aasg13
(dp544
g15
g16
(g20
S'\xd5x\xe9&1\x08\xe0?'
p545
tp546
Rp547
sg26
(lp548
(g543
g541
F0.501
tp549
assg3
F0.0
sg29
(lp550
(lp551
g543
aa(lp552
g541
aasg2
F1.0
ssI36
(dp553
g1
F-1.0
sg7
(lp554
(lp555
S'rarer'
p556
aa(lp557
S'rarest'
p558
aasg13
(dp559
g15
g16
(g20
S'\xd5x\xe9&1\x08\xe0?'
p560
tp561
Rp562
sg26
(lp563
(g558
g556
F0.501
tp564
assg3
F0.0
sg29
(lp565
(lp566
g558
aa(lp567
g556
aasg2
F1.0
ssI37
(dp568
g1
F-1.0
sg7
(lp569
(lp570
S'new'
p571
aa(lp572
S'newer'
p573
aasg13
(dp574
g15
g16
(g20
S'\xd5x\xe9&1\x08\xe0?'
p575
tp576
Rp577
sg26
(lp578
(g573
g571
F0.501
tp579
assg3
F0.0
sg29
(lp580
(lp581
g573
aa(lp582
g571
aasg2
F1.0
ssI38
(dp583
g1
F1.0
sg7
(lp584
(lp585
S'light'
p586
aa(lp587
S'lighter'
p588
aasg13
(dp589
g15
g16
(g20
S'\xd5x\xe9&1\x08\xe0?'
p590
tp591
Rp592
sg26
(lp593
(g586
g588
F0.501
tp594
assg3
F1.0
sg29
(lp595
(lp596
g586
aa(lp597
g588
aasg2
F1.0
ssI39
(dp598
g1
F-1.0
sg7
(lp599
(lp600
S'dark'
p601
aa(lp602
S'darker'
p603
aasg13
(dp604
g15
g16
(g20
S'\xd5x\xe9&1\x08\xe0?'
p605
tp606
Rp607
sg26
(lp608
(g603
g601
F0.501
tp609
assg3
F0.0
sg29
(lp610
(lp611
g603
aa(lp612
g601
aasg2
F1.0
ssI40
(dp613
g1
F1.0
sg7
(lp614
(lp615
S'richer'
p616
aa(lp617
S'richest'
p618
aasg13
(dp619
g15
g16
(g20
S'\xd5x\xe9&1\x08\xe0?'
p620
tp621
Rp622
sg26
(lp623
(g616
g618
F0.501
tp624
assg3
F1.0
sg29
(lp625
(lp626
g616
aa(lp627
g618
aasg2
F1.0
ssI41
(dp628
g1
F-1.0
sg7
(lp629
(lp630
S'old'
p631
aa(lp632
S'oldest'
p633
aasg13
(dp634
g15
g16
(g20
S'\xd5x\xe9&1\x08\xe0?'
p635
tp636
Rp637
sg26
(lp638
(g633
g631
F0.501
tp639
assg3
F0.0
sg29
(lp640
(lp641
g633
aa(lp642
g631
aasg2
F1.0
ssI42
(dp643
g1
F1.0
sg7
(lp644
(lp645
S'wealthy'
p646
aa(lp647
S'wealthiest'
p648
aasg13
(dp649
g15
g16
(g20
S'\xd5x\xe9&1\x08\xe0?'
p650
tp651
Rp652
sg26
(lp653
(g646
g648
F0.501
tp654
assg3
F1.0
sg29
(lp655
(lp656
g646
aa(lp657
g648
aasg2
F1.0
ssI43
(dp658
g1
F1.0
sg7
(lp659
(lp660
S'finer'
p661
aa(lp662
S'finest'
p663
aasg13
(dp664
g15
g16
(g20
S'\xd5x\xe9&1\x08\xe0?'
p665
tp666
Rp667
sg26
(lp668
(g661
g663
F0.501
tp669
assg3
F1.0
sg29
(lp670
(lp671
g661
aa(lp672
g663
aasg2
F1.0
ssI44
(dp673
g1
F-1.0
sg7
(lp674
(lp675
S'grave'
p676
aa(lp677
S'graver'
p678
aasg13
(dp679
g15
g16
(g20
S'\xd5x\xe9&1\x08\xe0?'
p680
tp681
Rp682
sg26
(lp683
(g678
g676
F0.501
tp684
assg3
F0.0
sg29
(lp685
(lp686
g678
aa(lp687
g676
aasg2
F1.0
ssI45
(dp688
g1
F-1.0
sg7
(lp689
(lp690
S'clever'
p691
aa(lp692
S'cleverer'
p693
aasg13
(dp694
g15
g16
(g20
S'\xd5x\xe9&1\x08\xe0?'
p695
tp696
Rp697
sg26
(lp698
(g693
g691
F0.501
tp699
assg3
F0.0
sg29
(lp700
(lp701
g693
aa(lp702
g691
aasg2
F1.0
ssI46
(dp703
g1
F-1.0
sg7
(lp704
(lp705
g351
aa(lp706
g353
aasg13
(dp707
g15
g16
(g20
S'\xd5x\xe9&1\x08\xe0?'
p708
tp709
Rp710
sg26
(lp711
(g353
g351
F0.501
tp712
assg3
F0.0
sg29
(lp713
(lp714
g353
aa(lp715
g351
aasg2
F1.0
ssI47
(dp716
g1
F1.0
sg7
(lp717
(lp718
S'big'
p719
aa(lp720
S'biggest'
p721
aasg13
(dp722
g15
g16
(g20
S'\xd5x\xe9&1\x08\xe0?'
p723
tp724
Rp725
sg26
(lp726
(g719
g721
F0.501
tp727
assg3
F1.0
sg29
(lp728
(lp729
g719
aa(lp730
g721
aasg2
F1.0
ssI48
(dp731
g1
F-1.0
sg7
(lp732
(lp733
g573
aa(lp734
S'newest'
p735
aasg13
(dp736
g15
g16
(g20
S'\xd5x\xe9&1\x08\xe0?'
p737
tp738
Rp739
sg26
(lp740
(g735
g573
F0.501
tp741
assg3
F0.0
sg29
(lp742
(lp743
g735
aa(lp744
g573
aasg2
F1.0
ssI49
(dp745
g1
F-1.0
sg7
(lp746
(lp747
S'larger'
p748
aa(lp749
S'largest'
p750
aasg13
(dp751
g15
g16
(g20
S'\xd5x\xe9&1\x08\xe0?'
p752
tp753
Rp754
sg26
(lp755
(g750
g748
F0.501
tp756
assg3
F0.0
sg29
(lp757
(lp758
g750
aa(lp759
g748
aasg2
F1.0
ssI50
(dp760
g1
F1.0
sg7
(lp761
(lp762
S'bold'
p763
aa(lp764
S'bolder'
p765
aasg13
(dp766
g15
g16
(g20
S'\xd5x\xe9&1\x08\xe0?'
p767
tp768
Rp769
sg26
(lp770
(g763
g765
F0.501
tp771
assg3
F1.0
sg29
(lp772
(lp773
g763
aa(lp774
g765
aasg2
F1.0
ssI51
(dp775
g1
F-1.0
sg7
(lp776
(lp777
S'new'
p778
aa(lp779
S'newer'
p780
aasg13
(dp781
g15
g16
(g20
S'\xd5x\xe9&1\x08\xe0?'
p782
tp783
Rp784
sg26
(lp785
(g780
g778
F0.501
tp786
assg3
F0.0
sg29
(lp787
(lp788
g780
aa(lp789
g778
aasg2
F1.0
ssI52
(dp790
g1
F-1.0
sg7
(lp791
(lp792
S'fair'
p793
aa(lp794
S'fairest'
p795
aasg13
(dp796
g15
g16
(g20
S'\xd5x\xe9&1\x08\xe0?'
p797
tp798
Rp799
sg26
(lp800
(g795
g793
F0.501
tp801
assg3
F0.0
sg29
(lp802
(lp803
g795
aa(lp804
g793
aasg2
F1.0
ssI53
(dp805
g1
F1.0
sg7
(lp806
(lp807
S'graver'
p808
aa(lp809
S'gravest'
p810
aasg13
(dp811
g15
g16
(g20
S'\xd5x\xe9&1\x08\xe0?'
p812
tp813
Rp814
sg26
(lp815
(g808
g810
F0.501
tp816
assg3
F1.0
sg29
(lp817
(lp818
g808
aa(lp819
g810
aasg2
F1.0
ssI54
(dp820
g1
F-1.0
sg7
(lp821
(lp822
S'fair'
p823
aa(lp824
S'fairer'
p825
aasg13
(dp826
g15
g16
(g20
S'\xd5x\xe9&1\x08\xe0?'
p827
tp828
Rp829
sg26
(lp830
(g825
g823
F0.501
tp831
assg3
F0.0
sg29
(lp832
(lp833
g825
aa(lp834
g823
aasg2
F1.0
ssI55
(dp835
g1
F-1.0
sg7
(lp836
(lp837
g216
aa(lp838
S'darker'
p839
aasg13
(dp840
g15
g16
(g20
S'\xd5x\xe9&1\x08\xe0?'
p841
tp842
Rp843
sg26
(lp844
(g839
g216
F0.501
tp845
assg3
F0.0
sg29
(lp846
(lp847
g839
aa(lp848
g216
aasg2
F1.0
ssI56
(dp849
g1
F-1.0
sg7
(lp850
(lp851
S'brave'
p852
aa(lp853
S'bravest'
p854
aasg13
(dp855
g15
g16
(g20
S'\xd5x\xe9&1\x08\xe0?'
p856
tp857
Rp858
sg26
(lp859
(g854
g852
F0.501
tp860
assg3
F0.0
sg29
(lp861
(lp862
g854
aa(lp863
g852
aasg2
F1.0
ssI57
(dp864
g1
F-1.0
sg7
(lp865
(lp866
S'up'
p867
aa(lp868
S'upper'
p869
aasg13
(dp870
g15
g16
(g20
S'\xd5x\xe9&1\x08\xe0?'
p871
tp872
Rp873
sg26
(lp874
(g869
g867
F0.501
tp875
assg3
F0.0
sg29
(lp876
(lp877
g869
aa(lp878
g867
aasg2
F1.0
ssI58
(dp879
g1
F1.0
sg7
(lp880
(lp881
S'near'
p882
aa(lp883
S'nearest'
p884
aasg13
(dp885
g15
g16
(g20
S'\xd5x\xe9&1\x08\xe0?'
p886
tp887
Rp888
sg26
(lp889
(g882
g884
F0.501
tp890
assg3
F1.0
sg29
(lp891
(lp892
g882
aa(lp893
g884
aasg2
F1.0
ssI59
(dp894
g1
F1.0
sg7
(lp895
(lp896
g763
aa(lp897
g765
aasg13
(dp898
g15
g16
(g20
S'\xd5x\xe9&1\x08\xe0?'
p899
tp900
Rp901
sg26
(lp902
(g763
g765
F0.501
tp903
assg3
F1.0
sg29
(lp904
(lp905
g763
aa(lp906
g765
aasg2
F1.0
ssI60
(dp907
g1
F-1.0
sg7
(lp908
(lp909
S'dumb'
p910
aa(lp911
S'dumber'
p912
aasg13
(dp913
g15
g16
(g20
S'\xd5x\xe9&1\x08\xe0?'
p914
tp915
Rp916
sg26
(lp917
(g912
g910
F0.501
tp918
assg3
F0.0
sg29
(lp919
(lp920
g912
aa(lp921
g910
aasg2
F1.0
ssI61
(dp922
g1
F-1.0
sg7
(lp923
(lp924
g839
aa(lp925
g218
aasg13
(dp926
g15
g16
(g20
S'\xd5x\xe9&1\x08\xe0?'
p927
tp928
Rp929
sg26
(lp930
(g218
g839
F0.501
tp931
assg3
F0.0
sg29
(lp932
(lp933
g218
aa(lp934
g839
aasg2
F1.0
ssI62
(dp935
g1
F-1.0
sg7
(lp936
(lp937
S'simpler'
p938
aa(lp939
S'simplest'
p940
aasg13
(dp941
g15
g16
(g20
S'\xd5x\xe9&1\x08\xe0?'
p942
tp943
Rp944
sg26
(lp945
(g940
g938
F0.501
tp946
assg3
F0.0
sg29
(lp947
(lp948
g940
aa(lp949
g938
aasg2
F1.0
ssI63
(dp950
g1
F-1.0
sg7
(lp951
(lp952
S'brave'
p953
aa(lp954
S'braver'
p955
aasg13
(dp956
g15
g16
(g20
S'\xd5x\xe9&1\x08\xe0?'
p957
tp958
Rp959
sg26
(lp960
(g955
g953
F0.501
tp961
assg3
F0.0
sg29
(lp962
(lp963
g955
aa(lp964
g953
aasg2
F1.0
ssI64
(dp965
g1
F-1.0
sg7
(lp966
(lp967
S'closer'
p968
aa(lp969
S'closest'
p970
aasg13
(dp971
g15
g16
(g20
S'\xd5x\xe9&1\x08\xe0?'
p972
tp973
Rp974
sg26
(lp975
(g970
g968
F0.501
tp976
assg3
F0.0
sg29
(lp977
(lp978
g970
aa(lp979
g968
aasg2
F1.0
ssI65
(dp980
g1
F-1.0
sg7
(lp981
(lp982
S'older'
p983
aa(lp984
g633
aasg13
(dp985
g15
g16
(g20
S'\xd5x\xe9&1\x08\xe0?'
p986
tp987
Rp988
sg26
(lp989
(g633
g983
F0.501
tp990
assg3
F0.0
sg29
(lp991
(lp992
g633
aa(lp993
g983
aasg2
F1.0
ssI66
(dp994
g1
F-1.0
sg7
(lp995
(lp996
S'scarce'
p997
aa(lp998
S'scarcer'
p999
aasg13
(dp1000
g15
g16
(g20
S'\xd5x\xe9&1\x08\xe0?'
p1001
tp1002
Rp1003
sg26
(lp1004
(g999
g997
F0.501
tp1005
assg3
F0.0
sg29
(lp1006
(lp1007
g999
aa(lp1008
g997
aasg2
F1.0
ssI67
(dp1009
g1
F-1.0
sg7
(lp1010
(lp1011
g336
aa(lp1012
g338
aasg13
(dp1013
g15
g16
(g20
S'\xd5x\xe9&1\x08\xe0?'
p1014
tp1015
Rp1016
sg26
(lp1017
(g338
g336
F0.501
tp1018
assg3
F0.0
sg29
(lp1019
(lp1020
g338
aa(lp1021
g336
aasg2
F1.0
ssI68
(dp1022
g1
F1.0
sg7
(lp1023
(lp1024
S'early'
p1025
aa(lp1026
S'earliest'
p1027
aasg13
(dp1028
g15
g16
(g20
S'\xd5x\xe9&1\x08\xe0?'
p1029
tp1030
Rp1031
sg26
(lp1032
(g1025
g1027
F0.501
tp1033
assg3
F1.0
sg29
(lp1034
(lp1035
g1025
aa(lp1036
g1027
aasg2
F1.0
ssI69
(dp1037
g1
F-1.0
sg7
(lp1038
(lp1039
S'smart'
p1040
aa(lp1041
S'smartest'
p1042
aasg13
(dp1043
g15
g16
(g20
S'\xd5x\xe9&1\x08\xe0?'
p1044
tp1045
Rp1046
sg26
(lp1047
(g1042
g1040
F0.501
tp1048
assg3
F0.0
sg29
(lp1049
(lp1050
g1042
aa(lp1051
g1040
aasg2
F1.0
ssI70
(dp1052
g1
F1.0
sg7
(lp1053
(lp1054
S'ill'
p1055
aa(lp1056
S'worse'
p1057
aasg13
(dp1058
g15
g16
(g20
S'\xd5x\xe9&1\x08\xe0?'
p1059
tp1060
Rp1061
sg26
(lp1062
(g1055
g1057
F0.501
tp1063
assg3
F1.0
sg29
(lp1064
(lp1065
g1055
aa(lp1066
g1057
aasg2
F1.0
ssI71
(dp1067
g1
F-1.0
sg7
(lp1068
(lp1069
S'weird'
p1070
aa(lp1071
S'weirder'
p1072
aasg13
(dp1073
g15
g16
(g20
S'\xd5x\xe9&1\x08\xe0?'
p1074
tp1075
Rp1076
sg26
(lp1077
(g1072
g1070
F0.501
tp1078
assg3
F0.0
sg29
(lp1079
(lp1080
g1072
aa(lp1081
g1070
aasg2
F1.0
ssI72
(dp1082
g1
F-1.0
sg7
(lp1083
(lp1084
S'lovely'
p1085
aa(lp1086
S'lovelier'
p1087
aasg13
(dp1088
g15
g16
(g20
S'\xd5x\xe9&1\x08\xe0?'
p1089
tp1090
Rp1091
sg26
(lp1092
(g1087
g1085
F0.501
tp1093
assg3
F0.0
sg29
(lp1094
(lp1095
g1087
aa(lp1096
g1085
aasg2
F1.0
ssI73
(dp1097
g1
F-1.0
sg7
(lp1098
(lp1099
g483
aa(lp1100
g485
aasg13
(dp1101
g15
g16
(g20
S'\xd5x\xe9&1\x08\xe0?'
p1102
tp1103
Rp1104
sg26
(lp1105
(g485
g483
F0.501
tp1106
assg3
F0.0
sg29
(lp1107
(lp1108
g485
aa(lp1109
g483
aasg2
F1.0
ssI74
(dp1110
g1
F1.0
sg7
(lp1111
(lp1112
S'wealthy'
p1113
aa(lp1114
S'wealthiest'
p1115
aasg13
(dp1116
g15
g16
(g20
S'\xd5x\xe9&1\x08\xe0?'
p1117
tp1118
Rp1119
sg26
(lp1120
(g1113
g1115
F0.501
tp1121
assg3
F1.0
sg29
(lp1122
(lp1123
g1113
aa(lp1124
g1115
aasg2
F1.0
ssI75
(dp1125
g1
F1.0
sg7
(lp1126
(lp1127
S'quick'
p1128
aa(lp1129
S'quickest'
p1130
aasg13
(dp1131
g15
g16
(g20
S'\xd5x\xe9&1\x08\xe0?'
p1132
tp1133
Rp1134
sg26
(lp1135
(g1128
g1130
F0.501
tp1136
assg3
F1.0
sg29
(lp1137
(lp1138
g1128
aa(lp1139
g1130
aasg2
F1.0
ssI76
(dp1140
g1
F-1.0
sg7
(lp1141
(lp1142
S'steep'
p1143
aa(lp1144
S'steeper'
p1145
aasg13
(dp1146
g15
g16
(g20
S'\xd5x\xe9&1\x08\xe0?'
p1147
tp1148
Rp1149
sg26
(lp1150
(g1145
g1143
F0.501
tp1151
assg3
F0.0
sg29
(lp1152
(lp1153
g1145
aa(lp1154
g1143
aasg2
F1.0
ssI77
(dp1155
g1
F-1.0
sg7
(lp1156
(lp1157
S'long'
p1158
aa(lp1159
S'longest'
p1160
aasg13
(dp1161
g15
g16
(g20
S'\xd5x\xe9&1\x08\xe0?'
p1162
tp1163
Rp1164
sg26
(lp1165
(g1160
g1158
F0.501
tp1166
assg3
F0.0
sg29
(lp1167
(lp1168
g1160
aa(lp1169
g1158
aasg2
F1.0
ssI78
(dp1170
g1
F1.0
sg7
(lp1171
(lp1172
S'fine'
p1173
aa(lp1174
S'finest'
p1175
aasg13
(dp1176
g15
g16
(g20
S'\xd5x\xe9&1\x08\xe0?'
p1177
tp1178
Rp1179
sg26
(lp1180
(g1173
g1175
F0.501
tp1181
assg3
F1.0
sg29
(lp1182
(lp1183
g1173
aa(lp1184
g1175
aasg2
F1.0
ssI79
(dp1185
g1
F-1.0
sg7
(lp1186
(lp1187
g81
aa(lp1188
g83
aasg13
(dp1189
g15
g16
(g20
S'V\x0e-\xb2\x9d\xef\xdf?'
p1190
tp1191
Rp1192
sg26
(lp1193
(g83
g81
F0.499
tp1194
assg3
F0.0
sg29
(lp1195
(lp1196
g83
aa(lp1197
g81
aasg2
F1.0
ssI80
(dp1198
g1
F1.0
sg7
(lp1199
(lp1200
g156
aa(lp1201
g158
aasg13
(dp1202
g15
g16
(g20
S'\xd5x\xe9&1\x08\xe0?'
p1203
tp1204
Rp1205
sg26
(lp1206
(g156
g158
F0.501
tp1207
assg3
F1.0
sg29
(lp1208
(lp1209
g156
aa(lp1210
g158
aasg2
F1.0
ssI81
(dp1211
g1
F-1.0
sg7
(lp1212
(lp1213
S'wider'
p1214
aa(lp1215
S'widest'
p1216
aasg13
(dp1217
g15
g16
(g20
S'\xd5x\xe9&1\x08\xe0?'
p1218
tp1219
Rp1220
sg26
(lp1221
(g1216
g1214
F0.501
tp1222
assg3
F0.0
sg29
(lp1223
(lp1224
g1216
aa(lp1225
g1214
aasg2
F1.0
ssI82
(dp1226
g1
F-1.0
sg7
(lp1227
(lp1228
S'close'
p1229
aa(lp1230
S'closest'
p1231
aasg13
(dp1232
g15
g16
(g20
S'\xd5x\xe9&1\x08\xe0?'
p1233
tp1234
Rp1235
sg26
(lp1236
(g1231
g1229
F0.501
tp1237
assg3
F0.0
sg29
(lp1238
(lp1239
g1231
aa(lp1240
g1229
aasg2
F1.0
ssI83
(dp1241
g1
F-1.0
sg7
(lp1242
(lp1243
S'poorer'
p1244
aa(lp1245
S'poorest'
p1246
aasg13
(dp1247
g15
g16
(g20
S'\xd5x\xe9&1\x08\xe0?'
p1248
tp1249
Rp1250
sg26
(lp1251
(g1246
g1244
F0.501
tp1252
assg3
F0.0
sg29
(lp1253
(lp1254
g1246
aa(lp1255
g1244
aasg2
F1.0
ssI84
(dp1256
g1
F-1.0
sg7
(lp1257
(lp1258
S'free'
p1259
aa(lp1260
S'freer'
p1261
aasg13
(dp1262
g15
g16
(g20
S'\xd5x\xe9&1\x08\xe0?'
p1263
tp1264
Rp1265
sg26
(lp1266
(g1261
g1259
F0.501
tp1267
assg3
F0.0
sg29
(lp1268
(lp1269
g1261
aa(lp1270
g1259
aasg2
F1.0
ssI85
(dp1271
g1
F-1.0
sg7
(lp1272
(lp1273
S'small'
p1274
aa(lp1275
S'smallest'
p1276
aasg13
(dp1277
g15
g16
(g20
S'\xd5x\xe9&1\x08\xe0?'
p1278
tp1279
Rp1280
sg26
(lp1281
(g1276
g1274
F0.501
tp1282
assg3
F0.0
sg29
(lp1283
(lp1284
g1276
aa(lp1285
g1274
aasg2
F1.0
ssI86
(dp1286
g1
F-1.0
sg7
(lp1287
(lp1288
S'long'
p1289
aa(lp1290
S'longest'
p1291
aasg13
(dp1292
g15
g16
(g20
S'\xd5x\xe9&1\x08\xe0?'
p1293
tp1294
Rp1295
sg26
(lp1296
(g1291
g1289
F0.501
tp1297
assg3
F0.0
sg29
(lp1298
(lp1299
g1291
aa(lp1300
g1289
aasg2
F1.0
ssI87
(dp1301
g1
F1.0
sg7
(lp1302
(lp1303
S'richer'
p1304
aa(lp1305
S'richest'
p1306
aasg13
(dp1307
g15
g16
(g20
S'\xd5x\xe9&1\x08\xe0?'
p1308
tp1309
Rp1310
sg26
(lp1311
(g1304
g1306
F0.501
tp1312
assg3
F1.0
sg29
(lp1313
(lp1314
g1304
aa(lp1315
g1306
aasg2
F1.0
ssI88
(dp1316
g1
F1.0
sg7
(lp1317
(lp1318
S'rich'
p1319
aa(lp1320
g618
aasg13
(dp1321
g15
g16
(g20
S'\xd5x\xe9&1\x08\xe0?'
p1322
tp1323
Rp1324
sg26
(lp1325
(g1319
g618
F0.501
tp1326
assg3
F1.0
sg29
(lp1327
(lp1328
g1319
aa(lp1329
g618
aasg2
F1.0
ssI89
(dp1330
g1
F1.0
sg7
(lp1331
(lp1332
S'smaller'
p1333
aa(lp1334
g1276
aasg13
(dp1335
g15
g16
(g20
S'\xd5x\xe9&1\x08\xe0?'
p1336
tp1337
Rp1338
sg26
(lp1339
(g1333
g1276
F0.501
tp1340
assg3
F1.0
sg29
(lp1341
(lp1342
g1333
aa(lp1343
g1276
aasg2
F1.0
ssI90
(dp1344
g1
F-1.0
sg7
(lp1345
(lp1346
g396
aa(lp1347
g398
aasg13
(dp1348
g15
g16
(g20
S'\xd5x\xe9&1\x08\xe0?'
p1349
tp1350
Rp1351
sg26
(lp1352
(g398
g396
F0.501
tp1353
assg3
F0.0
sg29
(lp1354
(lp1355
g398
aa(lp1356
g396
aasg2
F1.0
ssI91
(dp1357
g1
F-1.0
sg7
(lp1358
(lp1359
S'simple'
p1360
aa(lp1361
S'simplest'
p1362
aasg13
(dp1363
g15
g16
(g20
S'\xd5x\xe9&1\x08\xe0?'
p1364
tp1365
Rp1366
sg26
(lp1367
(g1362
g1360
F0.501
tp1368
assg3
F0.0
sg29
(lp1369
(lp1370
g1362
aa(lp1371
g1360
aasg2
F1.0
ssI92
(dp1372
g1
F-1.0
sg7
(lp1373
(lp1374
S'stricter'
p1375
aa(lp1376
S'strictest'
p1377
aasg13
(dp1378
g15
g16
(g20
S'\xd5x\xe9&1\x08\xe0?'
p1379
tp1380
Rp1381
sg26
(lp1382
(g1377
g1375
F0.501
tp1383
assg3
F0.0
sg29
(lp1384
(lp1385
g1377
aa(lp1386
g1375
aasg2
F1.0
ssI93
(dp1387
g1
F1.0
sg7
(lp1388
(lp1389
S'short'
p1390
aa(lp1391
S'shortest'
p1392
aasg13
(dp1393
g15
g16
(g20
S'\xd5x\xe9&1\x08\xe0?'
p1394
tp1395
Rp1396
sg26
(lp1397
(g1390
g1392
F0.501
tp1398
assg3
F1.0
sg29
(lp1399
(lp1400
g1390
aa(lp1401
g1392
aasg2
F1.0
ssI94
(dp1402
g1
F1.0
sg7
(lp1403
(lp1404
g1025
aa(lp1405
S'earlier'
p1406
aasg13
(dp1407
g15
g16
(g20
S'\xd5x\xe9&1\x08\xe0?'
p1408
tp1409
Rp1410
sg26
(lp1411
(g1025
g1406
F0.501
tp1412
assg3
F1.0
sg29
(lp1413
(lp1414
g1025
aa(lp1415
g1406
aasg2
F1.0
ssI95
(dp1416
g1
F-1.0
sg7
(lp1417
(lp1418
g171
aa(lp1419
g173
aasg13
(dp1420
g15
g16
(g20
S'\xd5x\xe9&1\x08\xe0?'
p1421
tp1422
Rp1423
sg26
(lp1424
(g173
g171
F0.501
tp1425
assg3
F0.0
sg29
(lp1426
(lp1427
g173
aa(lp1428
g171
aasg2
F1.0
ssI96
(dp1429
g1
F-1.0
sg7
(lp1430
(lp1431
S'stark'
p1432
aa(lp1433
S'starker'
p1434
aasg13
(dp1435
g15
g16
(g20
S'\xd5x\xe9&1\x08\xe0?'
p1436
tp1437
Rp1438
sg26
(lp1439
(g1434
g1432
F0.501
tp1440
assg3
F0.0
sg29
(lp1441
(lp1442
g1434
aa(lp1443
g1432
aasg2
F1.0
ssI97
(dp1444
g1
F-1.0
sg7
(lp1445
(lp1446
S'full'
p1447
aa(lp1448
S'fuller'
p1449
aasg13
(dp1450
g15
g16
(g20
S'\xd5x\xe9&1\x08\xe0?'
p1451
tp1452
Rp1453
sg26
(lp1454
(g1449
g1447
F0.501
tp1455
assg3
F0.0
sg29
(lp1456
(lp1457
g1449
aa(lp1458
g1447
aasg2
F1.0
ssI98
(dp1459
g1
F-1.0
sg7
(lp1460
(lp1461
S'heavy'
p1462
aa(lp1463
S'heaviest'
p1464
aasg13
(dp1465
g15
g16
(g20
S'\xd5x\xe9&1\x08\xe0?'
p1466
tp1467
Rp1468
sg26
(lp1469
(g1464
g1462
F0.501
tp1470
assg3
F0.0
sg29
(lp1471
(lp1472
g1464
aa(lp1473
g1462
aasg2
F1.0
ssI99
(dp1474
g1
F-1.0
sg7
(lp1475
(lp1476
g1289
aa(lp1477
g1291
aasg13
(dp1478
g15
g16
(g20
S'\xd5x\xe9&1\x08\xe0?'
p1479
tp1480
Rp1481
sg26
(lp1482
(g1291
g1289
F0.501
tp1483
assg3
F0.0
sg29
(lp1484
(lp1485
g1291
aa(lp1486
g1289
aasg2
F1.0
ssI100
(dp1487
g1
F-1.0
sg7
(lp1488
(lp1489
S'dry'
p1490
aa(lp1491
S'drier'
p1492
aasg13
(dp1493
g15
g16
(g20
S'\xd5x\xe9&1\x08\xe0?'
p1494
tp1495
Rp1496
sg26
(lp1497
(g1492
g1490
F0.501
tp1498
assg3
F0.0
sg29
(lp1499
(lp1500
g1492
aa(lp1501
g1490
aasg2
F1.0
ssI101
(dp1502
g1
F-1.0
sg7
(lp1503
(lp1504
S'bigger'
p1505
aa(lp1506
g721
aasg13
(dp1507
g15
g16
(g20
S'\xd5x\xe9&1\x08\xe0?'
p1508
tp1509
Rp1510
sg26
(lp1511
(g721
g1505
F0.501
tp1512
assg3
F0.0
sg29
(lp1513
(lp1514
g721
aa(lp1515
g1505
aasg2
F1.0
ssI102
(dp1516
g1
F-1.0
sg7
(lp1517
(lp1518
S'hard'
p1519
aa(lp1520
S'hardest'
p1521
aasg13
(dp1522
g15
g16
(g20
S'\xd5x\xe9&1\x08\xe0?'
p1523
tp1524
Rp1525
sg26
(lp1526
(g1521
g1519
F0.501
tp1527
assg3
F0.0
sg29
(lp1528
(lp1529
g1521
aa(lp1530
g1519
aasg2
F1.0
ssI103
(dp1531
g1
F-1.0
sg7
(lp1532
(lp1533
S'smarter'
p1534
aa(lp1535
S'smartest'
p1536
aasg13
(dp1537
g15
g16
(g20
S'\xd5x\xe9&1\x08\xe0?'
p1538
tp1539
Rp1540
sg26
(lp1541
(g1536
g1534
F0.501
tp1542
assg3
F0.0
sg29
(lp1543
(lp1544
g1536
aa(lp1545
g1534
aasg2
F1.0
ssI104
(dp1546
g1
F1.0
sg7
(lp1547
(lp1548
g1113
aa(lp1549
g1115
aasg13
(dp1550
g15
g16
(g20
S'\xd5x\xe9&1\x08\xe0?'
p1551
tp1552
Rp1553
sg26
(lp1554
(g1113
g1115
F0.501
tp1555
assg3
F1.0
sg29
(lp1556
(lp1557
g1113
aa(lp1558
g1115
aasg2
F1.0
ssI105
(dp1559
g1
F1.0
sg7
(lp1560
(lp1561
g411
aa(lp1562
g413
aasg13
(dp1563
g15
g16
(g20
S'\xd5x\xe9&1\x08\xe0?'
p1564
tp1565
Rp1566
sg26
(lp1567
(g411
g413
F0.501
tp1568
assg3
F1.0
sg29
(lp1569
(lp1570
g411
aa(lp1571
g413
aasg2
F1.0
ssI106
(dp1572
g1
F1.0
sg7
(lp1573
(lp1574
g511
aa(lp1575
g513
aasg13
(dp1576
g15
g16
(g20
S'\xd5x\xe9&1\x08\xe0?'
p1577
tp1578
Rp1579
sg26
(lp1580
(g511
g513
F0.501
tp1581
assg3
F1.0
sg29
(lp1582
(lp1583
g511
aa(lp1584
g513
aasg2
F1.0
ssI107
(dp1585
g1
F1.0
sg7
(lp1586
(lp1587
S'less'
p1588
aa(lp1589
g513
aasg13
(dp1590
g15
g16
(g20
S'\xd5x\xe9&1\x08\xe0?'
p1591
tp1592
Rp1593
sg26
(lp1594
(g1588
g513
F0.501
tp1595
assg3
F1.0
sg29
(lp1596
(lp1597
g1588
aa(lp1598
g513
aasg2
F1.0
ssI108
(dp1599
g1
F-1.0
sg7
(lp1600
(lp1601
g428
aa(lp1602
S'freest'
p1603
aasg13
(dp1604
g15
g16
(g20
S'\xd5x\xe9&1\x08\xe0?'
p1605
tp1606
Rp1607
sg26
(lp1608
(g1603
g428
F0.501
tp1609
assg3
F0.0
sg29
(lp1610
(lp1611
g1603
aa(lp1612
g428
aasg2
F1.0
ssI109
(dp1613
g1
F1.0
sg7
(lp1614
(lp1615
S'narrow'
p1616
aa(lp1617
S'narrower'
p1618
aasg13
(dp1619
g15
g16
(g20
S'\xd5x\xe9&1\x08\xe0?'
p1620
tp1621
Rp1622
sg26
(lp1623
(g1616
g1618
F0.501
tp1624
assg3
F1.0
sg29
(lp1625
(lp1626
g1616
aa(lp1627
g1618
aasg2
F1.0
ssI110
(dp1628
g1
F-1.0
sg7
(lp1629
(lp1630
S'harder'
p1631
aa(lp1632
S'hardest'
p1633
aasg13
(dp1634
g15
g16
(g20
S'\xd5x\xe9&1\x08\xe0?'
p1635
tp1636
Rp1637
sg26
(lp1638
(g1633
g1631
F0.501
tp1639
assg3
F0.0
sg29
(lp1640
(lp1641
g1633
aa(lp1642
g1631
aasg2
F1.0
ssI111
(dp1643
g1
F-1.0
sg7
(lp1644
(lp1645
S'easier'
p1646
aa(lp1647
S'easiest'
p1648
aasg13
(dp1649
g15
g16
(g20
S'\xd5x\xe9&1\x08\xe0?'
p1650
tp1651
Rp1652
sg26
(lp1653
(g1648
g1646
F0.501
tp1654
assg3
F0.0
sg29
(lp1655
(lp1656
g1648
aa(lp1657
g1646
aasg2
F1.0
ssI112
(dp1658
g1
F-1.0
sg7
(lp1659
(lp1660
S'deeper'
p1661
aa(lp1662
S'deepest'
p1663
aasg13
(dp1664
g15
g16
(g20
S'\xd5x\xe9&1\x08\xe0?'
p1665
tp1666
Rp1667
sg26
(lp1668
(g1663
g1661
F0.501
tp1669
assg3
F0.0
sg29
(lp1670
(lp1671
g1663
aa(lp1672
g1661
aasg2
F1.0
ssI113
(dp1673
g1
F1.0
sg7
(lp1674
(lp1675
S'well'
p1676
aa(lp1677
S'better'
p1678
aasg13
(dp1679
g15
g16
(g20
S'\xd5x\xe9&1\x08\xe0?'
p1680
tp1681
Rp1682
sg26
(lp1683
(g1676
g1678
F0.501
tp1684
assg3
F1.0
sg29
(lp1685
(lp1686
g1676
aa(lp1687
g1678
aasg2
F1.0
ssI114
(dp1688
g1
F-1.0
sg7
(lp1689
(lp1690
S'stronger'
p1691
aa(lp1692
S'strongest'
p1693
aasg13
(dp1694
g15
g16
(g20
S'\xd5x\xe9&1\x08\xe0?'
p1695
tp1696
Rp1697
sg26
(lp1698
(g1693
g1691
F0.501
tp1699
assg3
F0.0
sg29
(lp1700
(lp1701
g1693
aa(lp1702
g1691
aasg2
F1.0
ssI115
(dp1703
g1
F-1.0
sg7
(lp1704
(lp1705
S'mean'
p1706
aa(lp1707
S'meaner'
p1708
aasg13
(dp1709
g15
g16
(g20
S'\xd5x\xe9&1\x08\xe0?'
p1710
tp1711
Rp1712
sg26
(lp1713
(g1708
g1706
F0.501
tp1714
assg3
F0.0
sg29
(lp1715
(lp1716
g1708
aa(lp1717
g1706
aasg2
F1.0
ssI116
(dp1718
g1
F1.0
sg7
(lp1719
(lp1720
S'strict'
p1721
aa(lp1722
S'stricter'
p1723
aasg13
(dp1724
g15
g16
(g20
S'\xd5x\xe9&1\x08\xe0?'
p1725
tp1726
Rp1727
sg26
(lp1728
(g1721
g1723
F0.501
tp1729
assg3
F1.0
sg29
(lp1730
(lp1731
g1721
aa(lp1732
g1723
aasg2
F1.0
ssI117
(dp1733
g1
F-1.0
sg7
(lp1734
(lp1735
S'pure'
p1736
aa(lp1737
S'purer'
p1738
aasg13
(dp1739
g15
g16
(g20
S'\xd5x\xe9&1\x08\xe0?'
p1740
tp1741
Rp1742
sg26
(lp1743
(g1738
g1736
F0.501
tp1744
assg3
F0.0
sg29
(lp1745
(lp1746
g1738
aa(lp1747
g1736
aasg2
F1.0
ssI118
(dp1748
g1
F1.0
sg7
(lp1749
(lp1750
S'large'
p1751
aa(lp1752
g750
aasg13
(dp1753
g15
g16
(g20
S'\xd5x\xe9&1\x08\xe0?'
p1754
tp1755
Rp1756
sg26
(lp1757
(g1751
g750
F0.501
tp1758
assg3
F1.0
sg29
(lp1759
(lp1760
g1751
aa(lp1761
g750
aasg2
F1.0
ssI119
(dp1762
g1
F-1.0
sg7
(lp1763
(lp1764
S'wealthier'
p1765
aa(lp1766
S'wealthiest'
p1767
aasg13
(dp1768
g15
g16
(g20
S'\xd5x\xe9&1\x08\xe0?'
p1769
tp1770
Rp1771
sg26
(lp1772
(g1767
g1765
F0.501
tp1773
assg3
F0.0
sg29
(lp1774
(lp1775
g1767
aa(lp1776
g1765
aasg2
F1.0
ssI120
(dp1777
g1
F-1.0
sg7
(lp1778
(lp1779
S'clearer'
p1780
aa(lp1781
S'clearest'
p1782
aasg13
(dp1783
g15
g16
(g20
S'\xd5x\xe9&1\x08\xe0?'
p1784
tp1785
Rp1786
sg26
(lp1787
(g1782
g1780
F0.501
tp1788
assg3
F0.0
sg29
(lp1789
(lp1790
g1782
aa(lp1791
g1780
aasg2
F1.0
ssI121
(dp1792
g1
F-1.0
sg7
(lp1793
(lp1794
g1519
aa(lp1795
g1521
aasg13
(dp1796
g15
g16
(g20
S'\xd5x\xe9&1\x08\xe0?'
p1797
tp1798
Rp1799
sg26
(lp1800
(g1521
g1519
F0.501
tp1801
assg3
F0.0
sg29
(lp1802
(lp1803
g1521
aa(lp1804
g1519
aasg2
F1.0
ssI122
(dp1805
g1
F1.0
sg7
(lp1806
(lp1807
S'wet'
p1808
aa(lp1809
S'wetter'
p1810
aasg13
(dp1811
g15
g16
(g20
S'\xd5x\xe9&1\x08\xe0?'
p1812
tp1813
Rp1814
sg26
(lp1815
(g1808
g1810
F0.501
tp1816
assg3
F1.0
sg29
(lp1817
(lp1818
g1808
aa(lp1819
g1810
aasg2
F1.0
ssI123
(dp1820
g1
F1.0
sg7
(lp1821
(lp1822
g1390
aa(lp1823
g1392
aasg13
(dp1824
g15
g16
(g20
S'\xd5x\xe9&1\x08\xe0?'
p1825
tp1826
Rp1827
sg26
(lp1828
(g1390
g1392
F0.501
tp1829
assg3
F1.0
sg29
(lp1830
(lp1831
g1390
aa(lp1832
g1392
aasg2
F1.0
ssI124
(dp1833
g1
F-1.0
sg7
(lp1834
(lp1835
S'cruel'
p1836
aa(lp1837
S'cruellest'
p1838
aasg13
(dp1839
g15
g16
(g20
S'\xd5x\xe9&1\x08\xe0?'
p1840
tp1841
Rp1842
sg26
(lp1843
(g1838
g1836
F0.501
tp1844
assg3
F0.0
sg29
(lp1845
(lp1846
g1838
aa(lp1847
g1836
aasg2
F1.0
ssI125
(dp1848
g1
F1.0
sg7
(lp1849
(lp1850
S'wise'
p1851
aa(lp1852
S'wiser'
p1853
aasg13
(dp1854
g15
g16
(g20
S'\xd5x\xe9&1\x08\xe0?'
p1855
tp1856
Rp1857
sg26
(lp1858
(g1851
g1853
F0.501
tp1859
assg3
F1.0
sg29
(lp1860
(lp1861
g1851
aa(lp1862
g1853
aasg2
F1.0
ssI126
(dp1863
g1
F-1.0
sg7
(lp1864
(lp1865
g867
aa(lp1866
g869
aasg13
(dp1867
g15
g16
(g20
S'\xd5x\xe9&1\x08\xe0?'
p1868
tp1869
Rp1870
sg26
(lp1871
(g869
g867
F0.501
tp1872
assg3
F0.0
sg29
(lp1873
(lp1874
g869
aa(lp1875
g867
aasg2
F1.0
ssI127
(dp1876
g1
F-1.0
sg7
(lp1877
(lp1878
S'broad'
p1879
aa(lp1880
S'broadest'
p1881
aasg13
(dp1882
g15
g16
(g20
S'\xd5x\xe9&1\x08\xe0?'
p1883
tp1884
Rp1885
sg26
(lp1886
(g1881
g1879
F0.501
tp1887
assg3
F0.0
sg29
(lp1888
(lp1889
g1881
aa(lp1890
g1879
aasg2
F1.0
ssI128
(dp1891
g1
F-1.0
sg7
(lp1892
(lp1893
g823
aa(lp1894
g825
aasg13
(dp1895
g15
g16
(g20
S'\xd5x\xe9&1\x08\xe0?'
p1896
tp1897
Rp1898
sg26
(lp1899
(g825
g823
F0.501
tp1900
assg3
F0.0
sg29
(lp1901
(lp1902
g825
aa(lp1903
g823
aasg2
F1.0
ssI129
(dp1904
g1
F-1.0
sg7
(lp1905
(lp1906
S'easy'
p1907
aa(lp1908
S'easiest'
p1909
aasg13
(dp1910
g15
g16
(g20
S'\xd5x\xe9&1\x08\xe0?'
p1911
tp1912
Rp1913
sg26
(lp1914
(g1909
g1907
F0.501
tp1915
assg3
F0.0
sg29
(lp1916
(lp1917
g1909
aa(lp1918
g1907
aasg2
F1.0
ssI130
(dp1919
g1
F-1.0
sg7
(lp1920
(lp1921
S'braver'
p1922
aa(lp1923
S'bravest'
p1924
aasg13
(dp1925
g15
g16
(g20
S'V\x0e-\xb2\x9d\xef\xdf?'
p1926
tp1927
Rp1928
sg26
(lp1929
(g1924
g1922
F0.499
tp1930
assg3
F0.0
sg29
(lp1931
(lp1932
g1924
aa(lp1933
g1922
aasg2
F1.0
ssI131
(dp1934
g1
F1.0
sg7
(lp1935
(lp1936
S'big'
p1937
aa(lp1938
S'biggest'
p1939
aasg13
(dp1940
g15
g16
(g20
S'\xd5x\xe9&1\x08\xe0?'
p1941
tp1942
Rp1943
sg26
(lp1944
(g1937
g1939
F0.501
tp1945
assg3
F1.0
sg29
(lp1946
(lp1947
g1937
aa(lp1948
g1939
aasg2
F1.0
ssI132
(dp1949
g1
F-1.0
sg7
(lp1950
(lp1951
g10
aa(lp1952
g12
aasg13
(dp1953
g15
g16
(g20
S'\xd5x\xe9&1\x08\xe0?'
p1954
tp1955
Rp1956
sg26
(lp1957
(g12
g10
F0.501
tp1958
assg3
F0.0
sg29
(lp1959
(lp1960
g12
aa(lp1961
g10
aasg2
F1.0
ssI133
(dp1962
g1
F-1.0
sg7
(lp1963
(lp1964
S'fairer'
p1965
aa(lp1966
S'fairest'
p1967
aasg13
(dp1968
g15
g16
(g20
S'\xd5x\xe9&1\x08\xe0?'
p1969
tp1970
Rp1971
sg26
(lp1972
(g1967
g1965
F0.501
tp1973
assg3
F0.0
sg29
(lp1974
(lp1975
g1967
aa(lp1976
g1965
aasg2
F1.0
ssI134
(dp1977
g1
F1.0
sg7
(lp1978
(lp1979
g261
aa(lp1980
S'later'
p1981
aasg13
(dp1982
g15
g16
(g20
S'\xd5x\xe9&1\x08\xe0?'
p1983
tp1984
Rp1985
sg26
(lp1986
(g261
g1981
F0.501
tp1987
assg3
F1.0
sg29
(lp1988
(lp1989
g261
aa(lp1990
g1981
aasg2
F1.0
ssI135
(dp1991
g1
F-1.0
sg7
(lp1992
(lp1993
S'cheaper'
p1994
aa(lp1995
S'cheapest'
p1996
aasg13
(dp1997
g15
g16
(g20
S'\xd5x\xe9&1\x08\xe0?'
p1998
tp1999
Rp2000
sg26
(lp2001
(g1996
g1994
F0.501
tp2002
assg3
F0.0
sg29
(lp2003
(lp2004
g1996
aa(lp2005
g1994
aasg2
F1.0
ssI136
(dp2006
g1
F-1.0
sg7
(lp2007
(lp2008
g1375
aa(lp2009
g1377
aasg13
(dp2010
g15
g16
(g20
S'\xd5x\xe9&1\x08\xe0?'
p2011
tp2012
Rp2013
sg26
(lp2014
(g1377
g1375
F0.501
tp2015
assg3
F0.0
sg29
(lp2016
(lp2017
g1377
aa(lp2018
g1375
aasg2
F1.0
ssI137
(dp2019
g1
F1.0
sg7
(lp2020
(lp2021
g808
aa(lp2022
g810
aasg13
(dp2023
g15
g16
(g20
S'\xd5x\xe9&1\x08\xe0?'
p2024
tp2025
Rp2026
sg26
(lp2027
(g808
g810
F0.501
tp2028
assg3
F1.0
sg29
(lp2029
(lp2030
g808
aa(lp2031
g810
aasg2
F1.0
ssI138
(dp2032
g1
F-1.0
sg7
(lp2033
(lp2034
S'fierce'
p2035
aa(lp2036
S'fiercer'
p2037
aasg13
(dp2038
g15
g16
(g20
S'\xd5x\xe9&1\x08\xe0?'
p2039
tp2040
Rp2041
sg26
(lp2042
(g2037
g2035
F0.501
tp2043
assg3
F0.0
sg29
(lp2044
(lp2045
g2037
aa(lp2046
g2035
aasg2
F1.0
ssI139
(dp2047
g1
F-1.0
sg7
(lp2048
(lp2049
S'full'
p2050
aa(lp2051
S'fullest'
p2052
aasg13
(dp2053
g15
g16
(g20
S'\xd5x\xe9&1\x08\xe0?'
p2054
tp2055
Rp2056
sg26
(lp2057
(g2052
g2050
F0.501
tp2058
assg3
F0.0
sg29
(lp2059
(lp2060
g2052
aa(lp2061
g2050
aasg2
F1.0
ssI140
(dp2062
g1
F-1.0
sg7
(lp2063
(lp2064
S'sure'
p2065
aa(lp2066
S'surer'
p2067
aasg13
(dp2068
g15
g16
(g20
S'\xd5x\xe9&1\x08\xe0?'
p2069
tp2070
Rp2071
sg26
(lp2072
(g2067
g2065
F0.501
tp2073
assg3
F0.0
sg29
(lp2074
(lp2075
g2067
aa(lp2076
g2065
aasg2
F1.0
ssI141
(dp2077
g1
F1.0
sg7
(lp2078
(lp2079
S'stupide'
p2080
aa(lp2081
S'stupider'
p2082
aasg13
(dp2083
g15
g16
(g20
S'\xd5x\xe9&1\x08\xe0?'
p2084
tp2085
Rp2086
sg26
(lp2087
(g2080
g2082
F0.501
tp2088
assg3
F1.0
sg29
(lp2089
(lp2090
g2080
aa(lp2091
g2082
aasg2
F1.0
ssI142
(dp2092
g1
F-1.0
sg7
(lp2093
(lp2094
g1229
aa(lp2095
g1231
aasg13
(dp2096
g15
g16
(g20
S'\xd5x\xe9&1\x08\xe0?'
p2097
tp2098
Rp2099
sg26
(lp2100
(g1231
g1229
F0.501
tp2101
assg3
F0.0
sg29
(lp2102
(lp2103
g1231
aa(lp2104
g1229
aasg2
F1.0
ssI143
(dp2105
g1
F-1.0
sg7
(lp2106
(lp2107
S'sweet'
p2108
aa(lp2109
S'sweeter'
p2110
aasg13
(dp2111
g15
g16
(g20
S'\xd5x\xe9&1\x08\xe0?'
p2112
tp2113
Rp2114
sg26
(lp2115
(g2110
g2108
F0.501
tp2116
assg3
F0.0
sg29
(lp2117
(lp2118
g2110
aa(lp2119
g2108
aasg2
F1.0
ssI144
(dp2120
g1
F-1.0
sg7
(lp2121
(lp2122
S'easier'
p2123
aa(lp2124
S'easiest'
p2125
aasg13
(dp2126
g15
g16
(g20
S'\xd5x\xe9&1\x08\xe0?'
p2127
tp2128
Rp2129
sg26
(lp2130
(g2125
g2123
F0.501
tp2131
assg3
F0.0
sg29
(lp2132
(lp2133
g2125
aa(lp2134
g2123
aasg2
F1.0
ssI145
(dp2135
g1
F-1.0
sg7
(lp2136
(lp2137
g526
aa(lp2138
g528
aasg13
(dp2139
g15
g16
(g20
S'\xd5x\xe9&1\x08\xe0?'
p2140
tp2141
Rp2142
sg26
(lp2143
(g528
g526
F0.501
tp2144
assg3
F0.0
sg29
(lp2145
(lp2146
g528
aa(lp2147
g526
aasg2
F1.0
ssI146
(dp2148
g1
F-1.0
sg7
(lp2149
(lp2150
g1981
aa(lp2151
g263
aasg13
(dp2152
g15
g16
(g20
S'\xd5x\xe9&1\x08\xe0?'
p2153
tp2154
Rp2155
sg26
(lp2156
(g263
g1981
F0.501
tp2157
assg3
F0.0
sg29
(lp2158
(lp2159
g263
aa(lp2160
g1981
aasg2
F1.0
ssI147
(dp2161
g1
F-1.0
sg7
(lp2162
(lp2163
S'rarer'
p2164
aa(lp2165
S'rarest'
p2166
aasg13
(dp2167
g15
g16
(g20
S'\xd5x\xe9&1\x08\xe0?'
p2168
tp2169
Rp2170
sg26
(lp2171
(g2166
g2164
F0.501
tp2172
assg3
F0.0
sg29
(lp2173
(lp2174
g2166
aa(lp2175
g2164
aasg2
F1.0
ssI148
(dp2176
g1
F-1.0
sg7
(lp2177
(lp2178
g1922
aa(lp2179
g1924
aasg13
(dp2180
g15
g16
(g20
S'V\x0e-\xb2\x9d\xef\xdf?'
p2181
tp2182
Rp2183
sg26
(lp2184
(g1924
g1922
F0.499
tp2185
assg3
F0.0
sg29
(lp2186
(lp2187
g1924
aa(lp2188
g1922
aasg2
F1.0
ssI149
(dp2189
g1
F-1.0
sg7
(lp2190
(lp2191
S'stupid'
p2192
aa(lp2193
S'stupider'
p2194
aasg13
(dp2195
g15
g16
(g20
S'\xd5x\xe9&1\x08\xe0?'
p2196
tp2197
Rp2198
sg26
(lp2199
(g2194
g2192
F0.501
tp2200
assg3
F0.0
sg29
(lp2201
(lp2202
g2194
aa(lp2203
g2192
aasg2
F1.0
ssI150
(dp2204
g1
F-1.0
sg7
(lp2205
(lp2206
S'darker'
p2207
aa(lp2208
S'darkest'
p2209
aasg13
(dp2210
g15
g16
(g20
S'\xd5x\xe9&1\x08\xe0?'
p2211
tp2212
Rp2213
sg26
(lp2214
(g2209
g2207
F0.501
tp2215
assg3
F0.0
sg29
(lp2216
(lp2217
g2209
aa(lp2218
g2207
aasg2
F1.0
ssI151
(dp2219
g1
F-1.0
sg7
(lp2220
(lp2221
g1406
aa(lp2222
g1027
aasg13
(dp2223
g15
g16
(g20
S'\xd5x\xe9&1\x08\xe0?'
p2224
tp2225
Rp2226
sg26
(lp2227
(g1027
g1406
F0.501
tp2228
assg3
F0.0
sg29
(lp2229
(lp2230
g1027
aa(lp2231
g1406
aasg2
F1.0
ssI152
(dp2232
g1
F1.0
sg7
(lp2233
(lp2234
S'clean'
p2235
aa(lp2236
S'cleaner'
p2237
aasg13
(dp2238
g15
g16
(g20
S'\xd5x\xe9&1\x08\xe0?'
p2239
tp2240
Rp2241
sg26
(lp2242
(g2235
g2237
F0.501
tp2243
assg3
F1.0
sg29
(lp2244
(lp2245
g2235
aa(lp2246
g2237
aasg2
F1.0
ssI153
(dp2247
g1
F-1.0
sg7
(lp2248
(lp2249
S'happy'
p2250
aa(lp2251
S'happiest'
p2252
aasg13
(dp2253
g15
g16
(g20
S'\xd5x\xe9&1\x08\xe0?'
p2254
tp2255
Rp2256
sg26
(lp2257
(g2252
g2250
F0.501
tp2258
assg3
F0.0
sg29
(lp2259
(lp2260
g2252
aa(lp2261
g2250
aasg2
F1.0
ssI154
(dp2262
g1
F-1.0
sg7
(lp2263
(lp2264
S'longer'
p2265
aa(lp2266
g1160
aasg13
(dp2267
g15
g16
(g20
S'\xd5x\xe9&1\x08\xe0?'
p2268
tp2269
Rp2270
sg26
(lp2271
(g1160
g2265
F0.501
tp2272
assg3
F0.0
sg29
(lp2273
(lp2274
g1160
aa(lp2275
g2265
aasg2
F1.0
ssI155
(dp2276
g1
F-1.0
sg7
(lp2277
(lp2278
S'new'
p2279
aa(lp2280
S'newest'
p2281
aasg13
(dp2282
g15
g16
(g20
S'\xd5x\xe9&1\x08\xe0?'
p2283
tp2284
Rp2285
sg26
(lp2286
(g2281
g2279
F0.501
tp2287
assg3
F0.0
sg29
(lp2288
(lp2289
g2281
aa(lp2290
g2279
aasg2
F1.0
ssI156
(dp2291
g1
F1.0
sg7
(lp2292
(lp2293
S'firm'
p2294
aa(lp2295
S'firmer'
p2296
aasg13
(dp2297
g15
g16
(g20
S'\xd5x\xe9&1\x08\xe0?'
p2298
tp2299
Rp2300
sg26
(lp2301
(g2294
g2296
F0.501
tp2302
assg3
F1.0
sg29
(lp2303
(lp2304
g2294
aa(lp2305
g2296
aasg2
F1.0
ssI157
(dp2306
g1
F1.0
sg7
(lp2307
(lp2308
g96
aa(lp2309
g98
aasg13
(dp2310
g15
g16
(g20
S'\xd5x\xe9&1\x08\xe0?'
p2311
tp2312
Rp2313
sg26
(lp2314
(g96
g98
F0.501
tp2315
assg3
F1.0
sg29
(lp2316
(lp2317
g96
aa(lp2318
g98
aasg2
F1.0
ssI158
(dp2319
g1
F1.0
sg7
(lp2320
(lp2321
S'short'
p2322
aa(lp2323
g485
aasg13
(dp2324
g15
g16
(g20
S'\xd5x\xe9&1\x08\xe0?'
p2325
tp2326
Rp2327
sg26
(lp2328
(g2322
g485
F0.501
tp2329
assg3
F1.0
sg29
(lp2330
(lp2331
g2322
aa(lp2332
g485
aasg2
F1.0
ssI159
(dp2333
g1
F1.0
sg7
(lp2334
(lp2335
g1055
aa(lp2336
g1057
aasg13
(dp2337
g15
g16
(g20
S'\xd5x\xe9&1\x08\xe0?'
p2338
tp2339
Rp2340
sg26
(lp2341
(g1055
g1057
F0.501
tp2342
assg3
F1.0
sg29
(lp2343
(lp2344
g1055
aa(lp2345
g1057
aasg2
F1.0
ssI160
(dp2346
g1
F-1.0
sg7
(lp2347
(lp2348
g1490
aa(lp2349
g1492
aasg13
(dp2350
g15
g16
(g20
S'\xd5x\xe9&1\x08\xe0?'
p2351
tp2352
Rp2353
sg26
(lp2354
(g1492
g1490
F0.501
tp2355
assg3
F0.0
sg29
(lp2356
(lp2357
g1492
aa(lp2358
g1490
aasg2
F1.0
ssI161
(dp2359
g1
F-1.0
sg7
(lp2360
(lp2361
S'lower'
p2362
aa(lp2363
S'lowest'
p2364
aasg13
(dp2365
g15
g16
(g20
S'\xd5x\xe9&1\x08\xe0?'
p2366
tp2367
Rp2368
sg26
(lp2369
(g2364
g2362
F0.501
tp2370
assg3
F0.0
sg29
(lp2371
(lp2372
g2364
aa(lp2373
g2362
aasg2
F1.0
ssI162
(dp2374
g1
F-1.0
sg7
(lp2375
(lp2376
g1631
aa(lp2377
g1633
aasg13
(dp2378
g15
g16
(g20
S'\xd5x\xe9&1\x08\xe0?'
p2379
tp2380
Rp2381
sg26
(lp2382
(g1633
g1631
F0.501
tp2383
assg3
F0.0
sg29
(lp2384
(lp2385
g1633
aa(lp2386
g1631
aasg2
F1.0
ssI163
(dp2387
g1
F-1.0
sg7
(lp2388
(lp2389
g676
aa(lp2390
g678
aasg13
(dp2391
g15
g16
(g20
S'\xd5x\xe9&1\x08\xe0?'
p2392
tp2393
Rp2394
sg26
(lp2395
(g678
g676
F0.501
tp2396
assg3
F0.0
sg29
(lp2397
(lp2398
g678
aa(lp2399
g676
aasg2
F1.0
ssI164
(dp2400
g1
F-1.0
sg7
(lp2401
(lp2402
S'grave'
p2403
aa(lp2404
g808
aasg13
(dp2405
g15
g16
(g20
S'\xd5x\xe9&1\x08\xe0?'
p2406
tp2407
Rp2408
sg26
(lp2409
(g808
g2403
F0.501
tp2410
assg3
F0.0
sg29
(lp2411
(lp2412
g808
aa(lp2413
g2403
aasg2
F1.0
ssI165
(dp2414
g1
F-1.0
sg7
(lp2415
(lp2416
S'sad'
p2417
aa(lp2418
S'sadder'
p2419
aasg13
(dp2420
g15
g16
(g20
S'\xd5x\xe9&1\x08\xe0?'
p2421
tp2422
Rp2423
sg26
(lp2424
(g2419
g2417
F0.501
tp2425
assg3
F0.0
sg29
(lp2426
(lp2427
g2419
aa(lp2428
g2417
aasg2
F1.0
ssI166
(dp2429
g1
F1.0
sg7
(lp2430
(lp2431
S'graver'
p2432
aa(lp2433
S'gravest'
p2434
aasg13
(dp2435
g15
g16
(g20
S'\xd5x\xe9&1\x08\xe0?'
p2436
tp2437
Rp2438
sg26
(lp2439
(g2432
g2434
F0.501
tp2440
assg3
F1.0
sg29
(lp2441
(lp2442
g2432
aa(lp2443
g2434
aasg2
F1.0
ssI167
(dp2444
g1
F-1.0
sg7
(lp2445
(lp2446
S'soft'
p2447
aa(lp2448
S'softer'
p2449
aasg13
(dp2450
g15
g16
(g20
S'\xd5x\xe9&1\x08\xe0?'
p2451
tp2452
Rp2453
sg26
(lp2454
(g2449
g2447
F0.501
tp2455
assg3
F0.0
sg29
(lp2456
(lp2457
g2449
aa(lp2458
g2447
aasg2
F1.0
ssI168
(dp2459
g1
F-1.0
sg7
(lp2460
(lp2461
S'lucky'
p2462
aa(lp2463
S'luckier'
p2464
aasg13
(dp2465
g15
g16
(g20
S'\xd5x\xe9&1\x08\xe0?'
p2466
tp2467
Rp2468
sg26
(lp2469
(g2464
g2462
F0.501
tp2470
assg3
F0.0
sg29
(lp2471
(lp2472
g2464
aa(lp2473
g2462
aasg2
F1.0
ssI169
(dp2474
g1
F1.0
sg7
(lp2475
(lp2476
S'quick'
p2477
aa(lp2478
g353
aasg13
(dp2479
g15
g16
(g20
S'\xd5x\xe9&1\x08\xe0?'
p2480
tp2481
Rp2482
sg26
(lp2483
(g2477
g353
F0.501
tp2484
assg3
F1.0
sg29
(lp2485
(lp2486
g2477
aa(lp2487
g353
aasg2
F1.0
ssI170
(dp2488
g1
F-1.0
sg7
(lp2489
(lp2490
S'wealthier'
p2491
aa(lp2492
g648
aasg13
(dp2493
g15
g16
(g20
S'\xd5x\xe9&1\x08\xe0?'
p2494
tp2495
Rp2496
sg26
(lp2497
(g648
g2491
F0.501
tp2498
assg3
F0.0
sg29
(lp2499
(lp2500
g648
aa(lp2501
g2491
aasg2
F1.0
ssI171
(dp2502
g1
F1.0
sg7
(lp2503
(lp2504
g2432
aa(lp2505
g2434
aasg13
(dp2506
g15
g16
(g20
S'\xd5x\xe9&1\x08\xe0?'
p2507
tp2508
Rp2509
sg26
(lp2510
(g2432
g2434
F0.501
tp2511
assg3
F1.0
sg29
(lp2512
(lp2513
g2432
aa(lp2514
g2434
aasg2
F1.0
ssI172
(dp2515
g1
F1.0
sg7
(lp2516
(lp2517
S'loose'
p2518
aa(lp2519
S'looser'
p2520
aasg13
(dp2521
g15
g16
(g20
S'\xd5x\xe9&1\x08\xe0?'
p2522
tp2523
Rp2524
sg26
(lp2525
(g2518
g2520
F0.501
tp2526
assg3
F1.0
sg29
(lp2527
(lp2528
g2518
aa(lp2529
g2520
aasg2
F1.0
ssI173
(dp2530
g1
F1.0
sg7
(lp2531
(lp2532
S'wealthy'
p2533
aa(lp2534
S'wealthier'
p2535
aasg13
(dp2536
g15
g16
(g20
S'\xd5x\xe9&1\x08\xe0?'
p2537
tp2538
Rp2539
sg26
(lp2540
(g2533
g2535
F0.501
tp2541
assg3
F1.0
sg29
(lp2542
(lp2543
g2533
aa(lp2544
g2535
aasg2
F1.0
ssI174
(dp2545
g1
F-1.0
sg7
(lp2546
(lp2547
S'weaker'
p2548
aa(lp2549
g338
aasg13
(dp2550
g15
g16
(g20
S'\xd5x\xe9&1\x08\xe0?'
p2551
tp2552
Rp2553
sg26
(lp2554
(g338
g2548
F0.501
tp2555
assg3
F0.0
sg29
(lp2556
(lp2557
g338
aa(lp2558
g2548
aasg2
F1.0
ssI175
(dp2559
g1
F-1.0
sg7
(lp2560
(lp2561
S'full'
p2562
aa(lp2563
S'fuller'
p2564
aasg13
(dp2565
g15
g16
(g20
S'\xd5x\xe9&1\x08\xe0?'
p2566
tp2567
Rp2568
sg26
(lp2569
(g2564
g2562
F0.501
tp2570
assg3
F0.0
sg29
(lp2571
(lp2572
g2564
aa(lp2573
g2562
aasg2
F1.0
ssI176
(dp2574
g1
F1.0
sg7
(lp2575
(lp2576
S'some'
p2577
aa(lp2578
S'more'
p2579
aasg13
(dp2580
g15
g16
(g20
S'\xd5x\xe9&1\x08\xe0?'
p2581
tp2582
Rp2583
sg26
(lp2584
(g2577
g2579
F0.501
tp2585
assg3
F1.0
sg29
(lp2586
(lp2587
g2577
aa(lp2588
g2579
aasg2
F1.0
ssI177
(dp2589
g1
F-1.0
sg7
(lp2590
(lp2591
g968
aa(lp2592
g970
aasg13
(dp2593
g15
g16
(g20
S'\xd5x\xe9&1\x08\xe0?'
p2594
tp2595
Rp2596
sg26
(lp2597
(g970
g968
F0.501
tp2598
assg3
F0.0
sg29
(lp2599
(lp2600
g970
aa(lp2601
g968
aasg2
F1.0
ssI178
(dp2602
g1
F-1.0
sg7
(lp2603
(lp2604
S'grim'
p2605
aa(lp2606
S'grimmer'
p2607
aasg13
(dp2608
g15
g16
(g20
S'\xd5x\xe9&1\x08\xe0?'
p2609
tp2610
Rp2611
sg26
(lp2612
(g2607
g2605
F0.501
tp2613
assg3
F0.0
sg29
(lp2614
(lp2615
g2607
aa(lp2616
g2605
aasg2
F1.0
ssI179
(dp2617
g1
F-1.0
sg7
(lp2618
(lp2619
S'rare'
p2620
aa(lp2621
g558
aasg13
(dp2622
g15
g16
(g20
S'\xd5x\xe9&1\x08\xe0?'
p2623
tp2624
Rp2625
sg26
(lp2626
(g558
g2620
F0.501
tp2627
assg3
F0.0
sg29
(lp2628
(lp2629
g558
aa(lp2630
g2620
aasg2
F1.0
ssI180
(dp2631
g1
F-1.0
sg7
(lp2632
(lp2633
S'deeper'
p2634
aa(lp2635
S'deepest'
p2636
aasg13
(dp2637
g15
g16
(g20
S'\xd5x\xe9&1\x08\xe0?'
p2638
tp2639
Rp2640
sg26
(lp2641
(g2636
g2634
F0.501
tp2642
assg3
F0.0
sg29
(lp2643
(lp2644
g2636
aa(lp2645
g2634
aasg2
F1.0
ssI181
(dp2646
g1
F-1.0
sg7
(lp2647
(lp2648
g691
aa(lp2649
g693
aasg13
(dp2650
g15
g16
(g20
S'\xd5x\xe9&1\x08\xe0?'
p2651
tp2652
Rp2653
sg26
(lp2654
(g693
g691
F0.501
tp2655
assg3
F0.0
sg29
(lp2656
(lp2657
g693
aa(lp2658
g691
aasg2
F1.0
ssI182
(dp2659
g1
F-1.0
sg7
(lp2660
(lp2661
g1214
aa(lp2662
g1216
aasg13
(dp2663
g15
g16
(g20
S'\xd5x\xe9&1\x08\xe0?'
p2664
tp2665
Rp2666
sg26
(lp2667
(g1216
g1214
F0.501
tp2668
assg3
F0.0
sg29
(lp2669
(lp2670
g1216
aa(lp2671
g1214
aasg2
F1.0
ssI183
(dp2672
g1
F-1.0
sg7
(lp2673
(lp2674
g778
aa(lp2675
g780
aasg13
(dp2676
g15
g16
(g20
S'\xd5x\xe9&1\x08\xe0?'
p2677
tp2678
Rp2679
sg26
(lp2680
(g780
g778
F0.501
tp2681
assg3
F0.0
sg29
(lp2682
(lp2683
g780
aa(lp2684
g778
aasg2
F1.0
ssI184
(dp2685
g1
F-1.0
sg7
(lp2686
(lp2687
g1505
aa(lp2688
g721
aasg13
(dp2689
g15
g16
(g20
S'\xd5x\xe9&1\x08\xe0?'
p2690
tp2691
Rp2692
sg26
(lp2693
(g721
g1505
F0.501
tp2694
assg3
F0.0
sg29
(lp2695
(lp2696
g721
aa(lp2697
g1505
aasg2
F1.0
ssI185
(dp2698
g1
F1.0
sg7
(lp2699
(lp2700
g1751
aa(lp2701
g750
aasg13
(dp2702
g15
g16
(g20
S'\xd5x\xe9&1\x08\xe0?'
p2703
tp2704
Rp2705
sg26
(lp2706
(g1751
g750
F0.501
tp2707
assg3
F1.0
sg29
(lp2708
(lp2709
g1751
aa(lp2710
g750
aasg2
F1.0
ssI186
(dp2711
g1
F-1.0
sg7
(lp2712
(lp2713
S'higher'
p2714
aa(lp2715
S'highest'
p2716
aasg13
(dp2717
g15
g16
(g20
S'\xd5x\xe9&1\x08\xe0?'
p2718
tp2719
Rp2720
sg26
(lp2721
(g2716
g2714
F0.501
tp2722
assg3
F0.0
sg29
(lp2723
(lp2724
g2716
aa(lp2725
g2714
aasg2
F1.0
ssI187
(dp2726
g1
F-1.0
sg7
(lp2727
(lp2728
g2562
aa(lp2729
S'fullest'
p2730
aasg13
(dp2731
g15
g16
(g20
S'\xd5x\xe9&1\x08\xe0?'
p2732
tp2733
Rp2734
sg26
(lp2735
(g2730
g2562
F0.501
tp2736
assg3
F0.0
sg29
(lp2737
(lp2738
g2730
aa(lp2739
g2562
aasg2
F1.0
ssI188
(dp2740
g1
F1.0
sg7
(lp2741
(lp2742
S'grave'
p2743
aa(lp2744
S'gravest'
p2745
aasg13
(dp2746
g15
g16
(g20
S'\xd5x\xe9&1\x08\xe0?'
p2747
tp2748
Rp2749
sg26
(lp2750
(g2743
g2745
F0.501
tp2751
assg3
F1.0
sg29
(lp2752
(lp2753
g2743
aa(lp2754
g2745
aasg2
F1.0
ssI189
(dp2755
g1
F1.0
sg7
(lp2756
(lp2757
g2403
aa(lp2758
g810
aasg13
(dp2759
g15
g16
(g20
S'\xd5x\xe9&1\x08\xe0?'
p2760
tp2761
Rp2762
sg26
(lp2763
(g2403
g810
F0.501
tp2764
assg3
F1.0
sg29
(lp2765
(lp2766
g2403
aa(lp2767
g810
aasg2
F1.0
ssI190
(dp2768
g1
F1.0
sg7
(lp2769
(lp2770
g1616
aa(lp2771
g1618
aasg13
(dp2772
g15
g16
(g20
S'\xd5x\xe9&1\x08\xe0?'
p2773
tp2774
Rp2775
sg26
(lp2776
(g1616
g1618
F0.501
tp2777
assg3
F1.0
sg29
(lp2778
(lp2779
g1616
aa(lp2780
g1618
aasg2
F1.0
ssI191
(dp2781
g1
F-1.0
sg7
(lp2782
(lp2783
S'east'
p2784
aa(lp2785
g2125
aasg13
(dp2786
g15
g16
(g20
S'\xd5x\xe9&1\x08\xe0?'
p2787
tp2788
Rp2789
sg26
(lp2790
(g2125
g2784
F0.501
tp2791
assg3
F0.0
sg29
(lp2792
(lp2793
g2125
aa(lp2794
g2784
aasg2
F1.0
ssI192
(dp2795
g1
F1.0
sg7
(lp2796
(lp2797
g1173
aa(lp2798
g1175
aasg13
(dp2799
g15
g16
(g20
S'\xd5x\xe9&1\x08\xe0?'
p2800
tp2801
Rp2802
sg26
(lp2803
(g1173
g1175
F0.501
tp2804
assg3
F1.0
sg29
(lp2805
(lp2806
g1173
aa(lp2807
g1175
aasg2
F1.0
ssI193
(dp2808
g1
F-1.0
sg7
(lp2809
(lp2810
g1994
aa(lp2811
g1996
aasg13
(dp2812
g15
g16
(g20
S'\xd5x\xe9&1\x08\xe0?'
p2813
tp2814
Rp2815
sg26
(lp2816
(g1996
g1994
F0.501
tp2817
assg3
F0.0
sg29
(lp2818
(lp2819
g1996
aa(lp2820
g1994
aasg2
F1.0
ssI194
(dp2821
g1
F-1.0
sg7
(lp2822
(lp2823
g953
aa(lp2824
g955
aasg13
(dp2825
g15
g16
(g20
S'\xd5x\xe9&1\x08\xe0?'
p2826
tp2827
Rp2828
sg26
(lp2829
(g955
g953
F0.501
tp2830
assg3
F0.0
sg29
(lp2831
(lp2832
g955
aa(lp2833
g953
aasg2
F1.0
ssI195
(dp2834
g1
F-1.0
sg7
(lp2835
(lp2836
g910
aa(lp2837
g912
aasg13
(dp2838
g15
g16
(g20
S'\xd5x\xe9&1\x08\xe0?'
p2839
tp2840
Rp2841
sg26
(lp2842
(g912
g910
F0.501
tp2843
assg3
F0.0
sg29
(lp2844
(lp2845
g912
aa(lp2846
g910
aasg2
F1.0
ssI196
(dp2847
g1
F1.0
sg7
(lp2848
(lp2849
S'east'
p2850
aa(lp2851
S'easier'
p2852
aasg13
(dp2853
g15
g16
(g20
S'\xd5x\xe9&1\x08\xe0?'
p2854
tp2855
Rp2856
sg26
(lp2857
(g2850
g2852
F0.501
tp2858
assg3
F1.0
sg29
(lp2859
(lp2860
g2850
aa(lp2861
g2852
aasg2
F1.0
ssI197
(dp2862
g1
F-1.0
sg7
(lp2863
(lp2864
g1274
aa(lp2865
g1276
aasg13
(dp2866
g15
g16
(g20
S'\xd5x\xe9&1\x08\xe0?'
p2867
tp2868
Rp2869
sg26
(lp2870
(g1276
g1274
F0.501
tp2871
assg3
F0.0
sg29
(lp2872
(lp2873
g1276
aa(lp2874
g1274
aasg2
F1.0
ssI198
(dp2875
g1
F-1.0
sg7
(lp2876
(lp2877
g2605
aa(lp2878
g2607
aasg13
(dp2879
g15
g16
(g20
S'\xd5x\xe9&1\x08\xe0?'
p2880
tp2881
Rp2882
sg26
(lp2883
(g2607
g2605
F0.501
tp2884
assg3
F0.0
sg29
(lp2885
(lp2886
g2607
aa(lp2887
g2605
aasg2
F1.0
ssI199
(dp2888
g1
F-1.0
sg7
(lp2889
(lp2890
S'smarter'
p2891
aa(lp2892
S'smartest'
p2893
aasg13
(dp2894
g15
g16
(g20
S'\xd5x\xe9&1\x08\xe0?'
p2895
tp2896
Rp2897
sg26
(lp2898
(g2893
g2891
F0.501
tp2899
assg3
F0.0
sg29
(lp2900
(lp2901
g2893
aa(lp2902
g2891
aasg2
F1.0
ssI200
(dp2903
g1
F-1.0
sg7
(lp2904
(lp2905
g2279
aa(lp2906
g2281
aasg13
(dp2907
g15
g16
(g20
S'\xd5x\xe9&1\x08\xe0?'
p2908
tp2909
Rp2910
sg26
(lp2911
(g2281
g2279
F0.501
tp2912
assg3
F0.0
sg29
(lp2913
(lp2914
g2281
aa(lp2915
g2279
aasg2
F1.0
ssI201
(dp2916
g1
F-1.0
sg7
(lp2917
(lp2918
S'happy'
p2919
aa(lp2920
S'happiest'
p2921
aasg13
(dp2922
g15
g16
(g20
S'\xd5x\xe9&1\x08\xe0?'
p2923
tp2924
Rp2925
sg26
(lp2926
(g2921
g2919
F0.501
tp2927
assg3
F0.0
sg29
(lp2928
(lp2929
g2921
aa(lp2930
g2919
aasg2
F1.0
ssI202
(dp2931
g1
F-1.0
sg7
(lp2932
(lp2933
g2891
aa(lp2934
g2893
aasg13
(dp2935
g15
g16
(g20
S'\xd5x\xe9&1\x08\xe0?'
p2936
tp2937
Rp2938
sg26
(lp2939
(g2893
g2891
F0.501
tp2940
assg3
F0.0
sg29
(lp2941
(lp2942
g2893
aa(lp2943
g2891
aasg2
F1.0
ssI203
(dp2944
g1
F-1.0
sg7
(lp2945
(lp2946
g2562
aa(lp2947
g2730
aasg13
(dp2948
g15
g16
(g20
S'\xd5x\xe9&1\x08\xe0?'
p2949
tp2950
Rp2951
sg26
(lp2952
(g2730
g2562
F0.501
tp2953
assg3
F0.0
sg29
(lp2954
(lp2955
g2730
aa(lp2956
g2562
aasg2
F1.0
ssI204
(dp2957
g1
F1.0
sg7
(lp2958
(lp2959
S'poor'
p2960
aa(lp2961
g1246
aasg13
(dp2962
g15
g16
(g20
S'\xd5x\xe9&1\x08\xe0?'
p2963
tp2964
Rp2965
sg26
(lp2966
(g2960
g1246
F0.501
tp2967
assg3
F1.0
sg29
(lp2968
(lp2969
g2960
aa(lp2970
g1246
aasg2
F1.0
ssI205
(dp2971
g1
F-1.0
sg7
(lp2972
(lp2973
g1646
aa(lp2974
g1648
aasg13
(dp2975
g15
g16
(g20
S'\xd5x\xe9&1\x08\xe0?'
p2976
tp2977
Rp2978
sg26
(lp2979
(g1648
g1646
F0.501
tp2980
assg3
F0.0
sg29
(lp2981
(lp2982
g1648
aa(lp2983
g1646
aasg2
F1.0
ssI206
(dp2984
g1
F-1.0
sg7
(lp2985
(lp2986
g306
aa(lp2987
g308
aasg13
(dp2988
g15
g16
(g20
S'\xd5x\xe9&1\x08\xe0?'
p2989
tp2990
Rp2991
sg26
(lp2992
(g308
g306
F0.501
tp2993
assg3
F0.0
sg29
(lp2994
(lp2995
g308
aa(lp2996
g306
aasg2
F1.0
ssI207
(dp2997
g1
F1.0
sg7
(lp2998
(lp2999
S'deep'
p3000
aa(lp3001
S'deepest'
p3002
aasg13
(dp3003
g15
g16
(g20
S'\xd5x\xe9&1\x08\xe0?'
p3004
tp3005
Rp3006
sg26
(lp3007
(g3000
g3002
F0.501
tp3008
assg3
F1.0
sg29
(lp3009
(lp3010
g3000
aa(lp3011
g3002
aasg2
F1.0
ssI208
(dp3012
g1
F-1.0
sg7
(lp3013
(lp3014
S'east'
p3015
aa(lp3016
S'easiest'
p3017
aasg13
(dp3018
g15
g16
(g20
S'\xd5x\xe9&1\x08\xe0?'
p3019
tp3020
Rp3021
sg26
(lp3022
(g3017
g3015
F0.501
tp3023
assg3
F0.0
sg29
(lp3024
(lp3025
g3017
aa(lp3026
g3015
aasg2
F1.0
ssI209
(dp3027
g1
F-1.0
sg7
(lp3028
(lp3029
S'faster'
p3030
aa(lp3031
S'fastest'
p3032
aasg13
(dp3033
g15
g16
(g20
S'\xd5x\xe9&1\x08\xe0?'
p3034
tp3035
Rp3036
sg26
(lp3037
(g3032
g3030
F0.501
tp3038
assg3
F0.0
sg29
(lp3039
(lp3040
g3032
aa(lp3041
g3030
aasg2
F1.0
ssI210
(dp3042
g1
F1.0
sg7
(lp3043
(lp3044
g2477
aa(lp3045
g353
aasg13
(dp3046
g15
g16
(g20
S'\xd5x\xe9&1\x08\xe0?'
p3047
tp3048
Rp3049
sg26
(lp3050
(g2477
g353
F0.501
tp3051
assg3
F1.0
sg29
(lp3052
(lp3053
g2477
aa(lp3054
g353
aasg2
F1.0
ssI211
(dp3055
g1
F-1.0
sg7
(lp3056
(lp3057
S'closer'
p3058
aa(lp3059
g1231
aasg13
(dp3060
g15
g16
(g20
S'\xd5x\xe9&1\x08\xe0?'
p3061
tp3062
Rp3063
sg26
(lp3064
(g1231
g3058
F0.501
tp3065
assg3
F0.0
sg29
(lp3066
(lp3067
g1231
aa(lp3068
g3058
aasg2
F1.0
ssI212
(dp3069
g1
F-1.0
sg7
(lp3070
(lp3071
g631
aa(lp3072
g633
aasg13
(dp3073
g15
g16
(g20
S'\xd5x\xe9&1\x08\xe0?'
p3074
tp3075
Rp3076
sg26
(lp3077
(g633
g631
F0.501
tp3078
assg3
F0.0
sg29
(lp3079
(lp3080
g633
aa(lp3081
g631
aasg2
F1.0
ssI213
(dp3082
g1
F-1.0
sg7
(lp3083
(lp3084
S'quicker'
p3085
aa(lp3086
S'quickest'
p3087
aasg13
(dp3088
g15
g16
(g20
S'\xd5x\xe9&1\x08\xe0?'
p3089
tp3090
Rp3091
sg26
(lp3092
(g3087
g3085
F0.501
tp3093
assg3
F0.0
sg29
(lp3094
(lp3095
g3087
aa(lp3096
g3085
aasg2
F1.0
ssI214
(dp3097
g1
F-1.0
sg7
(lp3098
(lp3099
S'dirty'
p3100
aa(lp3101
S'dirtier'
p3102
aasg13
(dp3103
g15
g16
(g20
S'\xd5x\xe9&1\x08\xe0?'
p3104
tp3105
Rp3106
sg26
(lp3107
(g3102
g3100
F0.501
tp3108
assg3
F0.0
sg29
(lp3109
(lp3110
g3102
aa(lp3111
g3100
aasg2
F1.0
ssI215
(dp3112
g1
F1.0
sg7
(lp3113
(lp3114
S'wide'
p3115
aa(lp3116
g1216
aasg13
(dp3117
g15
g16
(g20
S'\xd5x\xe9&1\x08\xe0?'
p3118
tp3119
Rp3120
sg26
(lp3121
(g3115
g1216
F0.501
tp3122
assg3
F1.0
sg29
(lp3123
(lp3124
g3115
aa(lp3125
g1216
aasg2
F1.0
ssI216
(dp3126
g1
F-1.0
sg7
(lp3127
(lp3128
S'heavy'
p3129
aa(lp3130
S'heaviest'
p3131
aasg13
(dp3132
g15
g16
(g20
S'\xd5x\xe9&1\x08\xe0?'
p3133
tp3134
Rp3135
sg26
(lp3136
(g3131
g3129
F0.501
tp3137
assg3
F0.0
sg29
(lp3138
(lp3139
g3131
aa(lp3140
g3129
aasg2
F1.0
ssI217
(dp3141
g1
F-1.0
sg7
(lp3142
(lp3143
g426
aa(lp3144
g1603
aasg13
(dp3145
g15
g16
(g20
S'\xd5x\xe9&1\x08\xe0?'
p3146
tp3147
Rp3148
sg26
(lp3149
(g1603
g426
F0.501
tp3150
assg3
F0.0
sg29
(lp3151
(lp3152
g1603
aa(lp3153
g426
aasg2
F1.0
ssI218
(dp3154
g1
F1.0
sg7
(lp3155
(lp3156
g1304
aa(lp3157
g1306
aasg13
(dp3158
g15
g16
(g20
S'\xd5x\xe9&1\x08\xe0?'
p3159
tp3160
Rp3161
sg26
(lp3162
(g1304
g1306
F0.501
tp3163
assg3
F1.0
sg29
(lp3164
(lp3165
g1304
aa(lp3166
g1306
aasg2
F1.0
ssI219
(dp3167
g1
F-1.0
sg7
(lp3168
(lp3169
S'wider'
p3170
aa(lp3171
S'widest'
p3172
aasg13
(dp3173
g15
g16
(g20
S'\xd5x\xe9&1\x08\xe0?'
p3174
tp3175
Rp3176
sg26
(lp3177
(g3172
g3170
F0.501
tp3178
assg3
F0.0
sg29
(lp3179
(lp3180
g3172
aa(lp3181
g3170
aasg2
F1.0
ssI220
(dp3182
g1
F-1.0
sg7
(lp3183
(lp3184
S'cheaper'
p3185
aa(lp3186
S'cheapest'
p3187
aasg13
(dp3188
g15
g16
(g20
S'\xd5x\xe9&1\x08\xe0?'
p3189
tp3190
Rp3191
sg26
(lp3192
(g3187
g3185
F0.501
tp3193
assg3
F0.0
sg29
(lp3194
(lp3195
g3187
aa(lp3196
g3185
aasg2
F1.0
ssI221
(dp3197
g1
F-1.0
sg7
(lp3198
(lp3199
S'earlier'
p3200
aa(lp3201
S'earliest'
p3202
aasg13
(dp3203
g15
g16
(g20
S'\xd5x\xe9&1\x08\xe0?'
p3204
tp3205
Rp3206
sg26
(lp3207
(g3202
g3200
F0.501
tp3208
assg3
F0.0
sg29
(lp3209
(lp3210
g3202
aa(lp3211
g3200
aasg2
F1.0
ssI222
(dp3212
g1
F-1.0
sg7
(lp3213
(lp3214
S'strict'
p3215
aa(lp3216
S'strictest'
p3217
aasg13
(dp3218
g15
g16
(g20
S'\xd5x\xe9&1\x08\xe0?'
p3219
tp3220
Rp3221
sg26
(lp3222
(g3217
g3215
F0.501
tp3223
assg3
F0.0
sg29
(lp3224
(lp3225
g3217
aa(lp3226
g3215
aasg2
F1.0
ssI223
(dp3227
g1
F1.0
sg7
(lp3228
(lp3229
S'poor'
p3230
aa(lp3231
S'poorest'
p3232
aasg13
(dp3233
g15
g16
(g20
S'\xd5x\xe9&1\x08\xe0?'
p3234
tp3235
Rp3236
sg26
(lp3237
(g3230
g3232
F0.501
tp3238
assg3
F1.0
sg29
(lp3239
(lp3240
g3230
aa(lp3241
g3232
aasg2
F1.0
ssI224
(dp3242
g1
F-1.0
sg7
(lp3243
(lp3244
S'clean'
p3245
aa(lp3246
S'cleanest'
p3247
aasg13
(dp3248
g15
g16
(g20
S'\xd5x\xe9&1\x08\xe0?'
p3249
tp3250
Rp3251
sg26
(lp3252
(g3247
g3245
F0.501
tp3253
assg3
F0.0
sg29
(lp3254
(lp3255
g3247
aa(lp3256
g3245
aasg2
F1.0
ssI225
(dp3257
g1
F-1.0
sg7
(lp3258
(lp3259
S'low'
p3260
aa(lp3261
g2364
aasg13
(dp3262
g15
g16
(g20
S'\xd5x\xe9&1\x08\xe0?'
p3263
tp3264
Rp3265
sg26
(lp3266
(g2364
g3260
F0.501
tp3267
assg3
F0.0
sg29
(lp3268
(lp3269
g2364
aa(lp3270
g3260
aasg2
F1.0
ssI226
(dp3271
g1
F-1.0
sg7
(lp3272
(lp3273
g1360
aa(lp3274
g1362
aasg13
(dp3275
g15
g16
(g20
S'\xd5x\xe9&1\x08\xe0?'
p3276
tp3277
Rp3278
sg26
(lp3279
(g1362
g1360
F0.501
tp3280
assg3
F0.0
sg29
(lp3281
(lp3282
g1362
aa(lp3283
g1360
aasg2
F1.0
ssI227
(dp3284
g1
F-1.0
sg7
(lp3285
(lp3286
g3058
aa(lp3287
g1231
aasg13
(dp3288
g15
g16
(g20
S'\xd5x\xe9&1\x08\xe0?'
p3289
tp3290
Rp3291
sg26
(lp3292
(g1231
g3058
F0.501
tp3293
assg3
F0.0
sg29
(lp3294
(lp3295
g1231
aa(lp3296
g3058
aasg2
F1.0
ssI228
(dp3297
g1
F-1.0
sg7
(lp3298
(lp3299
g1879
aa(lp3300
g1881
aasg13
(dp3301
g15
g16
(g20
S'\xd5x\xe9&1\x08\xe0?'
p3302
tp3303
Rp3304
sg26
(lp3305
(g1881
g1879
F0.501
tp3306
assg3
F0.0
sg29
(lp3307
(lp3308
g1881
aa(lp3309
g1879
aasg2
F1.0
ssI229
(dp3310
g1
F-1.0
sg7
(lp3311
(lp3312
S'costly'
p3313
aa(lp3314
S'costlier'
p3315
aasg13
(dp3316
g15
g16
(g20
S'\xd5x\xe9&1\x08\xe0?'
p3317
tp3318
Rp3319
sg26
(lp3320
(g3315
g3313
F0.501
tp3321
assg3
F0.0
sg29
(lp3322
(lp3323
g3315
aa(lp3324
g3313
aasg2
F1.0
ssI230
(dp3325
g1
F1.0
sg7
(lp3326
(lp3327
S'young'
p3328
aa(lp3329
S'youngest'
p3330
aasg13
(dp3331
g15
g16
(g20
S'\xd5x\xe9&1\x08\xe0?'
p3332
tp3333
Rp3334
sg26
(lp3335
(g3328
g3330
F0.501
tp3336
assg3
F1.0
sg29
(lp3337
(lp3338
g3328
aa(lp3339
g3330
aasg2
F1.0
ssI231
(dp3340
g1
F1.0
sg7
(lp3341
(lp3342
S'soon'
p3343
aa(lp3344
S'sooner'
p3345
aasg13
(dp3346
g15
g16
(g20
S'\xd5x\xe9&1\x08\xe0?'
p3347
tp3348
Rp3349
sg26
(lp3350
(g3343
g3345
F0.501
tp3351
assg3
F1.0
sg29
(lp3352
(lp3353
g3343
aa(lp3354
g3345
aasg2
F1.0
ssI232
(dp3355
g1
F1.0
sg7
(lp3356
(lp3357
S'ill'
p3358
aa(lp3359
S'worst'
p3360
aasg13
(dp3361
g15
g16
(g20
S'\xd5x\xe9&1\x08\xe0?'
p3362
tp3363
Rp3364
sg26
(lp3365
(g3358
g3360
F0.501
tp3366
assg3
F1.0
sg29
(lp3367
(lp3368
g3358
aa(lp3369
g3360
aasg2
F1.0
ssI233
(dp3370
g1
F-1.0
sg7
(lp3371
(lp3372
g839
aa(lp3373
g218
aasg13
(dp3374
g15
g16
(g20
S'\xd5x\xe9&1\x08\xe0?'
p3375
tp3376
Rp3377
sg26
(lp3378
(g218
g839
F0.501
tp3379
assg3
F0.0
sg29
(lp3380
(lp3381
g218
aa(lp3382
g839
aasg2
F1.0
ssI234
(dp3383
g1
F1.0
sg7
(lp3384
(lp3385
S'wide'
p3386
aa(lp3387
S'widest'
p3388
aasg13
(dp3389
g15
g16
(g20
S'\xd5x\xe9&1\x08\xe0?'
p3390
tp3391
Rp3392
sg26
(lp3393
(g3386
g3388
F0.501
tp3394
assg3
F1.0
sg29
(lp3395
(lp3396
g3386
aa(lp3397
g3388
aasg2
F1.0
ssI235
(dp3398
g1
F-1.0
sg7
(lp3399
(lp3400
S'smart'
p3401
aa(lp3402
g1536
aasg13
(dp3403
g15
g16
(g20
S'\xd5x\xe9&1\x08\xe0?'
p3404
tp3405
Rp3406
sg26
(lp3407
(g1536
g3401
F0.501
tp3408
assg3
F0.0
sg29
(lp3409
(lp3410
g1536
aa(lp3411
g3401
aasg2
F1.0
ssI236
(dp3412
g1
F-1.0
sg7
(lp3413
(lp3414
g3185
aa(lp3415
g3187
aasg13
(dp3416
g15
g16
(g20
S'\xd5x\xe9&1\x08\xe0?'
p3417
tp3418
Rp3419
sg26
(lp3420
(g3187
g3185
F0.501
tp3421
assg3
F0.0
sg29
(lp3422
(lp3423
g3187
aa(lp3424
g3185
aasg2
F1.0
ssI237
(dp3425
g1
F-1.0
sg7
(lp3426
(lp3427
S'strict'
p3428
aa(lp3429
S'strictest'
p3430
aasg13
(dp3431
g15
g16
(g20
S'\xd5x\xe9&1\x08\xe0?'
p3432
tp3433
Rp3434
sg26
(lp3435
(g3430
g3428
F0.501
tp3436
assg3
F0.0
sg29
(lp3437
(lp3438
g3430
aa(lp3439
g3428
aasg2
F1.0
ssI238
(dp3440
g1
F1.0
sg7
(lp3441
(lp3442
g2080
aa(lp3443
g2082
aasg13
(dp3444
g15
g16
(g20
S'\xd5x\xe9&1\x08\xe0?'
p3445
tp3446
Rp3447
sg26
(lp3448
(g2080
g2082
F0.501
tp3449
assg3
F1.0
sg29
(lp3450
(lp3451
g2080
aa(lp3452
g2082
aasg2
F1.0
ssI239
(dp3453
g1
F1.0
sg7
(lp3454
(lp3455
g3115
aa(lp3456
g1216
aasg13
(dp3457
g15
g16
(g20
S'\xd5x\xe9&1\x08\xe0?'
p3458
tp3459
Rp3460
sg26
(lp3461
(g3115
g1216
F0.501
tp3462
assg3
F1.0
sg29
(lp3463
(lp3464
g3115
aa(lp3465
g1216
aasg2
F1.0
ssI240
(dp3466
g1
F-1.0
sg7
(lp3467
(lp3468
S'harder'
p3469
aa(lp3470
S'hardest'
p3471
aasg13
(dp3472
g15
g16
(g20
S'\xd5x\xe9&1\x08\xe0?'
p3473
tp3474
Rp3475
sg26
(lp3476
(g3471
g3469
F0.501
tp3477
assg3
F0.0
sg29
(lp3478
(lp3479
g3471
aa(lp3480
g3469
aasg2
F1.0
ssI241
(dp3481
g1
F1.0
sg7
(lp3482
(lp3483
S'young'
p3484
aa(lp3485
S'youngest'
p3486
aasg13
(dp3487
g15
g16
(g20
S'\xd5x\xe9&1\x08\xe0?'
p3488
tp3489
Rp3490
sg26
(lp3491
(g3484
g3486
F0.501
tp3492
assg3
F1.0
sg29
(lp3493
(lp3494
g3484
aa(lp3495
g3486
aasg2
F1.0
ssI242
(dp3496
g1
F-1.0
sg7
(lp3497
(lp3498
g2265
aa(lp3499
g1160
aasg13
(dp3500
g15
g16
(g20
S'\xd5x\xe9&1\x08\xe0?'
p3501
tp3502
Rp3503
sg26
(lp3504
(g1160
g2265
F0.501
tp3505
assg3
F0.0
sg29
(lp3506
(lp3507
g1160
aa(lp3508
g2265
aasg2
F1.0
ssI243
(dp3509
g1
F-1.0
sg7
(lp3510
(lp3511
S'brave'
p3512
aa(lp3513
g83
aasg13
(dp3514
g15
g16
(g20
S'\xd5x\xe9&1\x08\xe0?'
p3515
tp3516
Rp3517
sg26
(lp3518
(g83
g3512
F0.501
tp3519
assg3
F0.0
sg29
(lp3520
(lp3521
g83
aa(lp3522
g3512
aasg2
F1.0
ssI244
(dp3523
g1
F1.0
sg7
(lp3524
(lp3525
g1025
aa(lp3526
g1027
aasg13
(dp3527
g15
g16
(g20
S'\xd5x\xe9&1\x08\xe0?'
p3528
tp3529
Rp3530
sg26
(lp3531
(g1025
g1027
F0.501
tp3532
assg3
F1.0
sg29
(lp3533
(lp3534
g1025
aa(lp3535
g1027
aasg2
F1.0
ssI245
(dp3536
g1
F1.0
sg7
(lp3537
(lp3538
g2577
aa(lp3539
g2579
aasg13
(dp3540
g15
g16
(g20
S'\xd5x\xe9&1\x08\xe0?'
p3541
tp3542
Rp3543
sg26
(lp3544
(g2577
g2579
F0.501
tp3545
assg3
F1.0
sg29
(lp3546
(lp3547
g2577
aa(lp3548
g2579
aasg2
F1.0
ssI246
(dp3549
g1
F-1.0
sg7
(lp3550
(lp3551
S'dark'
p3552
aa(lp3553
S'darkest'
p3554
aasg13
(dp3555
g15
g16
(g20
S'\xd5x\xe9&1\x08\xe0?'
p3556
tp3557
Rp3558
sg26
(lp3559
(g3554
g3552
F0.501
tp3560
assg3
F0.0
sg29
(lp3561
(lp3562
g3554
aa(lp3563
g3552
aasg2
F1.0
ssI247
(dp3564
g1
F1.0
sg7
(lp3565
(lp3566
S'swift'
p3567
aa(lp3568
S'swifter'
p3569
aasg13
(dp3570
g15
g16
(g20
S'\xd5x\xe9&1\x08\xe0?'
p3571
tp3572
Rp3573
sg26
(lp3574
(g3567
g3569
F0.501
tp3575
assg3
F1.0
sg29
(lp3576
(lp3577
g3567
aa(lp3578
g3569
aasg2
F1.0
ssI248
(dp3579
g1
F-1.0
sg7
(lp3580
(lp3581
S'happier'
p3582
aa(lp3583
S'happiest'
p3584
aasg13
(dp3585
g15
g16
(g20
S'\xd5x\xe9&1\x08\xe0?'
p3586
tp3587
Rp3588
sg26
(lp3589
(g3584
g3582
F0.501
tp3590
assg3
F0.0
sg29
(lp3591
(lp3592
g3584
aa(lp3593
g3582
aasg2
F1.0
ssI249
(dp3594
g1
F-1.0
sg7
(lp3595
(lp3596
g1070
aa(lp3597
g1072
aasg13
(dp3598
g15
g16
(g20
S'\xd5x\xe9&1\x08\xe0?'
p3599
tp3600
Rp3601
sg26
(lp3602
(g1072
g1070
F0.501
tp3603
assg3
F0.0
sg29
(lp3604
(lp3605
g1072
aa(lp3606
g1070
aasg2
F1.0
ssI250
(dp3607
g1
F1.0
sg7
(lp3608
(lp3609
S'sharp'
p3610
aa(lp3611
S'sharper'
p3612
aasg13
(dp3613
g15
g16
(g20
S'\xd5x\xe9&1\x08\xe0?'
p3614
tp3615
Rp3616
sg26
(lp3617
(g3610
g3612
F0.501
tp3618
assg3
F1.0
sg29
(lp3619
(lp3620
g3610
aa(lp3621
g3612
aasg2
F1.0
ssI251
(dp3622
g1
F-1.0
sg7
(lp3623
(lp3624
g111
aa(lp3625
g113
aasg13
(dp3626
g15
g16
(g20
S'\xd5x\xe9&1\x08\xe0?'
p3627
tp3628
Rp3629
sg26
(lp3630
(g113
g111
F0.501
tp3631
assg3
F0.0
sg29
(lp3632
(lp3633
g113
aa(lp3634
g111
aasg2
F1.0
ssI252
(dp3635
g1
F-1.0
sg7
(lp3636
(lp3637
S'broad'
p3638
aa(lp3639
S'broadest'
p3640
aasg13
(dp3641
g15
g16
(g20
S'\xd5x\xe9&1\x08\xe0?'
p3642
tp3643
Rp3644
sg26
(lp3645
(g3640
g3638
F0.501
tp3646
assg3
F0.0
sg29
(lp3647
(lp3648
g3640
aa(lp3649
g3638
aasg2
F1.0
ssI253
(dp3650
g1
F-1.0
sg7
(lp3651
(lp3652
g601
aa(lp3653
g603
aasg13
(dp3654
g15
g16
(g20
S'\xd5x\xe9&1\x08\xe0?'
p3655
tp3656
Rp3657
sg26
(lp3658
(g603
g601
F0.501
tp3659
assg3
F0.0
sg29
(lp3660
(lp3661
g603
aa(lp3662
g601
aasg2
F1.0
ssI254
(dp3663
g1
F-1.0
sg7
(lp3664
(lp3665
g2192
aa(lp3666
g2194
aasg13
(dp3667
g15
g16
(g20
S'\xd5x\xe9&1\x08\xe0?'
p3668
tp3669
Rp3670
sg26
(lp3671
(g2194
g2192
F0.501
tp3672
assg3
F0.0
sg29
(lp3673
(lp3674
g2194
aa(lp3675
g2192
aasg2
F1.0
ssI255
(dp3676
g1
F-1.0
sg7
(lp3677
(lp3678
g2564
aa(lp3679
g2730
aasg13
(dp3680
g15
g16
(g20
S'\xd5x\xe9&1\x08\xe0?'
p3681
tp3682
Rp3683
sg26
(lp3684
(g2730
g2564
F0.501
tp3685
assg3
F0.0
sg29
(lp3686
(lp3687
g2730
aa(lp3688
g2564
aasg2
F1.0
ssI256
(dp3689
g1
F-1.0
sg7
(lp3690
(lp3691
S'fairer'
p3692
aa(lp3693
S'fairest'
p3694
aasg13
(dp3695
g15
g16
(g20
S'\xd5x\xe9&1\x08\xe0?'
p3696
tp3697
Rp3698
sg26
(lp3699
(g3694
g3692
F0.501
tp3700
assg3
F0.0
sg29
(lp3701
(lp3702
g3694
aa(lp3703
g3692
aasg2
F1.0
ssI257
(dp3704
g1
F-1.0
sg7
(lp3705
(lp3706
S'free'
p3707
aa(lp3708
S'freest'
p3709
aasg13
(dp3710
g15
g16
(g20
S'\xd5x\xe9&1\x08\xe0?'
p3711
tp3712
Rp3713
sg26
(lp3714
(g3709
g3707
F0.501
tp3715
assg3
F0.0
sg29
(lp3716
(lp3717
g3709
aa(lp3718
g3707
aasg2
F1.0
ssI258
(dp3719
g1
F1.0
sg7
(lp3720
(lp3721
S'less'
p3722
aa(lp3723
S'least'
p3724
aasg13
(dp3725
g15
g16
(g20
S'\xd5x\xe9&1\x08\xe0?'
p3726
tp3727
Rp3728
sg26
(lp3729
(g3722
g3724
F0.501
tp3730
assg3
F1.0
sg29
(lp3731
(lp3732
g3722
aa(lp3733
g3724
aasg2
F1.0
ssI259
(dp3734
g1
F-1.0
sg7
(lp3735
(lp3736
S'timely'
p3737
aa(lp3738
S'timelier'
p3739
aasg13
(dp3740
g15
g16
(g20
S'\xd5x\xe9&1\x08\xe0?'
p3741
tp3742
Rp3743
sg26
(lp3744
(g3739
g3737
F0.501
tp3745
assg3
F0.0
sg29
(lp3746
(lp3747
g3739
aa(lp3748
g3737
aasg2
F1.0
ssI260
(dp3749
g1
F-1.0
sg7
(lp3750
(lp3751
S'lengthy'
p3752
aa(lp3753
S'lengthier'
p3754
aasg13
(dp3755
g15
g16
(g20
S'\xd5x\xe9&1\x08\xe0?'
p3756
tp3757
Rp3758
sg26
(lp3759
(g3754
g3752
F0.501
tp3760
assg3
F0.0
sg29
(lp3761
(lp3762
g3754
aa(lp3763
g3752
aasg2
F1.0
ssI261
(dp3764
g1
F1.0
sg7
(lp3765
(lp3766
S'deep'
p3767
aa(lp3768
g1663
aasg13
(dp3769
g15
g16
(g20
S'\xd5x\xe9&1\x08\xe0?'
p3770
tp3771
Rp3772
sg26
(lp3773
(g3767
g1663
F0.501
tp3774
assg3
F1.0
sg29
(lp3775
(lp3776
g3767
aa(lp3777
g1663
aasg2
F1.0
ssI262
(dp3778
g1
F1.0
sg7
(lp3779
(lp3780
g1333
aa(lp3781
g1276
aasg13
(dp3782
g15
g16
(g20
S'\xd5x\xe9&1\x08\xe0?'
p3783
tp3784
Rp3785
sg26
(lp3786
(g1333
g1276
F0.501
tp3787
assg3
F1.0
sg29
(lp3788
(lp3789
g1333
aa(lp3790
g1276
aasg2
F1.0
ssI263
(dp3791
g1
F-1.0
sg7
(lp3792
(lp3793
g3170
aa(lp3794
g3172
aasg13
(dp3795
g15
g16
(g20
S'\xd5x\xe9&1\x08\xe0?'
p3796
tp3797
Rp3798
sg26
(lp3799
(g3172
g3170
F0.501
tp3800
assg3
F0.0
sg29
(lp3801
(lp3802
g3172
aa(lp3803
g3170
aasg2
F1.0
ssI264
(dp3804
g1
F-1.0
sg7
(lp3805
(lp3806
g1706
aa(lp3807
g1708
aasg13
(dp3808
g15
g16
(g20
S'\xd5x\xe9&1\x08\xe0?'
p3809
tp3810
Rp3811
sg26
(lp3812
(g1708
g1706
F0.501
tp3813
assg3
F0.0
sg29
(lp3814
(lp3815
g1708
aa(lp3816
g1706
aasg2
F1.0
ssI265
(dp3817
g1
F-1.0
sg7
(lp3818
(lp3819
S'fat'
p3820
aa(lp3821
S'fatter'
p3822
aasg13
(dp3823
g15
g16
(g20
S'\xd5x\xe9&1\x08\xe0?'
p3824
tp3825
Rp3826
sg26
(lp3827
(g3822
g3820
F0.501
tp3828
assg3
F0.0
sg29
(lp3829
(lp3830
g3822
aa(lp3831
g3820
aasg2
F1.0
ssI266
(dp3832
g1
F-1.0
sg7
(lp3833
(lp3834
g3215
aa(lp3835
g3217
aasg13
(dp3836
g15
g16
(g20
S'\xd5x\xe9&1\x08\xe0?'
p3837
tp3838
Rp3839
sg26
(lp3840
(g3217
g3215
F0.501
tp3841
assg3
F0.0
sg29
(lp3842
(lp3843
g3217
aa(lp3844
g3215
aasg2
F1.0
ssI267
(dp3845
g1
F-1.0
sg7
(lp3846
(lp3847
g2035
aa(lp3848
g2037
aasg13
(dp3849
g15
g16
(g20
S'\xd5x\xe9&1\x08\xe0?'
p3850
tp3851
Rp3852
sg26
(lp3853
(g2037
g2035
F0.501
tp3854
assg3
F0.0
sg29
(lp3855
(lp3856
g2037
aa(lp3857
g2035
aasg2
F1.0
ssI268
(dp3858
g1
F-1.0
sg7
(lp3859
(lp3860
S'tight'
p3861
aa(lp3862
S'tighter'
p3863
aasg13
(dp3864
g15
g16
(g20
S'\xd5x\xe9&1\x08\xe0?'
p3865
tp3866
Rp3867
sg26
(lp3868
(g3863
g3861
F0.501
tp3869
assg3
F0.0
sg29
(lp3870
(lp3871
g3863
aa(lp3872
g3861
aasg2
F1.0
ssI269
(dp3873
g1
F-1.0
sg7
(lp3874
(lp3875
g2620
aa(lp3876
g558
aasg13
(dp3877
g15
g16
(g20
S'\xd5x\xe9&1\x08\xe0?'
p3878
tp3879
Rp3880
sg26
(lp3881
(g558
g2620
F0.501
tp3882
assg3
F0.0
sg29
(lp3883
(lp3884
g558
aa(lp3885
g2620
aasg2
F1.0
ssI270
(dp3886
g1
F-1.0
sg7
(lp3887
(lp3888
S'warmer'
p3889
aa(lp3890
S'warmest'
p3891
aasg13
(dp3892
g15
g16
(g20
S'\xd5x\xe9&1\x08\xe0?'
p3893
tp3894
Rp3895
sg26
(lp3896
(g3891
g3889
F0.501
tp3897
assg3
F0.0
sg29
(lp3898
(lp3899
g3891
aa(lp3900
g3889
aasg2
F1.0
ssI271
(dp3901
g1
F1.0
sg7
(lp3902
(lp3903
g366
aa(lp3904
S'cleaner'
p3905
aasg13
(dp3906
g15
g16
(g20
S'\xd5x\xe9&1\x08\xe0?'
p3907
tp3908
Rp3909
sg26
(lp3910
(g366
g3905
F0.501
tp3911
assg3
F1.0
sg29
(lp3912
(lp3913
g366
aa(lp3914
g3905
aasg2
F1.0
ssI272
(dp3915
g1
F-1.0
sg7
(lp3916
(lp3917
S'greater'
p3918
aa(lp3919
S'greatest'
p3920
aasg13
(dp3921
g15
g16
(g20
S'\xd5x\xe9&1\x08\xe0?'
p3922
tp3923
Rp3924
sg26
(lp3925
(g3920
g3918
F0.501
tp3926
assg3
F0.0
sg29
(lp3927
(lp3928
g3920
aa(lp3929
g3918
aasg2
F1.0
ssI273
(dp3930
g1
F-1.0
sg7
(lp3931
(lp3932
S'small'
p3933
aa(lp3934
S'smallest'
p3935
aasg13
(dp3936
g15
g16
(g20
S'\xd5x\xe9&1\x08\xe0?'
p3937
tp3938
Rp3939
sg26
(lp3940
(g3935
g3933
F0.501
tp3941
assg3
F0.0
sg29
(lp3942
(lp3943
g3935
aa(lp3944
g3933
aasg2
F1.0
ssI274
(dp3945
g1
F-1.0
sg7
(lp3946
(lp3947
g3692
aa(lp3948
g3694
aasg13
(dp3949
g15
g16
(g20
S'\xd5x\xe9&1\x08\xe0?'
p3950
tp3951
Rp3952
sg26
(lp3953
(g3694
g3692
F0.501
tp3954
assg3
F0.0
sg29
(lp3955
(lp3956
g3694
aa(lp3957
g3692
aasg2
F1.0
ssI275
(dp3958
g1
F-1.0
sg7
(lp3959
(lp3960
g3469
aa(lp3961
g3471
aasg13
(dp3962
g15
g16
(g20
S'\xd5x\xe9&1\x08\xe0?'
p3963
tp3964
Rp3965
sg26
(lp3966
(g3471
g3469
F0.501
tp3967
assg3
F0.0
sg29
(lp3968
(lp3969
g3471
aa(lp3970
g3469
aasg2
F1.0
ssI276
(dp3971
g1
F1.0
sg7
(lp3972
(lp3973
g2235
aa(lp3974
g2237
aasg13
(dp3975
g15
g16
(g20
S'\xd5x\xe9&1\x08\xe0?'
p3976
tp3977
Rp3978
sg26
(lp3979
(g2235
g2237
F0.501
tp3980
assg3
F1.0
sg29
(lp3981
(lp3982
g2235
aa(lp3983
g2237
aasg2
F1.0
ssI277
(dp3984
g1
F-1.0
sg7
(lp3985
(lp3986
S'weaker'
p3987
aa(lp3988
S'weakest'
p3989
aasg13
(dp3990
g15
g16
(g20
S'\xd5x\xe9&1\x08\xe0?'
p3991
tp3992
Rp3993
sg26
(lp3994
(g3989
g3987
F0.501
tp3995
assg3
F0.0
sg29
(lp3996
(lp3997
g3989
aa(lp3998
g3987
aasg2
F1.0
ssI278
(dp3999
g1
F1.0
sg7
(lp4000
(lp4001
g3343
aa(lp4002
g3345
aasg13
(dp4003
g15
g16
(g20
S'\xd5x\xe9&1\x08\xe0?'
p4004
tp4005
Rp4006
sg26
(lp4007
(g3343
g3345
F0.501
tp4008
assg3
F1.0
sg29
(lp4009
(lp4010
g3343
aa(lp4011
g3345
aasg2
F1.0
ssI279
(dp4012
g1
F-1.0
sg7
(lp4013
(lp4014
S'stricter'
p4015
aa(lp4016
g3217
aasg13
(dp4017
g15
g16
(g20
S'\xd5x\xe9&1\x08\xe0?'
p4018
tp4019
Rp4020
sg26
(lp4021
(g3217
g4015
F0.501
tp4022
assg3
F0.0
sg29
(lp4023
(lp4024
g3217
aa(lp4025
g4015
aasg2
F1.0
ssI280
(dp4026
g1
F1.0
sg7
(lp4027
(lp4028
g2743
aa(lp4029
g2745
aasg13
(dp4030
g15
g16
(g20
S'\xd5x\xe9&1\x08\xe0?'
p4031
tp4032
Rp4033
sg26
(lp4034
(g2743
g2745
F0.501
tp4035
assg3
F1.0
sg29
(lp4036
(lp4037
g2743
aa(lp4038
g2745
aasg2
F1.0
ssI281
(dp4039
g1
F-1.0
sg7
(lp4040
(lp4041
g3260
aa(lp4042
g2364
aasg13
(dp4043
g15
g16
(g20
S'\xd5x\xe9&1\x08\xe0?'
p4044
tp4045
Rp4046
sg26
(lp4047
(g2364
g3260
F0.501
tp4048
assg3
F0.0
sg29
(lp4049
(lp4050
g2364
aa(lp4051
g3260
aasg2
F1.0
ssI282
(dp4052
g1
F-1.0
sg7
(lp4053
(lp4054
S'clear'
p4055
aa(lp4056
S'clearest'
p4057
aasg13
(dp4058
g15
g16
(g20
S'\xd5x\xe9&1\x08\xe0?'
p4059
tp4060
Rp4061
sg26
(lp4062
(g4057
g4055
F0.501
tp4063
assg3
F0.0
sg29
(lp4064
(lp4065
g4057
aa(lp4066
g4055
aasg2
F1.0
ssI283
(dp4067
g1
F1.0
sg7
(lp4068
(lp4069
S'rich'
p4070
aa(lp4071
S'richest'
p4072
aasg13
(dp4073
g15
g16
(g20
S'\xd5x\xe9&1\x08\xe0?'
p4074
tp4075
Rp4076
sg26
(lp4077
(g4070
g4072
F0.501
tp4078
assg3
F1.0
sg29
(lp4079
(lp4080
g4070
aa(lp4081
g4072
aasg2
F1.0
ssI284
(dp4082
g1
F1.0
sg7
(lp4083
(lp4084
S'early'
p4085
aa(lp4086
S'earlier'
p4087
aasg13
(dp4088
g15
g16
(g20
S'\xd5x\xe9&1\x08\xe0?'
p4089
tp4090
Rp4091
sg26
(lp4092
(g4085
g4087
F0.501
tp4093
assg3
F1.0
sg29
(lp4094
(lp4095
g4085
aa(lp4096
g4087
aasg2
F1.0
ssI285
(dp4097
g1
F-1.0
sg7
(lp4098
(lp4099
g2919
aa(lp4100
g2921
aasg13
(dp4101
g15
g16
(g20
S'\xd5x\xe9&1\x08\xe0?'
p4102
tp4103
Rp4104
sg26
(lp4105
(g2921
g2919
F0.501
tp4106
assg3
F0.0
sg29
(lp4107
(lp4108
g2921
aa(lp4109
g2919
aasg2
F1.0
ssI286
(dp4110
g1
F1.0
sg7
(lp4111
(lp4112
S'large'
p4113
aa(lp4114
S'largest'
p4115
aasg13
(dp4116
g15
g16
(g20
S'\xd5x\xe9&1\x08\xe0?'
p4117
tp4118
Rp4119
sg26
(lp4120
(g4113
g4115
F0.501
tp4121
assg3
F1.0
sg29
(lp4122
(lp4123
g4113
aa(lp4124
g4115
aasg2
F1.0
ssI287
(dp4125
g1
F-1.0
sg7
(lp4126
(lp4127
g3918
aa(lp4128
g3920
aasg13
(dp4129
g15
g16
(g20
S'\xd5x\xe9&1\x08\xe0?'
p4130
tp4131
Rp4132
sg26
(lp4133
(g3920
g3918
F0.501
tp4134
assg3
F0.0
sg29
(lp4135
(lp4136
g3920
aa(lp4137
g3918
aasg2
F1.0
ssI288
(dp4138
g1
F-1.0
sg7
(lp4139
(lp4140
g2362
aa(lp4141
g2364
aasg13
(dp4142
g15
g16
(g20
S'\xd5x\xe9&1\x08\xe0?'
p4143
tp4144
Rp4145
sg26
(lp4146
(g2364
g2362
F0.501
tp4147
assg3
F0.0
sg29
(lp4148
(lp4149
g2364
aa(lp4150
g2362
aasg2
F1.0
ssI289
(dp4151
g1
F1.0
sg7
(lp4152
(lp4153
g3722
aa(lp4154
g3724
aasg13
(dp4155
g15
g16
(g20
S'\xd5x\xe9&1\x08\xe0?'
p4156
tp4157
Rp4158
sg26
(lp4159
(g3722
g3724
F0.501
tp4160
assg3
F1.0
sg29
(lp4161
(lp4162
g3722
aa(lp4163
g3724
aasg2
F1.0
ssI290
(dp4164
g1
F-1.0
sg7
(lp4165
(lp4166
g3889
aa(lp4167
g3891
aasg13
(dp4168
g15
g16
(g20
S'\xd5x\xe9&1\x08\xe0?'
p4169
tp4170
Rp4171
sg26
(lp4172
(g3891
g3889
F0.501
tp4173
assg3
F0.0
sg29
(lp4174
(lp4175
g3891
aa(lp4176
g3889
aasg2
F1.0
ssI291
(dp4177
g1
F-1.0
sg7
(lp4178
(lp4179
S'fair'
p4180
aa(lp4181
g3694
aasg13
(dp4182
g15
g16
(g20
S'\xd5x\xe9&1\x08\xe0?'
p4183
tp4184
Rp4185
sg26
(lp4186
(g3694
g4180
F0.501
tp4187
assg3
F0.0
sg29
(lp4188
(lp4189
g3694
aa(lp4190
g4180
aasg2
F1.0
ssI292
(dp4191
g1
F-1.0
sg7
(lp4192
(lp4193
S'hard'
p4194
aa(lp4195
g3471
aasg13
(dp4196
g15
g16
(g20
S'\xd5x\xe9&1\x08\xe0?'
p4197
tp4198
Rp4199
sg26
(lp4200
(g3471
g4194
F0.501
tp4201
assg3
F0.0
sg29
(lp4202
(lp4203
g3471
aa(lp4204
g4194
aasg2
F1.0
ssI293
(dp4205
g1
F-1.0
sg7
(lp4206
(lp4207
S'close'
p4208
aa(lp4209
S'closest'
p4210
aasg13
(dp4211
g15
g16
(g20
S'\xd5x\xe9&1\x08\xe0?'
p4212
tp4213
Rp4214
sg26
(lp4215
(g4210
g4208
F0.501
tp4216
assg3
F0.0
sg29
(lp4217
(lp4218
g4210
aa(lp4219
g4208
aasg2
F1.0
ssI294
(dp4220
g1
F-1.0
sg7
(lp4221
(lp4222
g3245
aa(lp4223
g3247
aasg13
(dp4224
g15
g16
(g20
S'\xd5x\xe9&1\x08\xe0?'
p4225
tp4226
Rp4227
sg26
(lp4228
(g3247
g3245
F0.501
tp4229
assg3
F0.0
sg29
(lp4230
(lp4231
g3247
aa(lp4232
g3245
aasg2
F1.0
ssI295
(dp4233
g1
F-1.0
sg7
(lp4234
(lp4235
S'longer'
p4236
aa(lp4237
S'longest'
p4238
aasg13
(dp4239
g15
g16
(g20
S'\xd5x\xe9&1\x08\xe0?'
p4240
tp4241
Rp4242
sg26
(lp4243
(g4238
g4236
F0.501
tp4244
assg3
F0.0
sg29
(lp4245
(lp4246
g4238
aa(lp4247
g4236
aasg2
F1.0
ssI296
(dp4248
g1
F1.0
sg7
(lp4249
(lp4250
S'late'
p4251
aa(lp4252
S'latest'
p4253
aasg13
(dp4254
g15
g16
(g20
S'\xd5x\xe9&1\x08\xe0?'
p4255
tp4256
Rp4257
sg26
(lp4258
(g4251
g4253
F0.501
tp4259
assg3
F1.0
sg29
(lp4260
(lp4261
g4251
aa(lp4262
g4253
aasg2
F1.0
ssI297
(dp4263
g1
F-1.0
sg7
(lp4264
(lp4265
g1965
aa(lp4266
g1967
aasg13
(dp4267
g15
g16
(g20
S'\xd5x\xe9&1\x08\xe0?'
p4268
tp4269
Rp4270
sg26
(lp4271
(g1967
g1965
F0.501
tp4272
assg3
F0.0
sg29
(lp4273
(lp4274
g1967
aa(lp4275
g1965
aasg2
F1.0
ssI298
(dp4276
g1
F-1.0
sg7
(lp4277
(lp4278
g3582
aa(lp4279
g3584
aasg13
(dp4280
g15
g16
(g20
S'\xd5x\xe9&1\x08\xe0?'
p4281
tp4282
Rp4283
sg26
(lp4284
(g3584
g3582
F0.501
tp4285
assg3
F0.0
sg29
(lp4286
(lp4287
g3584
aa(lp4288
g3582
aasg2
F1.0
ssI299
(dp4289
g1
F1.0
sg7
(lp4290
(lp4291
S'speedy'
p4292
aa(lp4293
S'speedier'
p4294
aasg13
(dp4295
g15
g16
(g20
S'\xd5x\xe9&1\x08\xe0?'
p4296
tp4297
Rp4298
sg26
(lp4299
(g4292
g4294
F0.501
tp4300
assg3
F1.0
sg29
(lp4301
(lp4302
g4292
aa(lp4303
g4294
aasg2
F1.0
ssI300
(dp4304
g1
F1.0
sg7
(lp4305
(lp4306
S'well'
p4307
aa(lp4308
S'best'
p4309
aasg13
(dp4310
g15
g16
(g20
S'\xd5x\xe9&1\x08\xe0?'
p4311
tp4312
Rp4313
sg26
(lp4314
(g4307
g4309
F0.501
tp4315
assg3
F1.0
sg29
(lp4316
(lp4317
g4307
aa(lp4318
g4309
aasg2
F1.0
ssI301
(dp4319
g1
F-1.0
sg7
(lp4320
(lp4321
g36
aa(lp4322
g38
aasg13
(dp4323
g15
g16
(g20
S'\xd5x\xe9&1\x08\xe0?'
p4324
tp4325
Rp4326
sg26
(lp4327
(g38
g36
F0.501
tp4328
assg3
F0.0
sg29
(lp4329
(lp4330
g38
aa(lp4331
g36
aasg2
F1.0
ssI302
(dp4332
g1
F-1.0
sg7
(lp4333
(lp4334
g4180
aa(lp4335
g3692
aasg13
(dp4336
g15
g16
(g20
S'\xd5x\xe9&1\x08\xe0?'
p4337
tp4338
Rp4339
sg26
(lp4340
(g3692
g4180
F0.501
tp4341
assg3
F0.0
sg29
(lp4342
(lp4343
g3692
aa(lp4344
g4180
aasg2
F1.0
ssI303
(dp4345
g1
F-1.0
sg7
(lp4346
(lp4347
g469
aa(lp4348
g443
aasg13
(dp4349
g15
g16
(g20
S'\xd5x\xe9&1\x08\xe0?'
p4350
tp4351
Rp4352
sg26
(lp4353
(g443
g469
F0.501
tp4354
assg3
F0.0
sg29
(lp4355
(lp4356
g443
aa(lp4357
g469
aasg2
F1.0
ssI304
(dp4358
g1
F-1.0
sg7
(lp4359
(lp4360
S'larger'
p4361
aa(lp4362
S'largest'
p4363
aasg13
(dp4364
g15
g16
(g20
S'\xd5x\xe9&1\x08\xe0?'
p4365
tp4366
Rp4367
sg26
(lp4368
(g4363
g4361
F0.501
tp4369
assg3
F0.0
sg29
(lp4370
(lp4371
g4363
aa(lp4372
g4361
aasg2
F1.0
ssI305
(dp4373
g1
F-1.0
sg7
(lp4374
(lp4375
g4194
aa(lp4376
g3471
aasg13
(dp4377
g15
g16
(g20
S'\xd5x\xe9&1\x08\xe0?'
p4378
tp4379
Rp4380
sg26
(lp4381
(g3471
g4194
F0.501
tp4382
assg3
F0.0
sg29
(lp4383
(lp4384
g3471
aa(lp4385
g4194
aasg2
F1.0
ssI306
(dp4386
g1
F-1.0
sg7
(lp4387
(lp4388
g1040
aa(lp4389
g1042
aasg13
(dp4390
g15
g16
(g20
S'\xd5x\xe9&1\x08\xe0?'
p4391
tp4392
Rp4393
sg26
(lp4394
(g1042
g1040
F0.501
tp4395
assg3
F0.0
sg29
(lp4396
(lp4397
g1042
aa(lp4398
g1040
aasg2
F1.0
ssI307
(dp4399
g1
F-1.0
sg7
(lp4400
(lp4401
g3905
aa(lp4402
g368
aasg13
(dp4403
g15
g16
(g20
S'\xd5x\xe9&1\x08\xe0?'
p4404
tp4405
Rp4406
sg26
(lp4407
(g368
g3905
F0.501
tp4408
assg3
F0.0
sg29
(lp4409
(lp4410
g368
aa(lp4411
g3905
aasg2
F1.0
ssI308
(dp4412
g1
F1.0
sg7
(lp4413
(lp4414
S'dear'
p4415
aa(lp4416
S'dearer'
p4417
aasg13
(dp4418
g15
g16
(g20
S'\xd5x\xe9&1\x08\xe0?'
p4419
tp4420
Rp4421
sg26
(lp4422
(g4415
g4417
F0.501
tp4423
assg3
F1.0
sg29
(lp4424
(lp4425
g4415
aa(lp4426
g4417
aasg2
F1.0
ssI309
(dp4427
g1
F-1.0
sg7
(lp4428
(lp4429
g3861
aa(lp4430
g3863
aasg13
(dp4431
g15
g16
(g20
S'\xd5x\xe9&1\x08\xe0?'
p4432
tp4433
Rp4434
sg26
(lp4435
(g3863
g3861
F0.501
tp4436
assg3
F0.0
sg29
(lp4437
(lp4438
g3863
aa(lp4439
g3861
aasg2
F1.0
ssI310
(dp4440
g1
F-1.0
sg7
(lp4441
(lp4442
S'safe'
p4443
aa(lp4444
S'safest'
p4445
aasg13
(dp4446
g15
g16
(g20
S'\xd5x\xe9&1\x08\xe0?'
p4447
tp4448
Rp4449
sg26
(lp4450
(g4445
g4443
F0.501
tp4451
assg3
F0.0
sg29
(lp4452
(lp4453
g4445
aa(lp4454
g4443
aasg2
F1.0
ssI311
(dp4455
g1
F-1.0
sg7
(lp4456
(lp4457
g3200
aa(lp4458
g3202
aasg13
(dp4459
g15
g16
(g20
S'\xd5x\xe9&1\x08\xe0?'
p4460
tp4461
Rp4462
sg26
(lp4463
(g3202
g3200
F0.501
tp4464
assg3
F0.0
sg29
(lp4465
(lp4466
g3202
aa(lp4467
g3200
aasg2
F1.0
ssI312
(dp4468
g1
F1.0
sg7
(lp4469
(lp4470
g3358
aa(lp4471
g3360
aasg13
(dp4472
g15
g16
(g20
S'\xd5x\xe9&1\x08\xe0?'
p4473
tp4474
Rp4475
sg26
(lp4476
(g3358
g3360
F0.501
tp4477
assg3
F1.0
sg29
(lp4478
(lp4479
g3358
aa(lp4480
g3360
aasg2
F1.0
ssI313
(dp4481
g1
F-1.0
sg7
(lp4482
(lp4483
g997
aa(lp4484
g999
aasg13
(dp4485
g15
g16
(g20
S'\xd5x\xe9&1\x08\xe0?'
p4486
tp4487
Rp4488
sg26
(lp4489
(g999
g997
F0.501
tp4490
assg3
F0.0
sg29
(lp4491
(lp4492
g999
aa(lp4493
g997
aasg2
F1.0
ssI314
(dp4494
g1
F-1.0
sg7
(lp4495
(lp4496
g291
aa(lp4497
g293
aasg13
(dp4498
g15
g16
(g20
S'\xd5x\xe9&1\x08\xe0?'
p4499
tp4500
Rp4501
sg26
(lp4502
(g293
g291
F0.501
tp4503
assg3
F0.0
sg29
(lp4504
(lp4505
g293
aa(lp4506
g291
aasg2
F1.0
ssI315
(dp4507
g1
F-1.0
sg7
(lp4508
(lp4509
S'mighty'
p4510
aa(lp4511
S'mightier'
p4512
aasg13
(dp4513
g15
g16
(g20
S'\xd5x\xe9&1\x08\xe0?'
p4514
tp4515
Rp4516
sg26
(lp4517
(g4512
g4510
F0.501
tp4518
assg3
F0.0
sg29
(lp4519
(lp4520
g4512
aa(lp4521
g4510
aasg2
F1.0
ssI316
(dp4522
g1
F-1.0
sg7
(lp4523
(lp4524
S'fine'
p4525
aa(lp4526
S'finer'
p4527
aasg13
(dp4528
g15
g16
(g20
S'\xd5x\xe9&1\x08\xe0?'
p4529
tp4530
Rp4531
sg26
(lp4532
(g4527
g4525
F0.501
tp4533
assg3
F0.0
sg29
(lp4534
(lp4535
g4527
aa(lp4536
g4525
aasg2
F1.0
ssI317
(dp4537
g1
F-1.0
sg7
(lp4538
(lp4539
S'broader'
p4540
aa(lp4541
g3640
aasg13
(dp4542
g15
g16
(g20
S'\xd5x\xe9&1\x08\xe0?'
p4543
tp4544
Rp4545
sg26
(lp4546
(g3640
g4540
F0.501
tp4547
assg3
F0.0
sg29
(lp4548
(lp4549
g3640
aa(lp4550
g4540
aasg2
F1.0
ssI318
(dp4551
g1
F1.0
sg7
(lp4552
(lp4553
S'finer'
p4554
aa(lp4555
S'finest'
p4556
aasg13
(dp4557
g15
g16
(g20
S'\xd5x\xe9&1\x08\xe0?'
p4558
tp4559
Rp4560
sg26
(lp4561
(g4554
g4556
F0.501
tp4562
assg3
F1.0
sg29
(lp4563
(lp4564
g4554
aa(lp4565
g4556
aasg2
F1.0
ssI319
(dp4566
g1
F1.0
sg7
(lp4567
(lp4568
g2850
aa(lp4569
g2852
aasg13
(dp4570
g15
g16
(g20
S'\xd5x\xe9&1\x08\xe0?'
p4571
tp4572
Rp4573
sg26
(lp4574
(g2850
g2852
F0.501
tp4575
assg3
F1.0
sg29
(lp4576
(lp4577
g2850
aa(lp4578
g2852
aasg2
F1.0
ssI320
(dp4579
g1
F-1.0
sg7
(lp4580
(lp4581
g4525
aa(lp4582
g4527
aasg13
(dp4583
g15
g16
(g20
S'\xd5x\xe9&1\x08\xe0?'
p4584
tp4585
Rp4586
sg26
(lp4587
(g4527
g4525
F0.501
tp4588
assg3
F0.0
sg29
(lp4589
(lp4590
g4527
aa(lp4591
g4525
aasg2
F1.0
ssI321
(dp4592
g1
F-1.0
sg7
(lp4593
(lp4594
g1447
aa(lp4595
g1449
aasg13
(dp4596
g15
g16
(g20
S'\xd5x\xe9&1\x08\xe0?'
p4597
tp4598
Rp4599
sg26
(lp4600
(g1449
g1447
F0.501
tp4601
assg3
F0.0
sg29
(lp4602
(lp4603
g1449
aa(lp4604
g1447
aasg2
F1.0
ssI322
(dp4605
g1
F1.0
sg7
(lp4606
(lp4607
g4070
aa(lp4608
g4072
aasg13
(dp4609
g15
g16
(g20
S'\xd5x\xe9&1\x08\xe0?'
p4610
tp4611
Rp4612
sg26
(lp4613
(g4070
g4072
F0.501
tp4614
assg3
F1.0
sg29
(lp4615
(lp4616
g4070
aa(lp4617
g4072
aasg2
F1.0
ssI323
(dp4618
g1
F-1.0
sg7
(lp4619
(lp4620
S'poorer'
p4621
aa(lp4622
S'poorest'
p4623
aasg13
(dp4624
g15
g16
(g20
S'\xd5x\xe9&1\x08\xe0?'
p4625
tp4626
Rp4627
sg26
(lp4628
(g4623
g4621
F0.501
tp4629
assg3
F0.0
sg29
(lp4630
(lp4631
g4623
aa(lp4632
g4621
aasg2
F1.0
ssI324
(dp4633
g1
F-1.0
sg7
(lp4634
(lp4635
g2207
aa(lp4636
g2209
aasg13
(dp4637
g15
g16
(g20
S'\xd5x\xe9&1\x08\xe0?'
p4638
tp4639
Rp4640
sg26
(lp4641
(g2209
g2207
F0.501
tp4642
assg3
F0.0
sg29
(lp4643
(lp4644
g2209
aa(lp4645
g2207
aasg2
F1.0
ssI325
(dp4646
g1
F-1.0
sg7
(lp4647
(lp4648
S'old'
p4649
aa(lp4650
S'oldest'
p4651
aasg13
(dp4652
g15
g16
(g20
S'\xd5x\xe9&1\x08\xe0?'
p4653
tp4654
Rp4655
sg26
(lp4656
(g4651
g4649
F0.501
tp4657
assg3
F0.0
sg29
(lp4658
(lp4659
g4651
aa(lp4660
g4649
aasg2
F1.0
ssI326
(dp4661
g1
F1.0
sg7
(lp4662
(lp4663
g141
aa(lp4664
g143
aasg13
(dp4665
g15
g16
(g20
S'\xd5x\xe9&1\x08\xe0?'
p4666
tp4667
Rp4668
sg26
(lp4669
(g141
g143
F0.501
tp4670
assg3
F1.0
sg29
(lp4671
(lp4672
g141
aa(lp4673
g143
aasg2
F1.0
ssI327
(dp4674
g1
F-1.0
sg7
(lp4675
(lp4676
g126
aa(lp4677
g128
aasg13
(dp4678
g15
g16
(g20
S'\xd5x\xe9&1\x08\xe0?'
p4679
tp4680
Rp4681
sg26
(lp4682
(g128
g126
F0.501
tp4683
assg3
F0.0
sg29
(lp4684
(lp4685
g128
aa(lp4686
g126
aasg2
F1.0
ssI328
(dp4687
g1
F-1.0
sg7
(lp4688
(lp4689
S'clearer'
p4690
aa(lp4691
g4057
aasg13
(dp4692
g15
g16
(g20
S'\xd5x\xe9&1\x08\xe0?'
p4693
tp4694
Rp4695
sg26
(lp4696
(g4057
g4690
F0.501
tp4697
assg3
F0.0
sg29
(lp4698
(lp4699
g4057
aa(lp4700
g4690
aasg2
F1.0
ssI329
(dp4701
g1
F-1.0
sg7
(lp4702
(lp4703
g2462
aa(lp4704
g2464
aasg13
(dp4705
g15
g16
(g20
S'\xd5x\xe9&1\x08\xe0?'
p4706
tp4707
Rp4708
sg26
(lp4709
(g2464
g2462
F0.501
tp4710
assg3
F0.0
sg29
(lp4711
(lp4712
g2464
aa(lp4713
g2462
aasg2
F1.0
ssI330
(dp4714
g1
F1.0
sg7
(lp4715
(lp4716
g4554
aa(lp4717
g4556
aasg13
(dp4718
g15
g16
(g20
S'\xd5x\xe9&1\x08\xe0?'
p4719
tp4720
Rp4721
sg26
(lp4722
(g4554
g4556
F0.501
tp4723
assg3
F1.0
sg29
(lp4724
(lp4725
g4554
aa(lp4726
g4556
aasg2
F1.0
ssI331
(dp4727
g1
F1.0
sg7
(lp4728
(lp4729
S'thick'
p4730
aa(lp4731
S'thicker'
p4732
aasg13
(dp4733
g15
g16
(g20
S'\xd5x\xe9&1\x08\xe0?'
p4734
tp4735
Rp4736
sg26
(lp4737
(g4730
g4732
F0.501
tp4738
assg3
F1.0
sg29
(lp4739
(lp4740
g4730
aa(lp4741
g4732
aasg2
F1.0
ssI332
(dp4742
g1
F1.0
sg7
(lp4743
(lp4744
g3638
aa(lp4745
g4540
aasg13
(dp4746
g15
g16
(g20
S'\xd5x\xe9&1\x08\xe0?'
p4747
tp4748
Rp4749
sg26
(lp4750
(g3638
g4540
F0.501
tp4751
assg3
F1.0
sg29
(lp4752
(lp4753
g3638
aa(lp4754
g4540
aasg2
F1.0
ssI333
(dp4755
g1
F-1.0
sg7
(lp4756
(lp4757
S'proud'
p4758
aa(lp4759
S'prouder'
p4760
aasg13
(dp4761
g15
g16
(g20
S'\xd5x\xe9&1\x08\xe0?'
p4762
tp4763
Rp4764
sg26
(lp4765
(g4760
g4758
F0.501
tp4766
assg3
F0.0
sg29
(lp4767
(lp4768
g4760
aa(lp4769
g4758
aasg2
F1.0
ssI334
(dp4770
g1
F-1.0
sg7
(lp4771
(lp4772
g4236
aa(lp4773
g4238
aasg13
(dp4774
g15
g16
(g20
S'\xd5x\xe9&1\x08\xe0?'
p4775
tp4776
Rp4777
sg26
(lp4778
(g4238
g4236
F0.501
tp4779
assg3
F0.0
sg29
(lp4780
(lp4781
g4238
aa(lp4782
g4236
aasg2
F1.0
ssI335
(dp4783
g1
F-1.0
sg7
(lp4784
(lp4785
g428
aa(lp4786
g1603
aasg13
(dp4787
g15
g16
(g20
S'\xd5x\xe9&1\x08\xe0?'
p4788
tp4789
Rp4790
sg26
(lp4791
(g1603
g428
F0.501
tp4792
assg3
F0.0
sg29
(lp4793
(lp4794
g1603
aa(lp4795
g428
aasg2
F1.0
ssI336
(dp4796
g1
F-1.0
sg7
(lp4797
(lp4798
S'faster'
p4799
aa(lp4800
S'fastest'
p4801
aasg13
(dp4802
g15
g16
(g20
S'\xd5x\xe9&1\x08\xe0?'
p4803
tp4804
Rp4805
sg26
(lp4806
(g4801
g4799
F0.501
tp4807
assg3
F0.0
sg29
(lp4808
(lp4809
g4801
aa(lp4810
g4799
aasg2
F1.0
ssI337
(dp4811
g1
F-1.0
sg7
(lp4812
(lp4813
S'sound'
p4814
aa(lp4815
S'sounder'
p4816
aasg13
(dp4817
g15
g16
(g20
S'\xd5x\xe9&1\x08\xe0?'
p4818
tp4819
Rp4820
sg26
(lp4821
(g4816
g4814
F0.501
tp4822
assg3
F0.0
sg29
(lp4823
(lp4824
g4816
aa(lp4825
g4814
aasg2
F1.0
ssI338
(dp4826
g1
F-1.0
sg7
(lp4827
(lp4828
g2250
aa(lp4829
g2252
aasg13
(dp4830
g15
g16
(g20
S'\xd5x\xe9&1\x08\xe0?'
p4831
tp4832
Rp4833
sg26
(lp4834
(g2252
g2250
F0.501
tp4835
assg3
F0.0
sg29
(lp4836
(lp4837
g2252
aa(lp4838
g2250
aasg2
F1.0
ssI339
(dp4839
g1
F1.0
sg7
(lp4840
(lp4841
S'late'
p4842
aa(lp4843
S'later'
p4844
aasg13
(dp4845
g15
g16
(g20
S'\xd5x\xe9&1\x08\xe0?'
p4846
tp4847
Rp4848
sg26
(lp4849
(g4842
g4844
F0.501
tp4850
assg3
F1.0
sg29
(lp4851
(lp4852
g4842
aa(lp4853
g4844
aasg2
F1.0
ssI340
(dp4854
g1
F1.0
sg7
(lp4855
(lp4856
S'funny'
p4857
aa(lp4858
S'funnier'
p4859
aasg13
(dp4860
g15
g16
(g20
S'\xd5x\xe9&1\x08\xe0?'
p4861
tp4862
Rp4863
sg26
(lp4864
(g4857
g4859
F0.501
tp4865
assg3
F1.0
sg29
(lp4866
(lp4867
g4857
aa(lp4868
g4859
aasg2
F1.0
ssI341
(dp4869
g1
F-1.0
sg7
(lp4870
(lp4871
S'higher'
p4872
aa(lp4873
S'highest'
p4874
aasg13
(dp4875
g15
g16
(g20
S'\xd5x\xe9&1\x08\xe0?'
p4876
tp4877
Rp4878
sg26
(lp4879
(g4874
g4872
F0.501
tp4880
assg3
F0.0
sg29
(lp4881
(lp4882
g4874
aa(lp4883
g4872
aasg2
F1.0
ssI342
(dp4884
g1
F-1.0
sg7
(lp4885
(lp4886
S'subtle'
p4887
aa(lp4888
S'subtler'
p4889
aasg13
(dp4890
g15
g16
(g20
S'\xd5x\xe9&1\x08\xe0?'
p4891
tp4892
Rp4893
sg26
(lp4894
(g4889
g4887
F0.501
tp4895
assg3
F0.0
sg29
(lp4896
(lp4897
g4889
aa(lp4898
g4887
aasg2
F1.0
ssI343
(dp4899
g1
F1.0
sg7
(lp4900
(lp4901
g3328
aa(lp4902
g3330
aasg13
(dp4903
g15
g16
(g20
S'\xd5x\xe9&1\x08\xe0?'
p4904
tp4905
Rp4906
sg26
(lp4907
(g3328
g3330
F0.501
tp4908
assg3
F1.0
sg29
(lp4909
(lp4910
g3328
aa(lp4911
g3330
aasg2
F1.0
ssI344
(dp4912
g1
F1.0
sg7
(lp4913
(lp4914
g646
aa(lp4915
g2491
aasg13
(dp4916
g15
g16
(g20
S'\xd5x\xe9&1\x08\xe0?'
p4917
tp4918
Rp4919
sg26
(lp4920
(g646
g2491
F0.501
tp4921
assg3
F1.0
sg29
(lp4922
(lp4923
g646
aa(lp4924
g2491
aasg2
F1.0
ssI345
(dp4925
g1
F-1.0
sg7
(lp4926
(lp4927
S'simpler'
p4928
aa(lp4929
g1362
aasg13
(dp4930
g15
g16
(g20
S'\xd5x\xe9&1\x08\xe0?'
p4931
tp4932
Rp4933
sg26
(lp4934
(g1362
g4928
F0.501
tp4935
assg3
F0.0
sg29
(lp4936
(lp4937
g1362
aa(lp4938
g4928
aasg2
F1.0
ssI346
(dp4939
g1
F-1.0
sg7
(lp4940
(lp4941
g3015
aa(lp4942
g3017
aasg13
(dp4943
g15
g16
(g20
S'\xd5x\xe9&1\x08\xe0?'
p4944
tp4945
Rp4946
sg26
(lp4947
(g3017
g3015
F0.501
tp4948
assg3
F0.0
sg29
(lp4949
(lp4950
g3017
aa(lp4951
g3015
aasg2
F1.0
ssI347
(dp4952
g1
F1.0
sg7
(lp4953
(lp4954
g1721
aa(lp4955
g1723
aasg13
(dp4956
g15
g16
(g20
S'\xd5x\xe9&1\x08\xe0?'
p4957
tp4958
Rp4959
sg26
(lp4960
(g1721
g1723
F0.501
tp4961
assg3
F1.0
sg29
(lp4962
(lp4963
g1721
aa(lp4964
g1723
aasg2
F1.0
ssI348
(dp4965
g1
F-1.0
sg7
(lp4966
(lp4967
g4208
aa(lp4968
g4210
aasg13
(dp4969
g15
g16
(g20
S'\xd5x\xe9&1\x08\xe0?'
p4970
tp4971
Rp4972
sg26
(lp4973
(g4210
g4208
F0.501
tp4974
assg3
F0.0
sg29
(lp4975
(lp4976
g4210
aa(lp4977
g4208
aasg2
F1.0
ssI349
(dp4978
g1
F1.0
sg7
(lp4979
(lp4980
S'smaller'
p4981
aa(lp4982
S'smallest'
p4983
aasg13
(dp4984
g15
g16
(g20
S'\xd5x\xe9&1\x08\xe0?'
p4985
tp4986
Rp4987
sg26
(lp4988
(g4981
g4983
F0.501
tp4989
assg3
F1.0
sg29
(lp4990
(lp4991
g4981
aa(lp4992
g4983
aasg2
F1.0
ssI350
(dp4993
g1
F1.0
sg7
(lp4994
(lp4995
S'broad'
p4996
aa(lp4997
S'broader'
p4998
aasg13
(dp4999
g15
g16
(g20
S'\xd5x\xe9&1\x08\xe0?'
p5000
tp5001
Rp5002
sg26
(lp5003
(g4996
g4998
F0.501
tp5004
assg3
F1.0
sg29
(lp5005
(lp5006
g4996
aa(lp5007
g4998
aasg2
F1.0
ssI351
(dp5008
g1
F1.0
sg7
(lp5009
(lp5010
g586
aa(lp5011
g588
aasg13
(dp5012
g15
g16
(g20
S'\xd5x\xe9&1\x08\xe0?'
p5013
tp5014
Rp5015
sg26
(lp5016
(g586
g588
F0.501
tp5017
assg3
F1.0
sg29
(lp5018
(lp5019
g586
aa(lp5020
g588
aasg2
F1.0
ssI352
(dp5021
g1
F1.0
sg7
(lp5022
(lp5023
g4996
aa(lp5024
g4998
aasg13
(dp5025
g15
g16
(g20
S'\xd5x\xe9&1\x08\xe0?'
p5026
tp5027
Rp5028
sg26
(lp5029
(g4996
g4998
F0.501
tp5030
assg3
F1.0
sg29
(lp5031
(lp5032
g4996
aa(lp5033
g4998
aasg2
F1.0
ssI353
(dp5034
g1
F-1.0
sg7
(lp5035
(lp5036
g2714
aa(lp5037
g2716
aasg13
(dp5038
g15
g16
(g20
S'\xd5x\xe9&1\x08\xe0?'
p5039
tp5040
Rp5041
sg26
(lp5042
(g2716
g2714
F0.501
tp5043
assg3
F0.0
sg29
(lp5044
(lp5045
g2716
aa(lp5046
g2714
aasg2
F1.0
ssI354
(dp5047
g1
F1.0
sg7
(lp5048
(lp5049
g4251
aa(lp5050
g4253
aasg13
(dp5051
g15
g16
(g20
S'\xd5x\xe9&1\x08\xe0?'
p5052
tp5053
Rp5054
sg26
(lp5055
(g4251
g4253
F0.501
tp5056
assg3
F1.0
sg29
(lp5057
(lp5058
g4251
aa(lp5059
g4253
aasg2
F1.0
ssI355
(dp5060
g1
F-1.0
sg7
(lp5061
(lp5062
S'happier'
p5063
aa(lp5064
g2921
aasg13
(dp5065
g15
g16
(g20
S'\xd5x\xe9&1\x08\xe0?'
p5066
tp5067
Rp5068
sg26
(lp5069
(g2921
g5063
F0.501
tp5070
assg3
F0.0
sg29
(lp5071
(lp5072
g2921
aa(lp5073
g5063
aasg2
F1.0
ssI356
(dp5074
g1
F1.0
sg7
(lp5075
(lp5076
S'dre'
p5077
aa(lp5078
S'drier'
p5079
aasg13
(dp5080
g15
g16
(g20
S'\xd5x\xe9&1\x08\xe0?'
p5081
tp5082
Rp5083
sg26
(lp5084
(g5077
g5079
F0.501
tp5085
assg3
F1.0
sg29
(lp5086
(lp5087
g5077
aa(lp5088
g5079
aasg2
F1.0
ssI357
(dp5089
g1
F-1.0
sg7
(lp5090
(lp5091
g2108
aa(lp5092
g2110
aasg13
(dp5093
g15
g16
(g20
S'\xd5x\xe9&1\x08\xe0?'
p5094
tp5095
Rp5096
sg26
(lp5097
(g2110
g2108
F0.501
tp5098
assg3
F0.0
sg29
(lp5099
(lp5100
g2110
aa(lp5101
g2108
aasg2
F1.0
ssI358
(dp5102
g1
F-1.0
sg7
(lp5103
(lp5104
g748
aa(lp5105
g750
aasg13
(dp5106
g15
g16
(g20
S'\xd5x\xe9&1\x08\xe0?'
p5107
tp5108
Rp5109
sg26
(lp5110
(g750
g748
F0.501
tp5111
assg3
F0.0
sg29
(lp5112
(lp5113
g750
aa(lp5114
g748
aasg2
F1.0
ssI359
(dp5115
g1
F1.0
sg7
(lp5116
(lp5117
g646
aa(lp5118
g648
aasg13
(dp5119
g15
g16
(g20
S'\xd5x\xe9&1\x08\xe0?'
p5120
tp5121
Rp5122
sg26
(lp5123
(g646
g648
F0.501
tp5124
assg3
F1.0
sg29
(lp5125
(lp5126
g646
aa(lp5127
g648
aasg2
F1.0
ssI360
(dp5128
g1
F-1.0
sg7
(lp5129
(lp5130
g4180
aa(lp5131
g3694
aasg13
(dp5132
g15
g16
(g20
S'\xd5x\xe9&1\x08\xe0?'
p5133
tp5134
Rp5135
sg26
(lp5136
(g3694
g4180
F0.501
tp5137
assg3
F0.0
sg29
(lp5138
(lp5139
g3694
aa(lp5140
g4180
aasg2
F1.0
ssI361
(dp5141
g1
F-1.0
sg7
(lp5142
(lp5143
S'low'
p5144
aa(lp5145
S'lowest'
p5146
aasg13
(dp5147
g15
g16
(g20
S'\xd5x\xe9&1\x08\xe0?'
p5148
tp5149
Rp5150
sg26
(lp5151
(g5146
g5144
F0.501
tp5152
assg3
F0.0
sg29
(lp5153
(lp5154
g5146
aa(lp5155
g5144
aasg2
F1.0
ssI362
(dp5156
g1
F1.0
sg7
(lp5157
(lp5158
g719
aa(lp5159
g721
aasg13
(dp5160
g15
g16
(g20
S'\xd5x\xe9&1\x08\xe0?'
p5161
tp5162
Rp5163
sg26
(lp5164
(g719
g721
F0.501
tp5165
assg3
F1.0
sg29
(lp5166
(lp5167
g719
aa(lp5168
g721
aasg2
F1.0
ssI363
(dp5169
g1
F-1.0
sg7
(lp5170
(lp5171
g4814
aa(lp5172
g4816
aasg13
(dp5173
g15
g16
(g20
S'\xd5x\xe9&1\x08\xe0?'
p5174
tp5175
Rp5176
sg26
(lp5177
(g4816
g4814
F0.501
tp5178
assg3
F0.0
sg29
(lp5179
(lp5180
g4816
aa(lp5181
g4814
aasg2
F1.0
ssI364
(dp5182
g1
F-1.0
sg7
(lp5183
(lp5184
g2634
aa(lp5185
g2636
aasg13
(dp5186
g15
g16
(g20
S'\xd5x\xe9&1\x08\xe0?'
p5187
tp5188
Rp5189
sg26
(lp5190
(g2636
g2634
F0.501
tp5191
assg3
F0.0
sg29
(lp5192
(lp5193
g2636
aa(lp5194
g2634
aasg2
F1.0
ssI365
(dp5195
g1
F-1.0
sg7
(lp5196
(lp5197
g3030
aa(lp5198
g3032
aasg13
(dp5199
g15
g16
(g20
S'\xd5x\xe9&1\x08\xe0?'
p5200
tp5201
Rp5202
sg26
(lp5203
(g3032
g3030
F0.501
tp5204
assg3
F0.0
sg29
(lp5205
(lp5206
g3032
aa(lp5207
g3030
aasg2
F1.0
ssI366
(dp5208
g1
F-1.0
sg7
(lp5209
(lp5210
g3512
aa(lp5211
g81
aasg13
(dp5212
g15
g16
(g20
S'\xd5x\xe9&1\x08\xe0?'
p5213
tp5214
Rp5215
sg26
(lp5216
(g81
g3512
F0.501
tp5217
assg3
F0.0
sg29
(lp5218
(lp5219
g81
aa(lp5220
g3512
aasg2
F1.0
ssI367
(dp5221
g1
F-1.0
sg7
(lp5222
(lp5223
S'clear'
p5224
aa(lp5225
S'clearest'
p5226
aasg13
(dp5227
g15
g16
(g20
S'\xd5x\xe9&1\x08\xe0?'
p5228
tp5229
Rp5230
sg26
(lp5231
(g5226
g5224
F0.501
tp5232
assg3
F0.0
sg29
(lp5233
(lp5234
g5226
aa(lp5235
g5224
aasg2
F1.0
ssI368
(dp5236
g1
F-1.0
sg7
(lp5237
(lp5238
g1836
aa(lp5239
g1838
aasg13
(dp5240
g15
g16
(g20
S'\xd5x\xe9&1\x08\xe0?'
p5241
tp5242
Rp5243
sg26
(lp5244
(g1838
g1836
F0.501
tp5245
assg3
F0.0
sg29
(lp5246
(lp5247
g1838
aa(lp5248
g1836
aasg2
F1.0
ssI369
(dp5249
g1
F-1.0
sg7
(lp5250
(lp5251
S'older'
p5252
aa(lp5253
S'oldest'
p5254
aasg13
(dp5255
g15
g16
(g20
S'\xd5x\xe9&1\x08\xe0?'
p5256
tp5257
Rp5258
sg26
(lp5259
(g5254
g5252
F0.501
tp5260
assg3
F0.0
sg29
(lp5261
(lp5262
g5254
aa(lp5263
g5252
aasg2
F1.0
ssI370
(dp5264
g1
F-1.0
sg7
(lp5265
(lp5266
g4055
aa(lp5267
g4057
aasg13
(dp5268
g15
g16
(g20
S'\xd5x\xe9&1\x08\xe0?'
p5269
tp5270
Rp5271
sg26
(lp5272
(g4057
g4055
F0.501
tp5273
assg3
F0.0
sg29
(lp5274
(lp5275
g4057
aa(lp5276
g4055
aasg2
F1.0
ssI371
(dp5277
g1
F1.0
sg7
(lp5278
(lp5279
S'slim'
p5280
aa(lp5281
S'slimmer'
p5282
aasg13
(dp5283
g15
g16
(g20
S'\xd5x\xe9&1\x08\xe0?'
p5284
tp5285
Rp5286
sg26
(lp5287
(g5280
g5282
F0.501
tp5288
assg3
F1.0
sg29
(lp5289
(lp5290
g5280
aa(lp5291
g5282
aasg2
F1.0
ssI372
(dp5292
g1
F-1.0
sg7
(lp5293
(lp5294
g2123
aa(lp5295
g2125
aasg13
(dp5296
g15
g16
(g20
S'\xd5x\xe9&1\x08\xe0?'
p5297
tp5298
Rp5299
sg26
(lp5300
(g2125
g2123
F0.501
tp5301
assg3
F0.0
sg29
(lp5302
(lp5303
g2125
aa(lp5304
g2123
aasg2
F1.0
ssI373
(dp5305
g1
F1.0
sg7
(lp5306
(lp5307
g1319
aa(lp5308
g618
aasg13
(dp5309
g15
g16
(g20
S'\xd5x\xe9&1\x08\xe0?'
p5310
tp5311
Rp5312
sg26
(lp5313
(g1319
g618
F0.501
tp5314
assg3
F1.0
sg29
(lp5315
(lp5316
g1319
aa(lp5317
g618
aasg2
F1.0
ssI374
(dp5318
g1
F1.0
sg7
(lp5319
(lp5320
S'little'
p5321
aa(lp5322
S'least'
p5323
aasg13
(dp5324
g15
g16
(g20
S'\xd5x\xe9&1\x08\xe0?'
p5325
tp5326
Rp5327
sg26
(lp5328
(g5321
g5323
F0.501
tp5329
assg3
F1.0
sg29
(lp5330
(lp5331
g5321
aa(lp5332
g5323
aasg2
F1.0
ssI375
(dp5333
g1
F1.0
sg7
(lp5334
(lp5335
S'fine'
p5336
aa(lp5337
g663
aasg13
(dp5338
g15
g16
(g20
S'\xd5x\xe9&1\x08\xe0?'
p5339
tp5340
Rp5341
sg26
(lp5342
(g5336
g663
F0.501
tp5343
assg3
F1.0
sg29
(lp5344
(lp5345
g5336
aa(lp5346
g663
aasg2
F1.0
ssI376
(dp5347
g1
F-1.0
sg7
(lp5348
(lp5349
g4540
aa(lp5350
g3640
aasg13
(dp5351
g15
g16
(g20
S'\xd5x\xe9&1\x08\xe0?'
p5352
tp5353
Rp5354
sg26
(lp5355
(g3640
g4540
F0.501
tp5356
assg3
F0.0
sg29
(lp5357
(lp5358
g3640
aa(lp5359
g4540
aasg2
F1.0
ssI377
(dp5360
g1
F-1.0
sg7
(lp5361
(lp5362
g4758
aa(lp5363
g4760
aasg13
(dp5364
g15
g16
(g20
S'\xd5x\xe9&1\x08\xe0?'
p5365
tp5366
Rp5367
sg26
(lp5368
(g4760
g4758
F0.501
tp5369
assg3
F0.0
sg29
(lp5370
(lp5371
g4760
aa(lp5372
g4758
aasg2
F1.0
ssI378
(dp5373
g1
F-1.0
sg7
(lp5374
(lp5375
S'further'
p5376
aa(lp5377
S'furthest'
p5378
aasg13
(dp5379
g15
g16
(g20
S'\xd5x\xe9&1\x08\xe0?'
p5380
tp5381
Rp5382
sg26
(lp5383
(g5378
g5376
F0.501
tp5384
assg3
F0.0
sg29
(lp5385
(lp5386
g5378
aa(lp5387
g5376
aasg2
F1.0
ssI379
(dp5388
g1
F-1.0
sg7
(lp5389
(lp5390
g1085
aa(lp5391
g1087
aasg13
(dp5392
g15
g16
(g20
S'\xd5x\xe9&1\x08\xe0?'
p5393
tp5394
Rp5395
sg26
(lp5396
(g1087
g1085
F0.501
tp5397
assg3
F0.0
sg29
(lp5398
(lp5399
g1087
aa(lp5400
g1085
aasg2
F1.0
ssI380
(dp5401
g1
F-1.0
sg7
(lp5402
(lp5403
g2562
aa(lp5404
g2564
aasg13
(dp5405
g15
g16
(g20
S'\xd5x\xe9&1\x08\xe0?'
p5406
tp5407
Rp5408
sg26
(lp5409
(g2564
g2562
F0.501
tp5410
assg3
F0.0
sg29
(lp5411
(lp5412
g2564
aa(lp5413
g2562
aasg2
F1.0
ssI381
(dp5414
g1
F-1.0
sg7
(lp5415
(lp5416
g1462
aa(lp5417
g1464
aasg13
(dp5418
g15
g16
(g20
S'\xd5x\xe9&1\x08\xe0?'
p5419
tp5420
Rp5421
sg26
(lp5422
(g1464
g1462
F0.501
tp5423
assg3
F0.0
sg29
(lp5424
(lp5425
g1464
aa(lp5426
g1462
aasg2
F1.0
ssI382
(dp5427
g1
F-1.0
sg7
(lp5428
(lp5429
g2417
aa(lp5430
g2419
aasg13
(dp5431
g15
g16
(g20
S'\xd5x\xe9&1\x08\xe0?'
p5432
tp5433
Rp5434
sg26
(lp5435
(g2419
g2417
F0.501
tp5436
assg3
F0.0
sg29
(lp5437
(lp5438
g2419
aa(lp5439
g2417
aasg2
F1.0
ssI383
(dp5440
g1
F1.0
sg7
(lp5441
(lp5442
g4857
aa(lp5443
g4859
aasg13
(dp5444
g15
g16
(g20
S'\xd5x\xe9&1\x08\xe0?'
p5445
tp5446
Rp5447
sg26
(lp5448
(g4857
g4859
F0.501
tp5449
assg3
F1.0
sg29
(lp5450
(lp5451
g4857
aa(lp5452
g4859
aasg2
F1.0
ssI384
(dp5453
g1
F1.0
sg7
(lp5454
(lp5455
g3484
aa(lp5456
g3486
aasg13
(dp5457
g15
g16
(g20
S'\xd5x\xe9&1\x08\xe0?'
p5458
tp5459
Rp5460
sg26
(lp5461
(g3484
g3486
F0.501
tp5462
assg3
F1.0
sg29
(lp5463
(lp5464
g3484
aa(lp5465
g3486
aasg2
F1.0
ssI385
(dp5466
g1
F1.0
sg7
(lp5467
(lp5468
g2518
aa(lp5469
g2520
aasg13
(dp5470
g15
g16
(g20
S'\xd5x\xe9&1\x08\xe0?'
p5471
tp5472
Rp5473
sg26
(lp5474
(g2518
g2520
F0.501
tp5475
assg3
F1.0
sg29
(lp5476
(lp5477
g2518
aa(lp5478
g2520
aasg2
F1.0
ssI386
(dp5479
g1
F1.0
sg7
(lp5480
(lp5481
g661
aa(lp5482
g663
aasg13
(dp5483
g15
g16
(g20
S'\xd5x\xe9&1\x08\xe0?'
p5484
tp5485
Rp5486
sg26
(lp5487
(g661
g663
F0.501
tp5488
assg3
F1.0
sg29
(lp5489
(lp5490
g661
aa(lp5491
g663
aasg2
F1.0
ssI387
(dp5492
g1
F-1.0
sg7
(lp5493
(lp5494
g216
aa(lp5495
g218
aasg13
(dp5496
g15
g16
(g20
S'\xd5x\xe9&1\x08\xe0?'
p5497
tp5498
Rp5499
sg26
(lp5500
(g218
g216
F0.501
tp5501
assg3
F0.0
sg29
(lp5502
(lp5503
g218
aa(lp5504
g216
aasg2
F1.0
ssI388
(dp5505
g1
F-1.0
sg7
(lp5506
(lp5507
g1981
aa(lp5508
g263
aasg13
(dp5509
g15
g16
(g20
S'\xd5x\xe9&1\x08\xe0?'
p5510
tp5511
Rp5512
sg26
(lp5513
(g263
g1981
F0.501
tp5514
assg3
F0.0
sg29
(lp5515
(lp5516
g263
aa(lp5517
g1981
aasg2
F1.0
ssI389
(dp5518
g1
F-1.0
sg7
(lp5519
(lp5520
S'far'
p5521
aa(lp5522
g5378
aasg13
(dp5523
g15
g16
(g20
S'\xd5x\xe9&1\x08\xe0?'
p5524
tp5525
Rp5526
sg26
(lp5527
(g5378
g5521
F0.501
tp5528
assg3
F0.0
sg29
(lp5529
(lp5530
g5378
aa(lp5531
g5521
aasg2
F1.0
ssI390
(dp5532
g1
F-1.0
sg7
(lp5533
(lp5534
S'shorter'
p5535
aa(lp5536
S'shortest'
p5537
aasg13
(dp5538
g15
g16
(g20
S'\xd5x\xe9&1\x08\xe0?'
p5539
tp5540
Rp5541
sg26
(lp5542
(g5537
g5535
F0.501
tp5543
assg3
F0.0
sg29
(lp5544
(lp5545
g5537
aa(lp5546
g5535
aasg2
F1.0
ssI391
(dp5547
g1
F-1.0
sg7
(lp5548
(lp5549
g556
aa(lp5550
g558
aasg13
(dp5551
g15
g16
(g20
S'\xd5x\xe9&1\x08\xe0?'
p5552
tp5553
Rp5554
sg26
(lp5555
(g558
g556
F0.501
tp5556
assg3
F0.0
sg29
(lp5557
(lp5558
g558
aa(lp5559
g556
aasg2
F1.0
ssI392
(dp5560
g1
F-1.0
sg7
(lp5561
(lp5562
S'sunny'
p5563
aa(lp5564
S'sunnier'
p5565
aasg13
(dp5566
g15
g16
(g20
S'\xd5x\xe9&1\x08\xe0?'
p5567
tp5568
Rp5569
sg26
(lp5570
(g5565
g5563
F0.501
tp5571
assg3
F0.0
sg29
(lp5572
(lp5573
g5565
aa(lp5574
g5563
aasg2
F1.0
ssI393
(dp5575
g1
F-1.0
sg7
(lp5576
(lp5577
g3512
aa(lp5578
g81
aasg13
(dp5579
g15
g16
(g20
S'\xd5x\xe9&1\x08\xe0?'
p5580
tp5581
Rp5582
sg26
(lp5583
(g81
g3512
F0.501
tp5584
assg3
F0.0
sg29
(lp5585
(lp5586
g81
aa(lp5587
g3512
aasg2
F1.0
ssI394
(dp5588
g1
F1.0
sg7
(lp5589
(lp5590
g2322
aa(lp5591
g485
aasg13
(dp5592
g15
g16
(g20
S'\xd5x\xe9&1\x08\xe0?'
p5593
tp5594
Rp5595
sg26
(lp5596
(g2322
g485
F0.501
tp5597
assg3
F1.0
sg29
(lp5598
(lp5599
g2322
aa(lp5600
g485
aasg2
F1.0
ssI395
(dp5601
g1
F-1.0
sg7
(lp5602
(lp5603
S'safer'
p5604
aa(lp5605
S'safest'
p5606
aasg13
(dp5607
g15
g16
(g20
S'\xd5x\xe9&1\x08\xe0?'
p5608
tp5609
Rp5610
sg26
(lp5611
(g5606
g5604
F0.501
tp5612
assg3
F0.0
sg29
(lp5613
(lp5614
g5606
aa(lp5615
g5604
aasg2
F1.0
ssI396
(dp5616
g1
F1.0
sg7
(lp5617
(lp5618
g1808
aa(lp5619
g1810
aasg13
(dp5620
g15
g16
(g20
S'\xd5x\xe9&1\x08\xe0?'
p5621
tp5622
Rp5623
sg26
(lp5624
(g1808
g1810
F0.501
tp5625
assg3
F1.0
sg29
(lp5626
(lp5627
g1808
aa(lp5628
g1810
aasg2
F1.0
ssI397
(dp5629
g1
F1.0
sg7
(lp5630
(lp5631
g3767
aa(lp5632
g1663
aasg13
(dp5633
g15
g16
(g20
S'\xd5x\xe9&1\x08\xe0?'
p5634
tp5635
Rp5636
sg26
(lp5637
(g3767
g1663
F0.501
tp5638
assg3
F1.0
sg29
(lp5639
(lp5640
g3767
aa(lp5641
g1663
aasg2
F1.0
ssI398
(dp5642
g1
F-1.0
sg7
(lp5643
(lp5644
S'heavier'
p5645
aa(lp5646
g1464
aasg13
(dp5647
g15
g16
(g20
S'\xd5x\xe9&1\x08\xe0?'
p5648
tp5649
Rp5650
sg26
(lp5651
(g1464
g5645
F0.501
tp5652
assg3
F0.0
sg29
(lp5653
(lp5654
g1464
aa(lp5655
g5645
aasg2
F1.0
ssI399
(dp5656
g1
F-1.0
sg7
(lp5657
(lp5658
S'cheap'
p5659
aa(lp5660
g3187
aasg13
(dp5661
g15
g16
(g20
S'\xd5x\xe9&1\x08\xe0?'
p5662
tp5663
Rp5664
sg26
(lp5665
(g3187
g5659
F0.501
tp5666
assg3
F0.0
sg29
(lp5667
(lp5668
g3187
aa(lp5669
g5659
aasg2
F1.0
ssI400
(dp5670
g1
F-1.0
sg7
(lp5671
(lp5672
S'simple'
p5673
aa(lp5674
S'simplest'
p5675
aasg13
(dp5676
g15
g16
(g20
S'\xd5x\xe9&1\x08\xe0?'
p5677
tp5678
Rp5679
sg26
(lp5680
(g5675
g5673
F0.501
tp5681
assg3
F0.0
sg29
(lp5682
(lp5683
g5675
aa(lp5684
g5673
aasg2
F1.0
ssI401
(dp5685
g1
F-1.0
sg7
(lp5686
(lp5687
g3100
aa(lp5688
g3102
aasg13
(dp5689
g15
g16
(g20
S'\xd5x\xe9&1\x08\xe0?'
p5690
tp5691
Rp5692
sg26
(lp5693
(g3102
g3100
F0.501
tp5694
assg3
F0.0
sg29
(lp5695
(lp5696
g3102
aa(lp5697
g3100
aasg2
F1.0
ssI402
(dp5698
g1
F-1.0
sg7
(lp5699
(lp5700
g5604
aa(lp5701
g5606
aasg13
(dp5702
g15
g16
(g20
S'\xd5x\xe9&1\x08\xe0?'
p5703
tp5704
Rp5705
sg26
(lp5706
(g5606
g5604
F0.501
tp5707
assg3
F0.0
sg29
(lp5708
(lp5709
g5606
aa(lp5710
g5604
aasg2
F1.0
ssI403
(dp5711
g1
F1.0
sg7
(lp5712
(lp5713
g2533
aa(lp5714
g2535
aasg13
(dp5715
g15
g16
(g20
S'\xd5x\xe9&1\x08\xe0?'
p5716
tp5717
Rp5718
sg26
(lp5719
(g2533
g2535
F0.501
tp5720
assg3
F1.0
sg29
(lp5721
(lp5722
g2533
aa(lp5723
g2535
aasg2
F1.0
ssI404
(dp5724
g1
F-1.0
sg7
(lp5725
(lp5726
g2784
aa(lp5727
g2125
aasg13
(dp5728
g15
g16
(g20
S'\xd5x\xe9&1\x08\xe0?'
p5729
tp5730
Rp5731
sg26
(lp5732
(g2125
g2784
F0.501
tp5733
assg3
F0.0
sg29
(lp5734
(lp5735
g2125
aa(lp5736
g2784
aasg2
F1.0
ssI405
(dp5737
g1
F-1.0
sg7
(lp5738
(lp5739
g3737
aa(lp5740
g3739
aasg13
(dp5741
g15
g16
(g20
S'\xd5x\xe9&1\x08\xe0?'
p5742
tp5743
Rp5744
sg26
(lp5745
(g3739
g3737
F0.501
tp5746
assg3
F0.0
sg29
(lp5747
(lp5748
g3739
aa(lp5749
g3737
aasg2
F1.0
ssI406
(dp5750
g1
F-1.0
sg7
(lp5751
(lp5752
g1406
aa(lp5753
g1027
aasg13
(dp5754
g15
g16
(g20
S'\xd5x\xe9&1\x08\xe0?'
p5755
tp5756
Rp5757
sg26
(lp5758
(g1027
g1406
F0.501
tp5759
assg3
F0.0
sg29
(lp5760
(lp5761
g1027
aa(lp5762
g1406
aasg2
F1.0
ssI407
(dp5763
g1
F1.0
sg7
(lp5764
(lp5765
g3638
aa(lp5766
g4540
aasg13
(dp5767
g15
g16
(g20
S'\xd5x\xe9&1\x08\xe0?'
p5768
tp5769
Rp5770
sg26
(lp5771
(g3638
g4540
F0.501
tp5772
assg3
F1.0
sg29
(lp5773
(lp5774
g3638
aa(lp5775
g4540
aasg2
F1.0
ssI408
(dp5776
g1
F-1.0
sg7
(lp5777
(lp5778
g381
aa(lp5779
g383
aasg13
(dp5780
g15
g16
(g20
S'\xd5x\xe9&1\x08\xe0?'
p5781
tp5782
Rp5783
sg26
(lp5784
(g383
g381
F0.501
tp5785
assg3
F0.0
sg29
(lp5786
(lp5787
g383
aa(lp5788
g381
aasg2
F1.0
ssI409
(dp5789
g1
F-1.0
sg7
(lp5790
(lp5791
g983
aa(lp5792
g633
aasg13
(dp5793
g15
g16
(g20
S'\xd5x\xe9&1\x08\xe0?'
p5794
tp5795
Rp5796
sg26
(lp5797
(g633
g983
F0.501
tp5798
assg3
F0.0
sg29
(lp5799
(lp5800
g633
aa(lp5801
g983
aasg2
F1.0
ssI410
(dp5802
g1
F-1.0
sg7
(lp5803
(lp5804
g4799
aa(lp5805
g4801
aasg13
(dp5806
g15
g16
(g20
S'\xd5x\xe9&1\x08\xe0?'
p5807
tp5808
Rp5809
sg26
(lp5810
(g4801
g4799
F0.501
tp5811
assg3
F0.0
sg29
(lp5812
(lp5813
g4801
aa(lp5814
g4799
aasg2
F1.0
ssI411
(dp5815
g1
F-1.0
sg7
(lp5816
(lp5817
g66
aa(lp5818
g68
aasg13
(dp5819
g15
g16
(g20
S'\xd5x\xe9&1\x08\xe0?'
p5820
tp5821
Rp5822
sg26
(lp5823
(g68
g66
F0.501
tp5824
assg3
F0.0
sg29
(lp5825
(lp5826
g68
aa(lp5827
g66
aasg2
F1.0
ssI412
(dp5828
g1
F-1.0
sg7
(lp5829
(lp5830
g5659
aa(lp5831
g3187
aasg13
(dp5832
g15
g16
(g20
S'\xd5x\xe9&1\x08\xe0?'
p5833
tp5834
Rp5835
sg26
(lp5836
(g3187
g5659
F0.501
tp5837
assg3
F0.0
sg29
(lp5838
(lp5839
g3187
aa(lp5840
g5659
aasg2
F1.0
ssI413
(dp5841
g1
F-1.0
sg7
(lp5842
(lp5843
g5376
aa(lp5844
g5378
aasg13
(dp5845
g15
g16
(g20
S'\xd5x\xe9&1\x08\xe0?'
p5846
tp5847
Rp5848
sg26
(lp5849
(g5378
g5376
F0.501
tp5850
assg3
F0.0
sg29
(lp5851
(lp5852
g5378
aa(lp5853
g5376
aasg2
F1.0
ssI414
(dp5854
g1
F-1.0
sg7
(lp5855
(lp5856
g4887
aa(lp5857
g4889
aasg13
(dp5858
g15
g16
(g20
S'\xd5x\xe9&1\x08\xe0?'
p5859
tp5860
Rp5861
sg26
(lp5862
(g4889
g4887
F0.501
tp5863
assg3
F0.0
sg29
(lp5864
(lp5865
g4889
aa(lp5866
g4887
aasg2
F1.0
ssI415
(dp5867
g1
F-1.0
sg7
(lp5868
(lp5869
g571
aa(lp5870
g735
aasg13
(dp5871
g15
g16
(g20
S'\xd5x\xe9&1\x08\xe0?'
p5872
tp5873
Rp5874
sg26
(lp5875
(g735
g571
F0.501
tp5876
assg3
F0.0
sg29
(lp5877
(lp5878
g735
aa(lp5879
g571
aasg2
F1.0
ssI416
(dp5880
g1
F-1.0
sg7
(lp5881
(lp5882
g366
aa(lp5883
g368
aasg13
(dp5884
g15
g16
(g20
S'\xd5x\xe9&1\x08\xe0?'
p5885
tp5886
Rp5887
sg26
(lp5888
(g368
g366
F0.501
tp5889
assg3
F0.0
sg29
(lp5890
(lp5891
g368
aa(lp5892
g366
aasg2
F1.0
ssI417
(dp5893
g1
F-1.0
sg7
(lp5894
(lp5895
g4928
aa(lp5896
g1362
aasg13
(dp5897
g15
g16
(g20
S'\xd5x\xe9&1\x08\xe0?'
p5898
tp5899
Rp5900
sg26
(lp5901
(g1362
g4928
F0.501
tp5902
assg3
F0.0
sg29
(lp5903
(lp5904
g1362
aa(lp5905
g4928
aasg2
F1.0
ssI418
(dp5906
g1
F-1.0
sg7
(lp5907
(lp5908
g5144
aa(lp5909
g5146
aasg13
(dp5910
g15
g16
(g20
S'\xd5x\xe9&1\x08\xe0?'
p5911
tp5912
Rp5913
sg26
(lp5914
(g5146
g5144
F0.501
tp5915
assg3
F0.0
sg29
(lp5916
(lp5917
g5146
aa(lp5918
g5144
aasg2
F1.0
ssI419
(dp5919
g1
F1.0
sg7
(lp5920
(lp5921
g3386
aa(lp5922
g3388
aasg13
(dp5923
g15
g16
(g20
S'\xd5x\xe9&1\x08\xe0?'
p5924
tp5925
Rp5926
sg26
(lp5927
(g3386
g3388
F0.501
tp5928
assg3
F1.0
sg29
(lp5929
(lp5930
g3386
aa(lp5931
g3388
aasg2
F1.0
ssI420
(dp5932
g1
F-1.0
sg7
(lp5933
(lp5934
g571
aa(lp5935
g573
aasg13
(dp5936
g15
g16
(g20
S'\xd5x\xe9&1\x08\xe0?'
p5937
tp5938
Rp5939
sg26
(lp5940
(g573
g571
F0.501
tp5941
assg3
F0.0
sg29
(lp5942
(lp5943
g573
aa(lp5944
g571
aasg2
F1.0
ssI421
(dp5945
g1
F1.0
sg7
(lp5946
(lp5947
g2784
aa(lp5948
g2123
aasg13
(dp5949
g15
g16
(g20
S'\xd5x\xe9&1\x08\xe0?'
p5950
tp5951
Rp5952
sg26
(lp5953
(g2784
g2123
F0.501
tp5954
assg3
F1.0
sg29
(lp5955
(lp5956
g2784
aa(lp5957
g2123
aasg2
F1.0
ssI422
(dp5958
g1
F-1.0
sg7
(lp5959
(lp5960
g1158
aa(lp5961
g1160
aasg13
(dp5962
g15
g16
(g20
S'\xd5x\xe9&1\x08\xe0?'
p5963
tp5964
Rp5965
sg26
(lp5966
(g1160
g1158
F0.501
tp5967
assg3
F0.0
sg29
(lp5968
(lp5969
g1160
aa(lp5970
g1158
aasg2
F1.0
ssI423
(dp5971
g1
F1.0
sg7
(lp5972
(lp5973
g4730
aa(lp5974
g4732
aasg13
(dp5975
g15
g16
(g20
S'\xd5x\xe9&1\x08\xe0?'
p5976
tp5977
Rp5978
sg26
(lp5979
(g4730
g4732
F0.501
tp5980
assg3
F1.0
sg29
(lp5981
(lp5982
g4730
aa(lp5983
g4732
aasg2
F1.0
ssI424
(dp5984
g1
F-1.0
sg7
(lp5985
(lp5986
g1765
aa(lp5987
g1767
aasg13
(dp5988
g15
g16
(g20
S'\xd5x\xe9&1\x08\xe0?'
p5989
tp5990
Rp5991
sg26
(lp5992
(g1767
g1765
F0.501
tp5993
assg3
F0.0
sg29
(lp5994
(lp5995
g1767
aa(lp5996
g1765
aasg2
F1.0
ssI425
(dp5997
g1
F-1.0
sg7
(lp5998
(lp5999
S'fuller'
p6000
aa(lp6001
S'fullest'
p6002
aasg13
(dp6003
g15
g16
(g20
S'\xd5x\xe9&1\x08\xe0?'
p6004
tp6005
Rp6006
sg26
(lp6007
(g6002
g6000
F0.501
tp6008
assg3
F0.0
sg29
(lp6009
(lp6010
g6002
aa(lp6011
g6000
aasg2
F1.0
ssI426
(dp6012
g1
F1.0
sg7
(lp6013
(lp6014
g5336
aa(lp6015
g663
aasg13
(dp6016
g15
g16
(g20
S'\xd5x\xe9&1\x08\xe0?'
p6017
tp6018
Rp6019
sg26
(lp6020
(g5336
g663
F0.501
tp6021
assg3
F1.0
sg29
(lp6022
(lp6023
g5336
aa(lp6024
g663
aasg2
F1.0
ssI427
(dp6025
g1
F-1.0
sg7
(lp6026
(lp6027
g5063
aa(lp6028
g2921
aasg13
(dp6029
g15
g16
(g20
S'\xd5x\xe9&1\x08\xe0?'
p6030
tp6031
Rp6032
sg26
(lp6033
(g2921
g5063
F0.501
tp6034
assg3
F0.0
sg29
(lp6035
(lp6036
g2921
aa(lp6037
g5063
aasg2
F1.0
ssI428
(dp6038
g1
F-1.0
sg7
(lp6039
(lp6040
g201
aa(lp6041
g203
aasg13
(dp6042
g15
g16
(g20
S'\xd5x\xe9&1\x08\xe0?'
p6043
tp6044
Rp6045
sg26
(lp6046
(g203
g201
F0.501
tp6047
assg3
F0.0
sg29
(lp6048
(lp6049
g203
aa(lp6050
g201
aasg2
F1.0
ssI429
(dp6051
g1
F-1.0
sg7
(lp6052
(lp6053
S'rare'
p6054
aa(lp6055
S'rarest'
p6056
aasg13
(dp6057
g15
g16
(g20
S'\xd5x\xe9&1\x08\xe0?'
p6058
tp6059
Rp6060
sg26
(lp6061
(g6056
g6054
F0.501
tp6062
assg3
F0.0
sg29
(lp6063
(lp6064
g6056
aa(lp6065
g6054
aasg2
F1.0
ssI430
(dp6066
g1
F-1.0
sg7
(lp6067
(lp6068
g2403
aa(lp6069
g808
aasg13
(dp6070
g15
g16
(g20
S'\xd5x\xe9&1\x08\xe0?'
p6071
tp6072
Rp6073
sg26
(lp6074
(g808
g2403
F0.501
tp6075
assg3
F0.0
sg29
(lp6076
(lp6077
g808
aa(lp6078
g2403
aasg2
F1.0
ssI431
(dp6079
g1
F1.0
sg7
(lp6080
(lp6081
g4307
aa(lp6082
g4309
aasg13
(dp6083
g15
g16
(g20
S'\xd5x\xe9&1\x08\xe0?'
p6084
tp6085
Rp6086
sg26
(lp6087
(g4307
g4309
F0.501
tp6088
assg3
F1.0
sg29
(lp6089
(lp6090
g4307
aa(lp6091
g4309
aasg2
F1.0
ssI432
(dp6092
g1
F1.0
sg7
(lp6093
(lp6094
g1128
aa(lp6095
g1130
aasg13
(dp6096
g15
g16
(g20
S'\xd5x\xe9&1\x08\xe0?'
p6097
tp6098
Rp6099
sg26
(lp6100
(g1128
g1130
F0.501
tp6101
assg3
F1.0
sg29
(lp6102
(lp6103
g1128
aa(lp6104
g1130
aasg2
F1.0
ssI433
(dp6105
g1
F-1.0
sg7
(lp6106
(lp6107
S'weak'
p6108
aa(lp6109
S'weakest'
p6110
aasg13
(dp6111
g15
g16
(g20
S'\xd5x\xe9&1\x08\xe0?'
p6112
tp6113
Rp6114
sg26
(lp6115
(g6110
g6108
F0.501
tp6116
assg3
F0.0
sg29
(lp6117
(lp6118
g6110
aa(lp6119
g6108
aasg2
F1.0
ssI434
(dp6120
g1
F-1.0
sg7
(lp6121
(lp6122
S'bright'
p6123
aa(lp6124
S'brightest'
p6125
aasg13
(dp6126
g15
g16
(g20
S'\xd5x\xe9&1\x08\xe0?'
p6127
tp6128
Rp6129
sg26
(lp6130
(g6125
g6123
F0.501
tp6131
assg3
F0.0
sg29
(lp6132
(lp6133
g6125
aa(lp6134
g6123
aasg2
F1.0
ssI435
(dp6135
g1
F-1.0
sg7
(lp6136
(lp6137
g2447
aa(lp6138
g2449
aasg13
(dp6139
g15
g16
(g20
S'\xd5x\xe9&1\x08\xe0?'
p6140
tp6141
Rp6142
sg26
(lp6143
(g2449
g2447
F0.501
tp6144
assg3
F0.0
sg29
(lp6145
(lp6146
g2449
aa(lp6147
g2447
aasg2
F1.0
ssI436
(dp6148
g1
F-1.0
sg7
(lp6149
(lp6150
g276
aa(lp6151
g278
aasg13
(dp6152
g15
g16
(g20
S'\xd5x\xe9&1\x08\xe0?'
p6153
tp6154
Rp6155
sg26
(lp6156
(g278
g276
F0.501
tp6157
assg3
F0.0
sg29
(lp6158
(lp6159
g278
aa(lp6160
g276
aasg2
F1.0
ssI437
(dp6161
g1
F-1.0
sg7
(lp6162
(lp6163
S'cute'
p6164
aa(lp6165
S'cuter'
p6166
aasg13
(dp6167
g15
g16
(g20
S'\xd5x\xe9&1\x08\xe0?'
p6168
tp6169
Rp6170
sg26
(lp6171
(g6166
g6164
F0.501
tp6172
assg3
F0.0
sg29
(lp6173
(lp6174
g6166
aa(lp6175
g6164
aasg2
F1.0
ssI438
(dp6176
g1
F-1.0
sg7
(lp6177
(lp6178
S'warm'
p6179
aa(lp6180
g308
aasg13
(dp6181
g15
g16
(g20
S'\xd5x\xe9&1\x08\xe0?'
p6182
tp6183
Rp6184
sg26
(lp6185
(g308
g6179
F0.501
tp6186
assg3
F0.0
sg29
(lp6187
(lp6188
g308
aa(lp6189
g6179
aasg2
F1.0
ssI439
(dp6190
g1
F-1.0
sg7
(lp6191
(lp6192
g541
aa(lp6193
g543
aasg13
(dp6194
g15
g16
(g20
S'\xd5x\xe9&1\x08\xe0?'
p6195
tp6196
Rp6197
sg26
(lp6198
(g543
g541
F0.501
tp6199
assg3
F0.0
sg29
(lp6200
(lp6201
g543
aa(lp6202
g541
aasg2
F1.0
ssI440
(dp6203
g1
F-1.0
sg7
(lp6204
(lp6205
S'safer'
p6206
aa(lp6207
g4445
aasg13
(dp6208
g15
g16
(g20
S'\xd5x\xe9&1\x08\xe0?'
p6209
tp6210
Rp6211
sg26
(lp6212
(g4445
g6206
F0.501
tp6213
assg3
F0.0
sg29
(lp6214
(lp6215
g4445
aa(lp6216
g6206
aasg2
F1.0
ssI441
(dp6217
g1
F1.0
sg7
(lp6218
(lp6219
S'some'
p6220
aa(lp6221
S'most'
p6222
aasg13
(dp6223
g15
g16
(g20
S'\xd5x\xe9&1\x08\xe0?'
p6224
tp6225
Rp6226
sg26
(lp6227
(g6220
g6222
F0.501
tp6228
assg3
F1.0
sg29
(lp6229
(lp6230
g6220
aa(lp6231
g6222
aasg2
F1.0
ssI442
(dp6232
g1
F-1.0
sg7
(lp6233
(lp6234
S'noble'
p6235
aa(lp6236
S'nobler'
p6237
aasg13
(dp6238
g15
g16
(g20
S'\xd5x\xe9&1\x08\xe0?'
p6239
tp6240
Rp6241
sg26
(lp6242
(g6237
g6235
F0.501
tp6243
assg3
F0.0
sg29
(lp6244
(lp6245
g6237
aa(lp6246
g6235
aasg2
F1.0
ssI443
(dp6247
g1
F1.0
sg7
(lp6248
(lp6249
g5280
aa(lp6250
g5282
aasg13
(dp6251
g15
g16
(g20
S'\xd5x\xe9&1\x08\xe0?'
p6252
tp6253
Rp6254
sg26
(lp6255
(g5280
g5282
F0.501
tp6256
assg3
F1.0
sg29
(lp6257
(lp6258
g5280
aa(lp6259
g5282
aasg2
F1.0
ssI444
(dp6260
g1
F-1.0
sg7
(lp6261
(lp6262
g571
aa(lp6263
g735
aasg13
(dp6264
g15
g16
(g20
S'\xd5x\xe9&1\x08\xe0?'
p6265
tp6266
Rp6267
sg26
(lp6268
(g735
g571
F0.501
tp6269
assg3
F0.0
sg29
(lp6270
(lp6271
g735
aa(lp6272
g571
aasg2
F1.0
ssI445
(dp6273
g1
F-1.0
sg7
(lp6274
(lp6275
g321
aa(lp6276
g323
aasg13
(dp6277
g15
g16
(g20
S'\xd5x\xe9&1\x08\xe0?'
p6278
tp6279
Rp6280
sg26
(lp6281
(g323
g321
F0.501
tp6282
assg3
F0.0
sg29
(lp6283
(lp6284
g323
aa(lp6285
g321
aasg2
F1.0
ssI446
(dp6286
g1
F-1.0
sg7
(lp6287
(lp6288
g6000
aa(lp6289
g6002
aasg13
(dp6290
g15
g16
(g20
S'\xd5x\xe9&1\x08\xe0?'
p6291
tp6292
Rp6293
sg26
(lp6294
(g6002
g6000
F0.501
tp6295
assg3
F0.0
sg29
(lp6296
(lp6297
g6002
aa(lp6298
g6000
aasg2
F1.0
ssI447
(dp6299
g1
F-1.0
sg7
(lp6300
(lp6301
g441
aa(lp6302
g443
aasg13
(dp6303
g15
g16
(g20
S'\xd5x\xe9&1\x08\xe0?'
p6304
tp6305
Rp6306
sg26
(lp6307
(g443
g441
F0.501
tp6308
assg3
F0.0
sg29
(lp6309
(lp6310
g443
aa(lp6311
g441
aasg2
F1.0
ssI448
(dp6312
g1
F1.0
sg7
(lp6313
(lp6314
g3000
aa(lp6315
g3002
aasg13
(dp6316
g15
g16
(g20
S'\xd5x\xe9&1\x08\xe0?'
p6317
tp6318
Rp6319
sg26
(lp6320
(g3000
g3002
F0.501
tp6321
assg3
F1.0
sg29
(lp6322
(lp6323
g3000
aa(lp6324
g3002
aasg2
F1.0
ssI449
(dp6325
g1
F-1.0
sg7
(lp6326
(lp6327
S'newer'
p6328
aa(lp6329
S'newest'
p6330
aasg13
(dp6331
g15
g16
(g20
S'\xd5x\xe9&1\x08\xe0?'
p6332
tp6333
Rp6334
sg26
(lp6335
(g6330
g6328
F0.501
tp6336
assg3
F0.0
sg29
(lp6337
(lp6338
g6330
aa(lp6339
g6328
aasg2
F1.0
ssI450
(dp6340
g1
F-1.0
sg7
(lp6341
(lp6342
g3752
aa(lp6343
g3754
aasg13
(dp6344
g15
g16
(g20
S'\xd5x\xe9&1\x08\xe0?'
p6345
tp6346
Rp6347
sg26
(lp6348
(g3754
g3752
F0.501
tp6349
assg3
F0.0
sg29
(lp6350
(lp6351
g3754
aa(lp6352
g3752
aasg2
F1.0
ssI451
(dp6353
g1
F-1.0
sg7
(lp6354
(lp6355
g1691
aa(lp6356
g1693
aasg13
(dp6357
g15
g16
(g20
S'\xd5x\xe9&1\x08\xe0?'
p6358
tp6359
Rp6360
sg26
(lp6361
(g1693
g1691
F0.501
tp6362
assg3
F0.0
sg29
(lp6363
(lp6364
g1693
aa(lp6365
g1691
aasg2
F1.0
ssI452
(dp6366
g1
F1.0
sg7
(lp6367
(lp6368
g4085
aa(lp6369
g4087
aasg13
(dp6370
g15
g16
(g20
S'\xd5x\xe9&1\x08\xe0?'
p6371
tp6372
Rp6373
sg26
(lp6374
(g4085
g4087
F0.501
tp6375
assg3
F1.0
sg29
(lp6376
(lp6377
g4085
aa(lp6378
g4087
aasg2
F1.0
ssI453
(dp6379
g1
F-1.0
sg7
(lp6380
(lp6381
g5645
aa(lp6382
g1464
aasg13
(dp6383
g15
g16
(g20
S'\xd5x\xe9&1\x08\xe0?'
p6384
tp6385
Rp6386
sg26
(lp6387
(g1464
g5645
F0.501
tp6388
assg3
F0.0
sg29
(lp6389
(lp6390
g1464
aa(lp6391
g5645
aasg2
F1.0
ssI454
(dp6392
g1
F-1.0
sg7
(lp6393
(lp6394
g231
aa(lp6395
g233
aasg13
(dp6396
g15
g16
(g20
S'\xd5x\xe9&1\x08\xe0?'
p6397
tp6398
Rp6399
sg26
(lp6400
(g233
g231
F0.501
tp6401
assg3
F0.0
sg29
(lp6402
(lp6403
g233
aa(lp6404
g231
aasg2
F1.0
ssI455
(dp6405
g1
F-1.0
sg7
(lp6406
(lp6407
g5252
aa(lp6408
g5254
aasg13
(dp6409
g15
g16
(g20
S'\xd5x\xe9&1\x08\xe0?'
p6410
tp6411
Rp6412
sg26
(lp6413
(g5254
g5252
F0.501
tp6414
assg3
F0.0
sg29
(lp6415
(lp6416
g5254
aa(lp6417
g5252
aasg2
F1.0
ssI456
(dp6418
g1
F-1.0
sg7
(lp6419
(lp6420
g6108
aa(lp6421
g6110
aasg13
(dp6422
g15
g16
(g20
S'\xd5x\xe9&1\x08\xe0?'
p6423
tp6424
Rp6425
sg26
(lp6426
(g6110
g6108
F0.501
tp6427
assg3
F0.0
sg29
(lp6428
(lp6429
g6110
aa(lp6430
g6108
aasg2
F1.0
ssI457
(dp6431
g1
F-1.0
sg7
(lp6432
(lp6433
S'sick'
p6434
aa(lp6435
S'sicker'
p6436
aasg13
(dp6437
g15
g16
(g20
S'\xd5x\xe9&1\x08\xe0?'
p6438
tp6439
Rp6440
sg26
(lp6441
(g6436
g6434
F0.501
tp6442
assg3
F0.0
sg29
(lp6443
(lp6444
g6436
aa(lp6445
g6434
aasg2
F1.0
ssI458
(dp6446
g1
F-1.0
sg7
(lp6447
(lp6448
g4510
aa(lp6449
g4512
aasg13
(dp6450
g15
g16
(g20
S'\xd5x\xe9&1\x08\xe0?'
p6451
tp6452
Rp6453
sg26
(lp6454
(g4512
g4510
F0.501
tp6455
assg3
F0.0
sg29
(lp6456
(lp6457
g4512
aa(lp6458
g4510
aasg2
F1.0
ssI459
(dp6459
g1
F1.0
sg7
(lp6460
(lp6461
g3230
aa(lp6462
g3232
aasg13
(dp6463
g15
g16
(g20
S'\xd5x\xe9&1\x08\xe0?'
p6464
tp6465
Rp6466
sg26
(lp6467
(g3230
g3232
F0.501
tp6468
assg3
F1.0
sg29
(lp6469
(lp6470
g3230
aa(lp6471
g3232
aasg2
F1.0
ssI460
(dp6472
g1
F-1.0
sg7
(lp6473
(lp6474
g6179
aa(lp6475
g308
aasg13
(dp6476
g15
g16
(g20
S'\xd5x\xe9&1\x08\xe0?'
p6477
tp6478
Rp6479
sg26
(lp6480
(g308
g6179
F0.501
tp6481
assg3
F0.0
sg29
(lp6482
(lp6483
g308
aa(lp6484
g6179
aasg2
F1.0
ssI461
(dp6485
g1
F-1.0
sg7
(lp6486
(lp6487
g852
aa(lp6488
g854
aasg13
(dp6489
g15
g16
(g20
S'\xd5x\xe9&1\x08\xe0?'
p6490
tp6491
Rp6492
sg26
(lp6493
(g854
g852
F0.501
tp6494
assg3
F0.0
sg29
(lp6495
(lp6496
g854
aa(lp6497
g852
aasg2
F1.0
ssI462
(dp6498
g1
F-1.0
sg7
(lp6499
(lp6500
g1259
aa(lp6501
g1261
aasg13
(dp6502
g15
g16
(g20
S'\xd5x\xe9&1\x08\xe0?'
p6503
tp6504
Rp6505
sg26
(lp6506
(g1261
g1259
F0.501
tp6507
assg3
F0.0
sg29
(lp6508
(lp6509
g1261
aa(lp6510
g1259
aasg2
F1.0
ssI463
(dp6511
g1
F-1.0
sg7
(lp6512
(lp6513
g2491
aa(lp6514
g648
aasg13
(dp6515
g15
g16
(g20
S'\xd5x\xe9&1\x08\xe0?'
p6516
tp6517
Rp6518
sg26
(lp6519
(g648
g2491
F0.501
tp6520
assg3
F0.0
sg29
(lp6521
(lp6522
g648
aa(lp6523
g2491
aasg2
F1.0
ssI464
(dp6524
g1
F-1.0
sg7
(lp6525
(lp6526
g2065
aa(lp6527
g2067
aasg13
(dp6528
g15
g16
(g20
S'\xd5x\xe9&1\x08\xe0?'
p6529
tp6530
Rp6531
sg26
(lp6532
(g2067
g2065
F0.501
tp6533
assg3
F0.0
sg29
(lp6534
(lp6535
g2067
aa(lp6536
g2065
aasg2
F1.0
ssI465
(dp6537
g1
F1.0
sg7
(lp6538
(lp6539
g2403
aa(lp6540
g810
aasg13
(dp6541
g15
g16
(g20
S'\xd5x\xe9&1\x08\xe0?'
p6542
tp6543
Rp6544
sg26
(lp6545
(g2403
g810
F0.501
tp6546
assg3
F1.0
sg29
(lp6547
(lp6548
g2403
aa(lp6549
g810
aasg2
F1.0
ssI466
(dp6550
g1
F-1.0
sg7
(lp6551
(lp6552
S'brighter'
p6553
aa(lp6554
S'brightest'
p6555
aasg13
(dp6556
g15
g16
(g20
S'\xd5x\xe9&1\x08\xe0?'
p6557
tp6558
Rp6559
sg26
(lp6560
(g6555
g6553
F0.501
tp6561
assg3
F0.0
sg29
(lp6562
(lp6563
g6555
aa(lp6564
g6553
aasg2
F1.0
ssI467
(dp6565
g1
F1.0
sg7
(lp6566
(lp6567
g4981
aa(lp6568
g4983
aasg13
(dp6569
g15
g16
(g20
S'\xd5x\xe9&1\x08\xe0?'
p6570
tp6571
Rp6572
sg26
(lp6573
(g4981
g4983
F0.501
tp6574
assg3
F1.0
sg29
(lp6575
(lp6576
g4981
aa(lp6577
g4983
aasg2
F1.0
ssI468
(dp6578
g1
F-1.0
sg7
(lp6579
(lp6580
g3905
aa(lp6581
g368
aasg13
(dp6582
g15
g16
(g20
S'\xd5x\xe9&1\x08\xe0?'
p6583
tp6584
Rp6585
sg26
(lp6586
(g368
g3905
F0.501
tp6587
assg3
F0.0
sg29
(lp6588
(lp6589
g368
aa(lp6590
g3905
aasg2
F1.0
ssI469
(dp6591
g1
F1.0
sg7
(lp6592
(lp6593
g3610
aa(lp6594
g3612
aasg13
(dp6595
g15
g16
(g20
S'\xd5x\xe9&1\x08\xe0?'
p6596
tp6597
Rp6598
sg26
(lp6599
(g3610
g3612
F0.501
tp6600
assg3
F1.0
sg29
(lp6601
(lp6602
g3610
aa(lp6603
g3612
aasg2
F1.0
ssI470
(dp6604
g1
F-1.0
sg7
(lp6605
(lp6606
g2050
aa(lp6607
g2052
aasg13
(dp6608
g15
g16
(g20
S'\xd5x\xe9&1\x08\xe0?'
p6609
tp6610
Rp6611
sg26
(lp6612
(g2052
g2050
F0.501
tp6613
assg3
F0.0
sg29
(lp6614
(lp6615
g2052
aa(lp6616
g2050
aasg2
F1.0
ssI471
(dp6617
g1
F1.0
sg7
(lp6618
(lp6619
g1676
aa(lp6620
g1678
aasg13
(dp6621
g15
g16
(g20
S'\xd5x\xe9&1\x08\xe0?'
p6622
tp6623
Rp6624
sg26
(lp6625
(g1676
g1678
F0.501
tp6626
assg3
F1.0
sg29
(lp6627
(lp6628
g1676
aa(lp6629
g1678
aasg2
F1.0
ssI472
(dp6630
g1
F1.0
sg7
(lp6631
(lp6632
g646
aa(lp6633
g2491
aasg13
(dp6634
g15
g16
(g20
S'\xd5x\xe9&1\x08\xe0?'
p6635
tp6636
Rp6637
sg26
(lp6638
(g646
g2491
F0.501
tp6639
assg3
F1.0
sg29
(lp6640
(lp6641
g646
aa(lp6642
g2491
aasg2
F1.0
ssI473
(dp6643
g1
F-1.0
sg7
(lp6644
(lp6645
g51
aa(lp6646
g53
aasg13
(dp6647
g15
g16
(g20
S'\xd5x\xe9&1\x08\xe0?'
p6648
tp6649
Rp6650
sg26
(lp6651
(g53
g51
F0.501
tp6652
assg3
F0.0
sg29
(lp6653
(lp6654
g53
aa(lp6655
g51
aasg2
F1.0
ssI474
(dp6656
g1
F1.0
sg7
(lp6657
(lp6658
g5321
aa(lp6659
g5323
aasg13
(dp6660
g15
g16
(g20
S'\xd5x\xe9&1\x08\xe0?'
p6661
tp6662
Rp6663
sg26
(lp6664
(g5321
g5323
F0.501
tp6665
assg3
F1.0
sg29
(lp6666
(lp6667
g5321
aa(lp6668
g5323
aasg2
F1.0
ssI475
(dp6669
g1
F1.0
sg7
(lp6670
(lp6671
g4842
aa(lp6672
g4844
aasg13
(dp6673
g15
g16
(g20
S'\xd5x\xe9&1\x08\xe0?'
p6674
tp6675
Rp6676
sg26
(lp6677
(g4842
g4844
F0.501
tp6678
assg3
F1.0
sg29
(lp6679
(lp6680
g4842
aa(lp6681
g4844
aasg2
F1.0
ssI476
(dp6682
g1
F-1.0
sg7
(lp6683
(lp6684
g3428
aa(lp6685
g3430
aasg13
(dp6686
g15
g16
(g20
S'\xd5x\xe9&1\x08\xe0?'
p6687
tp6688
Rp6689
sg26
(lp6690
(g3430
g3428
F0.501
tp6691
assg3
F0.0
sg29
(lp6692
(lp6693
g3430
aa(lp6694
g3428
aasg2
F1.0
ssI477
(dp6695
g1
F-1.0
sg7
(lp6696
(lp6697
g2548
aa(lp6698
g338
aasg13
(dp6699
g15
g16
(g20
S'\xd5x\xe9&1\x08\xe0?'
p6700
tp6701
Rp6702
sg26
(lp6703
(g338
g2548
F0.501
tp6704
assg3
F0.0
sg29
(lp6705
(lp6706
g338
aa(lp6707
g2548
aasg2
F1.0
ssI478
(dp6708
g1
F-1.0
sg7
(lp6709
(lp6710
g1907
aa(lp6711
g1909
aasg13
(dp6712
g15
g16
(g20
S'\xd5x\xe9&1\x08\xe0?'
p6713
tp6714
Rp6715
sg26
(lp6716
(g1909
g1907
F0.501
tp6717
assg3
F0.0
sg29
(lp6718
(lp6719
g1909
aa(lp6720
g1907
aasg2
F1.0
ssI479
(dp6721
g1
F-1.0
sg7
(lp6722
(lp6723
g2564
aa(lp6724
g2730
aasg13
(dp6725
g15
g16
(g20
S'\xd5x\xe9&1\x08\xe0?'
p6726
tp6727
Rp6728
sg26
(lp6729
(g2730
g2564
F0.501
tp6730
assg3
F0.0
sg29
(lp6731
(lp6732
g2730
aa(lp6733
g2564
aasg2
F1.0
ssI480
(dp6734
g1
F-1.0
sg7
(lp6735
(lp6736
g4872
aa(lp6737
g4874
aasg13
(dp6738
g15
g16
(g20
S'\xd5x\xe9&1\x08\xe0?'
p6739
tp6740
Rp6741
sg26
(lp6742
(g4874
g4872
F0.501
tp6743
assg3
F0.0
sg29
(lp6744
(lp6745
g4874
aa(lp6746
g4872
aasg2
F1.0
ssI481
(dp6747
g1
F-1.0
sg7
(lp6748
(lp6749
S'lower'
p6750
aa(lp6751
S'lowest'
p6752
aasg13
(dp6753
g15
g16
(g20
S'\xd5x\xe9&1\x08\xe0?'
p6754
tp6755
Rp6756
sg26
(lp6757
(g6752
g6750
F0.501
tp6758
assg3
F0.0
sg29
(lp6759
(lp6760
g6752
aa(lp6761
g6750
aasg2
F1.0
ssI482
(dp6762
g1
F-1.0
sg7
(lp6763
(lp6764
g6434
aa(lp6765
g6436
aasg13
(dp6766
g15
g16
(g20
S'\xd5x\xe9&1\x08\xe0?'
p6767
tp6768
Rp6769
sg26
(lp6770
(g6436
g6434
F0.501
tp6771
assg3
F0.0
sg29
(lp6772
(lp6773
g6436
aa(lp6774
g6434
aasg2
F1.0
ssI483
(dp6775
g1
F-1.0
sg7
(lp6776
(lp6777
g793
aa(lp6778
g795
aasg13
(dp6779
g15
g16
(g20
S'\xd5x\xe9&1\x08\xe0?'
p6780
tp6781
Rp6782
sg26
(lp6783
(g795
g793
F0.501
tp6784
assg3
F0.0
sg29
(lp6785
(lp6786
g795
aa(lp6787
g793
aasg2
F1.0
ssI484
(dp6788
g1
F-1.0
sg7
(lp6789
(lp6790
g3707
aa(lp6791
g3709
aasg13
(dp6792
g15
g16
(g20
S'\xd5x\xe9&1\x08\xe0?'
p6793
tp6794
Rp6795
sg26
(lp6796
(g3709
g3707
F0.501
tp6797
assg3
F0.0
sg29
(lp6798
(lp6799
g3709
aa(lp6800
g3707
aasg2
F1.0
ssI485
(dp6801
g1
F-1.0
sg7
(lp6802
(lp6803
g3401
aa(lp6804
g1536
aasg13
(dp6805
g15
g16
(g20
S'\xd5x\xe9&1\x08\xe0?'
p6806
tp6807
Rp6808
sg26
(lp6809
(g1536
g3401
F0.501
tp6810
assg3
F0.0
sg29
(lp6811
(lp6812
g1536
aa(lp6813
g3401
aasg2
F1.0
ssI486
(dp6814
g1
F-1.0
sg7
(lp6815
(lp6816
g4361
aa(lp6817
g4363
aasg13
(dp6818
g15
g16
(g20
S'\xd5x\xe9&1\x08\xe0?'
p6819
tp6820
Rp6821
sg26
(lp6822
(g4363
g4361
F0.501
tp6823
assg3
F0.0
sg29
(lp6824
(lp6825
g4363
aa(lp6826
g4361
aasg2
F1.0
ssI487
(dp6827
g1
F-1.0
sg7
(lp6828
(lp6829
g3085
aa(lp6830
g3087
aasg13
(dp6831
g15
g16
(g20
S'\xd5x\xe9&1\x08\xe0?'
p6832
tp6833
Rp6834
sg26
(lp6835
(g3087
g3085
F0.501
tp6836
assg3
F0.0
sg29
(lp6837
(lp6838
g3087
aa(lp6839
g3085
aasg2
F1.0
ssI488
(dp6840
g1
F-1.0
sg7
(lp6841
(lp6842
g5224
aa(lp6843
g5226
aasg13
(dp6844
g15
g16
(g20
S'\xd5x\xe9&1\x08\xe0?'
p6845
tp6846
Rp6847
sg26
(lp6848
(g5226
g5224
F0.501
tp6849
assg3
F0.0
sg29
(lp6850
(lp6851
g5226
aa(lp6852
g5224
aasg2
F1.0
ssI489
(dp6853
g1
F1.0
sg7
(lp6854
(lp6855
g6220
aa(lp6856
g6222
aasg13
(dp6857
g15
g16
(g20
S'\xd5x\xe9&1\x08\xe0?'
p6858
tp6859
Rp6860
sg26
(lp6861
(g6220
g6222
F0.501
tp6862
assg3
F1.0
sg29
(lp6863
(lp6864
g6220
aa(lp6865
g6222
aasg2
F1.0
ssI490
(dp6866
g1
F-1.0
sg7
(lp6867
(lp6868
S'smooth'
p6869
aa(lp6870
S'smoother'
p6871
aasg13
(dp6872
g15
g16
(g20
S'\xd5x\xe9&1\x08\xe0?'
p6873
tp6874
Rp6875
sg26
(lp6876
(g6871
g6869
F0.501
tp6877
assg3
F0.0
sg29
(lp6878
(lp6879
g6871
aa(lp6880
g6869
aasg2
F1.0
ssI491
(dp6881
g1
F-1.0
sg7
(lp6882
(lp6883
g6235
aa(lp6884
g6237
aasg13
(dp6885
g15
g16
(g20
S'\xd5x\xe9&1\x08\xe0?'
p6886
tp6887
Rp6888
sg26
(lp6889
(g6237
g6235
F0.501
tp6890
assg3
F0.0
sg29
(lp6891
(lp6892
g6237
aa(lp6893
g6235
aasg2
F1.0
ssI492
(dp6894
g1
F-1.0
sg7
(lp6895
(lp6896
g5563
aa(lp6897
g5565
aasg13
(dp6898
g15
g16
(g20
S'\xd5x\xe9&1\x08\xe0?'
p6899
tp6900
Rp6901
sg26
(lp6902
(g5565
g5563
F0.501
tp6903
assg3
F0.0
sg29
(lp6904
(lp6905
g5565
aa(lp6906
g5563
aasg2
F1.0
ssI493
(dp6907
g1
F-1.0
sg7
(lp6908
(lp6909
g1432
aa(lp6910
g1434
aasg13
(dp6911
g15
g16
(g20
S'\xd5x\xe9&1\x08\xe0?'
p6912
tp6913
Rp6914
sg26
(lp6915
(g1434
g1432
F0.501
tp6916
assg3
F0.0
sg29
(lp6917
(lp6918
g1434
aa(lp6919
g1432
aasg2
F1.0
ssI494
(dp6920
g1
F-1.0
sg7
(lp6921
(lp6922
g4690
aa(lp6923
g4057
aasg13
(dp6924
g15
g16
(g20
S'\xd5x\xe9&1\x08\xe0?'
p6925
tp6926
Rp6927
sg26
(lp6928
(g4057
g4690
F0.501
tp6929
assg3
F0.0
sg29
(lp6930
(lp6931
g4057
aa(lp6932
g4690
aasg2
F1.0
ssI495
(dp6933
g1
F-1.0
sg7
(lp6934
(lp6935
g938
aa(lp6936
g940
aasg13
(dp6937
g15
g16
(g20
S'\xd5x\xe9&1\x08\xe0?'
p6938
tp6939
Rp6940
sg26
(lp6941
(g940
g938
F0.501
tp6942
assg3
F0.0
sg29
(lp6943
(lp6944
g940
aa(lp6945
g938
aasg2
F1.0
ssI496
(dp6946
g1
F-1.0
sg7
(lp6947
(lp6948
g6553
aa(lp6949
g6555
aasg13
(dp6950
g15
g16
(g20
S'\xd5x\xe9&1\x08\xe0?'
p6951
tp6952
Rp6953
sg26
(lp6954
(g6555
g6553
F0.501
tp6955
assg3
F0.0
sg29
(lp6956
(lp6957
g6555
aa(lp6958
g6553
aasg2
F1.0
ssI497
(dp6959
g1
F-1.0
sg7
(lp6960
(lp6961
g6750
aa(lp6962
g6752
aasg13
(dp6963
g15
g16
(g20
S'\xd5x\xe9&1\x08\xe0?'
p6964
tp6965
Rp6966
sg26
(lp6967
(g6752
g6750
F0.501
tp6968
assg3
F0.0
sg29
(lp6969
(lp6970
g6752
aa(lp6971
g6750
aasg2
F1.0
ssI498
(dp6972
g1
F-1.0
sg7
(lp6973
(lp6974
g6206
aa(lp6975
g4445
aasg13
(dp6976
g15
g16
(g20
S'\xd5x\xe9&1\x08\xe0?'
p6977
tp6978
Rp6979
sg26
(lp6980
(g4445
g6206
F0.501
tp6981
assg3
F0.0
sg29
(lp6982
(lp6983
g4445
aa(lp6984
g6206
aasg2
F1.0
ssI499
(dp6985
g1
F-1.0
sg7
(lp6986
(lp6987
g3129
aa(lp6988
g3131
aasg13
(dp6989
g15
g16
(g20
S'\xd5x\xe9&1\x08\xe0?'
p6990
tp6991
Rp6992
sg26
(lp6993
(g3131
g3129
F0.501
tp6994
assg3
F0.0
sg29
(lp6995
(lp6996
g3131
aa(lp6997
g3129
aasg2
F1.0
ssI500
(dp6998
g1
F-1.0
sg7
(lp6999
(lp7000
g4443
aa(lp7001
g4445
aasg13
(dp7002
g15
g16
(g20
S'\xd5x\xe9&1\x08\xe0?'
p7003
tp7004
Rp7005
sg26
(lp7006
(g4445
g4443
F0.501
tp7007
assg3
F0.0
sg29
(lp7008
(lp7009
g4445
aa(lp7010
g4443
aasg2
F1.0
ssI501
(dp7011
g1
F-1.0
sg7
(lp7012
(lp7013
g246
aa(lp7014
g248
aasg13
(dp7015
g15
g16
(g20
S'\xd5x\xe9&1\x08\xe0?'
p7016
tp7017
Rp7018
sg26
(lp7019
(g248
g246
F0.501
tp7020
assg3
F0.0
sg29
(lp7021
(lp7022
g248
aa(lp7023
g246
aasg2
F1.0
ssI502
(dp7024
g1
F-1.0
sg7
(lp7025
(lp7026
g2164
aa(lp7027
g2166
aasg13
(dp7028
g15
g16
(g20
S'\xd5x\xe9&1\x08\xe0?'
p7029
tp7030
Rp7031
sg26
(lp7032
(g2166
g2164
F0.501
tp7033
assg3
F0.0
sg29
(lp7034
(lp7035
g2166
aa(lp7036
g2164
aasg2
F1.0
ssI503
(dp7037
g1
F-1.0
sg7
(lp7038
(lp7039
g4649
aa(lp7040
g4651
aasg13
(dp7041
g15
g16
(g20
S'\xd5x\xe9&1\x08\xe0?'
p7042
tp7043
Rp7044
sg26
(lp7045
(g4651
g4649
F0.501
tp7046
assg3
F0.0
sg29
(lp7047
(lp7048
g4651
aa(lp7049
g4649
aasg2
F1.0
ssI504
(dp7050
g1
F-1.0
sg7
(lp7051
(lp7052
g3512
aa(lp7053
g83
aasg13
(dp7054
g15
g16
(g20
S'\xd5x\xe9&1\x08\xe0?'
p7055
tp7056
Rp7057
sg26
(lp7058
(g83
g3512
F0.501
tp7059
assg3
F0.0
sg29
(lp7060
(lp7061
g83
aa(lp7062
g3512
aasg2
F1.0
ssI505
(dp7063
g1
F1.0
sg7
(lp7064
(lp7065
S'dense'
p7066
aa(lp7067
S'denser'
p7068
aasg13
(dp7069
g15
g16
(g20
S'\xd5x\xe9&1\x08\xe0?'
p7070
tp7071
Rp7072
sg26
(lp7073
(g7066
g7068
F0.501
tp7074
assg3
F1.0
sg29
(lp7075
(lp7076
g7066
aa(lp7077
g7068
aasg2
F1.0
ssI506
(dp7078
g1
F-1.0
sg7
(lp7079
(lp7080
S'far'
p7081
aa(lp7082
S'furthest'
p7083
aasg13
(dp7084
g15
g16
(g20
S'\xd5x\xe9&1\x08\xe0?'
p7085
tp7086
Rp7087
sg26
(lp7088
(g7083
g7081
F0.501
tp7089
assg3
F0.0
sg29
(lp7090
(lp7091
g7083
aa(lp7092
g7081
aasg2
F1.0
ssI507
(dp7093
g1
F1.0
sg7
(lp7094
(lp7095
g2784
aa(lp7096
g2123
aasg13
(dp7097
g15
g16
(g20
S'\xd5x\xe9&1\x08\xe0?'
p7098
tp7099
Rp7100
sg26
(lp7101
(g2784
g2123
F0.501
tp7102
assg3
F1.0
sg29
(lp7103
(lp7104
g2784
aa(lp7105
g2123
aasg2
F1.0
ssI508
(dp7106
g1
F-1.0
sg7
(lp7107
(lp7108
g3313
aa(lp7109
g3315
aasg13
(dp7110
g15
g16
(g20
S'\xd5x\xe9&1\x08\xe0?'
p7111
tp7112
Rp7113
sg26
(lp7114
(g3315
g3313
F0.501
tp7115
assg3
F0.0
sg29
(lp7116
(lp7117
g3315
aa(lp7118
g3313
aasg2
F1.0
ssI509
(dp7119
g1
F-1.0
sg7
(lp7120
(lp7121
g216
aa(lp7122
g839
aasg13
(dp7123
g15
g16
(g20
S'\xd5x\xe9&1\x08\xe0?'
p7124
tp7125
Rp7126
sg26
(lp7127
(g839
g216
F0.501
tp7128
assg3
F0.0
sg29
(lp7129
(lp7130
g839
aa(lp7131
g216
aasg2
F1.0
ssI510
(dp7132
g1
F-1.0
sg7
(lp7133
(lp7134
g6164
aa(lp7135
g6166
aasg13
(dp7136
g15
g16
(g20
S'\xd5x\xe9&1\x08\xe0?'
p7137
tp7138
Rp7139
sg26
(lp7140
(g6166
g6164
F0.501
tp7141
assg3
F0.0
sg29
(lp7142
(lp7143
g6166
aa(lp7144
g6164
aasg2
F1.0
ssI511
(dp7145
g1
F1.0
sg7
(lp7146
(lp7147
g261
aa(lp7148
g1981
aasg13
(dp7149
g15
g16
(g20
S'\xd5x\xe9&1\x08\xe0?'
p7150
tp7151
Rp7152
sg26
(lp7153
(g261
g1981
F0.501
tp7154
assg3
F1.0
sg29
(lp7155
(lp7156
g261
aa(lp7157
g1981
aasg2
F1.0
ssI512
(dp7158
g1
F1.0
sg7
(lp7159
(lp7160
g4292
aa(lp7161
g4294
aasg13
(dp7162
g15
g16
(g20
S'\xd5x\xe9&1\x08\xe0?'
p7163
tp7164
Rp7165
sg26
(lp7166
(g4292
g4294
F0.501
tp7167
assg3
F1.0
sg29
(lp7168
(lp7169
g4292
aa(lp7170
g4294
aasg2
F1.0
ssI513
(dp7171
g1
F-1.0
sg7
(lp7172
(lp7173
g3820
aa(lp7174
g3822
aasg13
(dp7175
g15
g16
(g20
S'\xd5x\xe9&1\x08\xe0?'
p7176
tp7177
Rp7178
sg26
(lp7179
(g3822
g3820
F0.501
tp7180
assg3
F0.0
sg29
(lp7181
(lp7182
g3822
aa(lp7183
g3820
aasg2
F1.0
ssI514
(dp7184
g1
F-1.0
sg7
(lp7185
(lp7186
g3987
aa(lp7187
g3989
aasg13
(dp7188
g15
g16
(g20
S'\xd5x\xe9&1\x08\xe0?'
p7189
tp7190
Rp7191
sg26
(lp7192
(g3989
g3987
F0.501
tp7193
assg3
F0.0
sg29
(lp7194
(lp7195
g3989
aa(lp7196
g3987
aasg2
F1.0
ssI515
(dp7197
g1
F-1.0
sg7
(lp7198
(lp7199
g4621
aa(lp7200
g4623
aasg13
(dp7201
g15
g16
(g20
S'\xd5x\xe9&1\x08\xe0?'
p7202
tp7203
Rp7204
sg26
(lp7205
(g4623
g4621
F0.501
tp7206
assg3
F0.0
sg29
(lp7207
(lp7208
g4623
aa(lp7209
g4621
aasg2
F1.0
ssI516
(dp7210
g1
F-1.0
sg7
(lp7211
(lp7212
g6328
aa(lp7213
g6330
aasg13
(dp7214
g15
g16
(g20
S'\xd5x\xe9&1\x08\xe0?'
p7215
tp7216
Rp7217
sg26
(lp7218
(g6330
g6328
F0.501
tp7219
assg3
F0.0
sg29
(lp7220
(lp7221
g6330
aa(lp7222
g6328
aasg2
F1.0
ssI517
(dp7223
g1
F1.0
sg7
(lp7224
(lp7225
g1025
aa(lp7226
g1406
aasg13
(dp7227
g15
g16
(g20
S'\xd5x\xe9&1\x08\xe0?'
p7228
tp7229
Rp7230
sg26
(lp7231
(g1025
g1406
F0.501
tp7232
assg3
F1.0
sg29
(lp7233
(lp7234
g1025
aa(lp7235
g1406
aasg2
F1.0
ssI518
(dp7236
g1
F1.0
sg7
(lp7237
(lp7238
g2294
aa(lp7239
g2296
aasg13
(dp7240
g15
g16
(g20
S'\xd5x\xe9&1\x08\xe0?'
p7241
tp7242
Rp7243
sg26
(lp7244
(g2294
g2296
F0.501
tp7245
assg3
F1.0
sg29
(lp7246
(lp7247
g2294
aa(lp7248
g2296
aasg2
F1.0
ssI519
(dp7249
g1
F-1.0
sg7
(lp7250
(lp7251
g1534
aa(lp7252
g1536
aasg13
(dp7253
g15
g16
(g20
S'\xd5x\xe9&1\x08\xe0?'
p7254
tp7255
Rp7256
sg26
(lp7257
(g1536
g1534
F0.501
tp7258
assg3
F0.0
sg29
(lp7259
(lp7260
g1536
aa(lp7261
g1534
aasg2
F1.0
ssI520
(dp7262
g1
F1.0
sg7
(lp7263
(lp7264
g1851
aa(lp7265
g1853
aasg13
(dp7266
g15
g16
(g20
S'\xd5x\xe9&1\x08\xe0?'
p7267
tp7268
Rp7269
sg26
(lp7270
(g1851
g1853
F0.501
tp7271
assg3
F1.0
sg29
(lp7272
(lp7273
g1851
aa(lp7274
g1853
aasg2
F1.0
ssI521
(dp7275
g1
F-1.0
sg7
(lp7276
(lp7277
g1661
aa(lp7278
g1663
aasg13
(dp7279
g15
g16
(g20
S'\xd5x\xe9&1\x08\xe0?'
p7280
tp7281
Rp7282
sg26
(lp7283
(g1663
g1661
F0.501
tp7284
assg3
F0.0
sg29
(lp7285
(lp7286
g1663
aa(lp7287
g1661
aasg2
F1.0
ssI522
(dp7288
g1
F-1.0
sg7
(lp7289
(lp7290
g3552
aa(lp7291
g3554
aasg13
(dp7292
g15
g16
(g20
S'\xd5x\xe9&1\x08\xe0?'
p7293
tp7294
Rp7295
sg26
(lp7296
(g3554
g3552
F0.501
tp7297
assg3
F0.0
sg29
(lp7298
(lp7299
g3554
aa(lp7300
g3552
aasg2
F1.0
ssI523
(dp7301
g1
F1.0
sg7
(lp7302
(lp7303
g882
aa(lp7304
g884
aasg13
(dp7305
g15
g16
(g20
S'\xd5x\xe9&1\x08\xe0?'
p7306
tp7307
Rp7308
sg26
(lp7309
(g882
g884
F0.501
tp7310
assg3
F1.0
sg29
(lp7311
(lp7312
g882
aa(lp7313
g884
aasg2
F1.0
ssI524
(dp7314
g1
F-1.0
sg7
(lp7315
(lp7316
g1143
aa(lp7317
g1145
aasg13
(dp7318
g15
g16
(g20
S'\xd5x\xe9&1\x08\xe0?'
p7319
tp7320
Rp7321
sg26
(lp7322
(g1145
g1143
F0.501
tp7323
assg3
F0.0
sg29
(lp7324
(lp7325
g1145
aa(lp7326
g1143
aasg2
F1.0
ssI525
(dp7327
g1
F1.0
sg7
(lp7328
(lp7329
g2960
aa(lp7330
g1246
aasg13
(dp7331
g15
g16
(g20
S'\xd5x\xe9&1\x08\xe0?'
p7332
tp7333
Rp7334
sg26
(lp7335
(g2960
g1246
F0.501
tp7336
assg3
F1.0
sg29
(lp7337
(lp7338
g2960
aa(lp7339
g1246
aasg2
F1.0
ssI526
(dp7340
g1
F-1.0
sg7
(lp7341
(lp7342
g5521
aa(lp7343
g5378
aasg13
(dp7344
g15
g16
(g20
S'\xd5x\xe9&1\x08\xe0?'
p7345
tp7346
Rp7347
sg26
(lp7348
(g5378
g5521
F0.501
tp7349
assg3
F0.0
sg29
(lp7350
(lp7351
g5378
aa(lp7352
g5521
aasg2
F1.0
ssI527
(dp7353
g1
F1.0
sg7
(lp7354
(lp7355
g1937
aa(lp7356
g1939
aasg13
(dp7357
g15
g16
(g20
S'\xd5x\xe9&1\x08\xe0?'
p7358
tp7359
Rp7360
sg26
(lp7361
(g1937
g1939
F0.501
tp7362
assg3
F1.0
sg29
(lp7363
(lp7364
g1937
aa(lp7365
g1939
aasg2
F1.0
ssI528
(dp7366
g1
F1.0
sg7
(lp7367
(lp7368
g3215
aa(lp7369
g4015
aasg13
(dp7370
g15
g16
(g20
S'\xd5x\xe9&1\x08\xe0?'
p7371
tp7372
Rp7373
sg26
(lp7374
(g3215
g4015
F0.501
tp7375
assg3
F1.0
sg29
(lp7376
(lp7377
g3215
aa(lp7378
g4015
aasg2
F1.0
ssI529
(dp7379
g1
F-1.0
sg7
(lp7380
(lp7381
g7081
aa(lp7382
g7083
aasg13
(dp7383
g15
g16
(g20
S'\xd5x\xe9&1\x08\xe0?'
p7384
tp7385
Rp7386
sg26
(lp7387
(g7083
g7081
F0.501
tp7388
assg3
F0.0
sg29
(lp7389
(lp7390
g7083
aa(lp7391
g7081
aasg2
F1.0
ssI530
(dp7392
g1
F1.0
sg7
(lp7393
(lp7394
g366
aa(lp7395
g3905
aasg13
(dp7396
g15
g16
(g20
S'\xd5x\xe9&1\x08\xe0?'
p7397
tp7398
Rp7399
sg26
(lp7400
(g366
g3905
F0.501
tp7401
assg3
F1.0
sg29
(lp7402
(lp7403
g366
aa(lp7404
g3905
aasg2
F1.0
ssI531
(dp7405
g1
F-1.0
sg7
(lp7406
(lp7407
g573
aa(lp7408
g735
aasg13
(dp7409
g15
g16
(g20
S'\xd5x\xe9&1\x08\xe0?'
p7410
tp7411
Rp7412
sg26
(lp7413
(g735
g573
F0.501
tp7414
assg3
F0.0
sg29
(lp7415
(lp7416
g735
aa(lp7417
g573
aasg2
F1.0
ssI532
(dp7418
g1
F-1.0
sg7
(lp7419
(lp7420
g6123
aa(lp7421
g6125
aasg13
(dp7422
g15
g16
(g20
S'\xd5x\xe9&1\x08\xe0?'
p7423
tp7424
Rp7425
sg26
(lp7426
(g6125
g6123
F0.501
tp7427
assg3
F0.0
sg29
(lp7428
(lp7429
g6125
aa(lp7430
g6123
aasg2
F1.0
ssI533
(dp7431
g1
F1.0
sg7
(lp7432
(lp7433
g4415
aa(lp7434
g4417
aasg13
(dp7435
g15
g16
(g20
S'\xd5x\xe9&1\x08\xe0?'
p7436
tp7437
Rp7438
sg26
(lp7439
(g4415
g4417
F0.501
tp7440
assg3
F1.0
sg29
(lp7441
(lp7442
g4415
aa(lp7443
g4417
aasg2
F1.0
ssI534
(dp7444
g1
F-1.0
sg7
(lp7445
(lp7446
g4015
aa(lp7447
g3217
aasg13
(dp7448
g15
g16
(g20
S'\xd5x\xe9&1\x08\xe0?'
p7449
tp7450
Rp7451
sg26
(lp7452
(g3217
g4015
F0.501
tp7453
assg3
F0.0
sg29
(lp7454
(lp7455
g3217
aa(lp7456
g4015
aasg2
F1.0
ssI535
(dp7457
g1
F-1.0
sg7
(lp7458
(lp7459
g5673
aa(lp7460
g5675
aasg13
(dp7461
g15
g16
(g20
S'\xd5x\xe9&1\x08\xe0?'
p7462
tp7463
Rp7464
sg26
(lp7465
(g5675
g5673
F0.501
tp7466
assg3
F0.0
sg29
(lp7467
(lp7468
g5675
aa(lp7469
g5673
aasg2
F1.0
ssI536
(dp7470
g1
F1.0
sg7
(lp7471
(lp7472
g3215
aa(lp7473
g4015
aasg13
(dp7474
g15
g16
(g20
S'\xd5x\xe9&1\x08\xe0?'
p7475
tp7476
Rp7477
sg26
(lp7478
(g3215
g4015
F0.501
tp7479
assg3
F1.0
sg29
(lp7480
(lp7481
g3215
aa(lp7482
g4015
aasg2
F1.0
ssI537
(dp7483
g1
F-1.0
sg7
(lp7484
(lp7485
g5535
aa(lp7486
g5537
aasg13
(dp7487
g15
g16
(g20
S'\xd5x\xe9&1\x08\xe0?'
p7488
tp7489
Rp7490
sg26
(lp7491
(g5537
g5535
F0.501
tp7492
assg3
F0.0
sg29
(lp7493
(lp7494
g5537
aa(lp7495
g5535
aasg2
F1.0
ssI538
(dp7496
g1
F1.0
sg7
(lp7497
(lp7498
g186
aa(lp7499
g188
aasg13
(dp7500
g15
g16
(g20
S'\xd5x\xe9&1\x08\xe0?'
p7501
tp7502
Rp7503
sg26
(lp7504
(g186
g188
F0.501
tp7505
assg3
F1.0
sg29
(lp7506
(lp7507
g186
aa(lp7508
g188
aasg2
F1.0
ssI539
(dp7509
g1
F-1.0
sg7
(lp7510
(lp7511
g6869
aa(lp7512
g6871
aasg13
(dp7513
g15
g16
(g20
S'\xd5x\xe9&1\x08\xe0?'
p7514
tp7515
Rp7516
sg26
(lp7517
(g6871
g6869
F0.501
tp7518
assg3
F0.0
sg29
(lp7519
(lp7520
g6871
aa(lp7521
g6869
aasg2
F1.0
ssI540
(dp7522
g1
F-1.0
sg7
(lp7523
(lp7524
g1780
aa(lp7525
g1782
aasg13
(dp7526
g15
g16
(g20
S'\xd5x\xe9&1\x08\xe0?'
p7527
tp7528
Rp7529
sg26
(lp7530
(g1782
g1780
F0.501
tp7531
assg3
F0.0
sg29
(lp7532
(lp7533
g1782
aa(lp7534
g1780
aasg2
F1.0
ssI541
(dp7535
g1
F1.0
sg7
(lp7536
(lp7537
g5077
aa(lp7538
g5079
aasg13
(dp7539
g15
g16
(g20
S'\xd5x\xe9&1\x08\xe0?'
p7540
tp7541
Rp7542
sg26
(lp7543
(g5077
g5079
F0.501
tp7544
assg3
F1.0
sg29
(lp7545
(lp7546
g5077
aa(lp7547
g5079
aasg2
F1.0
ssI542
(dp7548
g1
F-1.0
sg7
(lp7549
(lp7550
g1736
aa(lp7551
g1738
aasg13
(dp7552
g15
g16
(g20
S'\xd5x\xe9&1\x08\xe0?'
p7553
tp7554
Rp7555
sg26
(lp7556
(g1738
g1736
F0.501
tp7557
assg3
F0.0
sg29
(lp7558
(lp7559
g1738
aa(lp7560
g1736
aasg2
F1.0
ssI543
(dp7561
g1
F-1.0
sg7
(lp7562
(lp7563
g1244
aa(lp7564
g1246
aasg13
(dp7565
g15
g16
(g20
S'\xd5x\xe9&1\x08\xe0?'
p7566
tp7567
Rp7568
sg26
(lp7569
(g1246
g1244
F0.501
tp7570
assg3
F0.0
sg29
(lp7571
(lp7572
g1246
aa(lp7573
g1244
aasg2
F1.0
ssI544
(dp7574
g1
F-1.0
sg7
(lp7575
(lp7576
g3638
aa(lp7577
g3640
aasg13
(dp7578
g15
g16
(g20
S'\xd5x\xe9&1\x08\xe0?'
p7579
tp7580
Rp7581
sg26
(lp7582
(g3640
g3638
F0.501
tp7583
assg3
F0.0
sg29
(lp7584
(lp7585
g3640
aa(lp7586
g3638
aasg2
F1.0
ssI545
(dp7587
g1
F1.0
sg7
(lp7588
(lp7589
g1588
aa(lp7590
g513
aasg13
(dp7591
g15
g16
(g20
S'\xd5x\xe9&1\x08\xe0?'
p7592
tp7593
Rp7594
sg26
(lp7595
(g1588
g513
F0.501
tp7596
assg3
F1.0
sg29
(lp7597
(lp7598
g1588
aa(lp7599
g513
aasg2
F1.0
ssI546
(dp7600
g1
F1.0
sg7
(lp7601
(lp7602
g3567
aa(lp7603
g3569
aasg13
(dp7604
g15
g16
(g20
S'\xd5x\xe9&1\x08\xe0?'
p7605
tp7606
Rp7607
sg26
(lp7608
(g3567
g3569
F0.501
tp7609
assg3
F1.0
sg29
(lp7610
(lp7611
g3567
aa(lp7612
g3569
aasg2
F1.0
ssI547
(dp7613
g1
F1.0
sg7
(lp7614
(lp7615
g7066
aa(lp7616
g7068
aasg13
(dp7617
g15
g16
(g20
S'\xd5x\xe9&1\x08\xe0?'
p7618
tp7619
Rp7620
sg26
(lp7621
(g7066
g7068
F0.501
tp7622
assg3
F1.0
sg29
(lp7623
(lp7624
g7066
aa(lp7625
g7068
aasg2
F1.0
ssI548
(dp7626
g1
F1.0
sg7
(lp7627
(lp7628
g4113
aa(lp7629
g4115
aasg13
(dp7630
g15
g16
(g20
S'\xd5x\xe9&1\x08\xe0?'
p7631
tp7632
Rp7633
sg26
(lp7634
(g4113
g4115
F0.501
tp7635
assg3
F1.0
sg29
(lp7636
(lp7637
g4113
aa(lp7638
g4115
aasg2
F1.0
ssI549
(dp7639
g1
F-1.0
sg7
(lp7640
(lp7641
g5336
aa(lp7642
g661
aasg13
(dp7643
g15
g16
(g20
S'\xd5x\xe9&1\x08\xe0?'
p7644
tp7645
Rp7646
sg26
(lp7647
(g661
g5336
F0.501
tp7648
assg3
F0.0
sg29
(lp7649
(lp7650
g661
aa(lp7651
g5336
aasg2
F1.0
ssI550
(dp7652
g1
F-1.0
sg7
(lp7653
(lp7654
g5336
aa(lp7655
g661
aasg13
(dp7656
g15
g16
(g20
S'\xd5x\xe9&1\x08\xe0?'
p7657
tp7658
Rp7659
sg26
(lp7660
(g661
g5336
F0.501
tp7661
assg3
F0.0
sg29
(lp7662
(lp7663
g661
aa(lp7664
g5336
aasg2
F1.0
ssI551
(dp7665
g1
F-1.0
sg7
(lp7666
(lp7667
g6054
aa(lp7668
g6056
aasg13
(dp7669
g15
g16
(g20
S'\xd5x\xe9&1\x08\xe0?'
p7670
tp7671
Rp7672
sg26
(lp7673
(g6056
g6054
F0.501
tp7674
assg3
F0.0
sg29
(lp7675
(lp7676
g6056
aa(lp7677
g6054
aasg2
F1.0
ssI552
(dp7678
g1
F-1.0
sg7
(lp7679
(lp7680
g3933
aa(lp7681
g3935
aasg13
(dp7682
g15
g16
(g20
S'\xd5x\xe9&1\x08\xe0?'
p7683
tp7684
Rp7685
sg26
(lp7686
(g3935
g3933
F0.501
tp7687
assg3
F0.0
sg29
(lp7688
(lp7689
g3935
aa(lp7690
g3933
aasg2
F1.0
ssI553
(dp7691
g1
F-1.0
sg7
(lp7692
(lp7693
g426
aa(lp7694
g1603
aasg13
(dp7695
g15
g16
(g20
S'\xd5x\xe9&1\x08\xe0?'
p7696
tp7697
Rp7698
sg26
(lp7699
(g1603
g426
F0.501
tp7700
assg3
F0.0
sg29
(lp7701
(lp7702
g1603
aa(lp7703
g426
aasg2
F1.0
ssI554
(dp7704
g1
F-1.0
sg7
(lp7705
(lp7706
g4180
aa(lp7707
g3692
aasg13
(dp7708
g15
g16
(g20
S'\xd5x\xe9&1\x08\xe0?'
p7709
tp7710
Rp7711
sg26
(lp7712
(g3692
g4180
F0.501
tp7713
assg3
F0.0
sg29
(lp7714
(lp7715
g3692
aa(lp7716
g4180
aasg2
F1.0
ssI555
(dp7717
g1
F1.0
sg7
(lp7718
(lp7719
g616
aa(lp7720
g618
aasg13
(dp7721
g15
g16
(g20
S'\xd5x\xe9&1\x08\xe0?'
p7722
tp7723
Rp7724
sg26
(lp7725
(g616
g618
F0.501
tp7726
assg3
F1.0
sg29
(lp7727
(lp7728
g616
aa(lp7729
g618
aasg2
F1.0
sss.