(dp0
S'tau'
p1
F-0.3793103448275862
sS'|tau|'
p2
F1.0
sS'pairwise'
p3
F0.3103448275862069
sS'ranking'
p4
(dp5
I0
(dp6
g1
F-1.0
sS'gold'
p7
(lp8
(lp9
S'steep'
p10
aa(lp11
S'steeper'
p12
aasS'raw'
p13
(dp14
S'prob*'
p15
cnumpy.core.multiarray
scalar
p16
(cnumpy
dtype
p17
(S'f8'
p18
I0
I1
tp19
Rp20
(I3
S'<'
p21
NNNI-1
I-1
I0
tp22
bS'\xd5x\xe9&1\x08\xe0?'
p23
tp24
Rp25
sS'link-probs'
p26
(lp27
(g12
g10
F0.501
tp28
assg3
F0.0
sS'algo'
p29
(lp30
(lp31
g12
aa(lp32
g10
aasg2
F1.0
ssI1
(dp33
g1
F-1.0
sg7
(lp34
(lp35
S'heavier'
p36
aa(lp37
S'heaviest'
p38
aasg13
(dp39
g15
g16
(g20
S'\xd5x\xe9&1\x08\xe0?'
p40
tp41
Rp42
sg26
(lp43
(g38
g36
F0.501
tp44
assg3
F0.0
sg29
(lp45
(lp46
g38
aa(lp47
g36
aasg2
F1.0
ssI2
(dp48
g1
F-1.0
sg7
(lp49
(lp50
S'friendly'
p51
aa(lp52
S'friendlier'
p53
aasg13
(dp54
g15
g16
(g20
S'\xd5x\xe9&1\x08\xe0?'
p55
tp56
Rp57
sg26
(lp58
(g53
g51
F0.501
tp59
assg3
F0.0
sg29
(lp60
(lp61
g53
aa(lp62
g51
aasg2
F1.0
ssI3
(dp63
g1
F1.0
sg7
(lp64
(lp65
S'late'
p66
aa(lp67
S'latest'
p68
aasg13
(dp69
g15
g16
(g20
S'\xd5x\xe9&1\x08\xe0?'
p70
tp71
Rp72
sg26
(lp73
(g66
g68
F0.501
tp74
assg3
F1.0
sg29
(lp75
(lp76
g66
aa(lp77
g68
aasg2
F1.0
ssI4
(dp78
g1
F-1.0
sg7
(lp79
(lp80
S'cheaper'
p81
aa(lp82
S'cheapest'
p83
aasg13
(dp84
g15
g16
(g20
S'\xd5x\xe9&1\x08\xe0?'
p85
tp86
Rp87
sg26
(lp88
(g83
g81
F0.501
tp89
assg3
F0.0
sg29
(lp90
(lp91
g83
aa(lp92
g81
aasg2
F1.0
ssI5
(dp93
g1
F-1.0
sg7
(lp94
(lp95
S'shorter'
p96
aa(lp97
S'shortest'
p98
aasg13
(dp99
g15
g16
(g20
S'\xd5x\xe9&1\x08\xe0?'
p100
tp101
Rp102
sg26
(lp103
(g98
g96
F0.501
tp104
assg3
F0.0
sg29
(lp105
(lp106
g98
aa(lp107
g96
aasg2
F1.0
ssI6
(dp108
g1
F-1.0
sg7
(lp109
(lp110
S'cleaner'
p111
aa(lp112
S'cleanest'
p113
aasg13
(dp114
g15
g16
(g20
S'\xd5x\xe9&1\x08\xe0?'
p115
tp116
Rp117
sg26
(lp118
(g113
g111
F0.501
tp119
assg3
F0.0
sg29
(lp120
(lp121
g113
aa(lp122
g111
aasg2
F1.0
ssI7
(dp123
g1
F-1.0
sg7
(lp124
(lp125
S'sick'
p126
aa(lp127
S'sicker'
p128
aasg13
(dp129
g15
g16
(g20
S'\xd5x\xe9&1\x08\xe0?'
p130
tp131
Rp132
sg26
(lp133
(g128
g126
F0.501
tp134
assg3
F0.0
sg29
(lp135
(lp136
g128
aa(lp137
g126
aasg2
F1.0
ssI8
(dp138
g1
F-1.0
sg7
(lp139
(lp140
S'up'
p141
aa(lp142
S'upper'
p143
aasg13
(dp144
g15
g16
(g20
S'\xd5x\xe9&1\x08\xe0?'
p145
tp146
Rp147
sg26
(lp148
(g143
g141
F0.501
tp149
assg3
F0.0
sg29
(lp150
(lp151
g143
aa(lp152
g141
aasg2
F1.0
ssI9
(dp153
g1
F1.0
sg7
(lp154
(lp155
S'deep'
p156
aa(lp157
S'deepest'
p158
aasg13
(dp159
g15
g16
(g20
S'\xd5x\xe9&1\x08\xe0?'
p160
tp161
Rp162
sg26
(lp163
(g156
g158
F0.501
tp164
assg3
F1.0
sg29
(lp165
(lp166
g156
aa(lp167
g158
aasg2
F1.0
ssI10
(dp168
g1
F-1.0
sg7
(lp169
(lp170
S'brave'
p171
aa(lp172
S'bravest'
p173
aasg13
(dp174
g15
g16
(g20
S'\xd5x\xe9&1\x08\xe0?'
p175
tp176
Rp177
sg26
(lp178
(g173
g171
F0.501
tp179
assg3
F0.0
sg29
(lp180
(lp181
g173
aa(lp182
g171
aasg2
F1.0
ssI11
(dp183
g1
F-1.0
sg7
(lp184
(lp185
S'old'
p186
aa(lp187
S'oldest'
p188
aasg13
(dp189
g15
g16
(g20
S'\xd5x\xe9&1\x08\xe0?'
p190
tp191
Rp192
sg26
(lp193
(g188
g186
F0.501
tp194
assg3
F0.0
sg29
(lp195
(lp196
g188
aa(lp197
g186
aasg2
F1.0
ssI12
(dp198
g1
F-1.0
sg7
(lp199
(lp200
S'hard'
p201
aa(lp202
S'hardest'
p203
aasg13
(dp204
g15
g16
(g20
S'\xd5x\xe9&1\x08\xe0?'
p205
tp206
Rp207
sg26
(lp208
(g203
g201
F0.501
tp209
assg3
F0.0
sg29
(lp210
(lp211
g203
aa(lp212
g201
aasg2
F1.0
ssI13
(dp213
g1
F-1.0
sg7
(lp214
(lp215
S'brighter'
p216
aa(lp217
S'brightest'
p218
aasg13
(dp219
g15
g16
(g20
S'\xd5x\xe9&1\x08\xe0?'
p220
tp221
Rp222
sg26
(lp223
(g218
g216
F0.501
tp224
assg3
F0.0
sg29
(lp225
(lp226
g218
aa(lp227
g216
aasg2
F1.0
ssI14
(dp228
g1
F-1.0
sg7
(lp229
(lp230
S'mild'
p231
aa(lp232
S'milder'
p233
aasg13
(dp234
g15
g16
(g20
S'\xd5x\xe9&1\x08\xe0?'
p235
tp236
Rp237
sg26
(lp238
(g233
g231
F0.501
tp239
assg3
F0.0
sg29
(lp240
(lp241
g233
aa(lp242
g231
aasg2
F1.0
ssI15
(dp243
g1
F1.0
sg7
(lp244
(lp245
S'larger'
p246
aa(lp247
S'largest'
p248
aasg13
(dp249
g15
g16
(g20
S'\xd5x\xe9&1\x08\xe0?'
p250
tp251
Rp252
sg26
(lp253
(g246
g248
F0.501
tp254
assg3
F1.0
sg29
(lp255
(lp256
g246
aa(lp257
g248
aasg2
F1.0
ssI16
(dp258
g1
F-1.0
sg7
(lp259
(lp260
S'further'
p261
aa(lp262
S'furthest'
p263
aasg13
(dp264
g15
g16
(g20
S'\xd5x\xe9&1\x08\xe0?'
p265
tp266
Rp267
sg26
(lp268
(g263
g261
F0.501
tp269
assg3
F0.0
sg29
(lp270
(lp271
g263
aa(lp272
g261
aasg2
F1.0
ssI17
(dp273
g1
F-1.0
sg7
(lp274
(lp275
S'sunny'
p276
aa(lp277
S'sunnier'
p278
aasg13
(dp279
g15
g16
(g20
S'\xd5x\xe9&1\x08\xe0?'
p280
tp281
Rp282
sg26
(lp283
(g278
g276
F0.501
tp284
assg3
F0.0
sg29
(lp285
(lp286
g278
aa(lp287
g276
aasg2
F1.0
ssI18
(dp288
g1
F-1.0
sg7
(lp289
(lp290
S'sweet'
p291
aa(lp292
S'sweeter'
p293
aasg13
(dp294
g15
g16
(g20
S'\xd5x\xe9&1\x08\xe0?'
p295
tp296
Rp297
sg26
(lp298
(g293
g291
F0.501
tp299
assg3
F0.0
sg29
(lp300
(lp301
g293
aa(lp302
g291
aasg2
F1.0
ssI19
(dp303
g1
F1.0
sg7
(lp304
(lp305
S'east'
p306
aa(lp307
S'easier'
p308
aasg13
(dp309
g15
g16
(g20
S'\xd5x\xe9&1\x08\xe0?'
p310
tp311
Rp312
sg26
(lp313
(g306
g308
F0.501
tp314
assg3
F1.0
sg29
(lp315
(lp316
g306
aa(lp317
g308
aasg2
F1.0
ssI20
(dp318
g1
F1.0
sg7
(lp319
(lp320
g306
aa(lp321
S'easiest'
p322
aasg13
(dp323
g15
g16
(g20
S'\xd5x\xe9&1\x08\xe0?'
p324
tp325
Rp326
sg26
(lp327
(g306
g322
F0.501
tp328
assg3
F1.0
sg29
(lp329
(lp330
g306
aa(lp331
g322
aasg2
F1.0
ssI21
(dp332
g1
F1.0
sg7
(lp333
(lp334
S'clean'
p335
aa(lp336
S'cleaner'
p337
aasg13
(dp338
g15
g16
(g20
S'\xd5x\xe9&1\x08\xe0?'
p339
tp340
Rp341
sg26
(lp342
(g335
g337
F0.501
tp343
assg3
F1.0
sg29
(lp344
(lp345
g335
aa(lp346
g337
aasg2
F1.0
ssI22
(dp347
g1
F-1.0
sg7
(lp348
(lp349
S'smooth'
p350
aa(lp351
S'smoother'
p352
aasg13
(dp353
g15
g16
(g20
S'\xd5x\xe9&1\x08\xe0?'
p354
tp355
Rp356
sg26
(lp357
(g352
g350
F0.501
tp358
assg3
F0.0
sg29
(lp359
(lp360
g352
aa(lp361
g350
aasg2
F1.0
ssI23
(dp362
g1
F-1.0
sg7
(lp363
(lp364
S'smart'
p365
aa(lp366
S'smartest'
p367
aasg13
(dp368
g15
g16
(g20
S'\xd5x\xe9&1\x08\xe0?'
p369
tp370
Rp371
sg26
(lp372
(g367
g365
F0.501
tp373
assg3
F0.0
sg29
(lp374
(lp375
g367
aa(lp376
g365
aasg2
F1.0
ssI24
(dp377
g1
F-1.0
sg7
(lp378
(lp379
S'far'
p380
aa(lp381
S'furthest'
p382
aasg13
(dp383
g15
g16
(g20
S'\xd5x\xe9&1\x08\xe0?'
p384
tp385
Rp386
sg26
(lp387
(g382
g380
F0.501
tp388
assg3
F0.0
sg29
(lp389
(lp390
g382
aa(lp391
g380
aasg2
F1.0
ssI25
(dp392
g1
F-1.0
sg7
(lp393
(lp394
S'older'
p395
aa(lp396
S'oldest'
p397
aasg13
(dp398
g15
g16
(g20
S'\xd5x\xe9&1\x08\xe0?'
p399
tp400
Rp401
sg26
(lp402
(g397
g395
F0.501
tp403
assg3
F0.0
sg29
(lp404
(lp405
g397
aa(lp406
g395
aasg2
F1.0
ssI26
(dp407
g1
F-1.0
sg7
(lp408
(lp409
S'newer'
p410
aa(lp411
S'newest'
p412
aasg13
(dp413
g15
g16
(g20
S'\xd5x\xe9&1\x08\xe0?'
p414
tp415
Rp416
sg26
(lp417
(g412
g410
F0.501
tp418
assg3
F0.0
sg29
(lp419
(lp420
g412
aa(lp421
g410
aasg2
F1.0
ssI27
(dp422
g1
F1.0
sg7
(lp423
(lp424
S'larger'
p425
aa(lp426
S'largest'
p427
aasg13
(dp428
g15
g16
(g20
S'\xd5x\xe9&1\x08\xe0?'
p429
tp430
Rp431
sg26
(lp432
(g425
g427
F0.501
tp433
assg3
F1.0
sg29
(lp434
(lp435
g425
aa(lp436
g427
aasg2
F1.0
ssI28
(dp437
g1
F-1.0
sg7
(lp438
(lp439
S'heavier'
p440
aa(lp441
S'heaviest'
p442
aasg13
(dp443
g15
g16
(g20
S'\xd5x\xe9&1\x08\xe0?'
p444
tp445
Rp446
sg26
(lp447
(g442
g440
F0.501
tp448
assg3
F0.0
sg29
(lp449
(lp450
g442
aa(lp451
g440
aasg2
F1.0
ssI29
(dp452
g1
F-1.0
sg7
(lp453
(lp454
S'brighter'
p455
aa(lp456
S'brightest'
p457
aasg13
(dp458
g15
g16
(g20
S'\xd5x\xe9&1\x08\xe0?'
p459
tp460
Rp461
sg26
(lp462
(g457
g455
F0.501
tp463
assg3
F0.0
sg29
(lp464
(lp465
g457
aa(lp466
g455
aasg2
F1.0
ssI30
(dp467
g1
F-1.0
sg7
(lp468
(lp469
S'earlier'
p470
aa(lp471
S'earliest'
p472
aasg13
(dp473
g15
g16
(g20
S'\xd5x\xe9&1\x08\xe0?'
p474
tp475
Rp476
sg26
(lp477
(g472
g470
F0.501
tp478
assg3
F0.0
sg29
(lp479
(lp480
g472
aa(lp481
g470
aasg2
F1.0
ssI31
(dp482
g1
F-1.0
sg7
(lp483
(lp484
g81
aa(lp485
g83
aasg13
(dp486
g15
g16
(g20
S'\xd5x\xe9&1\x08\xe0?'
p487
tp488
Rp489
sg26
(lp490
(g83
g81
F0.501
tp491
assg3
F0.0
sg29
(lp492
(lp493
g83
aa(lp494
g81
aasg2
F1.0
ssI32
(dp495
g1
F-1.0
sg7
(lp496
(lp497
S'mean'
p498
aa(lp499
S'meaner'
p500
aasg13
(dp501
g15
g16
(g20
S'\xd5x\xe9&1\x08\xe0?'
p502
tp503
Rp504
sg26
(lp505
(g500
g498
F0.501
tp506
assg3
F0.0
sg29
(lp507
(lp508
g500
aa(lp509
g498
aasg2
F1.0
ssI33
(dp510
g1
F-1.0
sg7
(lp511
(lp512
g171
aa(lp513
S'braver'
p514
aasg13
(dp515
g15
g16
(g20
S'\xd5x\xe9&1\x08\xe0?'
p516
tp517
Rp518
sg26
(lp519
(g514
g171
F0.501
tp520
assg3
F0.0
sg29
(lp521
(lp522
g514
aa(lp523
g171
aasg2
F1.0
ssI34
(dp524
g1
F1.0
sg7
(lp525
(lp526
S'wealthy'
p527
aa(lp528
S'wealthier'
p529
aasg13
(dp530
g15
g16
(g20
S'\xd5x\xe9&1\x08\xe0?'
p531
tp532
Rp533
sg26
(lp534
(g527
g529
F0.501
tp535
assg3
F1.0
sg29
(lp536
(lp537
g527
aa(lp538
g529
aasg2
F1.0
ssI35
(dp539
g1
F-1.0
sg7
(lp540
(lp541
S'heavy'
p542
aa(lp543
g38
aasg13
(dp544
g15
g16
(g20
S'\xd5x\xe9&1\x08\xe0?'
p545
tp546
Rp547
sg26
(lp548
(g38
g542
F0.501
tp549
assg3
F0.0
sg29
(lp550
(lp551
g38
aa(lp552
g542
aasg2
F1.0
ssI36
(dp553
g1
F-1.0
sg7
(lp554
(lp555
g380
aa(lp556
g382
aasg13
(dp557
g15
g16
(g20
S'\xd5x\xe9&1\x08\xe0?'
p558
tp559
Rp560
sg26
(lp561
(g382
g380
F0.501
tp562
assg3
F0.0
sg29
(lp563
(lp564
g382
aa(lp565
g380
aasg2
F1.0
ssI37
(dp566
g1
F-1.0
sg7
(lp567
(lp568
S'full'
p569
aa(lp570
S'fuller'
p571
aasg13
(dp572
g15
g16
(g20
S'\xd5x\xe9&1\x08\xe0?'
p573
tp574
Rp575
sg26
(lp576
(g571
g569
F0.501
tp577
assg3
F0.0
sg29
(lp578
(lp579
g571
aa(lp580
g569
aasg2
F1.0
ssI38
(dp581
g1
F-1.0
sg7
(lp582
(lp583
g440
aa(lp584
g442
aasg13
(dp585
g15
g16
(g20
S'\xd5x\xe9&1\x08\xe0?'
p586
tp587
Rp588
sg26
(lp589
(g442
g440
F0.501
tp590
assg3
F0.0
sg29
(lp591
(lp592
g442
aa(lp593
g440
aasg2
F1.0
ssI39
(dp594
g1
F1.0
sg7
(lp595
(lp596
S'large'
p597
aa(lp598
g427
aasg13
(dp599
g15
g16
(g20
S'\xd5x\xe9&1\x08\xe0?'
p600
tp601
Rp602
sg26
(lp603
(g597
g427
F0.501
tp604
assg3
F1.0
sg29
(lp605
(lp606
g597
aa(lp607
g427
aasg2
F1.0
ssI40
(dp608
g1
F1.0
sg7
(lp609
(lp610
S'well'
p611
aa(lp612
S'best'
p613
aasg13
(dp614
g15
g16
(g20
S'\xd5x\xe9&1\x08\xe0?'
p615
tp616
Rp617
sg26
(lp618
(g611
g613
F0.501
tp619
assg3
F1.0
sg29
(lp620
(lp621
g611
aa(lp622
g613
aasg2
F1.0
ssI41
(dp623
g1
F-1.0
sg7
(lp624
(lp625
S'timely'
p626
aa(lp627
S'timelier'
p628
aasg13
(dp629
g15
g16
(g20
S'\xd5x\xe9&1\x08\xe0?'
p630
tp631
Rp632
sg26
(lp633
(g628
g626
F0.501
tp634
assg3
F0.0
sg29
(lp635
(lp636
g628
aa(lp637
g626
aasg2
F1.0
ssI42
(dp638
g1
F-1.0
sg7
(lp639
(lp640
S'near'
p641
aa(lp642
S'nearest'
p643
aasg13
(dp644
g15
g16
(g20
S'\xd5x\xe9&1\x08\xe0?'
p645
tp646
Rp647
sg26
(lp648
(g643
g641
F0.501
tp649
assg3
F0.0
sg29
(lp650
(lp651
g643
aa(lp652
g641
aasg2
F1.0
ssI43
(dp653
g1
F-1.0
sg7
(lp654
(lp655
S'new'
p656
aa(lp657
S'newer'
p658
aasg13
(dp659
g15
g16
(g20
S'\xd5x\xe9&1\x08\xe0?'
p660
tp661
Rp662
sg26
(lp663
(g658
g656
F0.501
tp664
assg3
F0.0
sg29
(lp665
(lp666
g658
aa(lp667
g656
aasg2
F1.0
ssI44
(dp668
g1
F-1.0
sg7
(lp669
(lp670
S'dumb'
p671
aa(lp672
S'dumber'
p673
aasg13
(dp674
g15
g16
(g20
S'\xd5x\xe9&1\x08\xe0?'
p675
tp676
Rp677
sg26
(lp678
(g673
g671
F0.501
tp679
assg3
F0.0
sg29
(lp680
(lp681
g673
aa(lp682
g671
aasg2
F1.0
ssI45
(dp683
g1
F1.0
sg7
(lp684
(lp685
S'fine'
p686
aa(lp687
S'finest'
p688
aasg13
(dp689
g15
g16
(g20
S'\xd5x\xe9&1\x08\xe0?'
p690
tp691
Rp692
sg26
(lp693
(g686
g688
F0.501
tp694
assg3
F1.0
sg29
(lp695
(lp696
g686
aa(lp697
g688
aasg2
F1.0
ssI46
(dp698
g1
F-1.0
sg7
(lp699
(lp700
S'older'
p701
aa(lp702
S'oldest'
p703
aasg13
(dp704
g15
g16
(g20
S'\xd5x\xe9&1\x08\xe0?'
p705
tp706
Rp707
sg26
(lp708
(g703
g701
F0.501
tp709
assg3
F0.0
sg29
(lp710
(lp711
g703
aa(lp712
g701
aasg2
F1.0
ssI47
(dp713
g1
F1.0
sg7
(lp714
(lp715
S'ill'
p716
aa(lp717
S'worst'
p718
aasg13
(dp719
g15
g16
(g20
S'\xd5x\xe9&1\x08\xe0?'
p720
tp721
Rp722
sg26
(lp723
(g716
g718
F0.501
tp724
assg3
F1.0
sg29
(lp725
(lp726
g716
aa(lp727
g718
aasg2
F1.0
ssI48
(dp728
g1
F-1.0
sg7
(lp729
(lp730
S'scarce'
p731
aa(lp732
S'scarcer'
p733
aasg13
(dp734
g15
g16
(g20
S'\xd5x\xe9&1\x08\xe0?'
p735
tp736
Rp737
sg26
(lp738
(g733
g731
F0.501
tp739
assg3
F0.0
sg29
(lp740
(lp741
g733
aa(lp742
g731
aasg2
F1.0
ssI49
(dp743
g1
F-1.0
sg7
(lp744
(lp745
S'wealthier'
p746
aa(lp747
S'wealthiest'
p748
aasg13
(dp749
g15
g16
(g20
S'\xd5x\xe9&1\x08\xe0?'
p750
tp751
Rp752
sg26
(lp753
(g748
g746
F0.501
tp754
assg3
F0.0
sg29
(lp755
(lp756
g748
aa(lp757
g746
aasg2
F1.0
ssI50
(dp758
g1
F1.0
sg7
(lp759
(lp760
g425
aa(lp761
g427
aasg13
(dp762
g15
g16
(g20
S'\xd5x\xe9&1\x08\xe0?'
p763
tp764
Rp765
sg26
(lp766
(g425
g427
F0.501
tp767
assg3
F1.0
sg29
(lp768
(lp769
g425
aa(lp770
g427
aasg2
F1.0
ssI51
(dp771
g1
F1.0
sg7
(lp772
(lp773
S'quick'
p774
aa(lp775
S'quickest'
p776
aasg13
(dp777
g15
g16
(g20
S'\xd5x\xe9&1\x08\xe0?'
p778
tp779
Rp780
sg26
(lp781
(g774
g776
F0.501
tp782
assg3
F1.0
sg29
(lp783
(lp784
g774
aa(lp785
g776
aasg2
F1.0
ssI52
(dp786
g1
F-1.0
sg7
(lp787
(lp788
S'fuller'
p789
aa(lp790
S'fullest'
p791
aasg13
(dp792
g15
g16
(g20
S'\xd5x\xe9&1\x08\xe0?'
p793
tp794
Rp795
sg26
(lp796
(g791
g789
F0.501
tp797
assg3
F0.0
sg29
(lp798
(lp799
g791
aa(lp800
g789
aasg2
F1.0
ssI53
(dp801
g1
F-1.0
sg7
(lp802
(lp803
g789
aa(lp804
g791
aasg13
(dp805
g15
g16
(g20
S'\xd5x\xe9&1\x08\xe0?'
p806
tp807
Rp808
sg26
(lp809
(g791
g789
F0.501
tp810
assg3
F0.0
sg29
(lp811
(lp812
g791
aa(lp813
g789
aasg2
F1.0
ssI54
(dp814
g1
F-1.0
sg7
(lp815
(lp816
S'happier'
p817
aa(lp818
S'happiest'
p819
aasg13
(dp820
g15
g16
(g20
S'\xd5x\xe9&1\x08\xe0?'
p821
tp822
Rp823
sg26
(lp824
(g819
g817
F0.501
tp825
assg3
F0.0
sg29
(lp826
(lp827
g819
aa(lp828
g817
aasg2
F1.0
ssI55
(dp829
g1
F1.0
sg7
(lp830
(lp831
S'soon'
p832
aa(lp833
S'sooner'
p834
aasg13
(dp835
g15
g16
(g20
S'\xd5x\xe9&1\x08\xe0?'
p836
tp837
Rp838
sg26
(lp839
(g832
g834
F0.501
tp840
assg3
F1.0
sg29
(lp841
(lp842
g832
aa(lp843
g834
aasg2
F1.0
ssI56
(dp844
g1
F-1.0
sg7
(lp845
(lp846
S'heavy'
p847
aa(lp848
S'heaviest'
p849
aasg13
(dp850
g15
g16
(g20
S'\xd5x\xe9&1\x08\xe0?'
p851
tp852
Rp853
sg26
(lp854
(g849
g847
F0.501
tp855
assg3
F0.0
sg29
(lp856
(lp857
g849
aa(lp858
g847
aasg2
F1.0
ssI57
(dp859
g1
F-1.0
sg7
(lp860
(lp861
S'sad'
p862
aa(lp863
S'sadder'
p864
aasg13
(dp865
g15
g16
(g20
S'\xd5x\xe9&1\x08\xe0?'
p866
tp867
Rp868
sg26
(lp869
(g864
g862
F0.501
tp870
assg3
F0.0
sg29
(lp871
(lp872
g864
aa(lp873
g862
aasg2
F1.0
ssI58
(dp874
g1
F-1.0
sg7
(lp875
(lp876
S'darker'
p877
aa(lp878
S'darkest'
p879
aasg13
(dp880
g15
g16
(g20
S'\xd5x\xe9&1\x08\xe0?'
p881
tp882
Rp883
sg26
(lp884
(g879
g877
F0.501
tp885
assg3
F0.0
sg29
(lp886
(lp887
g879
aa(lp888
g877
aasg2
F1.0
ssI59
(dp889
g1
F-1.0
sg7
(lp890
(lp891
S'new'
p892
aa(lp893
S'newer'
p894
aasg13
(dp895
g15
g16
(g20
S'\xd5x\xe9&1\x08\xe0?'
p896
tp897
Rp898
sg26
(lp899
(g894
g892
F0.501
tp900
assg3
F0.0
sg29
(lp901
(lp902
g894
aa(lp903
g892
aasg2
F1.0
ssI60
(dp904
g1
F-1.0
sg7
(lp905
(lp906
g96
aa(lp907
g98
aasg13
(dp908
g15
g16
(g20
S'\xd5x\xe9&1\x08\xe0?'
p909
tp910
Rp911
sg26
(lp912
(g98
g96
F0.501
tp913
assg3
F0.0
sg29
(lp914
(lp915
g98
aa(lp916
g96
aasg2
F1.0
ssI61
(dp917
g1
F1.0
sg7
(lp918
(lp919
S'hon'
p920
aa(lp921
S'honest'
p922
aasg13
(dp923
g15
g16
(g20
S'\xd5x\xe9&1\x08\xe0?'
p924
tp925
Rp926
sg26
(lp927
(g920
g922
F0.501
tp928
assg3
F1.0
sg29
(lp929
(lp930
g920
aa(lp931
g922
aasg2
F1.0
ssI62
(dp932
g1
F1.0
sg7
(lp933
(lp934
S'funny'
p935
aa(lp936
S'funnier'
p937
aasg13
(dp938
g15
g16
(g20
S'\xd5x\xe9&1\x08\xe0?'
p939
tp940
Rp941
sg26
(lp942
(g935
g937
F0.501
tp943
assg3
F1.0
sg29
(lp944
(lp945
g935
aa(lp946
g937
aasg2
F1.0
ssI63
(dp947
g1
F1.0
sg7
(lp948
(lp949
S'bold'
p950
aa(lp951
S'bolder'
p952
aasg13
(dp953
g15
g16
(g20
S'\xd5x\xe9&1\x08\xe0?'
p954
tp955
Rp956
sg26
(lp957
(g950
g952
F0.501
tp958
assg3
F1.0
sg29
(lp959
(lp960
g950
aa(lp961
g952
aasg2
F1.0
ssI64
(dp962
g1
F-1.0
sg7
(lp963
(lp964
S'darker'
p965
aa(lp966
S'darkest'
p967
aasg13
(dp968
g15
g16
(g20
S'\xd5x\xe9&1\x08\xe0?'
p969
tp970
Rp971
sg26
(lp972
(g967
g965
F0.501
tp973
assg3
F0.0
sg29
(lp974
(lp975
g967
aa(lp976
g965
aasg2
F1.0
ssI65
(dp977
g1
F-1.0
sg7
(lp978
(lp979
g569
aa(lp980
S'fullest'
p981
aasg13
(dp982
g15
g16
(g20
S'\xd5x\xe9&1\x08\xe0?'
p983
tp984
Rp985
sg26
(lp986
(g981
g569
F0.501
tp987
assg3
F0.0
sg29
(lp988
(lp989
g981
aa(lp990
g569
aasg2
F1.0
ssI66
(dp991
g1
F-1.0
sg7
(lp992
(lp993
S'freer'
p994
aa(lp995
S'freest'
p996
aasg13
(dp997
g15
g16
(g20
S'\xd5x\xe9&1\x08\xe0?'
p998
tp999
Rp1000
sg26
(lp1001
(g996
g994
F0.501
tp1002
assg3
F0.0
sg29
(lp1003
(lp1004
g996
aa(lp1005
g994
aasg2
F1.0
ssI67
(dp1006
g1
F-1.0
sg7
(lp1007
(lp1008
S'wealthy'
p1009
aa(lp1010
g748
aasg13
(dp1011
g15
g16
(g20
S'\xd5x\xe9&1\x08\xe0?'
p1012
tp1013
Rp1014
sg26
(lp1015
(g748
g1009
F0.501
tp1016
assg3
F0.0
sg29
(lp1017
(lp1018
g748
aa(lp1019
g1009
aasg2
F1.0
ssI68
(dp1020
g1
F-1.0
sg7
(lp1021
(lp1022
g498
aa(lp1023
g500
aasg13
(dp1024
g15
g16
(g20
S'\xd5x\xe9&1\x08\xe0?'
p1025
tp1026
Rp1027
sg26
(lp1028
(g500
g498
F0.501
tp1029
assg3
F0.0
sg29
(lp1030
(lp1031
g500
aa(lp1032
g498
aasg2
F1.0
ssI69
(dp1033
g1
F-1.0
sg7
(lp1034
(lp1035
S'bright'
p1036
aa(lp1037
g457
aasg13
(dp1038
g15
g16
(g20
S'\xd5x\xe9&1\x08\xe0?'
p1039
tp1040
Rp1041
sg26
(lp1042
(g457
g1036
F0.501
tp1043
assg3
F0.0
sg29
(lp1044
(lp1045
g457
aa(lp1046
g1036
aasg2
F1.0
ssI70
(dp1047
g1
F1.0
sg7
(lp1048
(lp1049
S'loose'
p1050
aa(lp1051
S'looser'
p1052
aasg13
(dp1053
g15
g16
(g20
S'\xd5x\xe9&1\x08\xe0?'
p1054
tp1055
Rp1056
sg26
(lp1057
(g1050
g1052
F0.501
tp1058
assg3
F1.0
sg29
(lp1059
(lp1060
g1050
aa(lp1061
g1052
aasg2
F1.0
ssI71
(dp1062
g1
F1.0
sg7
(lp1063
(lp1064
S'holy'
p1065
aa(lp1066
S'holier'
p1067
aasg13
(dp1068
g15
g16
(g20
S'\xd5x\xe9&1\x08\xe0?'
p1069
tp1070
Rp1071
sg26
(lp1072
(g1065
g1067
F0.501
tp1073
assg3
F1.0
sg29
(lp1074
(lp1075
g1065
aa(lp1076
g1067
aasg2
F1.0
ssI72
(dp1077
g1
F-1.0
sg7
(lp1078
(lp1079
S'grave'
p1080
aa(lp1081
S'graver'
p1082
aasg13
(dp1083
g15
g16
(g20
S'\xd5x\xe9&1\x08\xe0?'
p1084
tp1085
Rp1086
sg26
(lp1087
(g1082
g1080
F0.501
tp1088
assg3
F0.0
sg29
(lp1089
(lp1090
g1082
aa(lp1091
g1080
aasg2
F1.0
ssI73
(dp1092
g1
F1.0
sg7
(lp1093
(lp1094
S'speedy'
p1095
aa(lp1096
S'speedier'
p1097
aasg13
(dp1098
g15
g16
(g20
S'\xd5x\xe9&1\x08\xe0?'
p1099
tp1100
Rp1101
sg26
(lp1102
(g1095
g1097
F0.501
tp1103
assg3
F1.0
sg29
(lp1104
(lp1105
g1095
aa(lp1106
g1097
aasg2
F1.0
ssI74
(dp1107
g1
F1.0
sg7
(lp1108
(lp1109
S'moist'
p1110
aa(lp1111
S'moister'
p1112
aasg13
(dp1113
g15
g16
(g20
S'\xd5x\xe9&1\x08\xe0?'
p1114
tp1115
Rp1116
sg26
(lp1117
(g1110
g1112
F0.501
tp1118
assg3
F1.0
sg29
(lp1119
(lp1120
g1110
aa(lp1121
g1112
aasg2
F1.0
ssI75
(dp1122
g1
F1.0
sg7
(lp1123
(lp1124
S'ill'
p1125
aa(lp1126
S'worse'
p1127
aasg13
(dp1128
g15
g16
(g20
S'\xd5x\xe9&1\x08\xe0?'
p1129
tp1130
Rp1131
sg26
(lp1132
(g1125
g1127
F0.501
tp1133
assg3
F1.0
sg29
(lp1134
(lp1135
g1125
aa(lp1136
g1127
aasg2
F1.0
ssI76
(dp1137
g1
F1.0
sg7
(lp1138
(lp1139
S'quick'
p1140
aa(lp1141
S'quickest'
p1142
aasg13
(dp1143
g15
g16
(g20
S'\xd5x\xe9&1\x08\xe0?'
p1144
tp1145
Rp1146
sg26
(lp1147
(g1140
g1142
F0.501
tp1148
assg3
F1.0
sg29
(lp1149
(lp1150
g1140
aa(lp1151
g1142
aasg2
F1.0
ssI77
(dp1152
g1
F1.0
sg7
(lp1153
(lp1154
S'graver'
p1155
aa(lp1156
S'gravest'
p1157
aasg13
(dp1158
g15
g16
(g20
S'\xd5x\xe9&1\x08\xe0?'
p1159
tp1160
Rp1161
sg26
(lp1162
(g1155
g1157
F0.501
tp1163
assg3
F1.0
sg29
(lp1164
(lp1165
g1155
aa(lp1166
g1157
aasg2
F1.0
ssI78
(dp1167
g1
F-1.0
sg7
(lp1168
(lp1169
g571
aa(lp1170
g981
aasg13
(dp1171
g15
g16
(g20
S'\xd5x\xe9&1\x08\xe0?'
p1172
tp1173
Rp1174
sg26
(lp1175
(g981
g571
F0.501
tp1176
assg3
F0.0
sg29
(lp1177
(lp1178
g981
aa(lp1179
g571
aasg2
F1.0
ssI79
(dp1180
g1
F1.0
sg7
(lp1181
(lp1182
g335
aa(lp1183
g337
aasg13
(dp1184
g15
g16
(g20
S'\xd5x\xe9&1\x08\xe0?'
p1185
tp1186
Rp1187
sg26
(lp1188
(g335
g337
F0.501
tp1189
assg3
F1.0
sg29
(lp1190
(lp1191
g335
aa(lp1192
g337
aasg2
F1.0
ssI80
(dp1193
g1
F1.0
sg7
(lp1194
(lp1195
S'richer'
p1196
aa(lp1197
S'richest'
p1198
aasg13
(dp1199
g15
g16
(g20
S'\xd5x\xe9&1\x08\xe0?'
p1200
tp1201
Rp1202
sg26
(lp1203
(g1196
g1198
F0.501
tp1204
assg3
F1.0
sg29
(lp1205
(lp1206
g1196
aa(lp1207
g1198
aasg2
F1.0
ssI81
(dp1208
g1
F-1.0
sg7
(lp1209
(lp1210
S'hard'
p1211
aa(lp1212
S'hardest'
p1213
aasg13
(dp1214
g15
g16
(g20
S'\xd5x\xe9&1\x08\xe0?'
p1215
tp1216
Rp1217
sg26
(lp1218
(g1213
g1211
F0.501
tp1219
assg3
F0.0
sg29
(lp1220
(lp1221
g1213
aa(lp1222
g1211
aasg2
F1.0
ssI82
(dp1223
g1
F-1.0
sg7
(lp1224
(lp1225
S'old'
p1226
aa(lp1227
g703
aasg13
(dp1228
g15
g16
(g20
S'\xd5x\xe9&1\x08\xe0?'
p1229
tp1230
Rp1231
sg26
(lp1232
(g703
g1226
F0.501
tp1233
assg3
F0.0
sg29
(lp1234
(lp1235
g703
aa(lp1236
g1226
aasg2
F1.0
ssI83
(dp1237
g1
F-1.0
sg7
(lp1238
(lp1239
g571
aa(lp1240
g981
aasg13
(dp1241
g15
g16
(g20
S'\xd5x\xe9&1\x08\xe0?'
p1242
tp1243
Rp1244
sg26
(lp1245
(g981
g571
F0.501
tp1246
assg3
F0.0
sg29
(lp1247
(lp1248
g981
aa(lp1249
g571
aasg2
F1.0
ssI84
(dp1250
g1
F-1.0
sg7
(lp1251
(lp1252
S'clean'
p1253
aa(lp1254
S'cleanest'
p1255
aasg13
(dp1256
g15
g16
(g20
S'\xd5x\xe9&1\x08\xe0?'
p1257
tp1258
Rp1259
sg26
(lp1260
(g1255
g1253
F0.501
tp1261
assg3
F0.0
sg29
(lp1262
(lp1263
g1255
aa(lp1264
g1253
aasg2
F1.0
ssI85
(dp1265
g1
F-1.0
sg7
(lp1266
(lp1267
S'warmer'
p1268
aa(lp1269
S'warmest'
p1270
aasg13
(dp1271
g15
g16
(g20
S'\xd5x\xe9&1\x08\xe0?'
p1272
tp1273
Rp1274
sg26
(lp1275
(g1270
g1268
F0.501
tp1276
assg3
F0.0
sg29
(lp1277
(lp1278
g1270
aa(lp1279
g1268
aasg2
F1.0
ssI86
(dp1280
g1
F-1.0
sg7
(lp1281
(lp1282
S'wealthy'
p1283
aa(lp1284
S'wealthiest'
p1285
aasg13
(dp1286
g15
g16
(g20
S'\xd5x\xe9&1\x08\xe0?'
p1287
tp1288
Rp1289
sg26
(lp1290
(g1285
g1283
F0.501
tp1291
assg3
F0.0
sg29
(lp1292
(lp1293
g1285
aa(lp1294
g1283
aasg2
F1.0
ssI87
(dp1295
g1
F1.0
sg7
(lp1296
(lp1297
S'fine'
p1298
aa(lp1299
S'finest'
p1300
aasg13
(dp1301
g15
g16
(g20
S'\xd5x\xe9&1\x08\xe0?'
p1302
tp1303
Rp1304
sg26
(lp1305
(g1298
g1300
F0.501
tp1306
assg3
F1.0
sg29
(lp1307
(lp1308
g1298
aa(lp1309
g1300
aasg2
F1.0
ssI88
(dp1310
g1
F1.0
sg7
(lp1311
(lp1312
S'sharp'
p1313
aa(lp1314
S'sharper'
p1315
aasg13
(dp1316
g15
g16
(g20
S'\xd5x\xe9&1\x08\xe0?'
p1317
tp1318
Rp1319
sg26
(lp1320
(g1313
g1315
F0.501
tp1321
assg3
F1.0
sg29
(lp1322
(lp1323
g1313
aa(lp1324
g1315
aasg2
F1.0
ssI89
(dp1325
g1
F-1.0
sg7
(lp1326
(lp1327
g10
aa(lp1328
g12
aasg13
(dp1329
g15
g16
(g20
S'\xd5x\xe9&1\x08\xe0?'
p1330
tp1331
Rp1332
sg26
(lp1333
(g12
g10
F0.501
tp1334
assg3
F0.0
sg29
(lp1335
(lp1336
g12
aa(lp1337
g10
aasg2
F1.0
ssI90
(dp1338
g1
F-1.0
sg7
(lp1339
(lp1340
S'freer'
p1341
aa(lp1342
S'freest'
p1343
aasg13
(dp1344
g15
g16
(g20
S'\xd5x\xe9&1\x08\xe0?'
p1345
tp1346
Rp1347
sg26
(lp1348
(g1343
g1341
F0.501
tp1349
assg3
F0.0
sg29
(lp1350
(lp1351
g1343
aa(lp1352
g1341
aasg2
F1.0
ssI91
(dp1353
g1
F1.0
sg7
(lp1354
(lp1355
g1110
aa(lp1356
g1112
aasg13
(dp1357
g15
g16
(g20
S'\xd5x\xe9&1\x08\xe0?'
p1358
tp1359
Rp1360
sg26
(lp1361
(g1110
g1112
F0.501
tp1362
assg3
F1.0
sg29
(lp1363
(lp1364
g1110
aa(lp1365
g1112
aasg2
F1.0
ssI92
(dp1366
g1
F1.0
sg7
(lp1367
(lp1368
g935
aa(lp1369
g937
aasg13
(dp1370
g15
g16
(g20
S'\xd5x\xe9&1\x08\xe0?'
p1371
tp1372
Rp1373
sg26
(lp1374
(g935
g937
F0.501
tp1375
assg3
F1.0
sg29
(lp1376
(lp1377
g935
aa(lp1378
g937
aasg2
F1.0
ssI93
(dp1379
g1
F1.0
sg7
(lp1380
(lp1381
g832
aa(lp1382
g834
aasg13
(dp1383
g15
g16
(g20
S'\xd5x\xe9&1\x08\xe0?'
p1384
tp1385
Rp1386
sg26
(lp1387
(g832
g834
F0.501
tp1388
assg3
F1.0
sg29
(lp1389
(lp1390
g832
aa(lp1391
g834
aasg2
F1.0
ssI94
(dp1392
g1
F-1.0
sg7
(lp1393
(lp1394
g658
aa(lp1395
S'newest'
p1396
aasg13
(dp1397
g15
g16
(g20
S'\xd5x\xe9&1\x08\xe0?'
p1398
tp1399
Rp1400
sg26
(lp1401
(g1396
g658
F0.501
tp1402
assg3
F0.0
sg29
(lp1403
(lp1404
g1396
aa(lp1405
g658
aasg2
F1.0
ssI95
(dp1406
g1
F-1.0
sg7
(lp1407
(lp1408
g231
aa(lp1409
g233
aasg13
(dp1410
g15
g16
(g20
S'\xd5x\xe9&1\x08\xe0?'
p1411
tp1412
Rp1413
sg26
(lp1414
(g233
g231
F0.501
tp1415
assg3
F0.0
sg29
(lp1416
(lp1417
g233
aa(lp1418
g231
aasg2
F1.0
ssI96
(dp1419
g1
F-1.0
sg7
(lp1420
(lp1421
S'full'
p1422
aa(lp1423
S'fullest'
p1424
aasg13
(dp1425
g15
g16
(g20
S'\xd5x\xe9&1\x08\xe0?'
p1426
tp1427
Rp1428
sg26
(lp1429
(g1424
g1422
F0.501
tp1430
assg3
F0.0
sg29
(lp1431
(lp1432
g1424
aa(lp1433
g1422
aasg2
F1.0
ssI97
(dp1434
g1
F-1.0
sg7
(lp1435
(lp1436
S'smarter'
p1437
aa(lp1438
g367
aasg13
(dp1439
g15
g16
(g20
S'\xd5x\xe9&1\x08\xe0?'
p1440
tp1441
Rp1442
sg26
(lp1443
(g367
g1437
F0.501
tp1444
assg3
F0.0
sg29
(lp1445
(lp1446
g367
aa(lp1447
g1437
aasg2
F1.0
ssI98
(dp1448
g1
F-1.0
sg7
(lp1449
(lp1450
g656
aa(lp1451
g658
aasg13
(dp1452
g15
g16
(g20
S'\xd5x\xe9&1\x08\xe0?'
p1453
tp1454
Rp1455
sg26
(lp1456
(g658
g656
F0.501
tp1457
assg3
F0.0
sg29
(lp1458
(lp1459
g658
aa(lp1460
g656
aasg2
F1.0
ssI99
(dp1461
g1
F1.0
sg7
(lp1462
(lp1463
g1065
aa(lp1464
g1067
aasg13
(dp1465
g15
g16
(g20
S'\xd5x\xe9&1\x08\xe0?'
p1466
tp1467
Rp1468
sg26
(lp1469
(g1065
g1067
F0.501
tp1470
assg3
F1.0
sg29
(lp1471
(lp1472
g1065
aa(lp1473
g1067
aasg2
F1.0
ssI100
(dp1474
g1
F-1.0
sg7
(lp1475
(lp1476
S'warmer'
p1477
aa(lp1478
S'warmest'
p1479
aasg13
(dp1480
g15
g16
(g20
S'\xd5x\xe9&1\x08\xe0?'
p1481
tp1482
Rp1483
sg26
(lp1484
(g1479
g1477
F0.501
tp1485
assg3
F0.0
sg29
(lp1486
(lp1487
g1479
aa(lp1488
g1477
aasg2
F1.0
ssI101
(dp1489
g1
F-1.0
sg7
(lp1490
(lp1491
S'lengthy'
p1492
aa(lp1493
S'lengthier'
p1494
aasg13
(dp1495
g15
g16
(g20
S'\xd5x\xe9&1\x08\xe0?'
p1496
tp1497
Rp1498
sg26
(lp1499
(g1494
g1492
F0.501
tp1500
assg3
F0.0
sg29
(lp1501
(lp1502
g1494
aa(lp1503
g1492
aasg2
F1.0
ssI102
(dp1504
g1
F-1.0
sg7
(lp1505
(lp1506
S'smarter'
p1507
aa(lp1508
S'smartest'
p1509
aasg13
(dp1510
g15
g16
(g20
S'\xd5x\xe9&1\x08\xe0?'
p1511
tp1512
Rp1513
sg26
(lp1514
(g1509
g1507
F0.501
tp1515
assg3
F0.0
sg29
(lp1516
(lp1517
g1509
aa(lp1518
g1507
aasg2
F1.0
ssI103
(dp1519
g1
F-1.0
sg7
(lp1520
(lp1521
g994
aa(lp1522
g996
aasg13
(dp1523
g15
g16
(g20
S'\xd5x\xe9&1\x08\xe0?'
p1524
tp1525
Rp1526
sg26
(lp1527
(g996
g994
F0.501
tp1528
assg3
F0.0
sg29
(lp1529
(lp1530
g996
aa(lp1531
g994
aasg2
F1.0
ssI104
(dp1532
g1
F-1.0
sg7
(lp1533
(lp1534
S'some'
p1535
aa(lp1536
S'most'
p1537
aasg13
(dp1538
g15
g16
(g20
S'\xd5x\xe9&1\x08\xe0?'
p1539
tp1540
Rp1541
sg26
(lp1542
(g1537
g1535
F0.501
tp1543
assg3
F0.0
sg29
(lp1544
(lp1545
g1537
aa(lp1546
g1535
aasg2
F1.0
ssI105
(dp1547
g1
F-1.0
sg7
(lp1548
(lp1549
S'stark'
p1550
aa(lp1551
S'starker'
p1552
aasg13
(dp1553
g15
g16
(g20
S'\xd5x\xe9&1\x08\xe0?'
p1554
tp1555
Rp1556
sg26
(lp1557
(g1552
g1550
F0.501
tp1558
assg3
F0.0
sg29
(lp1559
(lp1560
g1552
aa(lp1561
g1550
aasg2
F1.0
ssI106
(dp1562
g1
F1.0
sg7
(lp1563
(lp1564
S'stupide'
p1565
aa(lp1566
S'stupider'
p1567
aasg13
(dp1568
g15
g16
(g20
S'\xd5x\xe9&1\x08\xe0?'
p1569
tp1570
Rp1571
sg26
(lp1572
(g1565
g1567
F0.501
tp1573
assg3
F1.0
sg29
(lp1574
(lp1575
g1565
aa(lp1576
g1567
aasg2
F1.0
ssI107
(dp1577
g1
F-1.0
sg7
(lp1578
(lp1579
g1253
aa(lp1580
g1255
aasg13
(dp1581
g15
g16
(g20
S'\xd5x\xe9&1\x08\xe0?'
p1582
tp1583
Rp1584
sg26
(lp1585
(g1255
g1253
F0.501
tp1586
assg3
F0.0
sg29
(lp1587
(lp1588
g1255
aa(lp1589
g1253
aasg2
F1.0
ssI108
(dp1590
g1
F1.0
sg7
(lp1591
(lp1592
g1196
aa(lp1593
g1198
aasg13
(dp1594
g15
g16
(g20
S'\xd5x\xe9&1\x08\xe0?'
p1595
tp1596
Rp1597
sg26
(lp1598
(g1196
g1198
F0.501
tp1599
assg3
F1.0
sg29
(lp1600
(lp1601
g1196
aa(lp1602
g1198
aasg2
F1.0
ssI109
(dp1603
g1
F-1.0
sg7
(lp1604
(lp1605
g1298
aa(lp1606
S'finer'
p1607
aasg13
(dp1608
g15
g16
(g20
S'\xd5x\xe9&1\x08\xe0?'
p1609
tp1610
Rp1611
sg26
(lp1612
(g1607
g1298
F0.501
tp1613
assg3
F0.0
sg29
(lp1614
(lp1615
g1607
aa(lp1616
g1298
aasg2
F1.0
ssI110
(dp1617
g1
F-1.0
sg7
(lp1618
(lp1619
g126
aa(lp1620
g128
aasg13
(dp1621
g15
g16
(g20
S'\xd5x\xe9&1\x08\xe0?'
p1622
tp1623
Rp1624
sg26
(lp1625
(g128
g126
F0.501
tp1626
assg3
F0.0
sg29
(lp1627
(lp1628
g128
aa(lp1629
g126
aasg2
F1.0
ssI111
(dp1630
g1
F-1.0
sg7
(lp1631
(lp1632
S'cheaper'
p1633
aa(lp1634
S'cheapest'
p1635
aasg13
(dp1636
g15
g16
(g20
S'\xd5x\xe9&1\x08\xe0?'
p1637
tp1638
Rp1639
sg26
(lp1640
(g1635
g1633
F0.501
tp1641
assg3
F0.0
sg29
(lp1642
(lp1643
g1635
aa(lp1644
g1633
aasg2
F1.0
ssI112
(dp1645
g1
F-1.0
sg7
(lp1646
(lp1647
g701
aa(lp1648
g703
aasg13
(dp1649
g15
g16
(g20
S'\xd5x\xe9&1\x08\xe0?'
p1650
tp1651
Rp1652
sg26
(lp1653
(g703
g701
F0.501
tp1654
assg3
F0.0
sg29
(lp1655
(lp1656
g703
aa(lp1657
g701
aasg2
F1.0
ssI113
(dp1658
g1
F-1.0
sg7
(lp1659
(lp1660
S'soft'
p1661
aa(lp1662
S'softer'
p1663
aasg13
(dp1664
g15
g16
(g20
S'\xd5x\xe9&1\x08\xe0?'
p1665
tp1666
Rp1667
sg26
(lp1668
(g1663
g1661
F0.501
tp1669
assg3
F0.0
sg29
(lp1670
(lp1671
g1663
aa(lp1672
g1661
aasg2
F1.0
ssI114
(dp1673
g1
F-1.0
sg7
(lp1674
(lp1675
S'further'
p1676
aa(lp1677
g382
aasg13
(dp1678
g15
g16
(g20
S'\xd5x\xe9&1\x08\xe0?'
p1679
tp1680
Rp1681
sg26
(lp1682
(g382
g1676
F0.501
tp1683
assg3
F0.0
sg29
(lp1684
(lp1685
g382
aa(lp1686
g1676
aasg2
F1.0
ssI115
(dp1687
g1
F-1.0
sg7
(lp1688
(lp1689
g1633
aa(lp1690
g1635
aasg13
(dp1691
g15
g16
(g20
S'\xd5x\xe9&1\x08\xe0?'
p1692
tp1693
Rp1694
sg26
(lp1695
(g1635
g1633
F0.501
tp1696
assg3
F0.0
sg29
(lp1697
(lp1698
g1635
aa(lp1699
g1633
aasg2
F1.0
ssI116
(dp1700
g1
F1.0
sg7
(lp1701
(lp1702
S'east'
p1703
aa(lp1704
S'easiest'
p1705
aasg13
(dp1706
g15
g16
(g20
S'\xd5x\xe9&1\x08\xe0?'
p1707
tp1708
Rp1709
sg26
(lp1710
(g1703
g1705
F0.501
tp1711
assg3
F1.0
sg29
(lp1712
(lp1713
g1703
aa(lp1714
g1705
aasg2
F1.0
ssI117
(dp1715
g1
F-1.0
sg7
(lp1716
(lp1717
g514
aa(lp1718
g173
aasg13
(dp1719
g15
g16
(g20
S'V\x0e-\xb2\x9d\xef\xdf?'
p1720
tp1721
Rp1722
sg26
(lp1723
(g173
g514
F0.499
tp1724
assg3
F0.0
sg29
(lp1725
(lp1726
g173
aa(lp1727
g514
aasg2
F1.0
ssI118
(dp1728
g1
F-1.0
sg7
(lp1729
(lp1730
S'clever'
p1731
aa(lp1732
S'cleverer'
p1733
aasg13
(dp1734
g15
g16
(g20
S'\xd5x\xe9&1\x08\xe0?'
p1735
tp1736
Rp1737
sg26
(lp1738
(g1733
g1731
F0.501
tp1739
assg3
F0.0
sg29
(lp1740
(lp1741
g1733
aa(lp1742
g1731
aasg2
F1.0
ssI119
(dp1743
g1
F1.0
sg7
(lp1744
(lp1745
g1095
aa(lp1746
g1097
aasg13
(dp1747
g15
g16
(g20
S'\xd5x\xe9&1\x08\xe0?'
p1748
tp1749
Rp1750
sg26
(lp1751
(g1095
g1097
F0.501
tp1752
assg3
F1.0
sg29
(lp1753
(lp1754
g1095
aa(lp1755
g1097
aasg2
F1.0
ssI120
(dp1756
g1
F-1.0
sg7
(lp1757
(lp1758
g36
aa(lp1759
g38
aasg13
(dp1760
g15
g16
(g20
S'\xd5x\xe9&1\x08\xe0?'
p1761
tp1762
Rp1763
sg26
(lp1764
(g38
g36
F0.501
tp1765
assg3
F0.0
sg29
(lp1766
(lp1767
g38
aa(lp1768
g36
aasg2
F1.0
ssI121
(dp1769
g1
F1.0
sg7
(lp1770
(lp1771
S'swift'
p1772
aa(lp1773
S'swifter'
p1774
aasg13
(dp1775
g15
g16
(g20
S'\xd5x\xe9&1\x08\xe0?'
p1776
tp1777
Rp1778
sg26
(lp1779
(g1772
g1774
F0.501
tp1780
assg3
F1.0
sg29
(lp1781
(lp1782
g1772
aa(lp1783
g1774
aasg2
F1.0
ssI122
(dp1784
g1
F-1.0
sg7
(lp1785
(lp1786
g1422
aa(lp1787
g1424
aasg13
(dp1788
g15
g16
(g20
S'\xd5x\xe9&1\x08\xe0?'
p1789
tp1790
Rp1791
sg26
(lp1792
(g1424
g1422
F0.501
tp1793
assg3
F0.0
sg29
(lp1794
(lp1795
g1424
aa(lp1796
g1422
aasg2
F1.0
ssI123
(dp1797
g1
F1.0
sg7
(lp1798
(lp1799
g1155
aa(lp1800
g1157
aasg13
(dp1801
g15
g16
(g20
S'\xd5x\xe9&1\x08\xe0?'
p1802
tp1803
Rp1804
sg26
(lp1805
(g1155
g1157
F0.501
tp1806
assg3
F1.0
sg29
(lp1807
(lp1808
g1155
aa(lp1809
g1157
aasg2
F1.0
ssI124
(dp1810
g1
F-1.0
sg7
(lp1811
(lp1812
S'smart'
p1813
aa(lp1814
S'smartest'
p1815
aasg13
(dp1816
g15
g16
(g20
S'\xd5x\xe9&1\x08\xe0?'
p1817
tp1818
Rp1819
sg26
(lp1820
(g1815
g1813
F0.501
tp1821
assg3
F0.0
sg29
(lp1822
(lp1823
g1815
aa(lp1824
g1813
aasg2
F1.0
ssI125
(dp1825
g1
F-1.0
sg7
(lp1826
(lp1827
g569
aa(lp1828
g571
aasg13
(dp1829
g15
g16
(g20
S'\xd5x\xe9&1\x08\xe0?'
p1830
tp1831
Rp1832
sg26
(lp1833
(g571
g569
F0.501
tp1834
assg3
F0.0
sg29
(lp1835
(lp1836
g571
aa(lp1837
g569
aasg2
F1.0
ssI126
(dp1838
g1
F-1.0
sg7
(lp1839
(lp1840
g261
aa(lp1841
g263
aasg13
(dp1842
g15
g16
(g20
S'\xd5x\xe9&1\x08\xe0?'
p1843
tp1844
Rp1845
sg26
(lp1846
(g263
g261
F0.501
tp1847
assg3
F0.0
sg29
(lp1848
(lp1849
g263
aa(lp1850
g261
aasg2
F1.0
ssI127
(dp1851
g1
F1.0
sg7
(lp1852
(lp1853
g1009
aa(lp1854
g746
aasg13
(dp1855
g15
g16
(g20
S'\xd5x\xe9&1\x08\xe0?'
p1856
tp1857
Rp1858
sg26
(lp1859
(g1009
g746
F0.501
tp1860
assg3
F1.0
sg29
(lp1861
(lp1862
g1009
aa(lp1863
g746
aasg2
F1.0
ssI128
(dp1864
g1
F-1.0
sg7
(lp1865
(lp1866
g1550
aa(lp1867
g1552
aasg13
(dp1868
g15
g16
(g20
S'\xd5x\xe9&1\x08\xe0?'
p1869
tp1870
Rp1871
sg26
(lp1872
(g1552
g1550
F0.501
tp1873
assg3
F0.0
sg29
(lp1874
(lp1875
g1552
aa(lp1876
g1550
aasg2
F1.0
ssI129
(dp1877
g1
F-1.0
sg7
(lp1878
(lp1879
g847
aa(lp1880
g849
aasg13
(dp1881
g15
g16
(g20
S'\xd5x\xe9&1\x08\xe0?'
p1882
tp1883
Rp1884
sg26
(lp1885
(g849
g847
F0.501
tp1886
assg3
F0.0
sg29
(lp1887
(lp1888
g849
aa(lp1889
g847
aasg2
F1.0
ssI130
(dp1890
g1
F1.0
sg7
(lp1891
(lp1892
S'mighty'
p1893
aa(lp1894
S'mightier'
p1895
aasg13
(dp1896
g15
g16
(g20
S'\xd5x\xe9&1\x08\xe0?'
p1897
tp1898
Rp1899
sg26
(lp1900
(g1893
g1895
F0.501
tp1901
assg3
F1.0
sg29
(lp1902
(lp1903
g1893
aa(lp1904
g1895
aasg2
F1.0
ssI131
(dp1905
g1
F-1.0
sg7
(lp1906
(lp1907
g1298
aa(lp1908
g1607
aasg13
(dp1909
g15
g16
(g20
S'\xd5x\xe9&1\x08\xe0?'
p1910
tp1911
Rp1912
sg26
(lp1913
(g1607
g1298
F0.501
tp1914
assg3
F0.0
sg29
(lp1915
(lp1916
g1607
aa(lp1917
g1298
aasg2
F1.0
ssI132
(dp1918
g1
F-1.0
sg7
(lp1919
(lp1920
S'braver'
p1921
aa(lp1922
S'bravest'
p1923
aasg13
(dp1924
g15
g16
(g20
S'V\x0e-\xb2\x9d\xef\xdf?'
p1925
tp1926
Rp1927
sg26
(lp1928
(g1923
g1921
F0.499
tp1929
assg3
F0.0
sg29
(lp1930
(lp1931
g1923
aa(lp1932
g1921
aasg2
F1.0
ssI133
(dp1933
g1
F-1.0
sg7
(lp1934
(lp1935
S'cheap'
p1936
aa(lp1937
g1635
aasg13
(dp1938
g15
g16
(g20
S'\xd5x\xe9&1\x08\xe0?'
p1939
tp1940
Rp1941
sg26
(lp1942
(g1635
g1936
F0.501
tp1943
assg3
F0.0
sg29
(lp1944
(lp1945
g1635
aa(lp1946
g1936
aasg2
F1.0
ssI134
(dp1947
g1
F1.0
sg7
(lp1948
(lp1949
g686
aa(lp1950
g688
aasg13
(dp1951
g15
g16
(g20
S'\xd5x\xe9&1\x08\xe0?'
p1952
tp1953
Rp1954
sg26
(lp1955
(g686
g688
F0.501
tp1956
assg3
F1.0
sg29
(lp1957
(lp1958
g686
aa(lp1959
g688
aasg2
F1.0
ssI135
(dp1960
g1
F1.0
sg7
(lp1961
(lp1962
g1565
aa(lp1963
g1567
aasg13
(dp1964
g15
g16
(g20
S'\xd5x\xe9&1\x08\xe0?'
p1965
tp1966
Rp1967
sg26
(lp1968
(g1565
g1567
F0.501
tp1969
assg3
F1.0
sg29
(lp1970
(lp1971
g1565
aa(lp1972
g1567
aasg2
F1.0
ssI136
(dp1973
g1
F1.0
sg7
(lp1974
(lp1975
S'richer'
p1976
aa(lp1977
S'richest'
p1978
aasg13
(dp1979
g15
g16
(g20
S'\xd5x\xe9&1\x08\xe0?'
p1980
tp1981
Rp1982
sg26
(lp1983
(g1976
g1978
F0.501
tp1984
assg3
F1.0
sg29
(lp1985
(lp1986
g1976
aa(lp1987
g1978
aasg2
F1.0
ssI137
(dp1988
g1
F-1.0
sg7
(lp1989
(lp1990
S'weaker'
p1991
aa(lp1992
S'weakest'
p1993
aasg13
(dp1994
g15
g16
(g20
S'\xd5x\xe9&1\x08\xe0?'
p1995
tp1996
Rp1997
sg26
(lp1998
(g1993
g1991
F0.501
tp1999
assg3
F0.0
sg29
(lp2000
(lp2001
g1993
aa(lp2002
g1991
aasg2
F1.0
ssI138
(dp2003
g1
F1.0
sg7
(lp2004
(lp2005
g1893
aa(lp2006
g1895
aasg13
(dp2007
g15
g16
(g20
S'\xd5x\xe9&1\x08\xe0?'
p2008
tp2009
Rp2010
sg26
(lp2011
(g1893
g1895
F0.501
tp2012
assg3
F1.0
sg29
(lp2013
(lp2014
g1893
aa(lp2015
g1895
aasg2
F1.0
ssI139
(dp2016
g1
F1.0
sg7
(lp2017
(lp2018
g1298
aa(lp2019
g1300
aasg13
(dp2020
g15
g16
(g20
S'\xd5x\xe9&1\x08\xe0?'
p2021
tp2022
Rp2023
sg26
(lp2024
(g1298
g1300
F0.501
tp2025
assg3
F1.0
sg29
(lp2026
(lp2027
g1298
aa(lp2028
g1300
aasg2
F1.0
ssI140
(dp2029
g1
F-1.0
sg7
(lp2030
(lp2031
g276
aa(lp2032
g278
aasg13
(dp2033
g15
g16
(g20
S'\xd5x\xe9&1\x08\xe0?'
p2034
tp2035
Rp2036
sg26
(lp2037
(g278
g276
F0.501
tp2038
assg3
F0.0
sg29
(lp2039
(lp2040
g278
aa(lp2041
g276
aasg2
F1.0
ssI141
(dp2042
g1
F-1.0
sg7
(lp2043
(lp2044
g186
aa(lp2045
g188
aasg13
(dp2046
g15
g16
(g20
S'\xd5x\xe9&1\x08\xe0?'
p2047
tp2048
Rp2049
sg26
(lp2050
(g188
g186
F0.501
tp2051
assg3
F0.0
sg29
(lp2052
(lp2053
g188
aa(lp2054
g186
aasg2
F1.0
ssI142
(dp2055
g1
F-1.0
sg7
(lp2056
(lp2057
S'safe'
p2058
aa(lp2059
S'safest'
p2060
aasg13
(dp2061
g15
g16
(g20
S'\xd5x\xe9&1\x08\xe0?'
p2062
tp2063
Rp2064
sg26
(lp2065
(g2060
g2058
F0.501
tp2066
assg3
F0.0
sg29
(lp2067
(lp2068
g2060
aa(lp2069
g2058
aasg2
F1.0
ssI143
(dp2070
g1
F1.0
sg7
(lp2071
(lp2072
S'large'
p2073
aa(lp2074
S'largest'
p2075
aasg13
(dp2076
g15
g16
(g20
S'\xd5x\xe9&1\x08\xe0?'
p2077
tp2078
Rp2079
sg26
(lp2080
(g2073
g2075
F0.501
tp2081
assg3
F1.0
sg29
(lp2082
(lp2083
g2073
aa(lp2084
g2075
aasg2
F1.0
ssI144
(dp2085
g1
F-1.0
sg7
(lp2086
(lp2087
g216
aa(lp2088
g218
aasg13
(dp2089
g15
g16
(g20
S'\xd5x\xe9&1\x08\xe0?'
p2090
tp2091
Rp2092
sg26
(lp2093
(g218
g216
F0.501
tp2094
assg3
F0.0
sg29
(lp2095
(lp2096
g218
aa(lp2097
g216
aasg2
F1.0
ssI145
(dp2098
g1
F1.0
sg7
(lp2099
(lp2100
S'late'
p2101
aa(lp2102
S'latest'
p2103
aasg13
(dp2104
g15
g16
(g20
S'\xd5x\xe9&1\x08\xe0?'
p2105
tp2106
Rp2107
sg26
(lp2108
(g2101
g2103
F0.501
tp2109
assg3
F1.0
sg29
(lp2110
(lp2111
g2101
aa(lp2112
g2103
aasg2
F1.0
ssI146
(dp2113
g1
F-1.0
sg7
(lp2114
(lp2115
g1283
aa(lp2116
g1285
aasg13
(dp2117
g15
g16
(g20
S'\xd5x\xe9&1\x08\xe0?'
p2118
tp2119
Rp2120
sg26
(lp2121
(g1285
g1283
F0.501
tp2122
assg3
F0.0
sg29
(lp2123
(lp2124
g1285
aa(lp2125
g1283
aasg2
F1.0
ssI147
(dp2126
g1
F-1.0
sg7
(lp2127
(lp2128
g1661
aa(lp2129
g1663
aasg13
(dp2130
g15
g16
(g20
S'\xd5x\xe9&1\x08\xe0?'
p2131
tp2132
Rp2133
sg26
(lp2134
(g1663
g1661
F0.501
tp2135
assg3
F0.0
sg29
(lp2136
(lp2137
g1663
aa(lp2138
g1661
aasg2
F1.0
ssI148
(dp2139
g1
F-1.0
sg7
(lp2140
(lp2141
g1009
aa(lp2142
g748
aasg13
(dp2143
g15
g16
(g20
S'\xd5x\xe9&1\x08\xe0?'
p2144
tp2145
Rp2146
sg26
(lp2147
(g748
g1009
F0.501
tp2148
assg3
F0.0
sg29
(lp2149
(lp2150
g748
aa(lp2151
g1009
aasg2
F1.0
ssI149
(dp2152
g1
F1.0
sg7
(lp2153
(lp2154
g716
aa(lp2155
g718
aasg13
(dp2156
g15
g16
(g20
S'\xd5x\xe9&1\x08\xe0?'
p2157
tp2158
Rp2159
sg26
(lp2160
(g716
g718
F0.501
tp2161
assg3
F1.0
sg29
(lp2162
(lp2163
g716
aa(lp2164
g718
aasg2
F1.0
ssI150
(dp2165
g1
F-1.0
sg7
(lp2166
(lp2167
S'brave'
p2168
aa(lp2169
S'bravest'
p2170
aasg13
(dp2171
g15
g16
(g20
S'\xd5x\xe9&1\x08\xe0?'
p2172
tp2173
Rp2174
sg26
(lp2175
(g2170
g2168
F0.501
tp2176
assg3
F0.0
sg29
(lp2177
(lp2178
g2170
aa(lp2179
g2168
aasg2
F1.0
ssI151
(dp2180
g1
F1.0
sg7
(lp2181
(lp2182
g2073
aa(lp2183
g2075
aasg13
(dp2184
g15
g16
(g20
S'\xd5x\xe9&1\x08\xe0?'
p2185
tp2186
Rp2187
sg26
(lp2188
(g2073
g2075
F0.501
tp2189
assg3
F1.0
sg29
(lp2190
(lp2191
g2073
aa(lp2192
g2075
aasg2
F1.0
ssI152
(dp2193
g1
F-1.0
sg7
(lp2194
(lp2195
S'fairer'
p2196
aa(lp2197
S'fairest'
p2198
aasg13
(dp2199
g15
g16
(g20
S'\xd5x\xe9&1\x08\xe0?'
p2200
tp2201
Rp2202
sg26
(lp2203
(g2198
g2196
F0.501
tp2204
assg3
F0.0
sg29
(lp2205
(lp2206
g2198
aa(lp2207
g2196
aasg2
F1.0
ssI153
(dp2208
g1
F-1.0
sg7
(lp2209
(lp2210
S'safe'
p2211
aa(lp2212
S'safest'
p2213
aasg13
(dp2214
g15
g16
(g20
S'\xd5x\xe9&1\x08\xe0?'
p2215
tp2216
Rp2217
sg26
(lp2218
(g2213
g2211
F0.501
tp2219
assg3
F0.0
sg29
(lp2220
(lp2221
g2213
aa(lp2222
g2211
aasg2
F1.0
ssI154
(dp2223
g1
F-1.0
sg7
(lp2224
(lp2225
g141
aa(lp2226
g143
aasg13
(dp2227
g15
g16
(g20
S'\xd5x\xe9&1\x08\xe0?'
p2228
tp2229
Rp2230
sg26
(lp2231
(g143
g141
F0.501
tp2232
assg3
F0.0
sg29
(lp2233
(lp2234
g143
aa(lp2235
g141
aasg2
F1.0
ssI155
(dp2236
g1
F1.0
sg7
(lp2237
(lp2238
S'dear'
p2239
aa(lp2240
S'dearer'
p2241
aasg13
(dp2242
g15
g16
(g20
S'\xd5x\xe9&1\x08\xe0?'
p2243
tp2244
Rp2245
sg26
(lp2246
(g2239
g2241
F0.501
tp2247
assg3
F1.0
sg29
(lp2248
(lp2249
g2239
aa(lp2250
g2241
aasg2
F1.0
ssI156
(dp2251
g1
F-1.0
sg7
(lp2252
(lp2253
g1731
aa(lp2254
g1733
aasg13
(dp2255
g15
g16
(g20
S'\xd5x\xe9&1\x08\xe0?'
p2256
tp2257
Rp2258
sg26
(lp2259
(g1733
g1731
F0.501
tp2260
assg3
F0.0
sg29
(lp2261
(lp2262
g1733
aa(lp2263
g1731
aasg2
F1.0
ssI157
(dp2264
g1
F1.0
sg7
(lp2265
(lp2266
S'thick'
p2267
aa(lp2268
S'thicker'
p2269
aasg13
(dp2270
g15
g16
(g20
S'\xd5x\xe9&1\x08\xe0?'
p2271
tp2272
Rp2273
sg26
(lp2274
(g2267
g2269
F0.501
tp2275
assg3
F1.0
sg29
(lp2276
(lp2277
g2267
aa(lp2278
g2269
aasg2
F1.0
ssI158
(dp2279
g1
F1.0
sg7
(lp2280
(lp2281
g1125
aa(lp2282
g1127
aasg13
(dp2283
g15
g16
(g20
S'\xd5x\xe9&1\x08\xe0?'
p2284
tp2285
Rp2286
sg26
(lp2287
(g1125
g1127
F0.501
tp2288
assg3
F1.0
sg29
(lp2289
(lp2290
g1125
aa(lp2291
g1127
aasg2
F1.0
ssI159
(dp2292
g1
F-1.0
sg7
(lp2293
(lp2294
g410
aa(lp2295
g412
aasg13
(dp2296
g15
g16
(g20
S'\xd5x\xe9&1\x08\xe0?'
p2297
tp2298
Rp2299
sg26
(lp2300
(g412
g410
F0.501
tp2301
assg3
F0.0
sg29
(lp2302
(lp2303
g412
aa(lp2304
g410
aasg2
F1.0
ssI160
(dp2305
g1
F-1.0
sg7
(lp2306
(lp2307
g51
aa(lp2308
g53
aasg13
(dp2309
g15
g16
(g20
S'\xd5x\xe9&1\x08\xe0?'
p2310
tp2311
Rp2312
sg26
(lp2313
(g53
g51
F0.501
tp2314
assg3
F0.0
sg29
(lp2315
(lp2316
g53
aa(lp2317
g51
aasg2
F1.0
ssI161
(dp2318
g1
F-1.0
sg7
(lp2319
(lp2320
S'tight'
p2321
aa(lp2322
S'tighter'
p2323
aasg13
(dp2324
g15
g16
(g20
S'\xd5x\xe9&1\x08\xe0?'
p2325
tp2326
Rp2327
sg26
(lp2328
(g2323
g2321
F0.501
tp2329
assg3
F0.0
sg29
(lp2330
(lp2331
g2323
aa(lp2332
g2321
aasg2
F1.0
ssI162
(dp2333
g1
F-1.0
sg7
(lp2334
(lp2335
g395
aa(lp2336
g397
aasg13
(dp2337
g15
g16
(g20
S'\xd5x\xe9&1\x08\xe0?'
p2338
tp2339
Rp2340
sg26
(lp2341
(g397
g395
F0.501
tp2342
assg3
F0.0
sg29
(lp2343
(lp2344
g397
aa(lp2345
g395
aasg2
F1.0
ssI163
(dp2346
g1
F-1.0
sg7
(lp2347
(lp2348
S'far'
p2349
aa(lp2350
S'furthest'
p2351
aasg13
(dp2352
g15
g16
(g20
S'\xd5x\xe9&1\x08\xe0?'
p2353
tp2354
Rp2355
sg26
(lp2356
(g2351
g2349
F0.501
tp2357
assg3
F0.0
sg29
(lp2358
(lp2359
g2351
aa(lp2360
g2349
aasg2
F1.0
ssI164
(dp2361
g1
F-1.0
sg7
(lp2362
(lp2363
S'rarer'
p2364
aa(lp2365
S'rarest'
p2366
aasg13
(dp2367
g15
g16
(g20
S'\xd5x\xe9&1\x08\xe0?'
p2368
tp2369
Rp2370
sg26
(lp2371
(g2366
g2364
F0.501
tp2372
assg3
F0.0
sg29
(lp2373
(lp2374
g2366
aa(lp2375
g2364
aasg2
F1.0
ssI165
(dp2376
g1
F-1.0
sg7
(lp2377
(lp2378
S'slim'
p2379
aa(lp2380
S'slimmer'
p2381
aasg13
(dp2382
g15
g16
(g20
S'\xd5x\xe9&1\x08\xe0?'
p2383
tp2384
Rp2385
sg26
(lp2386
(g2381
g2379
F0.501
tp2387
assg3
F0.0
sg29
(lp2388
(lp2389
g2381
aa(lp2390
g2379
aasg2
F1.0
ssI166
(dp2391
g1
F-1.0
sg7
(lp2392
(lp2393
g335
aa(lp2394
S'cleanest'
p2395
aasg13
(dp2396
g15
g16
(g20
S'\xd5x\xe9&1\x08\xe0?'
p2397
tp2398
Rp2399
sg26
(lp2400
(g2395
g335
F0.501
tp2401
assg3
F0.0
sg29
(lp2402
(lp2403
g2395
aa(lp2404
g335
aasg2
F1.0
ssI167
(dp2405
g1
F1.0
sg7
(lp2406
(lp2407
g1082
aa(lp2408
S'gravest'
p2409
aasg13
(dp2410
g15
g16
(g20
S'\xd5x\xe9&1\x08\xe0?'
p2411
tp2412
Rp2413
sg26
(lp2414
(g1082
g2409
F0.501
tp2415
assg3
F1.0
sg29
(lp2416
(lp2417
g1082
aa(lp2418
g2409
aasg2
F1.0
ssI168
(dp2419
g1
F-1.0
sg7
(lp2420
(lp2421
g1080
aa(lp2422
g1082
aasg13
(dp2423
g15
g16
(g20
S'\xd5x\xe9&1\x08\xe0?'
p2424
tp2425
Rp2426
sg26
(lp2427
(g1082
g1080
F0.501
tp2428
assg3
F0.0
sg29
(lp2429
(lp2430
g1082
aa(lp2431
g1080
aasg2
F1.0
ssI169
(dp2432
g1
F-1.0
sg7
(lp2433
(lp2434
S'happier'
p2435
aa(lp2436
S'happiest'
p2437
aasg13
(dp2438
g15
g16
(g20
S'\xd5x\xe9&1\x08\xe0?'
p2439
tp2440
Rp2441
sg26
(lp2442
(g2437
g2435
F0.501
tp2443
assg3
F0.0
sg29
(lp2444
(lp2445
g2437
aa(lp2446
g2435
aasg2
F1.0
ssI170
(dp2447
g1
F-1.0
sg7
(lp2448
(lp2449
g2168
aa(lp2450
g2170
aasg13
(dp2451
g15
g16
(g20
S'\xd5x\xe9&1\x08\xe0?'
p2452
tp2453
Rp2454
sg26
(lp2455
(g2170
g2168
F0.501
tp2456
assg3
F0.0
sg29
(lp2457
(lp2458
g2170
aa(lp2459
g2168
aasg2
F1.0
ssI171
(dp2460
g1
F1.0
sg7
(lp2461
(lp2462
g950
aa(lp2463
g952
aasg13
(dp2464
g15
g16
(g20
S'\xd5x\xe9&1\x08\xe0?'
p2465
tp2466
Rp2467
sg26
(lp2468
(g950
g952
F0.501
tp2469
assg3
F1.0
sg29
(lp2470
(lp2471
g950
aa(lp2472
g952
aasg2
F1.0
ssI172
(dp2473
g1
F-1.0
sg7
(lp2474
(lp2475
g365
aa(lp2476
g367
aasg13
(dp2477
g15
g16
(g20
S'\xd5x\xe9&1\x08\xe0?'
p2478
tp2479
Rp2480
sg26
(lp2481
(g367
g365
F0.501
tp2482
assg3
F0.0
sg29
(lp2483
(lp2484
g367
aa(lp2485
g365
aasg2
F1.0
ssI173
(dp2486
g1
F-1.0
sg7
(lp2487
(lp2488
g111
aa(lp2489
g113
aasg13
(dp2490
g15
g16
(g20
S'\xd5x\xe9&1\x08\xe0?'
p2491
tp2492
Rp2493
sg26
(lp2494
(g113
g111
F0.501
tp2495
assg3
F0.0
sg29
(lp2496
(lp2497
g113
aa(lp2498
g111
aasg2
F1.0
ssI174
(dp2499
g1
F1.0
sg7
(lp2500
(lp2501
g611
aa(lp2502
g613
aasg13
(dp2503
g15
g16
(g20
S'\xd5x\xe9&1\x08\xe0?'
p2504
tp2505
Rp2506
sg26
(lp2507
(g611
g613
F0.501
tp2508
assg3
F1.0
sg29
(lp2509
(lp2510
g611
aa(lp2511
g613
aasg2
F1.0
ssI175
(dp2512
g1
F-1.0
sg7
(lp2513
(lp2514
S'wealthier'
p2515
aa(lp2516
S'wealthiest'
p2517
aasg13
(dp2518
g15
g16
(g20
S'\xd5x\xe9&1\x08\xe0?'
p2519
tp2520
Rp2521
sg26
(lp2522
(g2517
g2515
F0.501
tp2523
assg3
F0.0
sg29
(lp2524
(lp2525
g2517
aa(lp2526
g2515
aasg2
F1.0
ssI176
(dp2527
g1
F-1.0
sg7
(lp2528
(lp2529
S'fairer'
p2530
aa(lp2531
S'fairest'
p2532
aasg13
(dp2533
g15
g16
(g20
S'\xd5x\xe9&1\x08\xe0?'
p2534
tp2535
Rp2536
sg26
(lp2537
(g2532
g2530
F0.501
tp2538
assg3
F0.0
sg29
(lp2539
(lp2540
g2532
aa(lp2541
g2530
aasg2
F1.0
ssI177
(dp2542
g1
F-1.0
sg7
(lp2543
(lp2544
g626
aa(lp2545
g628
aasg13
(dp2546
g15
g16
(g20
S'\xd5x\xe9&1\x08\xe0?'
p2547
tp2548
Rp2549
sg26
(lp2550
(g628
g626
F0.501
tp2551
assg3
F0.0
sg29
(lp2552
(lp2553
g628
aa(lp2554
g626
aasg2
F1.0
ssI178
(dp2555
g1
F-1.0
sg7
(lp2556
(lp2557
g514
aa(lp2558
g173
aasg13
(dp2559
g15
g16
(g20
S'V\x0e-\xb2\x9d\xef\xdf?'
p2560
tp2561
Rp2562
sg26
(lp2563
(g173
g514
F0.499
tp2564
assg3
F0.0
sg29
(lp2565
(lp2566
g173
aa(lp2567
g514
aasg2
F1.0
ssI179
(dp2568
g1
F1.0
sg7
(lp2569
(lp2570
g597
aa(lp2571
g427
aasg13
(dp2572
g15
g16
(g20
S'\xd5x\xe9&1\x08\xe0?'
p2573
tp2574
Rp2575
sg26
(lp2576
(g597
g427
F0.501
tp2577
assg3
F1.0
sg29
(lp2578
(lp2579
g597
aa(lp2580
g427
aasg2
F1.0
ssI180
(dp2581
g1
F1.0
sg7
(lp2582
(lp2583
S'clean'
p2584
aa(lp2585
S'cleaner'
p2586
aasg13
(dp2587
g15
g16
(g20
S'\xd5x\xe9&1\x08\xe0?'
p2588
tp2589
Rp2590
sg26
(lp2591
(g2584
g2586
F0.501
tp2592
assg3
F1.0
sg29
(lp2593
(lp2594
g2584
aa(lp2595
g2586
aasg2
F1.0
ssI181
(dp2596
g1
F-1.0
sg7
(lp2597
(lp2598
S'earlier'
p2599
aa(lp2600
S'earliest'
p2601
aasg13
(dp2602
g15
g16
(g20
S'\xd5x\xe9&1\x08\xe0?'
p2603
tp2604
Rp2605
sg26
(lp2606
(g2601
g2599
F0.501
tp2607
assg3
F0.0
sg29
(lp2608
(lp2609
g2601
aa(lp2610
g2599
aasg2
F1.0
ssI182
(dp2611
g1
F-1.0
sg7
(lp2612
(lp2613
S'rarer'
p2614
aa(lp2615
S'rarest'
p2616
aasg13
(dp2617
g15
g16
(g20
S'\xd5x\xe9&1\x08\xe0?'
p2618
tp2619
Rp2620
sg26
(lp2621
(g2616
g2614
F0.501
tp2622
assg3
F0.0
sg29
(lp2623
(lp2624
g2616
aa(lp2625
g2614
aasg2
F1.0
ssI183
(dp2626
g1
F-1.0
sg7
(lp2627
(lp2628
S'shorter'
p2629
aa(lp2630
S'shortest'
p2631
aasg13
(dp2632
g15
g16
(g20
S'\xd5x\xe9&1\x08\xe0?'
p2633
tp2634
Rp2635
sg26
(lp2636
(g2631
g2629
F0.501
tp2637
assg3
F0.0
sg29
(lp2638
(lp2639
g2631
aa(lp2640
g2629
aasg2
F1.0
ssI184
(dp2641
g1
F-1.0
sg7
(lp2642
(lp2643
g2379
aa(lp2644
g2381
aasg13
(dp2645
g15
g16
(g20
S'\xd5x\xe9&1\x08\xe0?'
p2646
tp2647
Rp2648
sg26
(lp2649
(g2381
g2379
F0.501
tp2650
assg3
F0.0
sg29
(lp2651
(lp2652
g2381
aa(lp2653
g2379
aasg2
F1.0
ssI185
(dp2654
g1
F-1.0
sg7
(lp2655
(lp2656
g455
aa(lp2657
g457
aasg13
(dp2658
g15
g16
(g20
S'\xd5x\xe9&1\x08\xe0?'
p2659
tp2660
Rp2661
sg26
(lp2662
(g457
g455
F0.501
tp2663
assg3
F0.0
sg29
(lp2664
(lp2665
g457
aa(lp2666
g455
aasg2
F1.0
ssI186
(dp2667
g1
F-1.0
sg7
(lp2668
(lp2669
g1936
aa(lp2670
g1635
aasg13
(dp2671
g15
g16
(g20
S'\xd5x\xe9&1\x08\xe0?'
p2672
tp2673
Rp2674
sg26
(lp2675
(g1635
g1936
F0.501
tp2676
assg3
F0.0
sg29
(lp2677
(lp2678
g1635
aa(lp2679
g1936
aasg2
F1.0
ssI187
(dp2680
g1
F1.0
sg7
(lp2681
(lp2682
g246
aa(lp2683
g248
aasg13
(dp2684
g15
g16
(g20
S'\xd5x\xe9&1\x08\xe0?'
p2685
tp2686
Rp2687
sg26
(lp2688
(g246
g248
F0.501
tp2689
assg3
F1.0
sg29
(lp2690
(lp2691
g246
aa(lp2692
g248
aasg2
F1.0
ssI188
(dp2693
g1
F1.0
sg7
(lp2694
(lp2695
S'wet'
p2696
aa(lp2697
S'wetter'
p2698
aasg13
(dp2699
g15
g16
(g20
S'\xd5x\xe9&1\x08\xe0?'
p2700
tp2701
Rp2702
sg26
(lp2703
(g2696
g2698
F0.501
tp2704
assg3
F1.0
sg29
(lp2705
(lp2706
g2696
aa(lp2707
g2698
aasg2
F1.0
ssI189
(dp2708
g1
F-1.0
sg7
(lp2709
(lp2710
g2321
aa(lp2711
g2323
aasg13
(dp2712
g15
g16
(g20
S'\xd5x\xe9&1\x08\xe0?'
p2713
tp2714
Rp2715
sg26
(lp2716
(g2323
g2321
F0.501
tp2717
assg3
F0.0
sg29
(lp2718
(lp2719
g2323
aa(lp2720
g2321
aasg2
F1.0
ssI190
(dp2721
g1
F-1.0
sg7
(lp2722
(lp2723
g542
aa(lp2724
g38
aasg13
(dp2725
g15
g16
(g20
S'\xd5x\xe9&1\x08\xe0?'
p2726
tp2727
Rp2728
sg26
(lp2729
(g38
g542
F0.501
tp2730
assg3
F0.0
sg29
(lp2731
(lp2732
g38
aa(lp2733
g542
aasg2
F1.0
ssI191
(dp2734
g1
F1.0
sg7
(lp2735
(lp2736
g306
aa(lp2737
g308
aasg13
(dp2738
g15
g16
(g20
S'\xd5x\xe9&1\x08\xe0?'
p2739
tp2740
Rp2741
sg26
(lp2742
(g306
g308
F0.501
tp2743
assg3
F1.0
sg29
(lp2744
(lp2745
g306
aa(lp2746
g308
aasg2
F1.0
ssI192
(dp2747
g1
F-1.0
sg7
(lp2748
(lp2749
g2530
aa(lp2750
g2532
aasg13
(dp2751
g15
g16
(g20
S'\xd5x\xe9&1\x08\xe0?'
p2752
tp2753
Rp2754
sg26
(lp2755
(g2532
g2530
F0.501
tp2756
assg3
F0.0
sg29
(lp2757
(lp2758
g2532
aa(lp2759
g2530
aasg2
F1.0
ssI193
(dp2760
g1
F-1.0
sg7
(lp2761
(lp2762
g1341
aa(lp2763
g1343
aasg13
(dp2764
g15
g16
(g20
S'\xd5x\xe9&1\x08\xe0?'
p2765
tp2766
Rp2767
sg26
(lp2768
(g1343
g1341
F0.501
tp2769
assg3
F0.0
sg29
(lp2770
(lp2771
g1343
aa(lp2772
g1341
aasg2
F1.0
ssI194
(dp2773
g1
F-1.0
sg7
(lp2774
(lp2775
g350
aa(lp2776
g352
aasg13
(dp2777
g15
g16
(g20
S'\xd5x\xe9&1\x08\xe0?'
p2778
tp2779
Rp2780
sg26
(lp2781
(g352
g350
F0.501
tp2782
assg3
F0.0
sg29
(lp2783
(lp2784
g352
aa(lp2785
g350
aasg2
F1.0
ssI195
(dp2786
g1
F-1.0
sg7
(lp2787
(lp2788
g1507
aa(lp2789
g1509
aasg13
(dp2790
g15
g16
(g20
S'\xd5x\xe9&1\x08\xe0?'
p2791
tp2792
Rp2793
sg26
(lp2794
(g1509
g1507
F0.501
tp2795
assg3
F0.0
sg29
(lp2796
(lp2797
g1509
aa(lp2798
g1507
aasg2
F1.0
ssI196
(dp2799
g1
F1.0
sg7
(lp2800
(lp2801
g774
aa(lp2802
g776
aasg13
(dp2803
g15
g16
(g20
S'\xd5x\xe9&1\x08\xe0?'
p2804
tp2805
Rp2806
sg26
(lp2807
(g774
g776
F0.501
tp2808
assg3
F1.0
sg29
(lp2809
(lp2810
g774
aa(lp2811
g776
aasg2
F1.0
ssI197
(dp2812
g1
F-1.0
sg7
(lp2813
(lp2814
S'brave'
p2815
aa(lp2816
S'braver'
p2817
aasg13
(dp2818
g15
g16
(g20
S'\xd5x\xe9&1\x08\xe0?'
p2819
tp2820
Rp2821
sg26
(lp2822
(g2817
g2815
F0.501
tp2823
assg3
F0.0
sg29
(lp2824
(lp2825
g2817
aa(lp2826
g2815
aasg2
F1.0
ssI198
(dp2827
g1
F1.0
sg7
(lp2828
(lp2829
g1313
aa(lp2830
g1315
aasg13
(dp2831
g15
g16
(g20
S'\xd5x\xe9&1\x08\xe0?'
p2832
tp2833
Rp2834
sg26
(lp2835
(g1313
g1315
F0.501
tp2836
assg3
F1.0
sg29
(lp2837
(lp2838
g1313
aa(lp2839
g1315
aasg2
F1.0
ssI199
(dp2840
g1
F-1.0
sg7
(lp2841
(lp2842
g862
aa(lp2843
g864
aasg13
(dp2844
g15
g16
(g20
S'\xd5x\xe9&1\x08\xe0?'
p2845
tp2846
Rp2847
sg26
(lp2848
(g864
g862
F0.501
tp2849
assg3
F0.0
sg29
(lp2850
(lp2851
g864
aa(lp2852
g862
aasg2
F1.0
ssI200
(dp2853
g1
F-1.0
sg7
(lp2854
(lp2855
g1813
aa(lp2856
g1815
aasg13
(dp2857
g15
g16
(g20
S'\xd5x\xe9&1\x08\xe0?'
p2858
tp2859
Rp2860
sg26
(lp2861
(g1815
g1813
F0.501
tp2862
assg3
F0.0
sg29
(lp2863
(lp2864
g1815
aa(lp2865
g1813
aasg2
F1.0
ssI201
(dp2866
g1
F-1.0
sg7
(lp2867
(lp2868
g1991
aa(lp2869
g1993
aasg13
(dp2870
g15
g16
(g20
S'\xd5x\xe9&1\x08\xe0?'
p2871
tp2872
Rp2873
sg26
(lp2874
(g1993
g1991
F0.501
tp2875
assg3
F0.0
sg29
(lp2876
(lp2877
g1993
aa(lp2878
g1991
aasg2
F1.0
ssI202
(dp2879
g1
F1.0
sg7
(lp2880
(lp2881
S'east'
p2882
aa(lp2883
S'easier'
p2884
aasg13
(dp2885
g15
g16
(g20
S'\xd5x\xe9&1\x08\xe0?'
p2886
tp2887
Rp2888
sg26
(lp2889
(g2882
g2884
F0.501
tp2890
assg3
F1.0
sg29
(lp2891
(lp2892
g2882
aa(lp2893
g2884
aasg2
F1.0
ssI203
(dp2894
g1
F-1.0
sg7
(lp2895
(lp2896
g2196
aa(lp2897
g2198
aasg13
(dp2898
g15
g16
(g20
S'\xd5x\xe9&1\x08\xe0?'
p2899
tp2900
Rp2901
sg26
(lp2902
(g2198
g2196
F0.501
tp2903
assg3
F0.0
sg29
(lp2904
(lp2905
g2198
aa(lp2906
g2196
aasg2
F1.0
ssI204
(dp2907
g1
F1.0
sg7
(lp2908
(lp2909
g1607
aa(lp2910
g1300
aasg13
(dp2911
g15
g16
(g20
S'\xd5x\xe9&1\x08\xe0?'
p2912
tp2913
Rp2914
sg26
(lp2915
(g1607
g1300
F0.501
tp2916
assg3
F1.0
sg29
(lp2917
(lp2918
g1607
aa(lp2919
g1300
aasg2
F1.0
ssI205
(dp2920
g1
F-1.0
sg7
(lp2921
(lp2922
g658
aa(lp2923
g1396
aasg13
(dp2924
g15
g16
(g20
S'\xd5x\xe9&1\x08\xe0?'
p2925
tp2926
Rp2927
sg26
(lp2928
(g1396
g658
F0.501
tp2929
assg3
F0.0
sg29
(lp2930
(lp2931
g1396
aa(lp2932
g658
aasg2
F1.0
ssI206
(dp2933
g1
F-1.0
sg7
(lp2934
(lp2935
g470
aa(lp2936
g472
aasg13
(dp2937
g15
g16
(g20
S'\xd5x\xe9&1\x08\xe0?'
p2938
tp2939
Rp2940
sg26
(lp2941
(g472
g470
F0.501
tp2942
assg3
F0.0
sg29
(lp2943
(lp2944
g472
aa(lp2945
g470
aasg2
F1.0
ssI207
(dp2946
g1
F1.0
sg7
(lp2947
(lp2948
S'deep'
p2949
aa(lp2950
S'deepest'
p2951
aasg13
(dp2952
g15
g16
(g20
S'\xd5x\xe9&1\x08\xe0?'
p2953
tp2954
Rp2955
sg26
(lp2956
(g2949
g2951
F0.501
tp2957
assg3
F1.0
sg29
(lp2958
(lp2959
g2949
aa(lp2960
g2951
aasg2
F1.0
ssI208
(dp2961
g1
F1.0
sg7
(lp2962
(lp2963
S'dre'
p2964
aa(lp2965
S'drier'
p2966
aasg13
(dp2967
g15
g16
(g20
S'\xd5x\xe9&1\x08\xe0?'
p2968
tp2969
Rp2970
sg26
(lp2971
(g2964
g2966
F0.501
tp2972
assg3
F1.0
sg29
(lp2973
(lp2974
g2964
aa(lp2975
g2966
aasg2
F1.0
ssI209
(dp2976
g1
F-1.0
sg7
(lp2977
(lp2978
g1211
aa(lp2979
g1213
aasg13
(dp2980
g15
g16
(g20
S'\xd5x\xe9&1\x08\xe0?'
p2981
tp2982
Rp2983
sg26
(lp2984
(g1213
g1211
F0.501
tp2985
assg3
F0.0
sg29
(lp2986
(lp2987
g1213
aa(lp2988
g1211
aasg2
F1.0
ssI210
(dp2989
g1
F-1.0
sg7
(lp2990
(lp2991
g2629
aa(lp2992
g2631
aasg13
(dp2993
g15
g16
(g20
S'\xd5x\xe9&1\x08\xe0?'
p2994
tp2995
Rp2996
sg26
(lp2997
(g2631
g2629
F0.501
tp2998
assg3
F0.0
sg29
(lp2999
(lp3000
g2631
aa(lp3001
g2629
aasg2
F1.0
ssI211
(dp3002
g1
F1.0
sg7
(lp3003
(lp3004
g920
aa(lp3005
g922
aasg13
(dp3006
g15
g16
(g20
S'\xd5x\xe9&1\x08\xe0?'
p3007
tp3008
Rp3009
sg26
(lp3010
(g920
g922
F0.501
tp3011
assg3
F1.0
sg29
(lp3012
(lp3013
g920
aa(lp3014
g922
aasg2
F1.0
ssI212
(dp3015
g1
F-1.0
sg7
(lp3016
(lp3017
g2515
aa(lp3018
g2517
aasg13
(dp3019
g15
g16
(g20
S'\xd5x\xe9&1\x08\xe0?'
p3020
tp3021
Rp3022
sg26
(lp3023
(g2517
g2515
F0.501
tp3024
assg3
F0.0
sg29
(lp3025
(lp3026
g2517
aa(lp3027
g2515
aasg2
F1.0
ssI213
(dp3028
g1
F1.0
sg7
(lp3029
(lp3030
g2584
aa(lp3031
g2586
aasg13
(dp3032
g15
g16
(g20
S'\xd5x\xe9&1\x08\xe0?'
p3033
tp3034
Rp3035
sg26
(lp3036
(g2584
g2586
F0.501
tp3037
assg3
F1.0
sg29
(lp3038
(lp3039
g2584
aa(lp3040
g2586
aasg2
F1.0
ssI214
(dp3041
g1
F-1.0
sg7
(lp3042
(lp3043
g1226
aa(lp3044
g703
aasg13
(dp3045
g15
g16
(g20
S'\xd5x\xe9&1\x08\xe0?'
p3046
tp3047
Rp3048
sg26
(lp3049
(g703
g1226
F0.501
tp3050
assg3
F0.0
sg29
(lp3051
(lp3052
g703
aa(lp3053
g1226
aasg2
F1.0
ssI215
(dp3054
g1
F-1.0
sg7
(lp3055
(lp3056
g2435
aa(lp3057
g2437
aasg13
(dp3058
g15
g16
(g20
S'\xd5x\xe9&1\x08\xe0?'
p3059
tp3060
Rp3061
sg26
(lp3062
(g2437
g2435
F0.501
tp3063
assg3
F0.0
sg29
(lp3064
(lp3065
g2437
aa(lp3066
g2435
aasg2
F1.0
ssI216
(dp3067
g1
F-1.0
sg7
(lp3068
(lp3069
g731
aa(lp3070
g733
aasg13
(dp3071
g15
g16
(g20
S'\xd5x\xe9&1\x08\xe0?'
p3072
tp3073
Rp3074
sg26
(lp3075
(g733
g731
F0.501
tp3076
assg3
F0.0
sg29
(lp3077
(lp3078
g733
aa(lp3079
g731
aasg2
F1.0
ssI217
(dp3080
g1
F-1.0
sg7
(lp3081
(lp3082
g171
aa(lp3083
g514
aasg13
(dp3084
g15
g16
(g20
S'\xd5x\xe9&1\x08\xe0?'
p3085
tp3086
Rp3087
sg26
(lp3088
(g514
g171
F0.501
tp3089
assg3
F0.0
sg29
(lp3090
(lp3091
g514
aa(lp3092
g171
aasg2
F1.0
ssI218
(dp3093
g1
F1.0
sg7
(lp3094
(lp3095
g2949
aa(lp3096
g2951
aasg13
(dp3097
g15
g16
(g20
S'\xd5x\xe9&1\x08\xe0?'
p3098
tp3099
Rp3100
sg26
(lp3101
(g2949
g2951
F0.501
tp3102
assg3
F1.0
sg29
(lp3103
(lp3104
g2949
aa(lp3105
g2951
aasg2
F1.0
ssI219
(dp3106
g1
F-1.0
sg7
(lp3107
(lp3108
S'full'
p3109
aa(lp3110
S'fuller'
p3111
aasg13
(dp3112
g15
g16
(g20
S'\xd5x\xe9&1\x08\xe0?'
p3113
tp3114
Rp3115
sg26
(lp3116
(g3111
g3109
F0.501
tp3117
assg3
F0.0
sg29
(lp3118
(lp3119
g3111
aa(lp3120
g3109
aasg2
F1.0
ssI220
(dp3121
g1
F1.0
sg7
(lp3122
(lp3123
g1607
aa(lp3124
g1300
aasg13
(dp3125
g15
g16
(g20
S'\xd5x\xe9&1\x08\xe0?'
p3126
tp3127
Rp3128
sg26
(lp3129
(g1607
g1300
F0.501
tp3130
assg3
F1.0
sg29
(lp3131
(lp3132
g1607
aa(lp3133
g1300
aasg2
F1.0
ssI221
(dp3134
g1
F-1.0
sg7
(lp3135
(lp3136
g335
aa(lp3137
g2395
aasg13
(dp3138
g15
g16
(g20
S'\xd5x\xe9&1\x08\xe0?'
p3139
tp3140
Rp3141
sg26
(lp3142
(g2395
g335
F0.501
tp3143
assg3
F0.0
sg29
(lp3144
(lp3145
g2395
aa(lp3146
g335
aasg2
F1.0
ssI222
(dp3147
g1
F-1.0
sg7
(lp3148
(lp3149
S'weaker'
p3150
aa(lp3151
S'weakest'
p3152
aasg13
(dp3153
g15
g16
(g20
S'\xd5x\xe9&1\x08\xe0?'
p3154
tp3155
Rp3156
sg26
(lp3157
(g3152
g3150
F0.501
tp3158
assg3
F0.0
sg29
(lp3159
(lp3160
g3152
aa(lp3161
g3150
aasg2
F1.0
ssI223
(dp3162
g1
F-1.0
sg7
(lp3163
(lp3164
S'cheap'
p3165
aa(lp3166
S'cheapest'
p3167
aasg13
(dp3168
g15
g16
(g20
S'\xd5x\xe9&1\x08\xe0?'
p3169
tp3170
Rp3171
sg26
(lp3172
(g3167
g3165
F0.501
tp3173
assg3
F0.0
sg29
(lp3174
(lp3175
g3167
aa(lp3176
g3165
aasg2
F1.0
ssI224
(dp3177
g1
F-1.0
sg7
(lp3178
(lp3179
g2211
aa(lp3180
g2213
aasg13
(dp3181
g15
g16
(g20
S'\xd5x\xe9&1\x08\xe0?'
p3182
tp3183
Rp3184
sg26
(lp3185
(g2213
g2211
F0.501
tp3186
assg3
F0.0
sg29
(lp3187
(lp3188
g2213
aa(lp3189
g2211
aasg2
F1.0
ssI225
(dp3190
g1
F-1.0
sg7
(lp3191
(lp3192
g817
aa(lp3193
g819
aasg13
(dp3194
g15
g16
(g20
S'\xd5x\xe9&1\x08\xe0?'
p3195
tp3196
Rp3197
sg26
(lp3198
(g819
g817
F0.501
tp3199
assg3
F0.0
sg29
(lp3200
(lp3201
g819
aa(lp3202
g817
aasg2
F1.0
ssI226
(dp3203
g1
F-1.0
sg7
(lp3204
(lp3205
S'fierce'
p3206
aa(lp3207
S'fiercer'
p3208
aasg13
(dp3209
g15
g16
(g20
S'\xd5x\xe9&1\x08\xe0?'
p3210
tp3211
Rp3212
sg26
(lp3213
(g3208
g3206
F0.501
tp3214
assg3
F0.0
sg29
(lp3215
(lp3216
g3208
aa(lp3217
g3206
aasg2
F1.0
ssI227
(dp3218
g1
F-1.0
sg7
(lp3219
(lp3220
g746
aa(lp3221
g748
aasg13
(dp3222
g15
g16
(g20
S'\xd5x\xe9&1\x08\xe0?'
p3223
tp3224
Rp3225
sg26
(lp3226
(g748
g746
F0.501
tp3227
assg3
F0.0
sg29
(lp3228
(lp3229
g748
aa(lp3230
g746
aasg2
F1.0
ssI228
(dp3231
g1
F-1.0
sg7
(lp3232
(lp3233
S'grave'
p3234
aa(lp3235
S'graver'
p3236
aasg13
(dp3237
g15
g16
(g20
S'\xd5x\xe9&1\x08\xe0?'
p3238
tp3239
Rp3240
sg26
(lp3241
(g3236
g3234
F0.501
tp3242
assg3
F0.0
sg29
(lp3243
(lp3244
g3236
aa(lp3245
g3234
aasg2
F1.0
ssI229
(dp3246
g1
F1.0
sg7
(lp3247
(lp3248
g2267
aa(lp3249
g2269
aasg13
(dp3250
g15
g16
(g20
S'\xd5x\xe9&1\x08\xe0?'
p3251
tp3252
Rp3253
sg26
(lp3254
(g2267
g2269
F0.501
tp3255
assg3
F1.0
sg29
(lp3256
(lp3257
g2267
aa(lp3258
g2269
aasg2
F1.0
ssI230
(dp3259
g1
F-1.0
sg7
(lp3260
(lp3261
S'stricter'
p3262
aa(lp3263
S'strictest'
p3264
aasg13
(dp3265
g15
g16
(g20
S'\xd5x\xe9&1\x08\xe0?'
p3266
tp3267
Rp3268
sg26
(lp3269
(g3264
g3262
F0.501
tp3270
assg3
F0.0
sg29
(lp3271
(lp3272
g3264
aa(lp3273
g3262
aasg2
F1.0
ssI231
(dp3274
g1
F1.0
sg7
(lp3275
(lp3276
g527
aa(lp3277
g529
aasg13
(dp3278
g15
g16
(g20
S'\xd5x\xe9&1\x08\xe0?'
p3279
tp3280
Rp3281
sg26
(lp3282
(g527
g529
F0.501
tp3283
assg3
F1.0
sg29
(lp3284
(lp3285
g527
aa(lp3286
g529
aasg2
F1.0
ssI232
(dp3287
g1
F-1.0
sg7
(lp3288
(lp3289
g2599
aa(lp3290
g2601
aasg13
(dp3291
g15
g16
(g20
S'\xd5x\xe9&1\x08\xe0?'
p3292
tp3293
Rp3294
sg26
(lp3295
(g2601
g2599
F0.501
tp3296
assg3
F0.0
sg29
(lp3297
(lp3298
g2601
aa(lp3299
g2599
aasg2
F1.0
ssI233
(dp3300
g1
F-1.0
sg7
(lp3301
(lp3302
g3150
aa(lp3303
g3152
aasg13
(dp3304
g15
g16
(g20
S'\xd5x\xe9&1\x08\xe0?'
p3305
tp3306
Rp3307
sg26
(lp3308
(g3152
g3150
F0.501
tp3309
assg3
F0.0
sg29
(lp3310
(lp3311
g3152
aa(lp3312
g3150
aasg2
F1.0
ssI234
(dp3313
g1
F-1.0
sg7
(lp3314
(lp3315
S'stricter'
p3316
aa(lp3317
S'strictest'
p3318
aasg13
(dp3319
g15
g16
(g20
S'\xd5x\xe9&1\x08\xe0?'
p3320
tp3321
Rp3322
sg26
(lp3323
(g3318
g3316
F0.501
tp3324
assg3
F0.0
sg29
(lp3325
(lp3326
g3318
aa(lp3327
g3316
aasg2
F1.0
ssI235
(dp3328
g1
F1.0
sg7
(lp3329
(lp3330
S'finer'
p3331
aa(lp3332
S'finest'
p3333
aasg13
(dp3334
g15
g16
(g20
S'\xd5x\xe9&1\x08\xe0?'
p3335
tp3336
Rp3337
sg26
(lp3338
(g3331
g3333
F0.501
tp3339
assg3
F1.0
sg29
(lp3340
(lp3341
g3331
aa(lp3342
g3333
aasg2
F1.0
ssI236
(dp3343
g1
F1.0
sg7
(lp3344
(lp3345
g156
aa(lp3346
g158
aasg13
(dp3347
g15
g16
(g20
S'\xd5x\xe9&1\x08\xe0?'
p3348
tp3349
Rp3350
sg26
(lp3351
(g156
g158
F0.501
tp3352
assg3
F1.0
sg29
(lp3353
(lp3354
g156
aa(lp3355
g158
aasg2
F1.0
ssI237
(dp3356
g1
F-1.0
sg7
(lp3357
(lp3358
g3109
aa(lp3359
g3111
aasg13
(dp3360
g15
g16
(g20
S'\xd5x\xe9&1\x08\xe0?'
p3361
tp3362
Rp3363
sg26
(lp3364
(g3111
g3109
F0.501
tp3365
assg3
F0.0
sg29
(lp3366
(lp3367
g3111
aa(lp3368
g3109
aasg2
F1.0
ssI238
(dp3369
g1
F-1.0
sg7
(lp3370
(lp3371
g337
aa(lp3372
g2395
aasg13
(dp3373
g15
g16
(g20
S'\xd5x\xe9&1\x08\xe0?'
p3374
tp3375
Rp3376
sg26
(lp3377
(g2395
g337
F0.501
tp3378
assg3
F0.0
sg29
(lp3379
(lp3380
g2395
aa(lp3381
g337
aasg2
F1.0
ssI239
(dp3382
g1
F-1.0
sg7
(lp3383
(lp3384
g1676
aa(lp3385
g382
aasg13
(dp3386
g15
g16
(g20
S'\xd5x\xe9&1\x08\xe0?'
p3387
tp3388
Rp3389
sg26
(lp3390
(g382
g1676
F0.501
tp3391
assg3
F0.0
sg29
(lp3392
(lp3393
g382
aa(lp3394
g1676
aasg2
F1.0
ssI240
(dp3395
g1
F-1.0
sg7
(lp3396
(lp3397
g1492
aa(lp3398
g1494
aasg13
(dp3399
g15
g16
(g20
S'\xd5x\xe9&1\x08\xe0?'
p3400
tp3401
Rp3402
sg26
(lp3403
(g1494
g1492
F0.501
tp3404
assg3
F0.0
sg29
(lp3405
(lp3406
g1494
aa(lp3407
g1492
aasg2
F1.0
ssI241
(dp3408
g1
F1.0
sg7
(lp3409
(lp3410
g2239
aa(lp3411
g2241
aasg13
(dp3412
g15
g16
(g20
S'\xd5x\xe9&1\x08\xe0?'
p3413
tp3414
Rp3415
sg26
(lp3416
(g2239
g2241
F0.501
tp3417
assg3
F1.0
sg29
(lp3418
(lp3419
g2239
aa(lp3420
g2241
aasg2
F1.0
ssI242
(dp3421
g1
F1.0
sg7
(lp3422
(lp3423
g66
aa(lp3424
g68
aasg13
(dp3425
g15
g16
(g20
S'\xd5x\xe9&1\x08\xe0?'
p3426
tp3427
Rp3428
sg26
(lp3429
(g66
g68
F0.501
tp3430
assg3
F1.0
sg29
(lp3431
(lp3432
g66
aa(lp3433
g68
aasg2
F1.0
ssI243
(dp3434
g1
F-1.0
sg7
(lp3435
(lp3436
g3316
aa(lp3437
g3318
aasg13
(dp3438
g15
g16
(g20
S'\xd5x\xe9&1\x08\xe0?'
p3439
tp3440
Rp3441
sg26
(lp3442
(g3318
g3316
F0.501
tp3443
assg3
F0.0
sg29
(lp3444
(lp3445
g3318
aa(lp3446
g3316
aasg2
F1.0
ssI244
(dp3447
g1
F1.0
sg7
(lp3448
(lp3449
g1140
aa(lp3450
g1142
aasg13
(dp3451
g15
g16
(g20
S'\xd5x\xe9&1\x08\xe0?'
p3452
tp3453
Rp3454
sg26
(lp3455
(g1140
g1142
F0.501
tp3456
assg3
F1.0
sg29
(lp3457
(lp3458
g1140
aa(lp3459
g1142
aasg2
F1.0
ssI245
(dp3460
g1
F-1.0
sg7
(lp3461
(lp3462
g2614
aa(lp3463
g2616
aasg13
(dp3464
g15
g16
(g20
S'\xd5x\xe9&1\x08\xe0?'
p3465
tp3466
Rp3467
sg26
(lp3468
(g2616
g2614
F0.501
tp3469
assg3
F0.0
sg29
(lp3470
(lp3471
g2616
aa(lp3472
g2614
aasg2
F1.0
ssI246
(dp3473
g1
F-1.0
sg7
(lp3474
(lp3475
g1921
aa(lp3476
g1923
aasg13
(dp3477
g15
g16
(g20
S'V\x0e-\xb2\x9d\xef\xdf?'
p3478
tp3479
Rp3480
sg26
(lp3481
(g1923
g1921
F0.499
tp3482
assg3
F0.0
sg29
(lp3483
(lp3484
g1923
aa(lp3485
g1921
aasg2
F1.0
ssI247
(dp3486
g1
F-1.0
sg7
(lp3487
(lp3488
g892
aa(lp3489
g894
aasg13
(dp3490
g15
g16
(g20
S'\xd5x\xe9&1\x08\xe0?'
p3491
tp3492
Rp3493
sg26
(lp3494
(g894
g892
F0.501
tp3495
assg3
F0.0
sg29
(lp3496
(lp3497
g894
aa(lp3498
g892
aasg2
F1.0
ssI248
(dp3499
g1
F1.0
sg7
(lp3500
(lp3501
g1009
aa(lp3502
g746
aasg13
(dp3503
g15
g16
(g20
S'\xd5x\xe9&1\x08\xe0?'
p3504
tp3505
Rp3506
sg26
(lp3507
(g1009
g746
F0.501
tp3508
assg3
F1.0
sg29
(lp3509
(lp3510
g1009
aa(lp3511
g746
aasg2
F1.0
ssI249
(dp3512
g1
F-1.0
sg7
(lp3513
(lp3514
g3234
aa(lp3515
g3236
aasg13
(dp3516
g15
g16
(g20
S'\xd5x\xe9&1\x08\xe0?'
p3517
tp3518
Rp3519
sg26
(lp3520
(g3236
g3234
F0.501
tp3521
assg3
F0.0
sg29
(lp3522
(lp3523
g3236
aa(lp3524
g3234
aasg2
F1.0
ssI250
(dp3525
g1
F-1.0
sg7
(lp3526
(lp3527
g641
aa(lp3528
g643
aasg13
(dp3529
g15
g16
(g20
S'\xd5x\xe9&1\x08\xe0?'
p3530
tp3531
Rp3532
sg26
(lp3533
(g643
g641
F0.501
tp3534
assg3
F0.0
sg29
(lp3535
(lp3536
g643
aa(lp3537
g641
aasg2
F1.0
ssI251
(dp3538
g1
F1.0
sg7
(lp3539
(lp3540
g1082
aa(lp3541
g2409
aasg13
(dp3542
g15
g16
(g20
S'\xd5x\xe9&1\x08\xe0?'
p3543
tp3544
Rp3545
sg26
(lp3546
(g1082
g2409
F0.501
tp3547
assg3
F1.0
sg29
(lp3548
(lp3549
g1082
aa(lp3550
g2409
aasg2
F1.0
ssI252
(dp3551
g1
F-1.0
sg7
(lp3552
(lp3553
g171
aa(lp3554
g173
aasg13
(dp3555
g15
g16
(g20
S'\xd5x\xe9&1\x08\xe0?'
p3556
tp3557
Rp3558
sg26
(lp3559
(g173
g171
F0.501
tp3560
assg3
F0.0
sg29
(lp3561
(lp3562
g173
aa(lp3563
g171
aasg2
F1.0
ssI253
(dp3564
g1
F1.0
sg7
(lp3565
(lp3566
g2101
aa(lp3567
g2103
aasg13
(dp3568
g15
g16
(g20
S'\xd5x\xe9&1\x08\xe0?'
p3569
tp3570
Rp3571
sg26
(lp3572
(g2101
g2103
F0.501
tp3573
assg3
F1.0
sg29
(lp3574
(lp3575
g2101
aa(lp3576
g2103
aasg2
F1.0
ssI254
(dp3577
g1
F-1.0
sg7
(lp3578
(lp3579
g3262
aa(lp3580
g3264
aasg13
(dp3581
g15
g16
(g20
S'\xd5x\xe9&1\x08\xe0?'
p3582
tp3583
Rp3584
sg26
(lp3585
(g3264
g3262
F0.501
tp3586
assg3
F0.0
sg29
(lp3587
(lp3588
g3264
aa(lp3589
g3262
aasg2
F1.0
ssI255
(dp3590
g1
F1.0
sg7
(lp3591
(lp3592
g1050
aa(lp3593
g1052
aasg13
(dp3594
g15
g16
(g20
S'\xd5x\xe9&1\x08\xe0?'
p3595
tp3596
Rp3597
sg26
(lp3598
(g1050
g1052
F0.501
tp3599
assg3
F1.0
sg29
(lp3600
(lp3601
g1050
aa(lp3602
g1052
aasg2
F1.0
ssI256
(dp3603
g1
F-1.0
sg7
(lp3604
(lp3605
g877
aa(lp3606
g879
aasg13
(dp3607
g15
g16
(g20
S'\xd5x\xe9&1\x08\xe0?'
p3608
tp3609
Rp3610
sg26
(lp3611
(g879
g877
F0.501
tp3612
assg3
F0.0
sg29
(lp3613
(lp3614
g879
aa(lp3615
g877
aasg2
F1.0
ssI257
(dp3616
g1
F-1.0
sg7
(lp3617
(lp3618
g1535
aa(lp3619
g1537
aasg13
(dp3620
g15
g16
(g20
S'\xd5x\xe9&1\x08\xe0?'
p3621
tp3622
Rp3623
sg26
(lp3624
(g1537
g1535
F0.501
tp3625
assg3
F0.0
sg29
(lp3626
(lp3627
g1537
aa(lp3628
g1535
aasg2
F1.0
ssI258
(dp3629
g1
F-1.0
sg7
(lp3630
(lp3631
g337
aa(lp3632
g2395
aasg13
(dp3633
g15
g16
(g20
S'\xd5x\xe9&1\x08\xe0?'
p3634
tp3635
Rp3636
sg26
(lp3637
(g2395
g337
F0.501
tp3638
assg3
F0.0
sg29
(lp3639
(lp3640
g2395
aa(lp3641
g337
aasg2
F1.0
ssI259
(dp3642
g1
F-1.0
sg7
(lp3643
(lp3644
g3165
aa(lp3645
g3167
aasg13
(dp3646
g15
g16
(g20
S'\xd5x\xe9&1\x08\xe0?'
p3647
tp3648
Rp3649
sg26
(lp3650
(g3167
g3165
F0.501
tp3651
assg3
F0.0
sg29
(lp3652
(lp3653
g3167
aa(lp3654
g3165
aasg2
F1.0
ssI260
(dp3655
g1
F-1.0
sg7
(lp3656
(lp3657
S'bright'
p3658
aa(lp3659
S'brightest'
p3660
aasg13
(dp3661
g15
g16
(g20
S'\xd5x\xe9&1\x08\xe0?'
p3662
tp3663
Rp3664
sg26
(lp3665
(g3660
g3658
F0.501
tp3666
assg3
F0.0
sg29
(lp3667
(lp3668
g3660
aa(lp3669
g3658
aasg2
F1.0
ssI261
(dp3670
g1
F1.0
sg7
(lp3671
(lp3672
g306
aa(lp3673
g322
aasg13
(dp3674
g15
g16
(g20
S'\xd5x\xe9&1\x08\xe0?'
p3675
tp3676
Rp3677
sg26
(lp3678
(g306
g322
F0.501
tp3679
assg3
F1.0
sg29
(lp3680
(lp3681
g306
aa(lp3682
g322
aasg2
F1.0
ssI262
(dp3683
g1
F1.0
sg7
(lp3684
(lp3685
g2964
aa(lp3686
g2966
aasg13
(dp3687
g15
g16
(g20
S'\xd5x\xe9&1\x08\xe0?'
p3688
tp3689
Rp3690
sg26
(lp3691
(g2964
g2966
F0.501
tp3692
assg3
F1.0
sg29
(lp3693
(lp3694
g2964
aa(lp3695
g2966
aasg2
F1.0
ssI263
(dp3696
g1
F1.0
sg7
(lp3697
(lp3698
g1703
aa(lp3699
g1705
aasg13
(dp3700
g15
g16
(g20
S'\xd5x\xe9&1\x08\xe0?'
p3701
tp3702
Rp3703
sg26
(lp3704
(g1703
g1705
F0.501
tp3705
assg3
F1.0
sg29
(lp3706
(lp3707
g1703
aa(lp3708
g1705
aasg2
F1.0
ssI264
(dp3709
g1
F-1.0
sg7
(lp3710
(lp3711
S'dirty'
p3712
aa(lp3713
S'dirtier'
p3714
aasg13
(dp3715
g15
g16
(g20
S'\xd5x\xe9&1\x08\xe0?'
p3716
tp3717
Rp3718
sg26
(lp3719
(g3714
g3712
F0.501
tp3720
assg3
F0.0
sg29
(lp3721
(lp3722
g3714
aa(lp3723
g3712
aasg2
F1.0
ssI265
(dp3724
g1
F-1.0
sg7
(lp3725
(lp3726
g1477
aa(lp3727
g1479
aasg13
(dp3728
g15
g16
(g20
S'\xd5x\xe9&1\x08\xe0?'
p3729
tp3730
Rp3731
sg26
(lp3732
(g1479
g1477
F0.501
tp3733
assg3
F0.0
sg29
(lp3734
(lp3735
g1479
aa(lp3736
g1477
aasg2
F1.0
ssI266
(dp3737
g1
F-1.0
sg7
(lp3738
(lp3739
g1268
aa(lp3740
g1270
aasg13
(dp3741
g15
g16
(g20
S'\xd5x\xe9&1\x08\xe0?'
p3742
tp3743
Rp3744
sg26
(lp3745
(g1270
g1268
F0.501
tp3746
assg3
F0.0
sg29
(lp3747
(lp3748
g1270
aa(lp3749
g1268
aasg2
F1.0
ssI267
(dp3750
g1
F-1.0
sg7
(lp3751
(lp3752
g3658
aa(lp3753
g3660
aasg13
(dp3754
g15
g16
(g20
S'\xd5x\xe9&1\x08\xe0?'
p3755
tp3756
Rp3757
sg26
(lp3758
(g3660
g3658
F0.501
tp3759
assg3
F0.0
sg29
(lp3760
(lp3761
g3660
aa(lp3762
g3658
aasg2
F1.0
ssI268
(dp3763
g1
F-1.0
sg7
(lp3764
(lp3765
g2058
aa(lp3766
g2060
aasg13
(dp3767
g15
g16
(g20
S'\xd5x\xe9&1\x08\xe0?'
p3768
tp3769
Rp3770
sg26
(lp3771
(g2060
g2058
F0.501
tp3772
assg3
F0.0
sg29
(lp3773
(lp3774
g2060
aa(lp3775
g2058
aasg2
F1.0
ssI269
(dp3776
g1
F-1.0
sg7
(lp3777
(lp3778
g291
aa(lp3779
g293
aasg13
(dp3780
g15
g16
(g20
S'\xd5x\xe9&1\x08\xe0?'
p3781
tp3782
Rp3783
sg26
(lp3784
(g293
g291
F0.501
tp3785
assg3
F0.0
sg29
(lp3786
(lp3787
g293
aa(lp3788
g291
aasg2
F1.0
ssI270
(dp3789
g1
F-1.0
sg7
(lp3790
(lp3791
g2349
aa(lp3792
g2351
aasg13
(dp3793
g15
g16
(g20
S'\xd5x\xe9&1\x08\xe0?'
p3794
tp3795
Rp3796
sg26
(lp3797
(g2351
g2349
F0.501
tp3798
assg3
F0.0
sg29
(lp3799
(lp3800
g2351
aa(lp3801
g2349
aasg2
F1.0
ssI271
(dp3802
g1
F1.0
sg7
(lp3803
(lp3804
g1976
aa(lp3805
g1978
aasg13
(dp3806
g15
g16
(g20
S'\xd5x\xe9&1\x08\xe0?'
p3807
tp3808
Rp3809
sg26
(lp3810
(g1976
g1978
F0.501
tp3811
assg3
F1.0
sg29
(lp3812
(lp3813
g1976
aa(lp3814
g1978
aasg2
F1.0
ssI272
(dp3815
g1
F-1.0
sg7
(lp3816
(lp3817
g2815
aa(lp3818
g2817
aasg13
(dp3819
g15
g16
(g20
S'\xd5x\xe9&1\x08\xe0?'
p3820
tp3821
Rp3822
sg26
(lp3823
(g2817
g2815
F0.501
tp3824
assg3
F0.0
sg29
(lp3825
(lp3826
g2817
aa(lp3827
g2815
aasg2
F1.0
ssI273
(dp3828
g1
F1.0
sg7
(lp3829
(lp3830
g2882
aa(lp3831
g2884
aasg13
(dp3832
g15
g16
(g20
S'\xd5x\xe9&1\x08\xe0?'
p3833
tp3834
Rp3835
sg26
(lp3836
(g2882
g2884
F0.501
tp3837
assg3
F1.0
sg29
(lp3838
(lp3839
g2882
aa(lp3840
g2884
aasg2
F1.0
ssI274
(dp3841
g1
F-1.0
sg7
(lp3842
(lp3843
g3712
aa(lp3844
g3714
aasg13
(dp3845
g15
g16
(g20
S'\xd5x\xe9&1\x08\xe0?'
p3846
tp3847
Rp3848
sg26
(lp3849
(g3714
g3712
F0.501
tp3850
assg3
F0.0
sg29
(lp3851
(lp3852
g3714
aa(lp3853
g3712
aasg2
F1.0
ssI275
(dp3854
g1
F-1.0
sg7
(lp3855
(lp3856
g671
aa(lp3857
g673
aasg13
(dp3858
g15
g16
(g20
S'\xd5x\xe9&1\x08\xe0?'
p3859
tp3860
Rp3861
sg26
(lp3862
(g673
g671
F0.501
tp3863
assg3
F0.0
sg29
(lp3864
(lp3865
g673
aa(lp3866
g671
aasg2
F1.0
ssI276
(dp3867
g1
F-1.0
sg7
(lp3868
(lp3869
S'costly'
p3870
aa(lp3871
S'costlier'
p3872
aasg13
(dp3873
g15
g16
(g20
S'\xd5x\xe9&1\x08\xe0?'
p3874
tp3875
Rp3876
sg26
(lp3877
(g3872
g3870
F0.501
tp3878
assg3
F0.0
sg29
(lp3879
(lp3880
g3872
aa(lp3881
g3870
aasg2
F1.0
ssI277
(dp3882
g1
F-1.0
sg7
(lp3883
(lp3884
g1036
aa(lp3885
g457
aasg13
(dp3886
g15
g16
(g20
S'\xd5x\xe9&1\x08\xe0?'
p3887
tp3888
Rp3889
sg26
(lp3890
(g457
g1036
F0.501
tp3891
assg3
F0.0
sg29
(lp3892
(lp3893
g457
aa(lp3894
g1036
aasg2
F1.0
ssI278
(dp3895
g1
F-1.0
sg7
(lp3896
(lp3897
g3206
aa(lp3898
g3208
aasg13
(dp3899
g15
g16
(g20
S'\xd5x\xe9&1\x08\xe0?'
p3900
tp3901
Rp3902
sg26
(lp3903
(g3208
g3206
F0.501
tp3904
assg3
F0.0
sg29
(lp3905
(lp3906
g3208
aa(lp3907
g3206
aasg2
F1.0
ssI279
(dp3908
g1
F-1.0
sg7
(lp3909
(lp3910
g2364
aa(lp3911
g2366
aasg13
(dp3912
g15
g16
(g20
S'\xd5x\xe9&1\x08\xe0?'
p3913
tp3914
Rp3915
sg26
(lp3916
(g2366
g2364
F0.501
tp3917
assg3
F0.0
sg29
(lp3918
(lp3919
g2366
aa(lp3920
g2364
aasg2
F1.0
ssI280
(dp3921
g1
F-1.0
sg7
(lp3922
(lp3923
S'fine'
p3924
aa(lp3925
S'finer'
p3926
aasg13
(dp3927
g15
g16
(g20
S'\xd5x\xe9&1\x08\xe0?'
p3928
tp3929
Rp3930
sg26
(lp3931
(g3926
g3924
F0.501
tp3932
assg3
F0.0
sg29
(lp3933
(lp3934
g3926
aa(lp3935
g3924
aasg2
F1.0
ssI281
(dp3936
g1
F-1.0
sg7
(lp3937
(lp3938
g569
aa(lp3939
g981
aasg13
(dp3940
g15
g16
(g20
S'\xd5x\xe9&1\x08\xe0?'
p3941
tp3942
Rp3943
sg26
(lp3944
(g981
g569
F0.501
tp3945
assg3
F0.0
sg29
(lp3946
(lp3947
g981
aa(lp3948
g569
aasg2
F1.0
ssI282
(dp3949
g1
F-1.0
sg7
(lp3950
(lp3951
g201
aa(lp3952
g203
aasg13
(dp3953
g15
g16
(g20
S'\xd5x\xe9&1\x08\xe0?'
p3954
tp3955
Rp3956
sg26
(lp3957
(g203
g201
F0.501
tp3958
assg3
F0.0
sg29
(lp3959
(lp3960
g203
aa(lp3961
g201
aasg2
F1.0
ssI283
(dp3962
g1
F-1.0
sg7
(lp3963
(lp3964
g3924
aa(lp3965
g3926
aasg13
(dp3966
g15
g16
(g20
S'\xd5x\xe9&1\x08\xe0?'
p3967
tp3968
Rp3969
sg26
(lp3970
(g3926
g3924
F0.501
tp3971
assg3
F0.0
sg29
(lp3972
(lp3973
g3926
aa(lp3974
g3924
aasg2
F1.0
ssI284
(dp3975
g1
F1.0
sg7
(lp3976
(lp3977
g3331
aa(lp3978
g3333
aasg13
(dp3979
g15
g16
(g20
S'\xd5x\xe9&1\x08\xe0?'
p3980
tp3981
Rp3982
sg26
(lp3983
(g3331
g3333
F0.501
tp3984
assg3
F1.0
sg29
(lp3985
(lp3986
g3331
aa(lp3987
g3333
aasg2
F1.0
ssI285
(dp3988
g1
F-1.0
sg7
(lp3989
(lp3990
g3870
aa(lp3991
g3872
aasg13
(dp3992
g15
g16
(g20
S'\xd5x\xe9&1\x08\xe0?'
p3993
tp3994
Rp3995
sg26
(lp3996
(g3872
g3870
F0.501
tp3997
assg3
F0.0
sg29
(lp3998
(lp3999
g3872
aa(lp4000
g3870
aasg2
F1.0
ssI286
(dp4001
g1
F1.0
sg7
(lp4002
(lp4003
g2696
aa(lp4004
g2698
aasg13
(dp4005
g15
g16
(g20
S'\xd5x\xe9&1\x08\xe0?'
p4006
tp4007
Rp4008
sg26
(lp4009
(g2696
g2698
F0.501
tp4010
assg3
F1.0
sg29
(lp4011
(lp4012
g2696
aa(lp4013
g2698
aasg2
F1.0
ssI287
(dp4014
g1
F1.0
sg7
(lp4015
(lp4016
g1772
aa(lp4017
g1774
aasg13
(dp4018
g15
g16
(g20
S'\xd5x\xe9&1\x08\xe0?'
p4019
tp4020
Rp4021
sg26
(lp4022
(g1772
g1774
F0.501
tp4023
assg3
F1.0
sg29
(lp4024
(lp4025
g1772
aa(lp4026
g1774
aasg2
F1.0
ssI288
(dp4027
g1
F-1.0
sg7
(lp4028
(lp4029
g1437
aa(lp4030
g367
aasg13
(dp4031
g15
g16
(g20
S'\xd5x\xe9&1\x08\xe0?'
p4032
tp4033
Rp4034
sg26
(lp4035
(g367
g1437
F0.501
tp4036
assg3
F0.0
sg29
(lp4037
(lp4038
g367
aa(lp4039
g1437
aasg2
F1.0
ssI289
(dp4040
g1
F-1.0
sg7
(lp4041
(lp4042
g965
aa(lp4043
g967
aasg13
(dp4044
g15
g16
(g20
S'\xd5x\xe9&1\x08\xe0?'
p4045
tp4046
Rp4047
sg26
(lp4048
(g967
g965
F0.501
tp4049
assg3
F0.0
sg29
(lp4050
(lp4051
g967
aa(lp4052
g965
aasg2
F1.0
sss.