(dp0
I0
(dp1
S'count'
p2
F3600171.0
sS'word'
p3
S'<ngram weaker than>'
p4
sS'min'
p5
F0.0
sS'max'
p6
F264508.0
sS'mu'
p7
F0.2534374874387212
sS'sigma'
p8
F14521.901113737891
ssI1
(dp9
g2
F33343.0
sg3
S'<ppdb weaker than>'
p10
sg5
F0.0
sg6
F29.0
sg7
F0.002347212436206303
sg8
F0.009317217315493514
ss.