(dp0
I0
(dp1
S'count'
p2
F3600171.0
sS'word'
p3
S'<is weaker than>'
p4
sS'min'
p5
F0.0
sS'max'
p6
F264508.0
sS'mu'
p7
F0.2534374874387212
sS'sigma'
p8
F14521.900952863014
ssI1
(dp9
g2
F5658.0
sg3
S'<very>'
p10
sg5
F0.0
sg6
F1.0
sg7
F0.00039830033182542844
sg8
F0.0003978245287376902
ssI2
(dp11
g2
F3549.0
sg3
S'<so>'
p12
sg5
F0.0
sg6
F1.0
sg7
F0.000249835255858686
sg8
F0.00024964803408171433
ssI3
(dp13
g2
F2296.0
sg3
S'<most>'
p14
sg5
F0.0
sg6
F1.0
sg7
F0.00016162912016104344
sg8
F0.00016155075668837333
ssI4
(dp15
g2
F2071.0
sg3
S'<really>'
p16
sg5
F0.0
sg6
F1.0
sg7
F0.00014579002955292724
sg8
F0.00014572627155223745
ssI5
(dp17
g2
F1903.0
sg3
S'<quite>'
p18
sg5
F0.0
sg6
F1.0
sg7
F0.0001339635085655338
sg8
F0.0001339096747089256
ssI6
(dp19
g2
F1665.0
sg3
S'<more>'
p20
sg5
F0.0
sg6
F1.0
sg7
F0.0001172092705000598
sg8
F0.00011716805968123044
ssI7
(dp21
g2
F1582.0
sg3
S'<pretty>'
p22
sg5
F0.0
sg6
F1.0
sg7
F0.00011136640596462138
sg8
F0.0001113292012979271
ssI8
(dp23
g2
F810.0
sg3
S'<just>'
p24
sg5
F0.0
sg6
F1.0
sg7
F5.702072618921828e-05
sg8
F5.701097247036394e-05
ssI9
(dp25
g2
F715.0
sg3
S'<absolutely>'
p26
sg5
F0.0
sg6
F1.0
sg7
F5.0333110154680334e-05
sg8
F5.0325510143776204e-05
ss.