(dp0
I0
(dp1
S'count'
p2
F3600171.0
sS'word'
p3
S'<is weaker than>'
p4
sS'min'
p5
F0.0
sS'max'
p6
F264508.0
sS'mu'
p7
F0.2534374874387212
sS'sigma'
p8
F14521.900952863014
ssI1
(dp9
g2
F5658.0
sg3
S'<very>'
p10
sg5
F0.0
sg6
F1.0
sg7
F0.00039830033182542844
sg8
F0.0003978245287376902
ssI2
(dp11
g2
F3549.0
sg3
S'<so>'
p12
sg5
F0.0
sg6
F1.0
sg7
F0.000249835255858686
sg8
F0.00024964803408171433
ssI3
(dp13
g2
F2296.0
sg3
S'<most>'
p14
sg5
F0.0
sg6
F1.0
sg7
F0.00016162912016104344
sg8
F0.00016155075668837333
ssI4
(dp15
g2
F2071.0
sg3
S'<really>'
p16
sg5
F0.0
sg6
F1.0
sg7
F0.00014579002955292724
sg8
F0.00014572627155223745
ssI5
(dp17
g2
F1903.0
sg3
S'<quite>'
p18
sg5
F0.0
sg6
F1.0
sg7
F0.0001339635085655338
sg8
F0.0001339096747089256
ssI6
(dp19
g2
F1665.0
sg3
S'<more>'
p20
sg5
F0.0
sg6
F1.0
sg7
F0.0001172092705000598
sg8
F0.00011716805968123044
ssI7
(dp21
g2
F1582.0
sg3
S'<pretty>'
p22
sg5
F0.0
sg6
F1.0
sg7
F0.00011136640596462138
sg8
F0.0001113292012979271
ssI8
(dp23
g2
F810.0
sg3
S'<just>'
p24
sg5
F0.0
sg6
F1.0
sg7
F5.702072618921828e-05
sg8
F5.701097247036394e-05
ssI9
(dp25
g2
F715.0
sg3
S'<absolutely>'
p26
sg5
F0.0
sg6
F1.0
sg7
F5.0333110154680334e-05
sg8
F5.0325510143776204e-05
ssI10
(dp27
g2
F620.0
sg3
S'<all>'
p28
sg5
F0.0
sg6
F1.0
sg7
F4.3645494120142385e-05
sg8
F4.3639779498954384e-05
ssI11
(dp29
g2
F572.0
sg3
S'<extremely>'
p30
sg5
F0.0
sg6
F1.0
sg7
F4.026648812374427e-05
sg8
F4.026162408412207e-05
ssI12
(dp31
g2
F516.0
sg3
S'<as>'
p32
sg5
F0.0
sg6
F1.0
sg7
F3.6324314461279796e-05
sg8
F3.632035618967285e-05
ssI13
(dp33
g2
F479.0
sg3
S'<rather>'
p34
sg5
F0.0
sg6
F1.0
sg7
F3.371966400572291e-05
sg8
F3.371625303518095e-05
ssI14
(dp35
g2
F459.0
sg3
S'<totally>'
p36
sg5
F0.0
sg6
F1.0
sg7
F3.2311744840557026e-05
sg8
F3.230861276146344e-05
ssI15
(dp37
g2
F452.0
sg3
S'<completely>'
p38
sg5
F0.0
sg6
F1.0
sg7
F3.181897313274897e-05
sg8
F3.1815935856025405e-05
ssI16
(dp39
g2
F423.0
sg3
S'<highly>'
p40
sg5
F0.0
sg6
F1.0
sg7
F2.9777490343258435e-05
sg8
F2.977483029927248e-05
ssI17
(dp41
g2
F404.0
sg3
S'<well>'
p42
sg5
F0.0
sg6
F1.0
sg7
F2.8439967136350846e-05
sg8
F2.8437540687164792e-05
ssI18
(dp43
g2
F377.0
sg3
S'<relatively>'
p44
sg5
F0.0
sg6
F1.0
sg7
F2.6539276263376905e-05
sg8
F2.6537163301208144e-05
ssI19
(dp45
g2
F342.0
sg3
S'<too>'
p46
sg5
F0.0
sg6
F1.0
sg7
F2.407541772433661e-05
sg8
F2.407367887503013e-05
ssI20
(dp47
g2
F339.0
sg3
S'<perfectly>'
p48
sg5
F0.0
sg6
F1.0
sg7
F2.3864229849561724e-05
sg8
F2.3862521372344125e-05
ssI21
(dp49
g2
F329.0
sg3
S'<that>'
p50
sg5
F0.0
sg6
F1.0
sg7
F2.3160270266978785e-05
sg8
F2.3158661097468544e-05
ssI22
(dp51
g2
F301.0
sg3
S'<only>'
p52
sg5
F0.0
sg6
F1.0
sg7
F2.1189183435746546e-05
sg8
F2.1187836510289655e-05
ssI23
(dp53
g2
F288.0
sg3
S'<particularly>'
p54
sg5
F0.0
sg6
F1.0
sg7
F2.027403597838872e-05
sg8
F2.02728028854509e-05
ssI24
(dp55
g2
F273.0
sg3
S'<real>'
p56
sg5
F0.0
sg6
F1.0
sg7
F1.921809660451431e-05
sg8
F1.9216988612998824e-05
ssI25
(dp57
g2
F254.0
sg3
S'<a little>'
p58
sg5
F0.0
sg6
F1.0
sg7
F1.788057339760672e-05
sg8
F1.787961426432508e-05
ssI26
(dp59
g2
F247.0
sg3
S'<much>'
p60
sg5
F0.0
sg6
F1.0
sg7
F1.738780168979866e-05
sg8
F1.7386894693369846e-05
ssI27
(dp61
g2
F237.0
sg3
S'<less>'
p62
sg5
F0.0
sg6
F1.0
sg7
F1.668384210721572e-05
sg8
F1.6683007064741173e-05
ssI28
(dp63
g2
F235.0
sg3
S'<therefore>'
p64
sg5
F0.0
sg6
F1.0
sg7
F1.654305019069913e-05
sg8
F1.654222918222498e-05
ssI29
(dp65
g2
F211.0
sg3
S'<even>'
p66
sg5
F0.0
sg6
F1.0
sg7
F1.4853547192500072e-05
sg8
F1.4852885315461651e-05
ssI30
(dp67
g2
F198.0
sg3
S'<clearly>'
p68
sg5
F0.0
sg6
F1.0
sg7
F1.3938399735142247e-05
sg8
F1.3937816903596563e-05
ssI31
(dp69
g2
F194.0
sg3
S'<fully>'
p70
sg5
F0.0
sg6
F1.0
sg7
F1.365681590210907e-05
sg8
F1.3656256381341566e-05
ssI32
(dp71
g2
F181.0
sg3
S'<kind of>'
p72
sg5
F0.0
sg6
F1.0
sg7
F1.2741668444751245e-05
sg8
F1.2741181398544201e-05
ssI33
(dp73
g2
F176.0
sg3
S'<somewhat>'
p74
sg5
F0.0
sg6
F1.0
sg7
F1.2389688653459774e-05
sg8
F1.2389228144108748e-05
ssI34
(dp75
g2
F175.0
sg3
S'<truly>'
p76
sg5
F0.0
sg6
F1.0
sg7
F1.231929269520148e-05
sg8
F1.2318837404023248e-05
ssI35
(dp77
g2
F135.0
sg3
S'<just so>'
p78
sg5
F0.0
sg6
F1.0
sg7
F9.503454364869714e-06
sg8
F9.503183419651726e-06
ssI36
(dp79
g2
F126.0
sg3
S'<any>'
p80
sg5
F0.0
sg6
F1.0
sg7
F8.869890740545067e-06
sg8
F8.86965471705547e-06
ssI37
(dp81
g2
F124.0
sg3
S'<mutually>'
p82
sg5
F0.0
sg6
F1.0
sg7
F8.729098824028478e-06
sg8
F8.72887023385992e-06
ssI38
(dp83
g2
F123.0
sg3
S'<almost>'
p84
sg5
F0.0
sg6
F1.0
sg7
F8.658702865770183e-06
sg8
F8.65847794766257e-06
ssI39
(dp85
g2
F120.0
sg3
S'<entirely>'
p86
sg5
F0.0
sg6
F1.0
sg7
F8.4475149909953e-06
sg8
F8.447300910672382e-06
ssI40
(dp87
g2
F118.0
sg3
S'<fairly>'
p88
sg5
F0.0
sg6
F1.0
sg7
F8.306723074478713e-06
sg8
F8.306516070680378e-06
ssI41
(dp89
g2
F108.0
sg3
S'<widely>'
p90
sg5
F0.0
sg6
F1.0
sg7
F7.602763491895771e-06
sg8
F7.6025900867365355e-06
ssI42
(dp91
g2
F104.0
sg3
S'<environmentally>'
p92
sg5
F0.0
sg6
F1.0
sg7
F7.321179658862594e-06
sg8
F7.321018860632646e-06
ssI43
(dp93
g2
F98.0
sg3
S'<economically>'
p94
sg5
F0.0
sg6
F1.0
sg7
F6.898803909312829e-06
sg8
F6.898661129483352e-06
ssI44
(dp95
g2
F94.0
sg3
S'<generally>'
p96
sg5
F0.0
sg6
F1.0
sg7
F6.6172200762796525e-06
sg8
F6.6170887140545515e-06
ssI45
(dp97
g2
F88.0
sg3
S'<far>'
p98
sg5
F0.0
sg6
F1.0
sg7
F6.194844326729887e-06
sg8
F6.194729198916649e-06
ssI46
(dp99
g2
F88.0
sg3
S'<currently>'
p100
sg5
F0.0
sg6
F1.0
sg7
F6.194844326729887e-06
sg8
F6.194729198916649e-06
ssI47
(dp101
g2
F80.0
sg3
S'<readily>'
p102
sg5
F0.0
sg6
F1.0
sg7
F5.631676660663534e-06
sg8
F5.6315815136747276e-06
ssI48
(dp103
g2
F78.0
sg3
S'<a bit>'
p104
sg5
F0.0
sg6
F1.0
sg7
F5.490884744146946e-06
sg8
F5.490794295032228e-06
ssI49
(dp105
g2
F78.0
sg3
S'<otherwise>'
p106
sg5
F0.0
sg6
F1.0
sg7
F5.490884744146946e-06
sg8
F5.490794295032228e-06
ssI50
(dp107
g2
F78.0
sg3
S'<ever>'
p108
sg5
F0.0
sg6
F1.0
sg7
F5.490884744146946e-06
sg8
F5.490794295032228e-06
ssI51
(dp109
g2
F74.0
sg3
S'<still>'
p110
sg5
F0.0
sg6
F1.0
sg7
F5.209300911113769e-06
sg8
F5.209219500948553e-06
ssI52
(dp111
g2
F74.0
sg3
S'<reasonably>'
p112
sg5
F0.0
sg6
F1.0
sg7
F5.209300911113769e-06
sg8
F5.209219500948553e-06
ssI53
(dp113
g2
F72.0
sg3
S'<potentially>'
p114
sg5
F0.0
sg6
F1.0
sg7
F5.06850899459718e-06
sg8
F5.0684319255073085e-06
ssI54
(dp115
g2
F70.0
sg3
S'<beautiful ,>'
p116
sg5
F0.0
sg6
F1.0
sg7
F4.927717078080592e-06
sg8
F4.927644231133106e-06
ssI55
(dp117
g2
F70.0
sg3
S'<already>'
p118
sg5
F0.0
sg6
F1.0
sg7
F4.927717078080592e-06
sg8
F4.927644231133106e-06
ssI56
(dp119
g2
F70.0
sg3
S'<newly>'
p120
sg5
F0.0
sg6
F1.0
sg7
F4.927717078080592e-06
sg8
F4.927644231133106e-06
ssI57
(dp121
g2
F68.0
sg3
S'<increasingly>'
p122
sg5
F0.0
sg6
F1.0
sg7
F4.786925161564004e-06
sg8
F4.786856417825883e-06
ssI58
(dp123
g2
F67.0
sg3
S'<legally>'
p124
sg5
F0.0
sg6
F1.0
sg7
F4.71652920330571e-06
sg8
F4.7164624665723745e-06
ssI59
(dp125
g2
F65.0
sg3
S'<publicly>'
p126
sg5
F0.0
sg6
F1.0
sg7
F4.575737286789121e-06
sg8
F4.57567447486557e-06
ssI60
(dp127
g2
F64.0
sg3
S'<little>'
p128
sg5
F0.0
sg6
F1.0
sg7
F4.505341328530827e-06
sg8
F4.5052804344122635e-06
ssI61
(dp129
g2
F63.0
sg3
S'<commonly>'
p130
sg5
F0.0
sg6
F1.0
sg7
F4.434945370272533e-06
sg8
F4.4348863642256764e-06
ssI62
(dp131
g2
F60.0
sg3
S'<previously>'
p132
sg5
F0.0
sg6
F1.0
sg7
F4.22375749549765e-06
sg8
F4.22370397526621e-06
ssI63
(dp133
g2
F57.0
sg3
S'<ready to>'
p134
sg5
F0.0
sg6
F1.0
sg7
F4.012569620722768e-06
sg8
F4.012521318707091e-06
ssI64
(dp135
g2
F53.0
sg3
S'<how>'
p136
sg5
F0.0
sg6
F1.0
sg7
F3.7309857876895913e-06
sg8
F3.7309440270286165e-06
ssI65
(dp137
g2
F53.0
sg3
S'<this>'
p138
sg5
F0.0
sg6
F1.0
sg7
F3.7309857876895913e-06
sg8
F3.7309440270286165e-06
ssI66
(dp139
g2
F53.0
sg3
S'<deeply>'
p140
sg5
F0.0
sg6
F1.0
sg7
F3.7309857876895913e-06
sg8
F3.7309440270286165e-06
ssI67
(dp141
g2
F53.0
sg3
S'<sufficiently>'
p142
sg5
F0.0
sg6
F1.0
sg7
F3.7309857876895913e-06
sg8
F3.7309440270286165e-06
ssI68
(dp143
g2
F52.0
sg3
S'<fucking>'
p144
sg5
F0.0
sg6
F1.0
sg7
F3.660589829431297e-06
sg8
F3.660549629775705e-06
ssI69
(dp145
g2
F52.0
sg3
S'<worried about>'
p146
sg5
F0.0
sg6
F1.0
sg7
F3.660589829431297e-06
sg8
F3.660549629775705e-06
ssI70
(dp147
g2
F52.0
sg3
S'<kinda>'
p148
sg5
F0.0
sg6
F1.0
sg7
F3.660589829431297e-06
sg8
F3.660549629775705e-06
ssI71
(dp149
g2
F51.0
sg3
S'<especially>'
p150
sg5
F0.0
sg6
F1.0
sg7
F3.590193871173003e-06
sg8
F3.590155202789461e-06
ssI72
(dp151
g2
F50.0
sg3
S'<incredibly>'
p152
sg5
F0.0
sg6
F1.0
sg7
F3.5197979129147086e-06
sg8
F3.519760746069879e-06
ssI73
(dp153
g2
F49.0
sg3
S'<easily>'
p154
sg5
F0.0
sg6
F1.0
sg7
F3.4494019546564146e-06
sg8
F3.449366259616966e-06
ssI74
(dp155
g2
F45.0
sg3
S'<a lot>'
p156
sg5
F0.0
sg6
F1.0
sg7
F3.167818121623238e-06
sg8
F3.1677880164718606e-06
ssI75
(dp157
g2
F45.0
sg3
S'<patently>'
p158
sg5
F0.0
sg6
F1.0
sg7
F3.167818121623238e-06
sg8
F3.1677880164718606e-06
ssI76
(dp159
g2
F45.0
sg3
S'<broadly>'
p160
sg5
F0.0
sg6
F1.0
sg7
F3.167818121623238e-06
sg8
F3.1677880164718606e-06
ssI77
(dp161
g2
F45.0
sg3
S'<long>'
p162
sg5
F0.0
sg6
F1.0
sg7
F3.167818121623238e-06
sg8
F3.1677880164718606e-06
ssI78
(dp163
g2
F44.0
sg3
S'<about>'
p164
sg5
F0.0
sg6
F1.0
sg7
F3.0974221633649435e-06
sg8
F3.0973933813522037e-06
ssI79
(dp165
g2
F44.0
sg3
S'<awfully>'
p166
sg5
F0.0
sg6
F1.0
sg7
F3.0974221633649435e-06
sg8
F3.0973933813522037e-06
ssI80
(dp167
g2
F43.0
sg3
S'<properly>'
p168
sg5
F0.0
sg6
F1.0
sg7
F3.0270262051066496e-06
sg8
F3.026998716499183e-06
ssI81
(dp169
g2
F43.0
sg3
S'<exceptionally>'
p170
sg5
F0.0
sg6
F1.0
sg7
F3.0270262051066496e-06
sg8
F3.026998716499183e-06
ssI82
(dp171
g2
F43.0
sg3
S'<where>'
p172
sg5
F0.0
sg6
F1.0
sg7
F3.0270262051066496e-06
sg8
F3.026998716499183e-06
ssI83
(dp173
g2
F41.0
sg3
S'<great ,>'
p174
sg5
F0.0
sg6
F1.0
sg7
F2.8862342885900612e-06
sg8
F2.8862092975930393e-06
ssI84
(dp175
g2
F41.0
sg3
S'<terribly>'
p176
sg5
F0.0
sg6
F1.0
sg7
F2.8862342885900612e-06
sg8
F2.8862092975930393e-06
ssI85
(dp177
g2
F41.0
sg3
S'<the>'
p178
sg5
F0.0
sg6
F1.0
sg7
F2.8862342885900612e-06
sg8
F2.8862092975930393e-06
ssI86
(dp179
g2
F41.0
sg3
S'<closely>'
p180
sg5
F0.0
sg6
F1.0
sg7
F2.8862342885900612e-06
sg8
F2.8862092975930393e-06
ssI87
(dp181
g2
F40.0
sg3
S'<no>'
p182
sg5
F0.0
sg6
F1.0
sg7
F2.815838330331767e-06
sg8
F2.8158145435399116e-06
ssI88
(dp183
g2
F40.0
sg3
S'<sorry ,>'
p184
sg5
F0.0
sg6
F1.0
sg7
F2.815838330331767e-06
sg8
F2.8158145435399116e-06
ssI89
(dp185
g2
F40.0
sg3
S'<either>'
p186
sg5
F0.0
sg6
F1.0
sg7
F2.815838330331767e-06
sg8
F2.8158145435399116e-06
ssI90
(dp187
g2
F40.0
sg3
S'<simply>'
p188
sg5
F0.0
sg6
F1.0
sg7
F2.815838330331767e-06
sg8
F2.8158145435399116e-06
ssI91
(dp189
g2
F40.0
sg3
S'<equally>'
p190
sg5
F0.0
sg6
F1.0
sg7
F2.815838330331767e-06
sg8
F2.8158145435399116e-06
ssI92
(dp191
g2
F40.0
sg3
S'<vitally>'
p192
sg5
F0.0
sg6
F1.0
sg7
F2.815838330331767e-06
sg8
F2.8158145435399116e-06
ssI93
(dp193
g2
F39.0
sg3
S'<abundantly>'
p194
sg5
F0.0
sg6
F1.0
sg7
F2.745442372073473e-06
sg8
F2.7454197597534043e-06
ssI94
(dp195
g2
F39.0
sg3
S'<physically>'
p196
sg5
F0.0
sg6
F1.0
sg7
F2.745442372073473e-06
sg8
F2.7454197597534043e-06
ssI95
(dp197
g2
F39.0
sg3
S'<financially>'
p198
sg5
F0.0
sg6
F1.0
sg7
F2.745442372073473e-06
sg8
F2.7454197597534043e-06
ssI96
(dp199
g2
F37.0
sg3
S'<least>'
p200
sg5
F0.0
sg6
F1.0
sg7
F2.6046504555568845e-06
sg8
F2.6046301029802375e-06
ssI97
(dp201
g2
F36.0
sg3
S'<extraordinarily>'
p202
sg5
F0.0
sg6
F1.0
sg7
F2.53425449729859e-06
sg8
F2.5342352299935726e-06
ssI98
(dp203
g2
F35.0
sg3
S'<single>'
p204
sg5
F0.0
sg6
F1.0
sg7
F2.463858539040296e-06
sg8
F2.463840327273509e-06
ssI99
(dp205
g2
F35.0
sg3
S'<cost>'
p206
sg5
F0.0
sg6
F1.0
sg7
F2.463858539040296e-06
sg8
F2.463840327273509e-06
ss.