(dp0
I0
(dp1
S'count'
p2
F3600171.0
sS'word'
p3
S'<is weaker than>'
p4
sS'min'
p5
F0.0
sS'max'
p6
F264508.0
sS'mu'
p7
F0.2534374874387212
sS'sigma'
p8
F14521.900952863014
ssI1
(dp9
g2
F5658.0
sg3
S'<very>'
p10
sg5
F0.0
sg6
F1.0
sg7
F0.00039830033182542844
sg8
F0.0003978245287376902
ssI2
(dp11
g2
F3549.0
sg3
S'<so>'
p12
sg5
F0.0
sg6
F1.0
sg7
F0.000249835255858686
sg8
F0.00024964803408171433
ssI3
(dp13
g2
F2296.0
sg3
S'<most>'
p14
sg5
F0.0
sg6
F1.0
sg7
F0.00016162912016104344
sg8
F0.00016155075668837333
ssI4
(dp15
g2
F2071.0
sg3
S'<really>'
p16
sg5
F0.0
sg6
F1.0
sg7
F0.00014579002955292724
sg8
F0.00014572627155223745
ssI5
(dp17
g2
F1903.0
sg3
S'<quite>'
p18
sg5
F0.0
sg6
F1.0
sg7
F0.0001339635085655338
sg8
F0.0001339096747089256
ssI6
(dp19
g2
F1665.0
sg3
S'<more>'
p20
sg5
F0.0
sg6
F1.0
sg7
F0.0001172092705000598
sg8
F0.00011716805968123044
ssI7
(dp21
g2
F1582.0
sg3
S'<pretty>'
p22
sg5
F0.0
sg6
F1.0
sg7
F0.00011136640596462138
sg8
F0.0001113292012979271
ssI8
(dp23
g2
F810.0
sg3
S'<just>'
p24
sg5
F0.0
sg6
F1.0
sg7
F5.702072618921828e-05
sg8
F5.701097247036394e-05
ssI9
(dp25
g2
F715.0
sg3
S'<absolutely>'
p26
sg5
F0.0
sg6
F1.0
sg7
F5.0333110154680334e-05
sg8
F5.0325510143776204e-05
ssI10
(dp27
g2
F620.0
sg3
S'<all>'
p28
sg5
F0.0
sg6
F1.0
sg7
F4.3645494120142385e-05
sg8
F4.3639779498954384e-05
ssI11
(dp29
g2
F572.0
sg3
S'<extremely>'
p30
sg5
F0.0
sg6
F1.0
sg7
F4.026648812374427e-05
sg8
F4.026162408412207e-05
ssI12
(dp31
g2
F516.0
sg3
S'<as>'
p32
sg5
F0.0
sg6
F1.0
sg7
F3.6324314461279796e-05
sg8
F3.632035618967285e-05
ssI13
(dp33
g2
F479.0
sg3
S'<rather>'
p34
sg5
F0.0
sg6
F1.0
sg7
F3.371966400572291e-05
sg8
F3.371625303518095e-05
ssI14
(dp35
g2
F459.0
sg3
S'<totally>'
p36
sg5
F0.0
sg6
F1.0
sg7
F3.2311744840557026e-05
sg8
F3.230861276146344e-05
ssI15
(dp37
g2
F452.0
sg3
S'<completely>'
p38
sg5
F0.0
sg6
F1.0
sg7
F3.181897313274897e-05
sg8
F3.1815935856025405e-05
ssI16
(dp39
g2
F423.0
sg3
S'<highly>'
p40
sg5
F0.0
sg6
F1.0
sg7
F2.9777490343258435e-05
sg8
F2.977483029927248e-05
ssI17
(dp41
g2
F404.0
sg3
S'<well>'
p42
sg5
F0.0
sg6
F1.0
sg7
F2.8439967136350846e-05
sg8
F2.8437540687164792e-05
ssI18
(dp43
g2
F377.0
sg3
S'<relatively>'
p44
sg5
F0.0
sg6
F1.0
sg7
F2.6539276263376905e-05
sg8
F2.6537163301208144e-05
ssI19
(dp45
g2
F342.0
sg3
S'<too>'
p46
sg5
F0.0
sg6
F1.0
sg7
F2.407541772433661e-05
sg8
F2.407367887503013e-05
ssI20
(dp47
g2
F339.0
sg3
S'<perfectly>'
p48
sg5
F0.0
sg6
F1.0
sg7
F2.3864229849561724e-05
sg8
F2.3862521372344125e-05
ssI21
(dp49
g2
F329.0
sg3
S'<that>'
p50
sg5
F0.0
sg6
F1.0
sg7
F2.3160270266978785e-05
sg8
F2.3158661097468544e-05
ssI22
(dp51
g2
F301.0
sg3
S'<only>'
p52
sg5
F0.0
sg6
F1.0
sg7
F2.1189183435746546e-05
sg8
F2.1187836510289655e-05
ssI23
(dp53
g2
F288.0
sg3
S'<particularly>'
p54
sg5
F0.0
sg6
F1.0
sg7
F2.027403597838872e-05
sg8
F2.02728028854509e-05
ssI24
(dp55
g2
F273.0
sg3
S'<real>'
p56
sg5
F0.0
sg6
F1.0
sg7
F1.921809660451431e-05
sg8
F1.9216988612998824e-05
ssI25
(dp57
g2
F254.0
sg3
S'<a little>'
p58
sg5
F0.0
sg6
F1.0
sg7
F1.788057339760672e-05
sg8
F1.787961426432508e-05
ssI26
(dp59
g2
F247.0
sg3
S'<much>'
p60
sg5
F0.0
sg6
F1.0
sg7
F1.738780168979866e-05
sg8
F1.7386894693369846e-05
ssI27
(dp61
g2
F237.0
sg3
S'<less>'
p62
sg5
F0.0
sg6
F1.0
sg7
F1.668384210721572e-05
sg8
F1.6683007064741173e-05
ssI28
(dp63
g2
F235.0
sg3
S'<therefore>'
p64
sg5
F0.0
sg6
F1.0
sg7
F1.654305019069913e-05
sg8
F1.654222918222498e-05
ssI29
(dp65
g2
F211.0
sg3
S'<even>'
p66
sg5
F0.0
sg6
F1.0
sg7
F1.4853547192500072e-05
sg8
F1.4852885315461651e-05
ssI30
(dp67
g2
F198.0
sg3
S'<clearly>'
p68
sg5
F0.0
sg6
F1.0
sg7
F1.3938399735142247e-05
sg8
F1.3937816903596563e-05
ssI31
(dp69
g2
F194.0
sg3
S'<fully>'
p70
sg5
F0.0
sg6
F1.0
sg7
F1.365681590210907e-05
sg8
F1.3656256381341566e-05
ssI32
(dp71
g2
F181.0
sg3
S'<kind of>'
p72
sg5
F0.0
sg6
F1.0
sg7
F1.2741668444751245e-05
sg8
F1.2741181398544201e-05
ssI33
(dp73
g2
F176.0
sg3
S'<somewhat>'
p74
sg5
F0.0
sg6
F1.0
sg7
F1.2389688653459774e-05
sg8
F1.2389228144108748e-05
ssI34
(dp75
g2
F175.0
sg3
S'<truly>'
p76
sg5
F0.0
sg6
F1.0
sg7
F1.231929269520148e-05
sg8
F1.2318837404023248e-05
ssI35
(dp77
g2
F135.0
sg3
S'<just so>'
p78
sg5
F0.0
sg6
F1.0
sg7
F9.503454364869714e-06
sg8
F9.503183419651726e-06
ssI36
(dp79
g2
F126.0
sg3
S'<any>'
p80
sg5
F0.0
sg6
F1.0
sg7
F8.869890740545067e-06
sg8
F8.86965471705547e-06
ssI37
(dp81
g2
F124.0
sg3
S'<mutually>'
p82
sg5
F0.0
sg6
F1.0
sg7
F8.729098824028478e-06
sg8
F8.72887023385992e-06
ssI38
(dp83
g2
F123.0
sg3
S'<almost>'
p84
sg5
F0.0
sg6
F1.0
sg7
F8.658702865770183e-06
sg8
F8.65847794766257e-06
ssI39
(dp85
g2
F120.0
sg3
S'<entirely>'
p86
sg5
F0.0
sg6
F1.0
sg7
F8.4475149909953e-06
sg8
F8.447300910672382e-06
ssI40
(dp87
g2
F118.0
sg3
S'<fairly>'
p88
sg5
F0.0
sg6
F1.0
sg7
F8.306723074478713e-06
sg8
F8.306516070680378e-06
ssI41
(dp89
g2
F108.0
sg3
S'<widely>'
p90
sg5
F0.0
sg6
F1.0
sg7
F7.602763491895771e-06
sg8
F7.6025900867365355e-06
ssI42
(dp91
g2
F104.0
sg3
S'<environmentally>'
p92
sg5
F0.0
sg6
F1.0
sg7
F7.321179658862594e-06
sg8
F7.321018860632646e-06
ssI43
(dp93
g2
F98.0
sg3
S'<economically>'
p94
sg5
F0.0
sg6
F1.0
sg7
F6.898803909312829e-06
sg8
F6.898661129483352e-06
ssI44
(dp95
g2
F94.0
sg3
S'<generally>'
p96
sg5
F0.0
sg6
F1.0
sg7
F6.6172200762796525e-06
sg8
F6.6170887140545515e-06
ssI45
(dp97
g2
F88.0
sg3
S'<far>'
p98
sg5
F0.0
sg6
F1.0
sg7
F6.194844326729887e-06
sg8
F6.194729198916649e-06
ssI46
(dp99
g2
F88.0
sg3
S'<currently>'
p100
sg5
F0.0
sg6
F1.0
sg7
F6.194844326729887e-06
sg8
F6.194729198916649e-06
ssI47
(dp101
g2
F80.0
sg3
S'<readily>'
p102
sg5
F0.0
sg6
F1.0
sg7
F5.631676660663534e-06
sg8
F5.6315815136747276e-06
ssI48
(dp103
g2
F78.0
sg3
S'<a bit>'
p104
sg5
F0.0
sg6
F1.0
sg7
F5.490884744146946e-06
sg8
F5.490794295032228e-06
ssI49
(dp105
g2
F78.0
sg3
S'<otherwise>'
p106
sg5
F0.0
sg6
F1.0
sg7
F5.490884744146946e-06
sg8
F5.490794295032228e-06
ssI50
(dp107
g2
F78.0
sg3
S'<ever>'
p108
sg5
F0.0
sg6
F1.0
sg7
F5.490884744146946e-06
sg8
F5.490794295032228e-06
ssI51
(dp109
g2
F74.0
sg3
S'<still>'
p110
sg5
F0.0
sg6
F1.0
sg7
F5.209300911113769e-06
sg8
F5.209219500948553e-06
ssI52
(dp111
g2
F74.0
sg3
S'<reasonably>'
p112
sg5
F0.0
sg6
F1.0
sg7
F5.209300911113769e-06
sg8
F5.209219500948553e-06
ssI53
(dp113
g2
F72.0
sg3
S'<potentially>'
p114
sg5
F0.0
sg6
F1.0
sg7
F5.06850899459718e-06
sg8
F5.0684319255073085e-06
ssI54
(dp115
g2
F70.0
sg3
S'<beautiful ,>'
p116
sg5
F0.0
sg6
F1.0
sg7
F4.927717078080592e-06
sg8
F4.927644231133106e-06
ssI55
(dp117
g2
F70.0
sg3
S'<already>'
p118
sg5
F0.0
sg6
F1.0
sg7
F4.927717078080592e-06
sg8
F4.927644231133106e-06
ssI56
(dp119
g2
F70.0
sg3
S'<newly>'
p120
sg5
F0.0
sg6
F1.0
sg7
F4.927717078080592e-06
sg8
F4.927644231133106e-06
ssI57
(dp121
g2
F68.0
sg3
S'<increasingly>'
p122
sg5
F0.0
sg6
F1.0
sg7
F4.786925161564004e-06
sg8
F4.786856417825883e-06
ssI58
(dp123
g2
F67.0
sg3
S'<legally>'
p124
sg5
F0.0
sg6
F1.0
sg7
F4.71652920330571e-06
sg8
F4.7164624665723745e-06
ssI59
(dp125
g2
F65.0
sg3
S'<publicly>'
p126
sg5
F0.0
sg6
F1.0
sg7
F4.575737286789121e-06
sg8
F4.57567447486557e-06
ssI60
(dp127
g2
F64.0
sg3
S'<little>'
p128
sg5
F0.0
sg6
F1.0
sg7
F4.505341328530827e-06
sg8
F4.5052804344122635e-06
ssI61
(dp129
g2
F63.0
sg3
S'<commonly>'
p130
sg5
F0.0
sg6
F1.0
sg7
F4.434945370272533e-06
sg8
F4.4348863642256764e-06
ssI62
(dp131
g2
F60.0
sg3
S'<previously>'
p132
sg5
F0.0
sg6
F1.0
sg7
F4.22375749549765e-06
sg8
F4.22370397526621e-06
ssI63
(dp133
g2
F57.0
sg3
S'<ready to>'
p134
sg5
F0.0
sg6
F1.0
sg7
F4.012569620722768e-06
sg8
F4.012521318707091e-06
ssI64
(dp135
g2
F53.0
sg3
S'<how>'
p136
sg5
F0.0
sg6
F1.0
sg7
F3.7309857876895913e-06
sg8
F3.7309440270286165e-06
ssI65
(dp137
g2
F53.0
sg3
S'<this>'
p138
sg5
F0.0
sg6
F1.0
sg7
F3.7309857876895913e-06
sg8
F3.7309440270286165e-06
ssI66
(dp139
g2
F53.0
sg3
S'<deeply>'
p140
sg5
F0.0
sg6
F1.0
sg7
F3.7309857876895913e-06
sg8
F3.7309440270286165e-06
ssI67
(dp141
g2
F53.0
sg3
S'<sufficiently>'
p142
sg5
F0.0
sg6
F1.0
sg7
F3.7309857876895913e-06
sg8
F3.7309440270286165e-06
ssI68
(dp143
g2
F52.0
sg3
S'<fucking>'
p144
sg5
F0.0
sg6
F1.0
sg7
F3.660589829431297e-06
sg8
F3.660549629775705e-06
ssI69
(dp145
g2
F52.0
sg3
S'<worried about>'
p146
sg5
F0.0
sg6
F1.0
sg7
F3.660589829431297e-06
sg8
F3.660549629775705e-06
ssI70
(dp147
g2
F52.0
sg3
S'<kinda>'
p148
sg5
F0.0
sg6
F1.0
sg7
F3.660589829431297e-06
sg8
F3.660549629775705e-06
ssI71
(dp149
g2
F51.0
sg3
S'<especially>'
p150
sg5
F0.0
sg6
F1.0
sg7
F3.590193871173003e-06
sg8
F3.590155202789461e-06
ssI72
(dp151
g2
F50.0
sg3
S'<incredibly>'
p152
sg5
F0.0
sg6
F1.0
sg7
F3.5197979129147086e-06
sg8
F3.519760746069879e-06
ssI73
(dp153
g2
F49.0
sg3
S'<easily>'
p154
sg5
F0.0
sg6
F1.0
sg7
F3.4494019546564146e-06
sg8
F3.449366259616966e-06
ssI74
(dp155
g2
F45.0
sg3
S'<a lot>'
p156
sg5
F0.0
sg6
F1.0
sg7
F3.167818121623238e-06
sg8
F3.1677880164718606e-06
ssI75
(dp157
g2
F45.0
sg3
S'<patently>'
p158
sg5
F0.0
sg6
F1.0
sg7
F3.167818121623238e-06
sg8
F3.1677880164718606e-06
ssI76
(dp159
g2
F45.0
sg3
S'<broadly>'
p160
sg5
F0.0
sg6
F1.0
sg7
F3.167818121623238e-06
sg8
F3.1677880164718606e-06
ssI77
(dp161
g2
F45.0
sg3
S'<long>'
p162
sg5
F0.0
sg6
F1.0
sg7
F3.167818121623238e-06
sg8
F3.1677880164718606e-06
ssI78
(dp163
g2
F44.0
sg3
S'<about>'
p164
sg5
F0.0
sg6
F1.0
sg7
F3.0974221633649435e-06
sg8
F3.0973933813522037e-06
ssI79
(dp165
g2
F44.0
sg3
S'<awfully>'
p166
sg5
F0.0
sg6
F1.0
sg7
F3.0974221633649435e-06
sg8
F3.0973933813522037e-06
ssI80
(dp167
g2
F43.0
sg3
S'<properly>'
p168
sg5
F0.0
sg6
F1.0
sg7
F3.0270262051066496e-06
sg8
F3.026998716499183e-06
ssI81
(dp169
g2
F43.0
sg3
S'<exceptionally>'
p170
sg5
F0.0
sg6
F1.0
sg7
F3.0270262051066496e-06
sg8
F3.026998716499183e-06
ssI82
(dp171
g2
F43.0
sg3
S'<where>'
p172
sg5
F0.0
sg6
F1.0
sg7
F3.0270262051066496e-06
sg8
F3.026998716499183e-06
ssI83
(dp173
g2
F41.0
sg3
S'<great ,>'
p174
sg5
F0.0
sg6
F1.0
sg7
F2.8862342885900612e-06
sg8
F2.8862092975930393e-06
ssI84
(dp175
g2
F41.0
sg3
S'<terribly>'
p176
sg5
F0.0
sg6
F1.0
sg7
F2.8862342885900612e-06
sg8
F2.8862092975930393e-06
ssI85
(dp177
g2
F41.0
sg3
S'<the>'
p178
sg5
F0.0
sg6
F1.0
sg7
F2.8862342885900612e-06
sg8
F2.8862092975930393e-06
ssI86
(dp179
g2
F41.0
sg3
S'<closely>'
p180
sg5
F0.0
sg6
F1.0
sg7
F2.8862342885900612e-06
sg8
F2.8862092975930393e-06
ssI87
(dp181
g2
F40.0
sg3
S'<no>'
p182
sg5
F0.0
sg6
F1.0
sg7
F2.815838330331767e-06
sg8
F2.8158145435399116e-06
ssI88
(dp183
g2
F40.0
sg3
S'<sorry ,>'
p184
sg5
F0.0
sg6
F1.0
sg7
F2.815838330331767e-06
sg8
F2.8158145435399116e-06
ssI89
(dp185
g2
F40.0
sg3
S'<either>'
p186
sg5
F0.0
sg6
F1.0
sg7
F2.815838330331767e-06
sg8
F2.8158145435399116e-06
ssI90
(dp187
g2
F40.0
sg3
S'<simply>'
p188
sg5
F0.0
sg6
F1.0
sg7
F2.815838330331767e-06
sg8
F2.8158145435399116e-06
ssI91
(dp189
g2
F40.0
sg3
S'<equally>'
p190
sg5
F0.0
sg6
F1.0
sg7
F2.815838330331767e-06
sg8
F2.8158145435399116e-06
ssI92
(dp191
g2
F40.0
sg3
S'<vitally>'
p192
sg5
F0.0
sg6
F1.0
sg7
F2.815838330331767e-06
sg8
F2.8158145435399116e-06
ssI93
(dp193
g2
F39.0
sg3
S'<abundantly>'
p194
sg5
F0.0
sg6
F1.0
sg7
F2.745442372073473e-06
sg8
F2.7454197597534043e-06
ssI94
(dp195
g2
F39.0
sg3
S'<physically>'
p196
sg5
F0.0
sg6
F1.0
sg7
F2.745442372073473e-06
sg8
F2.7454197597534043e-06
ssI95
(dp197
g2
F39.0
sg3
S'<financially>'
p198
sg5
F0.0
sg6
F1.0
sg7
F2.745442372073473e-06
sg8
F2.7454197597534043e-06
ssI96
(dp199
g2
F37.0
sg3
S'<least>'
p200
sg5
F0.0
sg6
F1.0
sg7
F2.6046504555568845e-06
sg8
F2.6046301029802375e-06
ssI97
(dp201
g2
F36.0
sg3
S'<extraordinarily>'
p202
sg5
F0.0
sg6
F1.0
sg7
F2.53425449729859e-06
sg8
F2.5342352299935726e-06
ssI98
(dp203
g2
F35.0
sg3
S'<single>'
p204
sg5
F0.0
sg6
F1.0
sg7
F2.463858539040296e-06
sg8
F2.463840327273509e-06
ssI99
(dp205
g2
F35.0
sg3
S'<cost>'
p206
sg5
F0.0
sg6
F1.0
sg7
F2.463858539040296e-06
sg8
F2.463840327273509e-06
ssI100
(dp207
g2
F35.0
sg3
S'<honest with>'
p208
sg5
F0.0
sg6
F1.0
sg7
F2.463858539040296e-06
sg8
F2.463840327273509e-06
ssI101
(dp209
g2
F34.0
sg3
S'<enormously>'
p210
sg5
F0.0
sg6
F1.0
sg7
F2.393462580782002e-06
sg8
F2.3934453948200473e-06
ssI102
(dp211
g2
F34.0
sg3
S'<significantly>'
p212
sg5
F0.0
sg6
F1.0
sg7
F2.393462580782002e-06
sg8
F2.3934453948200473e-06
ssI103
(dp213
g2
F34.0
sg3
S'<open to>'
p214
sg5
F0.0
sg6
F1.0
sg7
F2.393462580782002e-06
sg8
F2.3934453948200473e-06
ssI104
(dp215
g2
F34.0
sg3
S'<so very>'
p216
sg5
F0.0
sg6
F1.0
sg7
F2.393462580782002e-06
sg8
F2.3934453948200473e-06
ssI105
(dp217
g2
F34.0
sg3
S'<above>'
p218
sg5
F0.0
sg6
F1.0
sg7
F2.393462580782002e-06
sg8
F2.3934453948200473e-06
ssI106
(dp219
g2
F33.0
sg3
S'<yet>'
p220
sg5
F0.0
sg6
F1.0
sg7
F2.323066622523708e-06
sg8
F2.3230504326331834e-06
ssI107
(dp221
g2
F33.0
sg3
S'<something>'
p222
sg5
F0.0
sg6
F1.0
sg7
F2.323066622523708e-06
sg8
F2.3230504326331834e-06
ssI108
(dp223
g2
F32.0
sg3
S'<slightly>'
p224
sg5
F0.0
sg6
F1.0
sg7
F2.2526706642654135e-06
sg8
F2.252655440712912e-06
ssI109
(dp225
g2
F31.0
sg3
S'<urgently>'
p226
sg5
F0.0
sg6
F1.0
sg7
F2.1822747060071195e-06
sg8
F2.182260419059226e-06
ssI110
(dp227
g2
F31.0
sg3
S'<fair>'
p228
sg5
F0.0
sg6
F1.0
sg7
F2.1822747060071195e-06
sg8
F2.182260419059226e-06
ssI111
(dp229
g2
F30.0
sg3
S'<right>'
p230
sg5
F0.0
sg6
F1.0
sg7
F2.111878747748825e-06
sg8
F2.111865367672128e-06
ssI112
(dp231
g2
F30.0
sg3
S'<right ,>'
p232
sg5
F0.0
sg6
F1.0
sg7
F2.111878747748825e-06
sg8
F2.111865367672128e-06
ssI113
(dp233
g2
F30.0
sg3
S'<exactly>'
p234
sg5
F0.0
sg6
F1.0
sg7
F2.111878747748825e-06
sg8
F2.111865367672128e-06
ssI114
(dp235
g2
F29.0
sg3
S'<best>'
p236
sg5
F0.0
sg6
F1.0
sg7
F2.041482789490531e-06
sg8
F2.041470286551609e-06
ssI115
(dp237
g2
F28.0
sg3
S'<here>'
p238
sg5
F0.0
sg6
F1.0
sg7
F1.971086831232237e-06
sg8
F1.9710751756976654e-06
ssI116
(dp239
g2
F28.0
sg3
S'<crazy>'
p240
sg5
F0.0
sg6
F1.0
sg7
F1.971086831232237e-06
sg8
F1.9710751756976654e-06
ssI117
(dp241
g2
F28.0
sg3
S'<frequently>'
p242
sg5
F0.0
sg6
F1.0
sg7
F1.971086831232237e-06
sg8
F1.9710751756976654e-06
ssI118
(dp243
g2
F28.0
sg3
S'<mentally>'
p244
sg5
F0.0
sg6
F1.0
sg7
F1.971086831232237e-06
sg8
F1.9710751756976654e-06
ssI119
(dp245
g2
F28.0
sg3
S'<practically>'
p246
sg5
F0.0
sg6
F1.0
sg7
F1.971086831232237e-06
sg8
F1.9710751756976654e-06
ssI120
(dp247
g2
F28.0
sg3
S'<afraid of>'
p248
sg5
F0.0
sg6
F1.0
sg7
F1.971086831232237e-06
sg8
F1.9710751756976654e-06
ssI121
(dp249
g2
F27.0
sg3
S'<unacceptably>'
p250
sg5
F0.0
sg6
F1.0
sg7
F1.9006908729739428e-06
sg8
F1.9006800351102909e-06
ssI122
(dp251
g2
F27.0
sg3
S'<virtually>'
p252
sg5
F0.0
sg6
F1.0
sg7
F1.9006908729739428e-06
sg8
F1.9006800351102909e-06
ssI123
(dp253
g2
F27.0
sg3
S'<utterly>'
p254
sg5
F0.0
sg6
F1.0
sg7
F1.9006908729739428e-06
sg8
F1.9006800351102909e-06
ssI124
(dp255
g2
F27.0
sg3
S'<now>'
p256
sg5
F0.0
sg6
F1.0
sg7
F1.9006908729739428e-06
sg8
F1.9006800351102909e-06
ssI125
(dp257
g2
F26.0
sg3
S'<commercially>'
p258
sg5
F0.0
sg6
F1.0
sg7
F1.8302949147156484e-06
sg8
F1.8302848647894868e-06
ssI126
(dp259
g2
F26.0
sg3
S'<critically>'
p260
sg5
F0.0
sg6
F1.0
sg7
F1.8302949147156484e-06
sg8
F1.8302848647894868e-06
ssI127
(dp261
g2
F25.0
sg3
S'<good>'
p262
sg5
F0.0
sg6
F1.0
sg7
F1.7598989564573543e-06
sg8
F1.7598896647352441e-06
ssI128
(dp263
g2
F25.0
sg3
S'<alarmingly>'
p264
sg5
F0.0
sg6
F1.0
sg7
F1.7598989564573543e-06
sg8
F1.7598896647352441e-06
ssI129
(dp265
g2
F25.0
sg3
S'<often>'
p266
sg5
F0.0
sg6
F1.0
sg7
F1.7598989564573543e-06
sg8
F1.7598896647352441e-06
ssI130
(dp267
g2
F24.0
sg3
S'<bloody>'
p268
sg5
F0.0
sg6
F1.0
sg7
F1.68950299819906e-06
sg8
F1.6894944349475622e-06
ssI131
(dp269
g2
F24.0
sg3
S'<close>'
p270
sg5
F0.0
sg6
F1.0
sg7
F1.68950299819906e-06
sg8
F1.6894944349475622e-06
ssI132
(dp271
g2
F24.0
sg3
S'<strictly>'
p272
sg5
F0.0
sg6
F1.0
sg7
F1.68950299819906e-06
sg8
F1.6894944349475622e-06
ssI133
(dp273
g2
F24.0
sg3
S'<further>'
p274
sg5
F0.0
sg6
F1.0
sg7
F1.68950299819906e-06
sg8
F1.6894944349475622e-06
ssI134
(dp275
g2
F24.0
sg3
S'<hardly>'
p276
sg5
F0.0
sg6
F1.0
sg7
F1.68950299819906e-06
sg8
F1.6894944349475622e-06
ssI135
(dp277
g2
F23.0
sg3
S'<self>'
p278
sg5
F0.0
sg6
F1.0
sg7
F1.619107039940766e-06
sg8
F1.6190991754264338e-06
ssI136
(dp279
g2
F23.0
sg3
S'<rarely>'
p280
sg5
F0.0
sg6
F1.0
sg7
F1.619107039940766e-06
sg8
F1.6190991754264338e-06
ssI137
(dp281
g2
F23.0
sg3
S'<recently>'
p282
sg5
F0.0
sg6
F1.0
sg7
F1.619107039940766e-06
sg8
F1.6190991754264338e-06
ssI138
(dp283
g2
F23.0
sg3
S'<greatest>'
p284
sg5
F0.0
sg6
F1.0
sg7
F1.619107039940766e-06
sg8
F1.6190991754264338e-06
ssI139
(dp285
g2
F23.0
sg3
S'<ecologically>'
p286
sg5
F0.0
sg6
F1.0
sg7
F1.619107039940766e-06
sg8
F1.6190991754264338e-06
ssI140
(dp287
g2
F23.0
sg3
S'<directly>'
p288
sg5
F0.0
sg6
F1.0
sg7
F1.619107039940766e-06
sg8
F1.6190991754264338e-06
ssI141
(dp289
g2
F22.0
sg3
S'<internationally>'
p290
sg5
F0.0
sg6
F1.0
sg7
F1.5487110816824718e-06
sg8
F1.548703886171858e-06
ssI142
(dp291
g2
F22.0
sg3
S'<much more>'
p292
sg5
F0.0
sg6
F1.0
sg7
F1.5487110816824718e-06
sg8
F1.548703886171858e-06
ssI143
(dp293
g2
F22.0
sg3
S'<nearly>'
p294
sg5
F0.0
sg6
F1.0
sg7
F1.5487110816824718e-06
sg8
F1.548703886171858e-06
ssI144
(dp295
g2
F22.0
sg3
S'<nice>'
p296
sg5
F0.0
sg6
F1.0
sg7
F1.5487110816824718e-06
sg8
F1.548703886171858e-06
ssI145
(dp297
g2
F22.0
sg3
S'<mighty>'
p298
sg5
F0.0
sg6
F1.0
sg7
F1.5487110816824718e-06
sg8
F1.548703886171858e-06
ssI146
(dp299
g2
F22.0
sg3
S'<fine ,>'
p300
sg5
F0.0
sg6
F1.0
sg7
F1.5487110816824718e-06
sg8
F1.548703886171858e-06
ssI147
(dp301
g2
F22.0
sg3
S'<socially>'
p302
sg5
F0.0
sg6
F1.0
sg7
F1.5487110816824718e-06
sg8
F1.548703886171858e-06
ssI148
(dp303
g2
F21.0
sg3
S'<half>'
p304
sg5
F0.0
sg6
F1.0
sg7
F1.4783151234241776e-06
sg8
F1.4783085671838258e-06
ssI149
(dp305
g2
F21.0
sg3
S'<available for>'
p306
sg5
F0.0
sg6
F1.0
sg7
F1.4783151234241776e-06
sg8
F1.4783085671838258e-06
ssI150
(dp307
g2
F21.0
sg3
S'<crucially>'
p308
sg5
F0.0
sg6
F1.0
sg7
F1.4783151234241776e-06
sg8
F1.4783085671838258e-06
ssI151
(dp309
g2
F21.0
sg3
S'<even more>'
p310
sg5
F0.0
sg6
F1.0
sg7
F1.4783151234241776e-06
sg8
F1.4783085671838258e-06
ssI152
(dp311
g2
F21.0
sg3
S'<wonderful ,>'
p312
sg5
F0.0
sg6
F1.0
sg7
F1.4783151234241776e-06
sg8
F1.4783085671838258e-06
ssI153
(dp313
g2
F20.0
sg3
S'<lot>'
p314
sg5
F0.0
sg6
F1.0
sg7
F1.4079191651658834e-06
sg8
F1.4079132184623385e-06
ssI154
(dp315
g2
F20.0
sg3
S'<easy>'
p316
sg5
F0.0
sg6
F1.0
sg7
F1.4079191651658834e-06
sg8
F1.4079132184623385e-06
ssI155
(dp317
g2
F20.0
sg3
S'<such>'
p318
sg5
F0.0
sg6
F1.0
sg7
F1.4079191651658834e-06
sg8
F1.4079132184623385e-06
ssI156
(dp319
g2
F20.0
sg3
S'<better>'
p320
sg5
F0.0
sg6
F1.0
sg7
F1.4079191651658834e-06
sg8
F1.4079132184623385e-06
ssI157
(dp321
g2
F20.0
sg3
S'<dead>'
p322
sg5
F0.0
sg6
F1.0
sg7
F1.4079191651658834e-06
sg8
F1.4079132184623385e-06
ssI158
(dp323
g2
F19.0
sg3
S'<nice to>'
p324
sg5
F0.0
sg6
F1.0
sg7
F1.3375232069075892e-06
sg8
F1.3375178400073883e-06
ssI159
(dp325
g2
F19.0
sg3
S'<hereby>'
p326
sg5
F0.0
sg6
F1.0
sg7
F1.3375232069075892e-06
sg8
F1.3375178400073883e-06
ssI160
(dp327
g2
F19.0
sg3
S'<many>'
p328
sg5
F0.0
sg6
F1.0
sg7
F1.3375232069075892e-06
sg8
F1.3375178400073883e-06
ssI161
(dp329
g2
F19.0
sg3
S'<overly>'
p330
sg5
F0.0
sg6
F1.0
sg7
F1.3375232069075892e-06
sg8
F1.3375178400073883e-06
ssI162
(dp331
g2
F19.0
sg3
S'<naturally>'
p332
sg5
F0.0
sg6
F1.0
sg7
F1.3375232069075892e-06
sg8
F1.3375178400073883e-06
ssI163
(dp333
g2
F19.0
sg3
S'<all that>'
p334
sg5
F0.0
sg6
F1.0
sg7
F1.3375232069075892e-06
sg8
F1.3375178400073883e-06
ssI164
(dp335
g2
F19.0
sg3
S'<specially>'
p336
sg5
F0.0
sg6
F1.0
sg7
F1.3375232069075892e-06
sg8
F1.3375178400073883e-06
ssI165
(dp337
g2
F18.0
sg3
S'<greater>'
p338
sg5
F0.0
sg6
F1.0
sg7
F1.267127248649295e-06
sg8
F1.2671224318189712e-06
ssI166
(dp339
g2
F18.0
sg3
S'<comparatively>'
p340
sg5
F0.0
sg6
F1.0
sg7
F1.267127248649295e-06
sg8
F1.2671224318189712e-06
ssI167
(dp341
g2
F18.0
sg3
S'<duly>'
p342
sg5
F0.0
sg6
F1.0
sg7
F1.267127248649295e-06
sg8
F1.2671224318189712e-06
ssI168
(dp343
g2
F18.0
sg3
S'<immediately>'
p344
sg5
F0.0
sg6
F1.0
sg7
F1.267127248649295e-06
sg8
F1.2671224318189712e-06
ssI169
(dp345
g2
F18.0
sg3
S'<so fucking>'
p346
sg5
F0.0
sg6
F1.0
sg7
F1.267127248649295e-06
sg8
F1.2671224318189712e-06
ssI170
(dp347
g2
F17.0
sg3
S'<high>'
p348
sg5
F0.0
sg6
F1.0
sg7
F1.196731290391001e-06
sg8
F1.1967269938970844e-06
ssI171
(dp349
g2
F17.0
sg3
S'<other>'
p350
sg5
F0.0
sg6
F1.0
sg7
F1.196731290391001e-06
sg8
F1.1967269938970844e-06
ssI172
(dp351
g2
F17.0
sg3
S'<actively>'
p352
sg5
F0.0
sg6
F1.0
sg7
F1.196731290391001e-06
sg8
F1.1967269938970844e-06
ssI173
(dp353
g2
F17.0
sg3
S'<crystal>'
p354
sg5
F0.0
sg6
F1.0
sg7
F1.196731290391001e-06
sg8
F1.1967269938970844e-06
ssI174
(dp355
g2
F17.0
sg3
S'<simple>'
p356
sg5
F0.0
sg6
F1.0
sg7
F1.196731290391001e-06
sg8
F1.1967269938970844e-06
ssI175
(dp357
g2
F17.0
sg3
S'<constantly>'
p358
sg5
F0.0
sg6
F1.0
sg7
F1.196731290391001e-06
sg8
F1.1967269938970844e-06
ssI176
(dp359
g2
F16.0
sg3
S'<nothing>'
p360
sg5
F0.0
sg6
F1.0
sg7
F1.1263353321327067e-06
sg8
F1.1263315262417236e-06
ssI177
(dp361
g2
F16.0
sg3
S'<and>'
p362
sg5
F0.0
sg6
F1.0
sg7
F1.1263353321327067e-06
sg8
F1.1263315262417236e-06
ssI178
(dp363
g2
F16.0
sg3
S'<one>'
p364
sg5
F0.0
sg6
F1.0
sg7
F1.1263353321327067e-06
sg8
F1.1263315262417236e-06
ssI179
(dp365
g2
F16.0
sg3
S'<second>'
p366
sg5
F0.0
sg6
F1.0
sg7
F1.1263353321327067e-06
sg8
F1.1263315262417236e-06
ssI180
(dp367
g2
F16.0
sg3
S'<hard>'
p368
sg5
F0.0
sg6
F1.0
sg7
F1.1263353321327067e-06
sg8
F1.1263315262417236e-06
ssI181
(dp369
g2
F16.0
sg3
S'<possible>'
p370
sg5
F0.0
sg6
F1.0
sg7
F1.1263353321327067e-06
sg8
F1.1263315262417236e-06
ssI182
(dp371
g2
F15.0
sg3
S'<geographically>'
p372
sg5
F0.0
sg6
F1.0
sg7
F1.0559393738744126e-06
sg8
F1.0559360288528836e-06
ssI183
(dp373
g2
F15.0
sg3
S'<damn>'
p374
sg5
F0.0
sg6
F1.0
sg7
F1.0559393738744126e-06
sg8
F1.0559360288528836e-06
ssI184
(dp375
g2
F15.0
sg3
S'<somewhere>'
p376
sg5
F0.0
sg6
F1.0
sg7
F1.0559393738744126e-06
sg8
F1.0559360288528836e-06
ssI185
(dp377
g2
F15.0
sg3
S'<fundamentally>'
p378
sg5
F0.0
sg6
F1.0
sg7
F1.0559393738744126e-06
sg8
F1.0559360288528836e-06
ssI186
(dp379
g2
F15.0
sg3
S'<excessively>'
p380
sg5
F0.0
sg6
F1.0
sg7
F1.0559393738744126e-06
sg8
F1.0559360288528836e-06
ssI187
(dp381
g2
F15.0
sg3
S'<gonna>'
p382
sg5
F0.0
sg6
F1.0
sg7
F1.0559393738744126e-06
sg8
F1.0559360288528836e-06
ssI188
(dp383
g2
F15.0
sg3
S'<internally>'
p384
sg5
F0.0
sg6
F1.0
sg7
F1.0559393738744126e-06
sg8
F1.0559360288528836e-06
ssI189
(dp385
g2
F15.0
sg3
S'<goddamn>'
p386
sg5
F0.0
sg6
F1.0
sg7
F1.0559393738744126e-06
sg8
F1.0559360288528836e-06
ssI190
(dp387
g2
F14.0
sg3
S'<wholly>'
p388
sg5
F0.0
sg6
F1.0
sg7
F9.855434156161184e-07
sg8
F9.855405017305606e-07
ssI191
(dp389
g2
F14.0
sg3
S'<strong>'
p390
sg5
F0.0
sg6
F1.0
sg7
F9.855434156161184e-07
sg8
F9.855405017305606e-07
ssI192
(dp391
g2
F14.0
sg3
S'<considerably>'
p392
sg5
F0.0
sg6
F1.0
sg7
F9.855434156161184e-07
sg8
F9.855405017305606e-07
ssI193
(dp393
g2
F14.0
sg3
S'<sounds>'
p394
sg5
F0.0
sg6
F1.0
sg7
F9.855434156161184e-07
sg8
F9.855405017305606e-07
ssI194
(dp395
g2
F14.0
sg3
S'<medically>'
p396
sg5
F0.0
sg6
F1.0
sg7
F9.855434156161184e-07
sg8
F9.855405017305606e-07
ssI195
(dp397
g2
F14.0
sg3
S'<seriously>'
p398
sg5
F0.0
sg6
F1.0
sg7
F9.855434156161184e-07
sg8
F9.855405017305606e-07
ssI196
(dp399
g2
F14.0
sg3
S'<broadest>'
p400
sg5
F0.0
sg6
F1.0
sg7
F9.855434156161184e-07
sg8
F9.855405017305606e-07
ssI197
(dp401
g2
F14.0
sg3
S'<strongly>'
p402
sg5
F0.0
sg6
F1.0
sg7
F9.855434156161184e-07
sg8
F9.855405017305606e-07
ssI198
(dp403
g2
F14.0
sg3
S'<higher>'
p404
sg5
F0.0
sg6
F1.0
sg7
F9.855434156161184e-07
sg8
F9.855405017305606e-07
ssI199
(dp405
g2
F14.0
sg3
S'<quick>'
p406
sg5
F0.0
sg6
F1.0
sg7
F9.855434156161184e-07
sg8
F9.855405017305606e-07
ss.