(dp0
I0
(dp1
S'count'
p2
F3600171.0
sS'word'
p3
S'<is weaker than>'
p4
sS'min'
p5
F0.0
sS'max'
p6
F264508.0
sS'mu'
p7
F0.2534374874387212
sS'sigma'
p8
F14521.900952863014
ssI1
(dp9
g2
F5658.0
sg3
S'<very>'
p10
sg5
F0.0
sg6
F1.0
sg7
F0.00039830033182542844
sg8
F0.0003978245287376902
ssI2
(dp11
g2
F3549.0
sg3
S'<so>'
p12
sg5
F0.0
sg6
F1.0
sg7
F0.000249835255858686
sg8
F0.00024964803408171433
ssI3
(dp13
g2
F2296.0
sg3
S'<most>'
p14
sg5
F0.0
sg6
F1.0
sg7
F0.00016162912016104344
sg8
F0.00016155075668837333
ssI4
(dp15
g2
F2071.0
sg3
S'<really>'
p16
sg5
F0.0
sg6
F1.0
sg7
F0.00014579002955292724
sg8
F0.00014572627155223745
ssI5
(dp17
g2
F1903.0
sg3
S'<quite>'
p18
sg5
F0.0
sg6
F1.0
sg7
F0.0001339635085655338
sg8
F0.0001339096747089256
ssI6
(dp19
g2
F1665.0
sg3
S'<more>'
p20
sg5
F0.0
sg6
F1.0
sg7
F0.0001172092705000598
sg8
F0.00011716805968123044
ssI7
(dp21
g2
F1582.0
sg3
S'<pretty>'
p22
sg5
F0.0
sg6
F1.0
sg7
F0.00011136640596462138
sg8
F0.0001113292012979271
ssI8
(dp23
g2
F810.0
sg3
S'<just>'
p24
sg5
F0.0
sg6
F1.0
sg7
F5.702072618921828e-05
sg8
F5.701097247036394e-05
ssI9
(dp25
g2
F715.0
sg3
S'<absolutely>'
p26
sg5
F0.0
sg6
F1.0
sg7
F5.0333110154680334e-05
sg8
F5.0325510143776204e-05
ssI10
(dp27
g2
F620.0
sg3
S'<all>'
p28
sg5
F0.0
sg6
F1.0
sg7
F4.3645494120142385e-05
sg8
F4.3639779498954384e-05
ssI11
(dp29
g2
F572.0
sg3
S'<extremely>'
p30
sg5
F0.0
sg6
F1.0
sg7
F4.026648812374427e-05
sg8
F4.026162408412207e-05
ssI12
(dp31
g2
F516.0
sg3
S'<as>'
p32
sg5
F0.0
sg6
F1.0
sg7
F3.6324314461279796e-05
sg8
F3.632035618967285e-05
ssI13
(dp33
g2
F479.0
sg3
S'<rather>'
p34
sg5
F0.0
sg6
F1.0
sg7
F3.371966400572291e-05
sg8
F3.371625303518095e-05
ssI14
(dp35
g2
F459.0
sg3
S'<totally>'
p36
sg5
F0.0
sg6
F1.0
sg7
F3.2311744840557026e-05
sg8
F3.230861276146344e-05
ssI15
(dp37
g2
F452.0
sg3
S'<completely>'
p38
sg5
F0.0
sg6
F1.0
sg7
F3.181897313274897e-05
sg8
F3.1815935856025405e-05
ssI16
(dp39
g2
F423.0
sg3
S'<highly>'
p40
sg5
F0.0
sg6
F1.0
sg7
F2.9777490343258435e-05
sg8
F2.977483029927248e-05
ssI17
(dp41
g2
F404.0
sg3
S'<well>'
p42
sg5
F0.0
sg6
F1.0
sg7
F2.8439967136350846e-05
sg8
F2.8437540687164792e-05
ssI18
(dp43
g2
F377.0
sg3
S'<relatively>'
p44
sg5
F0.0
sg6
F1.0
sg7
F2.6539276263376905e-05
sg8
F2.6537163301208144e-05
ssI19
(dp45
g2
F342.0
sg3
S'<too>'
p46
sg5
F0.0
sg6
F1.0
sg7
F2.407541772433661e-05
sg8
F2.407367887503013e-05
ssI20
(dp47
g2
F339.0
sg3
S'<perfectly>'
p48
sg5
F0.0
sg6
F1.0
sg7
F2.3864229849561724e-05
sg8
F2.3862521372344125e-05
ssI21
(dp49
g2
F329.0
sg3
S'<that>'
p50
sg5
F0.0
sg6
F1.0
sg7
F2.3160270266978785e-05
sg8
F2.3158661097468544e-05
ssI22
(dp51
g2
F301.0
sg3
S'<only>'
p52
sg5
F0.0
sg6
F1.0
sg7
F2.1189183435746546e-05
sg8
F2.1187836510289655e-05
ssI23
(dp53
g2
F288.0
sg3
S'<particularly>'
p54
sg5
F0.0
sg6
F1.0
sg7
F2.027403597838872e-05
sg8
F2.02728028854509e-05
ssI24
(dp55
g2
F273.0
sg3
S'<real>'
p56
sg5
F0.0
sg6
F1.0
sg7
F1.921809660451431e-05
sg8
F1.9216988612998824e-05
ssI25
(dp57
g2
F254.0
sg3
S'<a little>'
p58
sg5
F0.0
sg6
F1.0
sg7
F1.788057339760672e-05
sg8
F1.787961426432508e-05
ssI26
(dp59
g2
F247.0
sg3
S'<much>'
p60
sg5
F0.0
sg6
F1.0
sg7
F1.738780168979866e-05
sg8
F1.7386894693369846e-05
ssI27
(dp61
g2
F237.0
sg3
S'<less>'
p62
sg5
F0.0
sg6
F1.0
sg7
F1.668384210721572e-05
sg8
F1.6683007064741173e-05
ssI28
(dp63
g2
F235.0
sg3
S'<therefore>'
p64
sg5
F0.0
sg6
F1.0
sg7
F1.654305019069913e-05
sg8
F1.654222918222498e-05
ssI29
(dp65
g2
F211.0
sg3
S'<even>'
p66
sg5
F0.0
sg6
F1.0
sg7
F1.4853547192500072e-05
sg8
F1.4852885315461651e-05
ssI30
(dp67
g2
F198.0
sg3
S'<clearly>'
p68
sg5
F0.0
sg6
F1.0
sg7
F1.3938399735142247e-05
sg8
F1.3937816903596563e-05
ssI31
(dp69
g2
F194.0
sg3
S'<fully>'
p70
sg5
F0.0
sg6
F1.0
sg7
F1.365681590210907e-05
sg8
F1.3656256381341566e-05
ssI32
(dp71
g2
F181.0
sg3
S'<kind of>'
p72
sg5
F0.0
sg6
F1.0
sg7
F1.2741668444751245e-05
sg8
F1.2741181398544201e-05
ssI33
(dp73
g2
F176.0
sg3
S'<somewhat>'
p74
sg5
F0.0
sg6
F1.0
sg7
F1.2389688653459774e-05
sg8
F1.2389228144108748e-05
ssI34
(dp75
g2
F175.0
sg3
S'<truly>'
p76
sg5
F0.0
sg6
F1.0
sg7
F1.231929269520148e-05
sg8
F1.2318837404023248e-05
ssI35
(dp77
g2
F135.0
sg3
S'<just so>'
p78
sg5
F0.0
sg6
F1.0
sg7
F9.503454364869714e-06
sg8
F9.503183419651726e-06
ssI36
(dp79
g2
F126.0
sg3
S'<any>'
p80
sg5
F0.0
sg6
F1.0
sg7
F8.869890740545067e-06
sg8
F8.86965471705547e-06
ssI37
(dp81
g2
F124.0
sg3
S'<mutually>'
p82
sg5
F0.0
sg6
F1.0
sg7
F8.729098824028478e-06
sg8
F8.72887023385992e-06
ssI38
(dp83
g2
F123.0
sg3
S'<almost>'
p84
sg5
F0.0
sg6
F1.0
sg7
F8.658702865770183e-06
sg8
F8.65847794766257e-06
ssI39
(dp85
g2
F120.0
sg3
S'<entirely>'
p86
sg5
F0.0
sg6
F1.0
sg7
F8.4475149909953e-06
sg8
F8.447300910672382e-06
ssI40
(dp87
g2
F118.0
sg3
S'<fairly>'
p88
sg5
F0.0
sg6
F1.0
sg7
F8.306723074478713e-06
sg8
F8.306516070680378e-06
ssI41
(dp89
g2
F108.0
sg3
S'<widely>'
p90
sg5
F0.0
sg6
F1.0
sg7
F7.602763491895771e-06
sg8
F7.6025900867365355e-06
ssI42
(dp91
g2
F104.0
sg3
S'<environmentally>'
p92
sg5
F0.0
sg6
F1.0
sg7
F7.321179658862594e-06
sg8
F7.321018860632646e-06
ssI43
(dp93
g2
F98.0
sg3
S'<economically>'
p94
sg5
F0.0
sg6
F1.0
sg7
F6.898803909312829e-06
sg8
F6.898661129483352e-06
ssI44
(dp95
g2
F94.0
sg3
S'<generally>'
p96
sg5
F0.0
sg6
F1.0
sg7
F6.6172200762796525e-06
sg8
F6.6170887140545515e-06
ssI45
(dp97
g2
F88.0
sg3
S'<far>'
p98
sg5
F0.0
sg6
F1.0
sg7
F6.194844326729887e-06
sg8
F6.194729198916649e-06
ssI46
(dp99
g2
F88.0
sg3
S'<currently>'
p100
sg5
F0.0
sg6
F1.0
sg7
F6.194844326729887e-06
sg8
F6.194729198916649e-06
ssI47
(dp101
g2
F80.0
sg3
S'<readily>'
p102
sg5
F0.0
sg6
F1.0
sg7
F5.631676660663534e-06
sg8
F5.6315815136747276e-06
ssI48
(dp103
g2
F78.0
sg3
S'<a bit>'
p104
sg5
F0.0
sg6
F1.0
sg7
F5.490884744146946e-06
sg8
F5.490794295032228e-06
ssI49
(dp105
g2
F78.0
sg3
S'<otherwise>'
p106
sg5
F0.0
sg6
F1.0
sg7
F5.490884744146946e-06
sg8
F5.490794295032228e-06
ss.