(dp0
I0
(dp1
S'count'
p2
F3600171.0
sS'word'
p3
S'<is weaker than>'
p4
sS'min'
p5
F0.0
sS'max'
p6
F264508.0
sS'mu'
p7
F0.2534374874387212
sS'sigma'
p8
F14521.900952863014
ssI1
(dp9
g2
F5658.0
sg3
S'<very>'
p10
sg5
F0.0
sg6
F1.0
sg7
F0.00039830033182542844
sg8
F0.0003978245287376902
ssI2
(dp11
g2
F3549.0
sg3
S'<so>'
p12
sg5
F0.0
sg6
F1.0
sg7
F0.000249835255858686
sg8
F0.00024964803408171433
ssI3
(dp13
g2
F2296.0
sg3
S'<most>'
p14
sg5
F0.0
sg6
F1.0
sg7
F0.00016162912016104344
sg8
F0.00016155075668837333
ssI4
(dp15
g2
F2071.0
sg3
S'<really>'
p16
sg5
F0.0
sg6
F1.0
sg7
F0.00014579002955292724
sg8
F0.00014572627155223745
ssI5
(dp17
g2
F1903.0
sg3
S'<quite>'
p18
sg5
F0.0
sg6
F1.0
sg7
F0.0001339635085655338
sg8
F0.0001339096747089256
ssI6
(dp19
g2
F1665.0
sg3
S'<more>'
p20
sg5
F0.0
sg6
F1.0
sg7
F0.0001172092705000598
sg8
F0.00011716805968123044
ssI7
(dp21
g2
F1582.0
sg3
S'<pretty>'
p22
sg5
F0.0
sg6
F1.0
sg7
F0.00011136640596462138
sg8
F0.0001113292012979271
ssI8
(dp23
g2
F810.0
sg3
S'<just>'
p24
sg5
F0.0
sg6
F1.0
sg7
F5.702072618921828e-05
sg8
F5.701097247036394e-05
ssI9
(dp25
g2
F715.0
sg3
S'<absolutely>'
p26
sg5
F0.0
sg6
F1.0
sg7
F5.0333110154680334e-05
sg8
F5.0325510143776204e-05
ssI10
(dp27
g2
F620.0
sg3
S'<all>'
p28
sg5
F0.0
sg6
F1.0
sg7
F4.3645494120142385e-05
sg8
F4.3639779498954384e-05
ssI11
(dp29
g2
F572.0
sg3
S'<extremely>'
p30
sg5
F0.0
sg6
F1.0
sg7
F4.026648812374427e-05
sg8
F4.026162408412207e-05
ssI12
(dp31
g2
F516.0
sg3
S'<as>'
p32
sg5
F0.0
sg6
F1.0
sg7
F3.6324314461279796e-05
sg8
F3.632035618967285e-05
ssI13
(dp33
g2
F479.0
sg3
S'<rather>'
p34
sg5
F0.0
sg6
F1.0
sg7
F3.371966400572291e-05
sg8
F3.371625303518095e-05
ssI14
(dp35
g2
F459.0
sg3
S'<totally>'
p36
sg5
F0.0
sg6
F1.0
sg7
F3.2311744840557026e-05
sg8
F3.230861276146344e-05
ssI15
(dp37
g2
F452.0
sg3
S'<completely>'
p38
sg5
F0.0
sg6
F1.0
sg7
F3.181897313274897e-05
sg8
F3.1815935856025405e-05
ssI16
(dp39
g2
F423.0
sg3
S'<highly>'
p40
sg5
F0.0
sg6
F1.0
sg7
F2.9777490343258435e-05
sg8
F2.977483029927248e-05
ssI17
(dp41
g2
F404.0
sg3
S'<well>'
p42
sg5
F0.0
sg6
F1.0
sg7
F2.8439967136350846e-05
sg8
F2.8437540687164792e-05
ssI18
(dp43
g2
F377.0
sg3
S'<relatively>'
p44
sg5
F0.0
sg6
F1.0
sg7
F2.6539276263376905e-05
sg8
F2.6537163301208144e-05
ssI19
(dp45
g2
F342.0
sg3
S'<too>'
p46
sg5
F0.0
sg6
F1.0
sg7
F2.407541772433661e-05
sg8
F2.407367887503013e-05
ssI20
(dp47
g2
F339.0
sg3
S'<perfectly>'
p48
sg5
F0.0
sg6
F1.0
sg7
F2.3864229849561724e-05
sg8
F2.3862521372344125e-05
ssI21
(dp49
g2
F329.0
sg3
S'<that>'
p50
sg5
F0.0
sg6
F1.0
sg7
F2.3160270266978785e-05
sg8
F2.3158661097468544e-05
ssI22
(dp51
g2
F301.0
sg3
S'<only>'
p52
sg5
F0.0
sg6
F1.0
sg7
F2.1189183435746546e-05
sg8
F2.1187836510289655e-05
ssI23
(dp53
g2
F288.0
sg3
S'<particularly>'
p54
sg5
F0.0
sg6
F1.0
sg7
F2.027403597838872e-05
sg8
F2.02728028854509e-05
ssI24
(dp55
g2
F273.0
sg3
S'<real>'
p56
sg5
F0.0
sg6
F1.0
sg7
F1.921809660451431e-05
sg8
F1.9216988612998824e-05
ssI25
(dp57
g2
F254.0
sg3
S'<a little>'
p58
sg5
F0.0
sg6
F1.0
sg7
F1.788057339760672e-05
sg8
F1.787961426432508e-05
ssI26
(dp59
g2
F247.0
sg3
S'<much>'
p60
sg5
F0.0
sg6
F1.0
sg7
F1.738780168979866e-05
sg8
F1.7386894693369846e-05
ssI27
(dp61
g2
F237.0
sg3
S'<less>'
p62
sg5
F0.0
sg6
F1.0
sg7
F1.668384210721572e-05
sg8
F1.6683007064741173e-05
ssI28
(dp63
g2
F235.0
sg3
S'<therefore>'
p64
sg5
F0.0
sg6
F1.0
sg7
F1.654305019069913e-05
sg8
F1.654222918222498e-05
ssI29
(dp65
g2
F211.0
sg3
S'<even>'
p66
sg5
F0.0
sg6
F1.0
sg7
F1.4853547192500072e-05
sg8
F1.4852885315461651e-05
ssI30
(dp67
g2
F198.0
sg3
S'<clearly>'
p68
sg5
F0.0
sg6
F1.0
sg7
F1.3938399735142247e-05
sg8
F1.3937816903596563e-05
ssI31
(dp69
g2
F194.0
sg3
S'<fully>'
p70
sg5
F0.0
sg6
F1.0
sg7
F1.365681590210907e-05
sg8
F1.3656256381341566e-05
ssI32
(dp71
g2
F181.0
sg3
S'<kind of>'
p72
sg5
F0.0
sg6
F1.0
sg7
F1.2741668444751245e-05
sg8
F1.2741181398544201e-05
ssI33
(dp73
g2
F176.0
sg3
S'<somewhat>'
p74
sg5
F0.0
sg6
F1.0
sg7
F1.2389688653459774e-05
sg8
F1.2389228144108748e-05
ssI34
(dp75
g2
F175.0
sg3
S'<truly>'
p76
sg5
F0.0
sg6
F1.0
sg7
F1.231929269520148e-05
sg8
F1.2318837404023248e-05
ssI35
(dp77
g2
F135.0
sg3
S'<just so>'
p78
sg5
F0.0
sg6
F1.0
sg7
F9.503454364869714e-06
sg8
F9.503183419651726e-06
ssI36
(dp79
g2
F126.0
sg3
S'<any>'
p80
sg5
F0.0
sg6
F1.0
sg7
F8.869890740545067e-06
sg8
F8.86965471705547e-06
ssI37
(dp81
g2
F124.0
sg3
S'<mutually>'
p82
sg5
F0.0
sg6
F1.0
sg7
F8.729098824028478e-06
sg8
F8.72887023385992e-06
ssI38
(dp83
g2
F123.0
sg3
S'<almost>'
p84
sg5
F0.0
sg6
F1.0
sg7
F8.658702865770183e-06
sg8
F8.65847794766257e-06
ssI39
(dp85
g2
F120.0
sg3
S'<entirely>'
p86
sg5
F0.0
sg6
F1.0
sg7
F8.4475149909953e-06
sg8
F8.447300910672382e-06
ssI40
(dp87
g2
F118.0
sg3
S'<fairly>'
p88
sg5
F0.0
sg6
F1.0
sg7
F8.306723074478713e-06
sg8
F8.306516070680378e-06
ssI41
(dp89
g2
F108.0
sg3
S'<widely>'
p90
sg5
F0.0
sg6
F1.0
sg7
F7.602763491895771e-06
sg8
F7.6025900867365355e-06
ssI42
(dp91
g2
F104.0
sg3
S'<environmentally>'
p92
sg5
F0.0
sg6
F1.0
sg7
F7.321179658862594e-06
sg8
F7.321018860632646e-06
ssI43
(dp93
g2
F98.0
sg3
S'<economically>'
p94
sg5
F0.0
sg6
F1.0
sg7
F6.898803909312829e-06
sg8
F6.898661129483352e-06
ssI44
(dp95
g2
F94.0
sg3
S'<generally>'
p96
sg5
F0.0
sg6
F1.0
sg7
F6.6172200762796525e-06
sg8
F6.6170887140545515e-06
ssI45
(dp97
g2
F88.0
sg3
S'<far>'
p98
sg5
F0.0
sg6
F1.0
sg7
F6.194844326729887e-06
sg8
F6.194729198916649e-06
ssI46
(dp99
g2
F88.0
sg3
S'<currently>'
p100
sg5
F0.0
sg6
F1.0
sg7
F6.194844326729887e-06
sg8
F6.194729198916649e-06
ssI47
(dp101
g2
F80.0
sg3
S'<readily>'
p102
sg5
F0.0
sg6
F1.0
sg7
F5.631676660663534e-06
sg8
F5.6315815136747276e-06
ssI48
(dp103
g2
F78.0
sg3
S'<a bit>'
p104
sg5
F0.0
sg6
F1.0
sg7
F5.490884744146946e-06
sg8
F5.490794295032228e-06
ssI49
(dp105
g2
F78.0
sg3
S'<otherwise>'
p106
sg5
F0.0
sg6
F1.0
sg7
F5.490884744146946e-06
sg8
F5.490794295032228e-06
ssI50
(dp107
g2
F78.0
sg3
S'<ever>'
p108
sg5
F0.0
sg6
F1.0
sg7
F5.490884744146946e-06
sg8
F5.490794295032228e-06
ssI51
(dp109
g2
F74.0
sg3
S'<still>'
p110
sg5
F0.0
sg6
F1.0
sg7
F5.209300911113769e-06
sg8
F5.209219500948553e-06
ssI52
(dp111
g2
F74.0
sg3
S'<reasonably>'
p112
sg5
F0.0
sg6
F1.0
sg7
F5.209300911113769e-06
sg8
F5.209219500948553e-06
ssI53
(dp113
g2
F72.0
sg3
S'<potentially>'
p114
sg5
F0.0
sg6
F1.0
sg7
F5.06850899459718e-06
sg8
F5.0684319255073085e-06
ssI54
(dp115
g2
F70.0
sg3
S'<beautiful ,>'
p116
sg5
F0.0
sg6
F1.0
sg7
F4.927717078080592e-06
sg8
F4.927644231133106e-06
ssI55
(dp117
g2
F70.0
sg3
S'<already>'
p118
sg5
F0.0
sg6
F1.0
sg7
F4.927717078080592e-06
sg8
F4.927644231133106e-06
ssI56
(dp119
g2
F70.0
sg3
S'<newly>'
p120
sg5
F0.0
sg6
F1.0
sg7
F4.927717078080592e-06
sg8
F4.927644231133106e-06
ssI57
(dp121
g2
F68.0
sg3
S'<increasingly>'
p122
sg5
F0.0
sg6
F1.0
sg7
F4.786925161564004e-06
sg8
F4.786856417825883e-06
ssI58
(dp123
g2
F67.0
sg3
S'<legally>'
p124
sg5
F0.0
sg6
F1.0
sg7
F4.71652920330571e-06
sg8
F4.7164624665723745e-06
ssI59
(dp125
g2
F65.0
sg3
S'<publicly>'
p126
sg5
F0.0
sg6
F1.0
sg7
F4.575737286789121e-06
sg8
F4.57567447486557e-06
ssI60
(dp127
g2
F64.0
sg3
S'<little>'
p128
sg5
F0.0
sg6
F1.0
sg7
F4.505341328530827e-06
sg8
F4.5052804344122635e-06
ssI61
(dp129
g2
F63.0
sg3
S'<commonly>'
p130
sg5
F0.0
sg6
F1.0
sg7
F4.434945370272533e-06
sg8
F4.4348863642256764e-06
ssI62
(dp131
g2
F60.0
sg3
S'<previously>'
p132
sg5
F0.0
sg6
F1.0
sg7
F4.22375749549765e-06
sg8
F4.22370397526621e-06
ssI63
(dp133
g2
F57.0
sg3
S'<ready to>'
p134
sg5
F0.0
sg6
F1.0
sg7
F4.012569620722768e-06
sg8
F4.012521318707091e-06
ssI64
(dp135
g2
F53.0
sg3
S'<how>'
p136
sg5
F0.0
sg6
F1.0
sg7
F3.7309857876895913e-06
sg8
F3.7309440270286165e-06
ssI65
(dp137
g2
F53.0
sg3
S'<this>'
p138
sg5
F0.0
sg6
F1.0
sg7
F3.7309857876895913e-06
sg8
F3.7309440270286165e-06
ssI66
(dp139
g2
F53.0
sg3
S'<deeply>'
p140
sg5
F0.0
sg6
F1.0
sg7
F3.7309857876895913e-06
sg8
F3.7309440270286165e-06
ssI67
(dp141
g2
F53.0
sg3
S'<sufficiently>'
p142
sg5
F0.0
sg6
F1.0
sg7
F3.7309857876895913e-06
sg8
F3.7309440270286165e-06
ssI68
(dp143
g2
F52.0
sg3
S'<fucking>'
p144
sg5
F0.0
sg6
F1.0
sg7
F3.660589829431297e-06
sg8
F3.660549629775705e-06
ssI69
(dp145
g2
F52.0
sg3
S'<worried about>'
p146
sg5
F0.0
sg6
F1.0
sg7
F3.660589829431297e-06
sg8
F3.660549629775705e-06
ssI70
(dp147
g2
F52.0
sg3
S'<kinda>'
p148
sg5
F0.0
sg6
F1.0
sg7
F3.660589829431297e-06
sg8
F3.660549629775705e-06
ssI71
(dp149
g2
F51.0
sg3
S'<especially>'
p150
sg5
F0.0
sg6
F1.0
sg7
F3.590193871173003e-06
sg8
F3.590155202789461e-06
ssI72
(dp151
g2
F50.0
sg3
S'<incredibly>'
p152
sg5
F0.0
sg6
F1.0
sg7
F3.5197979129147086e-06
sg8
F3.519760746069879e-06
ssI73
(dp153
g2
F49.0
sg3
S'<easily>'
p154
sg5
F0.0
sg6
F1.0
sg7
F3.4494019546564146e-06
sg8
F3.449366259616966e-06
ssI74
(dp155
g2
F45.0
sg3
S'<a lot>'
p156
sg5
F0.0
sg6
F1.0
sg7
F3.167818121623238e-06
sg8
F3.1677880164718606e-06
ssI75
(dp157
g2
F45.0
sg3
S'<patently>'
p158
sg5
F0.0
sg6
F1.0
sg7
F3.167818121623238e-06
sg8
F3.1677880164718606e-06
ssI76
(dp159
g2
F45.0
sg3
S'<broadly>'
p160
sg5
F0.0
sg6
F1.0
sg7
F3.167818121623238e-06
sg8
F3.1677880164718606e-06
ssI77
(dp161
g2
F45.0
sg3
S'<long>'
p162
sg5
F0.0
sg6
F1.0
sg7
F3.167818121623238e-06
sg8
F3.1677880164718606e-06
ssI78
(dp163
g2
F44.0
sg3
S'<about>'
p164
sg5
F0.0
sg6
F1.0
sg7
F3.0974221633649435e-06
sg8
F3.0973933813522037e-06
ssI79
(dp165
g2
F44.0
sg3
S'<awfully>'
p166
sg5
F0.0
sg6
F1.0
sg7
F3.0974221633649435e-06
sg8
F3.0973933813522037e-06
ssI80
(dp167
g2
F43.0
sg3
S'<properly>'
p168
sg5
F0.0
sg6
F1.0
sg7
F3.0270262051066496e-06
sg8
F3.026998716499183e-06
ssI81
(dp169
g2
F43.0
sg3
S'<exceptionally>'
p170
sg5
F0.0
sg6
F1.0
sg7
F3.0270262051066496e-06
sg8
F3.026998716499183e-06
ssI82
(dp171
g2
F43.0
sg3
S'<where>'
p172
sg5
F0.0
sg6
F1.0
sg7
F3.0270262051066496e-06
sg8
F3.026998716499183e-06
ssI83
(dp173
g2
F41.0
sg3
S'<great ,>'
p174
sg5
F0.0
sg6
F1.0
sg7
F2.8862342885900612e-06
sg8
F2.8862092975930393e-06
ssI84
(dp175
g2
F41.0
sg3
S'<terribly>'
p176
sg5
F0.0
sg6
F1.0
sg7
F2.8862342885900612e-06
sg8
F2.8862092975930393e-06
ssI85
(dp177
g2
F41.0
sg3
S'<the>'
p178
sg5
F0.0
sg6
F1.0
sg7
F2.8862342885900612e-06
sg8
F2.8862092975930393e-06
ssI86
(dp179
g2
F41.0
sg3
S'<closely>'
p180
sg5
F0.0
sg6
F1.0
sg7
F2.8862342885900612e-06
sg8
F2.8862092975930393e-06
ssI87
(dp181
g2
F40.0
sg3
S'<no>'
p182
sg5
F0.0
sg6
F1.0
sg7
F2.815838330331767e-06
sg8
F2.8158145435399116e-06
ssI88
(dp183
g2
F40.0
sg3
S'<sorry ,>'
p184
sg5
F0.0
sg6
F1.0
sg7
F2.815838330331767e-06
sg8
F2.8158145435399116e-06
ssI89
(dp185
g2
F40.0
sg3
S'<either>'
p186
sg5
F0.0
sg6
F1.0
sg7
F2.815838330331767e-06
sg8
F2.8158145435399116e-06
ssI90
(dp187
g2
F40.0
sg3
S'<simply>'
p188
sg5
F0.0
sg6
F1.0
sg7
F2.815838330331767e-06
sg8
F2.8158145435399116e-06
ssI91
(dp189
g2
F40.0
sg3
S'<equally>'
p190
sg5
F0.0
sg6
F1.0
sg7
F2.815838330331767e-06
sg8
F2.8158145435399116e-06
ssI92
(dp191
g2
F40.0
sg3
S'<vitally>'
p192
sg5
F0.0
sg6
F1.0
sg7
F2.815838330331767e-06
sg8
F2.8158145435399116e-06
ssI93
(dp193
g2
F39.0
sg3
S'<abundantly>'
p194
sg5
F0.0
sg6
F1.0
sg7
F2.745442372073473e-06
sg8
F2.7454197597534043e-06
ssI94
(dp195
g2
F39.0
sg3
S'<physically>'
p196
sg5
F0.0
sg6
F1.0
sg7
F2.745442372073473e-06
sg8
F2.7454197597534043e-06
ssI95
(dp197
g2
F39.0
sg3
S'<financially>'
p198
sg5
F0.0
sg6
F1.0
sg7
F2.745442372073473e-06
sg8
F2.7454197597534043e-06
ssI96
(dp199
g2
F37.0
sg3
S'<least>'
p200
sg5
F0.0
sg6
F1.0
sg7
F2.6046504555568845e-06
sg8
F2.6046301029802375e-06
ssI97
(dp201
g2
F36.0
sg3
S'<extraordinarily>'
p202
sg5
F0.0
sg6
F1.0
sg7
F2.53425449729859e-06
sg8
F2.5342352299935726e-06
ssI98
(dp203
g2
F35.0
sg3
S'<single>'
p204
sg5
F0.0
sg6
F1.0
sg7
F2.463858539040296e-06
sg8
F2.463840327273509e-06
ssI99
(dp205
g2
F35.0
sg3
S'<cost>'
p206
sg5
F0.0
sg6
F1.0
sg7
F2.463858539040296e-06
sg8
F2.463840327273509e-06
ssI100
(dp207
g2
F35.0
sg3
S'<honest with>'
p208
sg5
F0.0
sg6
F1.0
sg7
F2.463858539040296e-06
sg8
F2.463840327273509e-06
ssI101
(dp209
g2
F34.0
sg3
S'<enormously>'
p210
sg5
F0.0
sg6
F1.0
sg7
F2.393462580782002e-06
sg8
F2.3934453948200473e-06
ssI102
(dp211
g2
F34.0
sg3
S'<significantly>'
p212
sg5
F0.0
sg6
F1.0
sg7
F2.393462580782002e-06
sg8
F2.3934453948200473e-06
ssI103
(dp213
g2
F34.0
sg3
S'<open to>'
p214
sg5
F0.0
sg6
F1.0
sg7
F2.393462580782002e-06
sg8
F2.3934453948200473e-06
ssI104
(dp215
g2
F34.0
sg3
S'<so very>'
p216
sg5
F0.0
sg6
F1.0
sg7
F2.393462580782002e-06
sg8
F2.3934453948200473e-06
ssI105
(dp217
g2
F34.0
sg3
S'<above>'
p218
sg5
F0.0
sg6
F1.0
sg7
F2.393462580782002e-06
sg8
F2.3934453948200473e-06
ssI106
(dp219
g2
F33.0
sg3
S'<yet>'
p220
sg5
F0.0
sg6
F1.0
sg7
F2.323066622523708e-06
sg8
F2.3230504326331834e-06
ssI107
(dp221
g2
F33.0
sg3
S'<something>'
p222
sg5
F0.0
sg6
F1.0
sg7
F2.323066622523708e-06
sg8
F2.3230504326331834e-06
ssI108
(dp223
g2
F32.0
sg3
S'<slightly>'
p224
sg5
F0.0
sg6
F1.0
sg7
F2.2526706642654135e-06
sg8
F2.252655440712912e-06
ssI109
(dp225
g2
F31.0
sg3
S'<urgently>'
p226
sg5
F0.0
sg6
F1.0
sg7
F2.1822747060071195e-06
sg8
F2.182260419059226e-06
ssI110
(dp227
g2
F31.0
sg3
S'<fair>'
p228
sg5
F0.0
sg6
F1.0
sg7
F2.1822747060071195e-06
sg8
F2.182260419059226e-06
ssI111
(dp229
g2
F30.0
sg3
S'<right>'
p230
sg5
F0.0
sg6
F1.0
sg7
F2.111878747748825e-06
sg8
F2.111865367672128e-06
ssI112
(dp231
g2
F30.0
sg3
S'<right ,>'
p232
sg5
F0.0
sg6
F1.0
sg7
F2.111878747748825e-06
sg8
F2.111865367672128e-06
ssI113
(dp233
g2
F30.0
sg3
S'<exactly>'
p234
sg5
F0.0
sg6
F1.0
sg7
F2.111878747748825e-06
sg8
F2.111865367672128e-06
ssI114
(dp235
g2
F29.0
sg3
S'<best>'
p236
sg5
F0.0
sg6
F1.0
sg7
F2.041482789490531e-06
sg8
F2.041470286551609e-06
ssI115
(dp237
g2
F28.0
sg3
S'<here>'
p238
sg5
F0.0
sg6
F1.0
sg7
F1.971086831232237e-06
sg8
F1.9710751756976654e-06
ssI116
(dp239
g2
F28.0
sg3
S'<crazy>'
p240
sg5
F0.0
sg6
F1.0
sg7
F1.971086831232237e-06
sg8
F1.9710751756976654e-06
ssI117
(dp241
g2
F28.0
sg3
S'<frequently>'
p242
sg5
F0.0
sg6
F1.0
sg7
F1.971086831232237e-06
sg8
F1.9710751756976654e-06
ssI118
(dp243
g2
F28.0
sg3
S'<mentally>'
p244
sg5
F0.0
sg6
F1.0
sg7
F1.971086831232237e-06
sg8
F1.9710751756976654e-06
ssI119
(dp245
g2
F28.0
sg3
S'<practically>'
p246
sg5
F0.0
sg6
F1.0
sg7
F1.971086831232237e-06
sg8
F1.9710751756976654e-06
ssI120
(dp247
g2
F28.0
sg3
S'<afraid of>'
p248
sg5
F0.0
sg6
F1.0
sg7
F1.971086831232237e-06
sg8
F1.9710751756976654e-06
ssI121
(dp249
g2
F27.0
sg3
S'<unacceptably>'
p250
sg5
F0.0
sg6
F1.0
sg7
F1.9006908729739428e-06
sg8
F1.9006800351102909e-06
ssI122
(dp251
g2
F27.0
sg3
S'<virtually>'
p252
sg5
F0.0
sg6
F1.0
sg7
F1.9006908729739428e-06
sg8
F1.9006800351102909e-06
ssI123
(dp253
g2
F27.0
sg3
S'<utterly>'
p254
sg5
F0.0
sg6
F1.0
sg7
F1.9006908729739428e-06
sg8
F1.9006800351102909e-06
ssI124
(dp255
g2
F27.0
sg3
S'<now>'
p256
sg5
F0.0
sg6
F1.0
sg7
F1.9006908729739428e-06
sg8
F1.9006800351102909e-06
ssI125
(dp257
g2
F26.0
sg3
S'<commercially>'
p258
sg5
F0.0
sg6
F1.0
sg7
F1.8302949147156484e-06
sg8
F1.8302848647894868e-06
ssI126
(dp259
g2
F26.0
sg3
S'<critically>'
p260
sg5
F0.0
sg6
F1.0
sg7
F1.8302949147156484e-06
sg8
F1.8302848647894868e-06
ssI127
(dp261
g2
F25.0
sg3
S'<good>'
p262
sg5
F0.0
sg6
F1.0
sg7
F1.7598989564573543e-06
sg8
F1.7598896647352441e-06
ssI128
(dp263
g2
F25.0
sg3
S'<alarmingly>'
p264
sg5
F0.0
sg6
F1.0
sg7
F1.7598989564573543e-06
sg8
F1.7598896647352441e-06
ssI129
(dp265
g2
F25.0
sg3
S'<often>'
p266
sg5
F0.0
sg6
F1.0
sg7
F1.7598989564573543e-06
sg8
F1.7598896647352441e-06
ssI130
(dp267
g2
F24.0
sg3
S'<bloody>'
p268
sg5
F0.0
sg6
F1.0
sg7
F1.68950299819906e-06
sg8
F1.6894944349475622e-06
ssI131
(dp269
g2
F24.0
sg3
S'<close>'
p270
sg5
F0.0
sg6
F1.0
sg7
F1.68950299819906e-06
sg8
F1.6894944349475622e-06
ssI132
(dp271
g2
F24.0
sg3
S'<strictly>'
p272
sg5
F0.0
sg6
F1.0
sg7
F1.68950299819906e-06
sg8
F1.6894944349475622e-06
ssI133
(dp273
g2
F24.0
sg3
S'<further>'
p274
sg5
F0.0
sg6
F1.0
sg7
F1.68950299819906e-06
sg8
F1.6894944349475622e-06
ssI134
(dp275
g2
F24.0
sg3
S'<hardly>'
p276
sg5
F0.0
sg6
F1.0
sg7
F1.68950299819906e-06
sg8
F1.6894944349475622e-06
ssI135
(dp277
g2
F23.0
sg3
S'<self>'
p278
sg5
F0.0
sg6
F1.0
sg7
F1.619107039940766e-06
sg8
F1.6190991754264338e-06
ssI136
(dp279
g2
F23.0
sg3
S'<rarely>'
p280
sg5
F0.0
sg6
F1.0
sg7
F1.619107039940766e-06
sg8
F1.6190991754264338e-06
ssI137
(dp281
g2
F23.0
sg3
S'<recently>'
p282
sg5
F0.0
sg6
F1.0
sg7
F1.619107039940766e-06
sg8
F1.6190991754264338e-06
ssI138
(dp283
g2
F23.0
sg3
S'<greatest>'
p284
sg5
F0.0
sg6
F1.0
sg7
F1.619107039940766e-06
sg8
F1.6190991754264338e-06
ssI139
(dp285
g2
F23.0
sg3
S'<ecologically>'
p286
sg5
F0.0
sg6
F1.0
sg7
F1.619107039940766e-06
sg8
F1.6190991754264338e-06
ssI140
(dp287
g2
F23.0
sg3
S'<directly>'
p288
sg5
F0.0
sg6
F1.0
sg7
F1.619107039940766e-06
sg8
F1.6190991754264338e-06
ssI141
(dp289
g2
F22.0
sg3
S'<internationally>'
p290
sg5
F0.0
sg6
F1.0
sg7
F1.5487110816824718e-06
sg8
F1.548703886171858e-06
ssI142
(dp291
g2
F22.0
sg3
S'<much more>'
p292
sg5
F0.0
sg6
F1.0
sg7
F1.5487110816824718e-06
sg8
F1.548703886171858e-06
ssI143
(dp293
g2
F22.0
sg3
S'<nearly>'
p294
sg5
F0.0
sg6
F1.0
sg7
F1.5487110816824718e-06
sg8
F1.548703886171858e-06
ssI144
(dp295
g2
F22.0
sg3
S'<nice>'
p296
sg5
F0.0
sg6
F1.0
sg7
F1.5487110816824718e-06
sg8
F1.548703886171858e-06
ssI145
(dp297
g2
F22.0
sg3
S'<mighty>'
p298
sg5
F0.0
sg6
F1.0
sg7
F1.5487110816824718e-06
sg8
F1.548703886171858e-06
ssI146
(dp299
g2
F22.0
sg3
S'<fine ,>'
p300
sg5
F0.0
sg6
F1.0
sg7
F1.5487110816824718e-06
sg8
F1.548703886171858e-06
ssI147
(dp301
g2
F22.0
sg3
S'<socially>'
p302
sg5
F0.0
sg6
F1.0
sg7
F1.5487110816824718e-06
sg8
F1.548703886171858e-06
ssI148
(dp303
g2
F21.0
sg3
S'<half>'
p304
sg5
F0.0
sg6
F1.0
sg7
F1.4783151234241776e-06
sg8
F1.4783085671838258e-06
ssI149
(dp305
g2
F21.0
sg3
S'<available for>'
p306
sg5
F0.0
sg6
F1.0
sg7
F1.4783151234241776e-06
sg8
F1.4783085671838258e-06
ssI150
(dp307
g2
F21.0
sg3
S'<crucially>'
p308
sg5
F0.0
sg6
F1.0
sg7
F1.4783151234241776e-06
sg8
F1.4783085671838258e-06
ssI151
(dp309
g2
F21.0
sg3
S'<even more>'
p310
sg5
F0.0
sg6
F1.0
sg7
F1.4783151234241776e-06
sg8
F1.4783085671838258e-06
ssI152
(dp311
g2
F21.0
sg3
S'<wonderful ,>'
p312
sg5
F0.0
sg6
F1.0
sg7
F1.4783151234241776e-06
sg8
F1.4783085671838258e-06
ssI153
(dp313
g2
F20.0
sg3
S'<lot>'
p314
sg5
F0.0
sg6
F1.0
sg7
F1.4079191651658834e-06
sg8
F1.4079132184623385e-06
ssI154
(dp315
g2
F20.0
sg3
S'<easy>'
p316
sg5
F0.0
sg6
F1.0
sg7
F1.4079191651658834e-06
sg8
F1.4079132184623385e-06
ssI155
(dp317
g2
F20.0
sg3
S'<such>'
p318
sg5
F0.0
sg6
F1.0
sg7
F1.4079191651658834e-06
sg8
F1.4079132184623385e-06
ssI156
(dp319
g2
F20.0
sg3
S'<better>'
p320
sg5
F0.0
sg6
F1.0
sg7
F1.4079191651658834e-06
sg8
F1.4079132184623385e-06
ssI157
(dp321
g2
F20.0
sg3
S'<dead>'
p322
sg5
F0.0
sg6
F1.0
sg7
F1.4079191651658834e-06
sg8
F1.4079132184623385e-06
ssI158
(dp323
g2
F19.0
sg3
S'<nice to>'
p324
sg5
F0.0
sg6
F1.0
sg7
F1.3375232069075892e-06
sg8
F1.3375178400073883e-06
ssI159
(dp325
g2
F19.0
sg3
S'<hereby>'
p326
sg5
F0.0
sg6
F1.0
sg7
F1.3375232069075892e-06
sg8
F1.3375178400073883e-06
ssI160
(dp327
g2
F19.0
sg3
S'<many>'
p328
sg5
F0.0
sg6
F1.0
sg7
F1.3375232069075892e-06
sg8
F1.3375178400073883e-06
ssI161
(dp329
g2
F19.0
sg3
S'<overly>'
p330
sg5
F0.0
sg6
F1.0
sg7
F1.3375232069075892e-06
sg8
F1.3375178400073883e-06
ssI162
(dp331
g2
F19.0
sg3
S'<naturally>'
p332
sg5
F0.0
sg6
F1.0
sg7
F1.3375232069075892e-06
sg8
F1.3375178400073883e-06
ssI163
(dp333
g2
F19.0
sg3
S'<all that>'
p334
sg5
F0.0
sg6
F1.0
sg7
F1.3375232069075892e-06
sg8
F1.3375178400073883e-06
ssI164
(dp335
g2
F19.0
sg3
S'<specially>'
p336
sg5
F0.0
sg6
F1.0
sg7
F1.3375232069075892e-06
sg8
F1.3375178400073883e-06
ssI165
(dp337
g2
F18.0
sg3
S'<greater>'
p338
sg5
F0.0
sg6
F1.0
sg7
F1.267127248649295e-06
sg8
F1.2671224318189712e-06
ssI166
(dp339
g2
F18.0
sg3
S'<comparatively>'
p340
sg5
F0.0
sg6
F1.0
sg7
F1.267127248649295e-06
sg8
F1.2671224318189712e-06
ssI167
(dp341
g2
F18.0
sg3
S'<duly>'
p342
sg5
F0.0
sg6
F1.0
sg7
F1.267127248649295e-06
sg8
F1.2671224318189712e-06
ssI168
(dp343
g2
F18.0
sg3
S'<immediately>'
p344
sg5
F0.0
sg6
F1.0
sg7
F1.267127248649295e-06
sg8
F1.2671224318189712e-06
ssI169
(dp345
g2
F18.0
sg3
S'<so fucking>'
p346
sg5
F0.0
sg6
F1.0
sg7
F1.267127248649295e-06
sg8
F1.2671224318189712e-06
ssI170
(dp347
g2
F17.0
sg3
S'<high>'
p348
sg5
F0.0
sg6
F1.0
sg7
F1.196731290391001e-06
sg8
F1.1967269938970844e-06
ssI171
(dp349
g2
F17.0
sg3
S'<other>'
p350
sg5
F0.0
sg6
F1.0
sg7
F1.196731290391001e-06
sg8
F1.1967269938970844e-06
ssI172
(dp351
g2
F17.0
sg3
S'<actively>'
p352
sg5
F0.0
sg6
F1.0
sg7
F1.196731290391001e-06
sg8
F1.1967269938970844e-06
ssI173
(dp353
g2
F17.0
sg3
S'<crystal>'
p354
sg5
F0.0
sg6
F1.0
sg7
F1.196731290391001e-06
sg8
F1.1967269938970844e-06
ssI174
(dp355
g2
F17.0
sg3
S'<simple>'
p356
sg5
F0.0
sg6
F1.0
sg7
F1.196731290391001e-06
sg8
F1.1967269938970844e-06
ssI175
(dp357
g2
F17.0
sg3
S'<constantly>'
p358
sg5
F0.0
sg6
F1.0
sg7
F1.196731290391001e-06
sg8
F1.1967269938970844e-06
ssI176
(dp359
g2
F16.0
sg3
S'<nothing>'
p360
sg5
F0.0
sg6
F1.0
sg7
F1.1263353321327067e-06
sg8
F1.1263315262417236e-06
ssI177
(dp361
g2
F16.0
sg3
S'<and>'
p362
sg5
F0.0
sg6
F1.0
sg7
F1.1263353321327067e-06
sg8
F1.1263315262417236e-06
ssI178
(dp363
g2
F16.0
sg3
S'<one>'
p364
sg5
F0.0
sg6
F1.0
sg7
F1.1263353321327067e-06
sg8
F1.1263315262417236e-06
ssI179
(dp365
g2
F16.0
sg3
S'<second>'
p366
sg5
F0.0
sg6
F1.0
sg7
F1.1263353321327067e-06
sg8
F1.1263315262417236e-06
ssI180
(dp367
g2
F16.0
sg3
S'<hard>'
p368
sg5
F0.0
sg6
F1.0
sg7
F1.1263353321327067e-06
sg8
F1.1263315262417236e-06
ssI181
(dp369
g2
F16.0
sg3
S'<possible>'
p370
sg5
F0.0
sg6
F1.0
sg7
F1.1263353321327067e-06
sg8
F1.1263315262417236e-06
ssI182
(dp371
g2
F15.0
sg3
S'<geographically>'
p372
sg5
F0.0
sg6
F1.0
sg7
F1.0559393738744126e-06
sg8
F1.0559360288528836e-06
ssI183
(dp373
g2
F15.0
sg3
S'<damn>'
p374
sg5
F0.0
sg6
F1.0
sg7
F1.0559393738744126e-06
sg8
F1.0559360288528836e-06
ssI184
(dp375
g2
F15.0
sg3
S'<somewhere>'
p376
sg5
F0.0
sg6
F1.0
sg7
F1.0559393738744126e-06
sg8
F1.0559360288528836e-06
ssI185
(dp377
g2
F15.0
sg3
S'<fundamentally>'
p378
sg5
F0.0
sg6
F1.0
sg7
F1.0559393738744126e-06
sg8
F1.0559360288528836e-06
ssI186
(dp379
g2
F15.0
sg3
S'<excessively>'
p380
sg5
F0.0
sg6
F1.0
sg7
F1.0559393738744126e-06
sg8
F1.0559360288528836e-06
ssI187
(dp381
g2
F15.0
sg3
S'<gonna>'
p382
sg5
F0.0
sg6
F1.0
sg7
F1.0559393738744126e-06
sg8
F1.0559360288528836e-06
ssI188
(dp383
g2
F15.0
sg3
S'<internally>'
p384
sg5
F0.0
sg6
F1.0
sg7
F1.0559393738744126e-06
sg8
F1.0559360288528836e-06
ssI189
(dp385
g2
F15.0
sg3
S'<goddamn>'
p386
sg5
F0.0
sg6
F1.0
sg7
F1.0559393738744126e-06
sg8
F1.0559360288528836e-06
ssI190
(dp387
g2
F14.0
sg3
S'<wholly>'
p388
sg5
F0.0
sg6
F1.0
sg7
F9.855434156161184e-07
sg8
F9.855405017305606e-07
ssI191
(dp389
g2
F14.0
sg3
S'<strong>'
p390
sg5
F0.0
sg6
F1.0
sg7
F9.855434156161184e-07
sg8
F9.855405017305606e-07
ssI192
(dp391
g2
F14.0
sg3
S'<considerably>'
p392
sg5
F0.0
sg6
F1.0
sg7
F9.855434156161184e-07
sg8
F9.855405017305606e-07
ssI193
(dp393
g2
F14.0
sg3
S'<sounds>'
p394
sg5
F0.0
sg6
F1.0
sg7
F9.855434156161184e-07
sg8
F9.855405017305606e-07
ssI194
(dp395
g2
F14.0
sg3
S'<medically>'
p396
sg5
F0.0
sg6
F1.0
sg7
F9.855434156161184e-07
sg8
F9.855405017305606e-07
ssI195
(dp397
g2
F14.0
sg3
S'<seriously>'
p398
sg5
F0.0
sg6
F1.0
sg7
F9.855434156161184e-07
sg8
F9.855405017305606e-07
ssI196
(dp399
g2
F14.0
sg3
S'<broadest>'
p400
sg5
F0.0
sg6
F1.0
sg7
F9.855434156161184e-07
sg8
F9.855405017305606e-07
ssI197
(dp401
g2
F14.0
sg3
S'<strongly>'
p402
sg5
F0.0
sg6
F1.0
sg7
F9.855434156161184e-07
sg8
F9.855405017305606e-07
ssI198
(dp403
g2
F14.0
sg3
S'<higher>'
p404
sg5
F0.0
sg6
F1.0
sg7
F9.855434156161184e-07
sg8
F9.855405017305606e-07
ssI199
(dp405
g2
F14.0
sg3
S'<quick>'
p406
sg5
F0.0
sg6
F1.0
sg7
F9.855434156161184e-07
sg8
F9.855405017305606e-07
ssI200
(dp407
g2
F14.0
sg3
S'<manifestly>'
p408
sg5
F0.0
sg6
F1.0
sg7
F9.855434156161184e-07
sg8
F9.855405017305606e-07
ssI201
(dp409
g2
F13.0
sg3
S'<substantially>'
p410
sg5
F0.0
sg6
F1.0
sg7
F9.151474573578242e-07
sg8
F9.151449448747507e-07
ssI202
(dp411
g2
F13.0
sg3
S'<excellent ,>'
p412
sg5
F0.0
sg6
F1.0
sg7
F9.151474573578242e-07
sg8
F9.151449448747507e-07
ssI203
(dp413
g2
F13.0
sg3
S'<appropriately>'
p414
sg5
F0.0
sg6
F1.0
sg7
F9.151474573578242e-07
sg8
F9.151449448747507e-07
ssI204
(dp415
g2
F13.0
sg3
S'<specifically>'
p416
sg5
F0.0
sg6
F1.0
sg7
F9.151474573578242e-07
sg8
F9.151449448747507e-07
ssI205
(dp417
g2
F13.0
sg3
S'<close to being>'
p418
sg5
F0.0
sg6
F1.0
sg7
F9.151474573578242e-07
sg8
F9.151449448747507e-07
ssI206
(dp419
g2
F13.0
sg3
S'<great>'
p420
sg5
F0.0
sg6
F1.0
sg7
F9.151474573578242e-07
sg8
F9.151449448747507e-07
ssI207
(dp421
g2
F13.0
sg3
S'<nevertheless>'
p422
sg5
F0.0
sg6
F1.0
sg7
F9.151474573578242e-07
sg8
F9.151449448747507e-07
ssI208
(dp423
g2
F13.0
sg3
S'<widest>'
p424
sg5
F0.0
sg6
F1.0
sg7
F9.151474573578242e-07
sg8
F9.151449448747507e-07
ssI209
(dp425
g2
F13.0
sg3
S'<all the more>'
p426
sg5
F0.0
sg6
F1.0
sg7
F9.151474573578242e-07
sg8
F9.151449448747507e-07
ssI210
(dp427
g2
F13.0
sg3
S'<officially>'
p428
sg5
F0.0
sg6
F1.0
sg7
F9.151474573578242e-07
sg8
F9.151449448747507e-07
ssI211
(dp429
g2
F13.0
sg3
S'<remarkably>'
p430
sg5
F0.0
sg6
F1.0
sg7
F9.151474573578242e-07
sg8
F9.151449448747507e-07
ssI212
(dp431
g2
F13.0
sg3
S'<very well>'
p432
sg5
F0.0
sg6
F1.0
sg7
F9.151474573578242e-07
sg8
F9.151449448747507e-07
ssI213
(dp433
g2
F13.0
sg3
S'<plain>'
p434
sg5
F0.0
sg6
F1.0
sg7
F9.151474573578242e-07
sg8
F9.151449448747507e-07
ssI214
(dp435
g2
F13.0
sg3
S'<north>'
p436
sg5
F0.0
sg6
F1.0
sg7
F9.151474573578242e-07
sg8
F9.151449448747507e-07
ssI215
(dp437
g2
F13.0
sg3
S'<regularly>'
p438
sg5
F0.0
sg6
F1.0
sg7
F9.151474573578242e-07
sg8
F9.151449448747507e-07
ssI216
(dp439
g2
F13.0
sg3
S'<large>'
p440
sg5
F0.0
sg6
F1.0
sg7
F9.151474573578242e-07
sg8
F9.151449448747507e-07
ssI217
(dp441
g2
F12.0
sg3
S'<politically>'
p442
sg5
F0.0
sg6
F1.0
sg7
F8.4475149909953e-07
sg8
F8.447493582854501e-07
ssI218
(dp443
g2
F12.0
sg3
S'<technically>'
p444
sg5
F0.0
sg6
F1.0
sg7
F8.4475149909953e-07
sg8
F8.447493582854501e-07
ssI219
(dp445
g2
F12.0
sg3
S'<carefully>'
p446
sg5
F0.0
sg6
F1.0
sg7
F8.4475149909953e-07
sg8
F8.447493582854501e-07
ssI220
(dp447
g2
F12.0
sg3
S'<less than>'
p448
sg5
F0.0
sg6
F1.0
sg7
F8.4475149909953e-07
sg8
F8.447493582854501e-07
ssI221
(dp449
g2
F12.0
sg3
S'<wide>'
p450
sg5
F0.0
sg6
F1.0
sg7
F8.4475149909953e-07
sg8
F8.447493582854501e-07
ssI222
(dp451
g2
F12.0
sg3
S"<fuckin '>"
p452
sg5
F0.0
sg6
F1.0
sg7
F8.4475149909953e-07
sg8
F8.447493582854501e-07
ssI223
(dp453
g2
F12.0
sg3
S'<a great>'
p454
sg5
F0.0
sg6
F1.0
sg7
F8.4475149909953e-07
sg8
F8.447493582854501e-07
ssI224
(dp455
g2
F12.0
sg3
S'<surely>'
p456
sg5
F0.0
sg6
F1.0
sg7
F8.4475149909953e-07
sg8
F8.447493582854501e-07
ssI225
(dp457
g2
F12.0
sg3
S'<also>'
p458
sg5
F0.0
sg6
F1.0
sg7
F8.4475149909953e-07
sg8
F8.447493582854501e-07
ssI226
(dp459
g2
F12.0
sg3
S'<scared>'
p460
sg5
F0.0
sg6
F1.0
sg7
F8.4475149909953e-07
sg8
F8.447493582854501e-07
ssI227
(dp461
g2
F12.0
sg3
S'<culturally>'
p462
sg5
F0.0
sg6
F1.0
sg7
F8.4475149909953e-07
sg8
F8.447493582854501e-07
ssI228
(dp463
g2
F11.0
sg3
S'<highest>'
p464
sg5
F0.0
sg6
F1.0
sg7
F7.743555408412359e-07
sg8
F7.743537419626536e-07
ssI229
(dp465
g2
F11.0
sg3
S'<at all>'
p466
sg5
F0.0
sg6
F1.0
sg7
F7.743555408412359e-07
sg8
F7.743537419626536e-07
ssI230
(dp467
g2
F11.0
sg3
S'<emotionally>'
p468
sg5
F0.0
sg6
F1.0
sg7
F7.743555408412359e-07
sg8
F7.743537419626536e-07
ssI231
(dp469
g2
F11.0
sg3
S'<fast>'
p470
sg5
F0.0
sg6
F1.0
sg7
F7.743555408412359e-07
sg8
F7.743537419626536e-07
ssI232
(dp471
g2
F11.0
sg3
S'<several>'
p472
sg5
F0.0
sg6
F1.0
sg7
F7.743555408412359e-07
sg8
F7.743537419626536e-07
ssI233
(dp473
g2
F11.0
sg3
S'<responsible>'
p474
sg5
F0.0
sg6
F1.0
sg7
F7.743555408412359e-07
sg8
F7.743537419626536e-07
ssI234
(dp475
g2
F11.0
sg3
S'<operationally>'
p476
sg5
F0.0
sg6
F1.0
sg7
F7.743555408412359e-07
sg8
F7.743537419626536e-07
ssI235
(dp477
g2
F11.0
sg3
S'<anywhere>'
p478
sg5
F0.0
sg6
F1.0
sg7
F7.743555408412359e-07
sg8
F7.743537419626536e-07
ssI236
(dp479
g2
F11.0
sg3
S'<just as>'
p480
sg5
F0.0
sg6
F1.0
sg7
F7.743555408412359e-07
sg8
F7.743537419626536e-07
ssI237
(dp481
g2
F11.0
sg3
S'<so much>'
p482
sg5
F0.0
sg6
F1.0
sg7
F7.743555408412359e-07
sg8
F7.743537419626536e-07
ssI238
(dp483
g2
F11.0
sg3
S'<heavily>'
p484
sg5
F0.0
sg6
F1.0
sg7
F7.743555408412359e-07
sg8
F7.743537419626536e-07
ssI239
(dp485
g2
F11.0
sg3
S'<guys>'
p486
sg5
F0.0
sg6
F1.0
sg7
F7.743555408412359e-07
sg8
F7.743537419626536e-07
ssI240
(dp487
g2
F11.0
sg3
S'<east>'
p488
sg5
F0.0
sg6
F1.0
sg7
F7.743555408412359e-07
sg8
F7.743537419626536e-07
ssI241
(dp489
g2
F11.0
sg3
S'<universally>'
p490
sg5
F0.0
sg6
F1.0
sg7
F7.743555408412359e-07
sg8
F7.743537419626536e-07
ssI242
(dp491
g2
F11.0
sg3
S'<south>'
p492
sg5
F0.0
sg6
F1.0
sg7
F7.743555408412359e-07
sg8
F7.743537419626536e-07
ssI243
(dp493
g2
F11.0
sg3
S'<glaringly>'
p494
sg5
F0.0
sg6
F1.0
sg7
F7.743555408412359e-07
sg8
F7.743537419626536e-07
ssI244
(dp495
g2
F10.0
sg3
S'<tremendously>'
p496
sg5
F0.0
sg6
F1.0
sg7
F7.039595825829417e-07
sg8
F7.039580959063575e-07
ssI245
(dp497
g2
F10.0
sg3
S'<as beautiful as>'
p498
sg5
F0.0
sg6
F1.0
sg7
F7.039595825829417e-07
sg8
F7.039580959063575e-07
ssI246
(dp499
g2
F10.0
sg3
S'<definitely>'
p500
sg5
F0.0
sg6
F1.0
sg7
F7.039595825829417e-07
sg8
F7.039580959063575e-07
ssI247
(dp501
g2
F10.0
sg3
S'<effective ,>'
p502
sg5
F0.0
sg6
F1.0
sg7
F7.039595825829417e-07
sg8
F7.039580959063575e-07
ssI248
(dp503
g2
F10.0
sg3
S'<disproportionately>'
p504
sg5
F0.0
sg6
F1.0
sg7
F7.039595825829417e-07
sg8
F7.039580959063575e-07
ssI249
(dp505
g2
F10.0
sg3
S'<largely>'
p506
sg5
F0.0
sg6
F1.0
sg7
F7.039595825829417e-07
sg8
F7.039580959063575e-07
ssI250
(dp507
g2
F10.0
sg3
S'<first>'
p508
sg5
F0.0
sg6
F1.0
sg7
F7.039595825829417e-07
sg8
F7.039580959063575e-07
ssI251
(dp509
g2
F10.0
sg3
S'<then>'
p510
sg5
F0.0
sg6
F1.0
sg7
F7.039595825829417e-07
sg8
F7.039580959063575e-07
ssI252
(dp511
g2
F10.0
sg3
S'<longer>'
p512
sg5
F0.0
sg6
F1.0
sg7
F7.039595825829417e-07
sg8
F7.039580959063575e-07
ssI253
(dp513
g2
F10.0
sg3
S'<fantastic ,>'
p514
sg5
F0.0
sg6
F1.0
sg7
F7.039595825829417e-07
sg8
F7.039580959063575e-07
ssI254
(dp515
g2
F10.0
sg3
S'<poorly>'
p516
sg5
F0.0
sg6
F1.0
sg7
F7.039595825829417e-07
sg8
F7.039580959063575e-07
ssI255
(dp517
g2
F10.0
sg3
S'<adversely>'
p518
sg5
F0.0
sg6
F1.0
sg7
F7.039595825829417e-07
sg8
F7.039580959063575e-07
ssI256
(dp519
g2
F10.0
sg3
S'<clean ,>'
p520
sg5
F0.0
sg6
F1.0
sg7
F7.039595825829417e-07
sg8
F7.039580959063575e-07
ssI257
(dp521
g2
F9.0
sg3
S'<intensely>'
p522
sg5
F0.0
sg6
F1.0
sg7
F6.335636243246475e-07
sg8
F6.335624201165582e-07
ssI258
(dp523
g2
F9.0
sg3
S'<bad>'
p524
sg5
F0.0
sg6
F1.0
sg7
F6.335636243246475e-07
sg8
F6.335624201165582e-07
ssI259
(dp525
g2
F9.0
sg3
S'<important>'
p526
sg5
F0.0
sg6
F1.0
sg7
F6.335636243246475e-07
sg8
F6.335624201165582e-07
ssI260
(dp527
g2
F9.0
sg3
S'<ready to go>'
p528
sg5
F0.0
sg6
F1.0
sg7
F6.335636243246475e-07
sg8
F6.335624201165582e-07
ssI261
(dp529
g2
F9.0
sg3
S'<good ,>'
p530
sg5
F0.0
sg6
F1.0
sg7
F6.335636243246475e-07
sg8
F6.335624201165582e-07
ssI262
(dp531
g2
F9.0
sg3
S'<disgusting ,>'
p532
sg5
F0.0
sg6
F1.0
sg7
F6.335636243246475e-07
sg8
F6.335624201165582e-07
ssI263
(dp533
g2
F9.0
sg3
S'<purely>'
p534
sg5
F0.0
sg6
F1.0
sg7
F6.335636243246475e-07
sg8
F6.335624201165582e-07
ssI264
(dp535
g2
F9.0
sg3
S'<nonetheless>'
p536
sg5
F0.0
sg6
F1.0
sg7
F6.335636243246475e-07
sg8
F6.335624201165582e-07
ssI265
(dp537
g2
F9.0
sg3
S'<bit>'
p538
sg5
F0.0
sg6
F1.0
sg7
F6.335636243246475e-07
sg8
F6.335624201165582e-07
ssI266
(dp539
g2
F9.0
sg3
S'<firmly>'
p540
sg5
F0.0
sg6
F1.0
sg7
F6.335636243246475e-07
sg8
F6.335624201165582e-07
ssI267
(dp541
g2
F9.0
sg3
S'<insanely>'
p542
sg5
F0.0
sg6
F1.0
sg7
F6.335636243246475e-07
sg8
F6.335624201165582e-07
ssI268
(dp543
g2
F8.0
sg3
S'<user>'
p544
sg5
F0.0
sg6
F1.0
sg7
F5.631676660663534e-07
sg8
F5.631667145932505e-07
ssI269
(dp545
g2
F8.0
sg3
S'<freely>'
p546
sg5
F0.0
sg6
F1.0
sg7
F5.631676660663534e-07
sg8
F5.631667145932505e-07
ssI270
(dp547
g2
F8.0
sg3
S'<allegedly>'
p548
sg5
F0.0
sg6
F1.0
sg7
F5.631676660663534e-07
sg8
F5.631667145932505e-07
ssI271
(dp549
g2
F8.0
sg3
S'<merely>'
p550
sg5
F0.0
sg6
F1.0
sg7
F5.631676660663534e-07
sg8
F5.631667145932505e-07
ssI272
(dp551
g2
F8.0
sg3
S'<as simple as>'
p552
sg5
F0.0
sg6
F1.0
sg7
F5.631676660663534e-07
sg8
F5.631667145932505e-07
ssI273
(dp553
g2
F8.0
sg3
S'<jointly>'
p554
sg5
F0.0
sg6
F1.0
sg7
F5.631676660663534e-07
sg8
F5.631667145932505e-07
ssI274
(dp555
g2
F8.0
sg3
S'<formally>'
p556
sg5
F0.0
sg6
F1.0
sg7
F5.631676660663534e-07
sg8
F5.631667145932505e-07
ssI275
(dp557
g2
F8.0
sg3
S'<tough>'
p558
sg5
F0.0
sg6
F1.0
sg7
F5.631676660663534e-07
sg8
F5.631667145932505e-07
ssI276
(dp559
g2
F8.0
sg3
S'<suitably>'
p560
sg5
F0.0
sg6
F1.0
sg7
F5.631676660663534e-07
sg8
F5.631667145932505e-07
ssI277
(dp561
g2
F8.0
sg3
S'<severely>'
p562
sg5
F0.0
sg6
F1.0
sg7
F5.631676660663534e-07
sg8
F5.631667145932505e-07
ssI278
(dp563
g2
F8.0
sg3
S'<bad ,>'
p564
sg5
F0.0
sg6
F1.0
sg7
F5.631676660663534e-07
sg8
F5.631667145932505e-07
ssI279
(dp565
g2
F8.0
sg3
S'<wherever>'
p566
sg5
F0.0
sg6
F1.0
sg7
F5.631676660663534e-07
sg8
F5.631667145932505e-07
ssI280
(dp567
g2
F8.0
sg3
S'<open to the>'
p568
sg5
F0.0
sg6
F1.0
sg7
F5.631676660663534e-07
sg8
F5.631667145932505e-07
ssI281
(dp569
g2
F8.0
sg3
S'<two>'
p570
sg5
F0.0
sg6
F1.0
sg7
F5.631676660663534e-07
sg8
F5.631667145932505e-07
ssI282
(dp571
g2
F8.0
sg3
S'<visually>'
p572
sg5
F0.0
sg6
F1.0
sg7
F5.631676660663534e-07
sg8
F5.631667145932505e-07
ssI283
(dp573
g2
F8.0
sg3
S'<desperately>'
p574
sg5
F0.0
sg6
F1.0
sg7
F5.631676660663534e-07
sg8
F5.631667145932505e-07
ssI284
(dp575
g2
F8.0
sg3
S'<worst>'
p576
sg5
F0.0
sg6
F1.0
sg7
F5.631676660663534e-07
sg8
F5.631667145932505e-07
ssI285
(dp577
g2
F8.0
sg3
S'<prohibitively>'
p578
sg5
F0.0
sg6
F1.0
sg7
F5.631676660663534e-07
sg8
F5.631667145932505e-07
ssI286
(dp579
g2
F8.0
sg3
S'<inherently>'
p580
sg5
F0.0
sg6
F1.0
sg7
F5.631676660663534e-07
sg8
F5.631667145932505e-07
ssI287
(dp581
g2
F8.0
sg3
S'<some>'
p582
sg5
F0.0
sg6
F1.0
sg7
F5.631676660663534e-07
sg8
F5.631667145932505e-07
ssI288
(dp583
g2
F8.0
sg3
S'<nice ,>'
p584
sg5
F0.0
sg6
F1.0
sg7
F5.631676660663534e-07
sg8
F5.631667145932505e-07
ssI289
(dp585
g2
F8.0
sg3
S'<presently>'
p586
sg5
F0.0
sg6
F1.0
sg7
F5.631676660663534e-07
sg8
F5.631667145932505e-07
ssI290
(dp587
g2
F8.0
sg3
S'<surprisingly>'
p588
sg5
F0.0
sg6
F1.0
sg7
F5.631676660663534e-07
sg8
F5.631667145932505e-07
ssI291
(dp589
g2
F8.0
sg3
S'<friendly>'
p590
sg5
F0.0
sg6
F1.0
sg7
F5.631676660663534e-07
sg8
F5.631667145932505e-07
ssI292
(dp591
g2
F7.0
sg3
S'<usually>'
p592
sg5
F0.0
sg6
F1.0
sg7
F4.927717078080592e-07
sg8
F4.927709793364305e-07
ssI293
(dp593
g2
F7.0
sg3
S'<big ,>'
p594
sg5
F0.0
sg6
F1.0
sg7
F4.927717078080592e-07
sg8
F4.927709793364305e-07
ssI294
(dp595
g2
F7.0
sg3
S'<precisely>'
p596
sg5
F0.0
sg6
F1.0
sg7
F4.927717078080592e-07
sg8
F4.927709793364305e-07
ssI295
(dp597
g2
F7.0
sg3
S'<perhaps>'
p598
sg5
F0.0
sg6
F1.0
sg7
F4.927717078080592e-07
sg8
F4.927709793364305e-07
ssI296
(dp599
g2
F7.0
sg3
S'<lowest>'
p600
sg5
F0.0
sg6
F1.0
sg7
F4.927717078080592e-07
sg8
F4.927709793364305e-07
ssI297
(dp601
g2
F7.0
sg3
S'<sort of>'
p602
sg5
F0.0
sg6
F1.0
sg7
F4.927717078080592e-07
sg8
F4.927709793364305e-07
ssI298
(dp603
g2
F7.0
sg3
S'<anything>'
p604
sg5
F0.0
sg6
F1.0
sg7
F4.927717078080592e-07
sg8
F4.927709793364305e-07
ssI299
(dp605
g2
F7.0
sg3
S'<plainly>'
p606
sg5
F0.0
sg6
F1.0
sg7
F4.927717078080592e-07
sg8
F4.927709793364305e-07
ssI300
(dp607
g2
F7.0
sg3
S'<basically>'
p608
sg5
F0.0
sg6
F1.0
sg7
F4.927717078080592e-07
sg8
F4.927709793364305e-07
ssI301
(dp609
g2
F7.0
sg3
S'<statistically>'
p610
sg5
F0.0
sg6
F1.0
sg7
F4.927717078080592e-07
sg8
F4.927709793364305e-07
ssI302
(dp611
g2
F7.0
sg3
S'<wicked>'
p612
sg5
F0.0
sg6
F1.0
sg7
F4.927717078080592e-07
sg8
F4.927709793364305e-07
ssI303
(dp613
g2
F7.0
sg3
S'<whole>'
p614
sg5
F0.0
sg6
F1.0
sg7
F4.927717078080592e-07
sg8
F4.927709793364305e-07
ssI304
(dp615
g2
F7.0
sg3
S'<fullest>'
p616
sg5
F0.0
sg6
F1.0
sg7
F4.927717078080592e-07
sg8
F4.927709793364305e-07
ssI305
(dp617
g2
F7.0
sg3
S'<gonna be>'
p618
sg5
F0.0
sg6
F1.0
sg7
F4.927717078080592e-07
sg8
F4.927709793364305e-07
ssI306
(dp619
g2
F7.0
sg3
S'<way>'
p620
sg5
F0.0
sg6
F1.0
sg7
F4.927717078080592e-07
sg8
F4.927709793364305e-07
ssI307
(dp621
g2
F7.0
sg3
S'<hugely>'
p622
sg5
F0.0
sg6
F1.0
sg7
F4.927717078080592e-07
sg8
F4.927709793364305e-07
ssI308
(dp623
g2
F7.0
sg3
S'<morally>'
p624
sg5
F0.0
sg6
F1.0
sg7
F4.927717078080592e-07
sg8
F4.927709793364305e-07
ssI309
(dp625
g2
F7.0
sg3
S'<all too>'
p626
sg5
F0.0
sg6
F1.0
sg7
F4.927717078080592e-07
sg8
F4.927709793364305e-07
ssI310
(dp627
g2
F7.0
sg3
S'<professionally>'
p628
sg5
F0.0
sg6
F1.0
sg7
F4.927717078080592e-07
sg8
F4.927709793364305e-07
ssI311
(dp629
g2
F7.0
sg3
S'<brutally>'
p630
sg5
F0.0
sg6
F1.0
sg7
F4.927717078080592e-07
sg8
F4.927709793364305e-07
ssI312
(dp631
g2
F7.0
sg3
S'<personally>'
p632
sg5
F0.0
sg6
F1.0
sg7
F4.927717078080592e-07
sg8
F4.927709793364305e-07
ssI313
(dp633
g2
F6.0
sg3
S'<materially>'
p634
sg5
F0.0
sg6
F1.0
sg7
F4.22375749549765e-07
sg8
F4.2237521434609433e-07
ssI314
(dp635
g2
F6.0
sg3
S'<big>'
p636
sg5
F0.0
sg6
F1.0
sg7
F4.22375749549765e-07
sg8
F4.2237521434609433e-07
ssI315
(dp637
g2
F6.0
sg3
S'<nathan ,>'
p638
sg5
F0.0
sg6
F1.0
sg7
F4.22375749549765e-07
sg8
F4.2237521434609433e-07
ssI316
(dp639
g2
F6.0
sg3
S'<perry ,>'
p640
sg5
F0.0
sg6
F1.0
sg7
F4.22375749549765e-07
sg8
F4.2237521434609433e-07
ssI317
(dp641
g2
F6.0
sg3
S'<hiv>'
p642
sg5
F0.0
sg6
F1.0
sg7
F4.22375749549765e-07
sg8
F4.2237521434609433e-07
ssI318
(dp643
g2
F6.0
sg3
S'<openly>'
p644
sg5
F0.0
sg6
F1.0
sg7
F4.22375749549765e-07
sg8
F4.2237521434609433e-07
ssI319
(dp645
g2
F6.0
sg3
S'<perfect ,>'
p646
sg5
F0.0
sg6
F1.0
sg7
F4.22375749549765e-07
sg8
F4.2237521434609433e-07
ssI320
(dp647
g2
F6.0
sg3
S'<indeed>'
p648
sg5
F0.0
sg6
F1.0
sg7
F4.22375749549765e-07
sg8
F4.2237521434609433e-07
ssI321
(dp649
g2
F6.0
sg3
S'<marginally>'
p650
sg5
F0.0
sg6
F1.0
sg7
F4.22375749549765e-07
sg8
F4.2237521434609433e-07
ssI322
(dp651
g2
F6.0
sg3
S'<two feet>'
p652
sg5
F0.0
sg6
F1.0
sg7
F4.22375749549765e-07
sg8
F4.2237521434609433e-07
ssI323
(dp653
g2
F6.0
sg3
S'<gonna be all>'
p654
sg5
F0.0
sg6
F1.0
sg7
F4.22375749549765e-07
sg8
F4.2237521434609433e-07
ssI324
(dp655
g2
F6.0
sg3
S'<strongest>'
p656
sg5
F0.0
sg6
F1.0
sg7
F4.22375749549765e-07
sg8
F4.2237521434609433e-07
ssI325
(dp657
g2
F6.0
sg3
S'<person>'
p658
sg5
F0.0
sg6
F1.0
sg7
F4.22375749549765e-07
sg8
F4.2237521434609433e-07
ssI326
(dp659
g2
F6.0
sg3
S'<long ,>'
p660
sg5
F0.0
sg6
F1.0
sg7
F4.22375749549765e-07
sg8
F4.2237521434609433e-07
ssI327
(dp661
g2
F6.0
sg3
S'<permanently>'
p662
sg5
F0.0
sg6
F1.0
sg7
F4.22375749549765e-07
sg8
F4.2237521434609433e-07
ssI328
(dp663
g2
F6.0
sg3
S'<reasonable>'
p664
sg5
F0.0
sg6
F1.0
sg7
F4.22375749549765e-07
sg8
F4.2237521434609433e-07
ssI329
(dp665
g2
F6.0
sg3
S'<any more>'
p666
sg5
F0.0
sg6
F1.0
sg7
F4.22375749549765e-07
sg8
F4.2237521434609433e-07
ssI330
(dp667
g2
F6.0
sg3
S'<current>'
p668
sg5
F0.0
sg6
F1.0
sg7
F4.22375749549765e-07
sg8
F4.2237521434609433e-07
ssI331
(dp669
g2
F6.0
sg3
S'<essentially>'
p670
sg5
F0.0
sg6
F1.0
sg7
F4.22375749549765e-07
sg8
F4.2237521434609433e-07
ssI332
(dp671
g2
F6.0
sg3
S'<be>'
p672
sg5
F0.0
sg6
F1.0
sg7
F4.22375749549765e-07
sg8
F4.2237521434609433e-07
ssI333
(dp673
g2
F6.0
sg3
S'<years>'
p674
sg5
F0.0
sg6
F1.0
sg7
F4.22375749549765e-07
sg8
F4.2237521434609433e-07
ssI334
(dp675
g2
F6.0
sg3
S'<thus>'
p676
sg5
F0.0
sg6
F1.0
sg7
F4.22375749549765e-07
sg8
F4.2237521434609433e-07
ssI335
(dp677
g2
F6.0
sg3
S'<smaller>'
p678
sg5
F0.0
sg6
F1.0
sg7
F4.22375749549765e-07
sg8
F4.2237521434609433e-07
ssI336
(dp679
g2
F6.0
sg3
S'<scientifically>'
p680
sg5
F0.0
sg6
F1.0
sg7
F4.22375749549765e-07
sg8
F4.2237521434609433e-07
ssI337
(dp681
g2
F6.0
sg3
S'<okay with>'
p682
sg5
F0.0
sg6
F1.0
sg7
F4.22375749549765e-07
sg8
F4.2237521434609433e-07
ssI338
(dp683
g2
F5.0
sg3
S'<solid>'
p684
sg5
F0.0
sg6
F1.0
sg7
F3.5197979129147086e-07
sg8
F3.519794196222376e-07
ssI339
(dp685
g2
F5.0
sg3
S'<aii>'
p686
sg5
F0.0
sg6
F1.0
sg7
F3.5197979129147086e-07
sg8
F3.519794196222376e-07
ssI340
(dp687
g2
F5.0
sg3
S'<temporarily>'
p688
sg5
F0.0
sg6
F1.0
sg7
F3.5197979129147086e-07
sg8
F3.519794196222376e-07
ssI341
(dp689
g2
F5.0
sg3
S'<better ,>'
p690
sg5
F0.0
sg6
F1.0
sg7
F3.5197979129147086e-07
sg8
F3.519794196222376e-07
ssI342
(dp691
g2
F5.0
sg3
S'<mostly>'
p692
sg5
F0.0
sg6
F1.0
sg7
F3.5197979129147086e-07
sg8
F3.519794196222376e-07
ssI343
(dp693
g2
F5.0
sg3
S'<damned>'
p694
sg5
F0.0
sg6
F1.0
sg7
F3.5197979129147086e-07
sg8
F3.519794196222376e-07
ssI344
(dp695
g2
F5.0
sg3
S'<exceedingly>'
p696
sg5
F0.0
sg6
F1.0
sg7
F3.5197979129147086e-07
sg8
F3.519794196222376e-07
ssI345
(dp697
g2
F5.0
sg3
S'<moderately>'
p698
sg5
F0.0
sg6
F1.0
sg7
F3.5197979129147086e-07
sg8
F3.519794196222376e-07
ssI346
(dp699
g2
F5.0
sg3
S'<glad to see>'
p700
sg5
F0.0
sg6
F1.0
sg7
F3.5197979129147086e-07
sg8
F3.519794196222376e-07
ssI347
(dp701
g2
F5.0
sg3
S'<downright>'
p702
sg5
F0.0
sg6
F1.0
sg7
F3.5197979129147086e-07
sg8
F3.519794196222376e-07
ssI348
(dp703
g2
F5.0
sg3
S'<so nice to>'
p704
sg5
F0.0
sg6
F1.0
sg7
F3.5197979129147086e-07
sg8
F3.519794196222376e-07
ssI349
(dp705
g2
F5.0
sg3
S'<awful>'
p706
sg5
F0.0
sg6
F1.0
sg7
F3.5197979129147086e-07
sg8
F3.519794196222376e-07
ssI350
(dp707
g2
F5.0
sg3
S'<sufficient>'
p708
sg5
F0.0
sg6
F1.0
sg7
F3.5197979129147086e-07
sg8
F3.519794196222376e-07
ssI351
(dp709
g2
F5.0
sg3
S'<sure this is>'
p710
sg5
F0.0
sg6
F1.0
sg7
F3.5197979129147086e-07
sg8
F3.519794196222376e-07
ssI352
(dp711
g2
F5.0
sg3
S'<badly>'
p712
sg5
F0.0
sg6
F1.0
sg7
F3.5197979129147086e-07
sg8
F3.519794196222376e-07
ssI353
(dp713
g2
F5.0
sg3
S'<shortest>'
p714
sg5
F0.0
sg6
F1.0
sg7
F3.5197979129147086e-07
sg8
F3.519794196222376e-07
ssI354
(dp715
g2
F5.0
sg3
S'<distinctly>'
p716
sg5
F0.0
sg6
F1.0
sg7
F3.5197979129147086e-07
sg8
F3.519794196222376e-07
ssI355
(dp717
g2
F5.0
sg3
S'<member>'
p718
sg5
F0.0
sg6
F1.0
sg7
F3.5197979129147086e-07
sg8
F3.519794196222376e-07
ssI356
(dp719
g2
F5.0
sg3
S'<adequately>'
p720
sg5
F0.0
sg6
F1.0
sg7
F3.5197979129147086e-07
sg8
F3.519794196222376e-07
ssI357
(dp721
g2
F5.0
sg3
S'<altogether>'
p722
sg5
F0.0
sg6
F1.0
sg7
F3.5197979129147086e-07
sg8
F3.519794196222376e-07
ssI358
(dp723
g2
F5.0
sg3
S'<painfully>'
p724
sg5
F0.0
sg6
F1.0
sg7
F3.5197979129147086e-07
sg8
F3.519794196222376e-07
ssI359
(dp725
g2
F5.0
sg3
S'<primarily>'
p726
sg5
F0.0
sg6
F1.0
sg7
F3.5197979129147086e-07
sg8
F3.519794196222376e-07
ssI360
(dp727
g2
F5.0
sg3
S'<structurally>'
p728
sg5
F0.0
sg6
F1.0
sg7
F3.5197979129147086e-07
sg8
F3.519794196222376e-07
ssI361
(dp729
g2
F5.0
sg3
S'<continuously>'
p730
sg5
F0.0
sg6
F1.0
sg7
F3.5197979129147086e-07
sg8
F3.519794196222376e-07
ssI362
(dp731
g2
F5.0
sg3
S'<rock>'
p732
sg5
F0.0
sg6
F1.0
sg7
F3.5197979129147086e-07
sg8
F3.519794196222376e-07
ssI363
(dp733
g2
F5.0
sg3
S'<once>'
p734
sg5
F0.0
sg6
F1.0
sg7
F3.5197979129147086e-07
sg8
F3.519794196222376e-07
ssI364
(dp735
g2
F5.0
sg3
S'<immensely>'
p736
sg5
F0.0
sg6
F1.0
sg7
F3.5197979129147086e-07
sg8
F3.519794196222376e-07
ssI365
(dp737
g2
F4.0
sg3
S'<basic ,>'
p738
sg5
F0.0
sg6
F1.0
sg7
F2.815838330331767e-07
sg8
F2.8158359516485625e-07
ssI366
(dp739
g2
F4.0
sg3
S'<largest>'
p740
sg5
F0.0
sg6
F1.0
sg7
F2.815838330331767e-07
sg8
F2.8158359516485625e-07
ssI367
(dp741
g2
F4.0
sg3
S'<just too>'
p742
sg5
F0.0
sg6
F1.0
sg7
F2.815838330331767e-07
sg8
F2.8158359516485625e-07
ssI368
(dp743
g2
F4.0
sg3
S'<whenever>'
p744
sg5
F0.0
sg6
F1.0
sg7
F2.815838330331767e-07
sg8
F2.8158359516485625e-07
ssI369
(dp745
g2
F4.0
sg3
S'<the least bit>'
p746
sg5
F0.0
sg6
F1.0
sg7
F2.815838330331767e-07
sg8
F2.8158359516485625e-07
ssI370
(dp747
g2
F4.0
sg3
S'<more widely>'
p748
sg5
F0.0
sg6
F1.0
sg7
F2.815838330331767e-07
sg8
F2.8158359516485625e-07
ssI371
(dp749
g2
F4.0
sg3
S'<west>'
p750
sg5
F0.0
sg6
F1.0
sg7
F2.815838330331767e-07
sg8
F2.8158359516485625e-07
ssI372
(dp751
g2
F4.0
sg3
S'<away>'
p752
sg5
F0.0
sg6
F1.0
sg7
F2.815838330331767e-07
sg8
F2.8158359516485625e-07
ssI373
(dp753
g2
F4.0
sg3
S'<globally>'
p754
sg5
F0.0
sg6
F1.0
sg7
F2.815838330331767e-07
sg8
F2.8158359516485625e-07
ssI374
(dp755
g2
F4.0
sg3
S'<scared of>'
p756
sg5
F0.0
sg6
F1.0
sg7
F2.815838330331767e-07
sg8
F2.8158359516485625e-07
ssI375
(dp757
g2
F4.0
sg3
S'<different from each>'
p758
sg5
F0.0
sg6
F1.0
sg7
F2.815838330331767e-07
sg8
F2.8158359516485625e-07
ssI376
(dp759
g2
F4.0
sg3
S'<safer and more>'
p760
sg5
F0.0
sg6
F1.0
sg7
F2.815838330331767e-07
sg8
F2.8158359516485625e-07
ssI377
(dp761
g2
F4.0
sg3
S"<sure you 're>"
p762
sg5
F0.0
sg6
F1.0
sg7
F2.815838330331767e-07
sg8
F2.8158359516485625e-07
ssI378
(dp763
g2
F4.0
sg3
S'<deliberately>'
p764
sg5
F0.0
sg6
F1.0
sg7
F2.815838330331767e-07
sg8
F2.8158359516485625e-07
ssI379
(dp765
g2
F4.0
sg3
S'<glamorous>'
p766
sg5
F0.0
sg6
F1.0
sg7
F2.815838330331767e-07
sg8
F2.8158359516485625e-07
ssI380
(dp767
g2
F4.0
sg3
S'<over>'
p768
sg5
F0.0
sg6
F1.0
sg7
F2.815838330331767e-07
sg8
F2.8158359516485625e-07
ssI381
(dp769
g2
F4.0
sg3
S'<too fucking>'
p770
sg5
F0.0
sg6
F1.0
sg7
F2.815838330331767e-07
sg8
F2.8158359516485625e-07
ssI382
(dp771
g2
F4.0
sg3
S'<grossly>'
p772
sg5
F0.0
sg6
F1.0
sg7
F2.815838330331767e-07
sg8
F2.8158359516485625e-07
ssI383
(dp773
g2
F4.0
sg3
S'<cold in>'
p774
sg5
F0.0
sg6
F1.0
sg7
F2.815838330331767e-07
sg8
F2.8158359516485625e-07
ssI384
(dp775
g2
F4.0
sg3
S'<unsustainably>'
p776
sg5
F0.0
sg6
F1.0
sg7
F2.815838330331767e-07
sg8
F2.8158359516485625e-07
ssI385
(dp777
g2
F4.0
sg3
S'<warm>'
p778
sg5
F0.0
sg6
F1.0
sg7
F2.815838330331767e-07
sg8
F2.8158359516485625e-07
ssI386
(dp779
g2
F4.0
sg3
S'<sweet ,>'
p780
sg5
F0.0
sg6
F1.0
sg7
F2.815838330331767e-07
sg8
F2.8158359516485625e-07
ssI387
(dp781
g2
F4.0
sg3
S'<sadly>'
p782
sg5
F0.0
sg6
F1.0
sg7
F2.815838330331767e-07
sg8
F2.8158359516485625e-07
ssI388
(dp783
g2
F4.0
sg3
S'<lower>'
p784
sg5
F0.0
sg6
F1.0
sg7
F2.815838330331767e-07
sg8
F2.8158359516485625e-07
ssI389
(dp785
g2
F4.0
sg3
S'<maximum>'
p786
sg5
F0.0
sg6
F1.0
sg7
F2.815838330331767e-07
sg8
F2.8158359516485625e-07
ssI390
(dp787
g2
F4.0
sg3
S'<humanly>'
p788
sg5
F0.0
sg6
F1.0
sg7
F2.815838330331767e-07
sg8
F2.8158359516485625e-07
ssI391
(dp789
g2
F4.0
sg3
S'<undoubtedly>'
p790
sg5
F0.0
sg6
F1.0
sg7
F2.815838330331767e-07
sg8
F2.8158359516485625e-07
ssI392
(dp791
g2
F4.0
sg3
S'<twice as>'
p792
sg5
F0.0
sg6
F1.0
sg7
F2.815838330331767e-07
sg8
F2.8158359516485625e-07
ssI393
(dp793
g2
F3.0
sg3
S'<warm in>'
p794
sg5
F0.0
sg6
F1.0
sg7
F2.111878747748825e-07
sg8
F2.1118774097394605e-07
ssI394
(dp795
g2
F3.0
sg3
S'<so sure about>'
p796
sg5
F0.0
sg6
F1.0
sg7
F2.111878747748825e-07
sg8
F2.1118774097394605e-07
ssI395
(dp797
g2
F3.0
sg3
S'<genuinely>'
p798
sg5
F0.0
sg6
F1.0
sg7
F2.111878747748825e-07
sg8
F2.1118774097394605e-07
ssI396
(dp799
g2
F3.0
sg3
S'<happy to see>'
p800
sg5
F0.0
sg6
F1.0
sg7
F2.111878747748825e-07
sg8
F2.1118774097394605e-07
ssI397
(dp801
g2
F3.0
sg3
S'<obviously>'
p802
sg5
F0.0
sg6
F1.0
sg7
F2.111878747748825e-07
sg8
F2.1118774097394605e-07
ssI398
(dp803
g2
F3.0
sg3
S'<a well>'
p804
sg5
F0.0
sg6
F1.0
sg7
F2.111878747748825e-07
sg8
F2.1118774097394605e-07
ssI399
(dp805
g2
F3.0
sg3
S'<far too>'
p806
sg5
F0.0
sg6
F1.0
sg7
F2.111878747748825e-07
sg8
F2.1118774097394605e-07
ssI400
(dp807
g2
F3.0
sg3
S'<frightfully>'
p808
sg5
F0.0
sg6
F1.0
sg7
F2.111878747748825e-07
sg8
F2.1118774097394605e-07
ssI401
(dp809
g2
F3.0
sg3
S'<eastern>'
p810
sg5
F0.0
sg6
F1.0
sg7
F2.111878747748825e-07
sg8
F2.1118774097394605e-07
ssI402
(dp811
g2
F3.0
sg3
S'<very much>'
p812
sg5
F0.0
sg6
F1.0
sg7
F2.111878747748825e-07
sg8
F2.1118774097394605e-07
ssI403
(dp813
g2
F3.0
sg3
S'<suddenly>'
p814
sg5
F0.0
sg6
F1.0
sg7
F2.111878747748825e-07
sg8
F2.1118774097394605e-07
ssI404
(dp815
g2
F3.0
sg3
S'<much too>'
p816
sg5
F0.0
sg6
F1.0
sg7
F2.111878747748825e-07
sg8
F2.1118774097394605e-07
ssI405
(dp817
g2
F3.0
sg3
S'<earliest>'
p818
sg5
F0.0
sg6
F1.0
sg7
F2.111878747748825e-07
sg8
F2.1118774097394605e-07
ssI406
(dp819
g2
F3.0
sg3
S'<old>'
p820
sg5
F0.0
sg6
F1.0
sg7
F2.111878747748825e-07
sg8
F2.1118774097394605e-07
ssI407
(dp821
g2
F3.0
sg3
S'<year>'
p822
sg5
F0.0
sg6
F1.0
sg7
F2.111878747748825e-07
sg8
F2.1118774097394605e-07
ssI408
(dp823
g2
F3.0
sg3
S'<unduly>'
p824
sg5
F0.0
sg6
F1.0
sg7
F2.111878747748825e-07
sg8
F2.1118774097394605e-07
ssI409
(dp825
g2
F3.0
sg3
S'<all quite>'
p826
sg5
F0.0
sg6
F1.0
sg7
F2.111878747748825e-07
sg8
F2.1118774097394605e-07
ssI410
(dp827
g2
F3.0
sg3
S'<kind>'
p828
sg5
F0.0
sg6
F1.0
sg7
F2.111878747748825e-07
sg8
F2.1118774097394605e-07
ssI411
(dp829
g2
F3.0
sg3
S'<nationally>'
p830
sg5
F0.0
sg6
F1.0
sg7
F2.111878747748825e-07
sg8
F2.1118774097394605e-07
ssI412
(dp831
g2
F3.0
sg3
S'<more than>'
p832
sg5
F0.0
sg6
F1.0
sg7
F2.111878747748825e-07
sg8
F2.1118774097394605e-07
ssI413
(dp833
g2
F3.0
sg3
S'<a little bit>'
p834
sg5
F0.0
sg6
F1.0
sg7
F2.111878747748825e-07
sg8
F2.1118774097394605e-07
ssI414
(dp835
g2
F3.0
sg3
S'<home>'
p836
sg5
F0.0
sg6
F1.0
sg7
F2.111878747748825e-07
sg8
F2.1118774097394605e-07
ssI415
(dp837
g2
F3.0
sg3
S'<duty>'
p838
sg5
F0.0
sg6
F1.0
sg7
F2.111878747748825e-07
sg8
F2.1118774097394605e-07
ssI416
(dp839
g2
F3.0
sg3
S'<explicitly>'
p840
sg5
F0.0
sg6
F1.0
sg7
F2.111878747748825e-07
sg8
F2.1118774097394605e-07
ssI417
(dp841
g2
F3.0
sg3
S'<cool with>'
p842
sg5
F0.0
sg6
F1.0
sg7
F2.111878747748825e-07
sg8
F2.1118774097394605e-07
ssI418
(dp843
g2
F3.0
sg3
S'<fine>'
p844
sg5
F0.0
sg6
F1.0
sg7
F2.111878747748825e-07
sg8
F2.1118774097394605e-07
ssI419
(dp845
g2
F3.0
sg3
S'<dear>'
p846
sg5
F0.0
sg6
F1.0
sg7
F2.111878747748825e-07
sg8
F2.1118774097394605e-07
ssI420
(dp847
g2
F3.0
sg3
S'<conspicuously>'
p848
sg5
F0.0
sg6
F1.0
sg7
F2.111878747748825e-07
sg8
F2.1118774097394605e-07
ssI421
(dp849
g2
F3.0
sg3
S'<better than>'
p850
sg5
F0.0
sg6
F1.0
sg7
F2.111878747748825e-07
sg8
F2.1118774097394605e-07
ssI422
(dp851
g2
F3.0
sg3
S'<plenty>'
p852
sg5
F0.0
sg6
F1.0
sg7
F2.111878747748825e-07
sg8
F2.1118774097394605e-07
ssI423
(dp853
g2
F3.0
sg3
S'<international>'
p854
sg5
F0.0
sg6
F1.0
sg7
F2.111878747748825e-07
sg8
F2.1118774097394605e-07
ssI424
(dp855
g2
F3.0
sg3
S'<historically>'
p856
sg5
F0.0
sg6
F1.0
sg7
F2.111878747748825e-07
sg8
F2.1118774097394605e-07
ssI425
(dp857
g2
F3.0
sg3
S'<just about>'
p858
sg5
F0.0
sg6
F1.0
sg7
F2.111878747748825e-07
sg8
F2.1118774097394605e-07
ssI426
(dp859
g2
F3.0
sg3
S'<everything>'
p860
sg5
F0.0
sg6
F1.0
sg7
F2.111878747748825e-07
sg8
F2.1118774097394605e-07
ssI427
(dp861
g2
F3.0
sg3
S'<a little too>'
p862
sg5
F0.0
sg6
F1.0
sg7
F2.111878747748825e-07
sg8
F2.1118774097394605e-07
ssI428
(dp863
g2
F3.0
sg3
S'<profoundly>'
p864
sg5
F0.0
sg6
F1.0
sg7
F2.111878747748825e-07
sg8
F2.1118774097394605e-07
ssI429
(dp865
g2
F3.0
sg3
S'<a few>'
p866
sg5
F0.0
sg6
F1.0
sg7
F2.111878747748825e-07
sg8
F2.1118774097394605e-07
ssI430
(dp867
g2
F3.0
sg3
S'<fastest>'
p868
sg5
F0.0
sg6
F1.0
sg7
F2.111878747748825e-07
sg8
F2.1118774097394605e-07
ssI431
(dp869
g2
F3.0
sg3
S'<somehow>'
p870
sg5
F0.0
sg6
F1.0
sg7
F2.111878747748825e-07
sg8
F2.1118774097394605e-07
ssI432
(dp871
g2
F3.0
sg3
S'<c.>'
p872
sg5
F0.0
sg6
F1.0
sg7
F2.111878747748825e-07
sg8
F2.1118774097394605e-07
ssI433
(dp873
g2
F3.0
sg3
S'<this case>'
p874
sg5
F0.0
sg6
F1.0
sg7
F2.111878747748825e-07
sg8
F2.1118774097394605e-07
ssI434
(dp875
g2
F3.0
sg3
S'<occupationally>'
p876
sg5
F0.0
sg6
F1.0
sg7
F2.111878747748825e-07
sg8
F2.1118774097394605e-07
ssI435
(dp877
g2
F3.0
sg3
S'<or>'
p878
sg5
F0.0
sg6
F1.0
sg7
F2.111878747748825e-07
sg8
F2.1118774097394605e-07
ssI436
(dp879
g2
F3.0
sg3
S'<darn>'
p880
sg5
F0.0
sg6
F1.0
sg7
F2.111878747748825e-07
sg8
F2.1118774097394605e-07
ssI437
(dp881
g2
F3.0
sg3
S'<always>'
p882
sg5
F0.0
sg6
F1.0
sg7
F2.111878747748825e-07
sg8
F2.1118774097394605e-07
ssI438
(dp883
g2
F3.0
sg3
S'<safe ,>'
p884
sg5
F0.0
sg6
F1.0
sg7
F2.111878747748825e-07
sg8
F2.1118774097394605e-07
ssI439
(dp885
g2
F3.0
sg3
S'<unnecessarily>'
p886
sg5
F0.0
sg6
F1.0
sg7
F2.111878747748825e-07
sg8
F2.1118774097394605e-07
ssI440
(dp887
g2
F3.0
sg3
S'<extra>'
p888
sg5
F0.0
sg6
F1.0
sg7
F2.111878747748825e-07
sg8
F2.1118774097394605e-07
ssI441
(dp889
g2
F3.0
sg3
S'<satisfactory>'
p890
sg5
F0.0
sg6
F1.0
sg7
F2.111878747748825e-07
sg8
F2.1118774097394605e-07
ssI442
(dp891
g2
F3.0
sg3
S'<hlv>'
p892
sg5
F0.0
sg6
F1.0
sg7
F2.111878747748825e-07
sg8
F2.1118774097394605e-07
ssI443
(dp893
g2
F3.0
sg3
S'<else>'
p894
sg5
F0.0
sg6
F1.0
sg7
F2.111878747748825e-07
sg8
F2.1118774097394605e-07
ssI444
(dp895
g2
F3.0
sg3
S'<e.>'
p896
sg5
F0.0
sg6
F1.0
sg7
F2.111878747748825e-07
sg8
F2.1118774097394605e-07
ssI445
(dp897
g2
F3.0
sg3
S'<bled>'
p898
sg5
F0.0
sg6
F1.0
sg7
F2.111878747748825e-07
sg8
F2.1118774097394605e-07
ssI446
(dp899
g2
F2.0
sg3
S'<too late>'
p900
sg5
F0.0
sg6
F1.0
sg7
F1.4079191651658834e-07
sg8
F1.4079185704950266e-07
ssI447
(dp901
g2
F2.0
sg3
S'<re>'
p902
sg5
F0.0
sg6
F1.0
sg7
F1.4079191651658834e-07
sg8
F1.4079185704950266e-07
ssI448
(dp903
g2
F2.0
sg3
S'<hot ,>'
p904
sg5
F0.0
sg6
F1.0
sg7
F1.4079191651658834e-07
sg8
F1.4079185704950266e-07
ssI449
(dp905
g2
F2.0
sg3
S'<trusted ,>'
p906
sg5
F0.0
sg6
F1.0
sg7
F1.4079191651658834e-07
sg8
F1.4079185704950266e-07
ssI450
(dp907
g2
F2.0
sg3
S'<just simply>'
p908
sg5
F0.0
sg6
F1.0
sg7
F1.4079191651658834e-07
sg8
F1.4079185704950266e-07
ssI451
(dp909
g2
F2.0
sg3
S'<fifteen years>'
p910
sg5
F0.0
sg6
F1.0
sg7
F1.4079191651658834e-07
sg8
F1.4079185704950266e-07
ssI452
(dp911
g2
F2.0
sg3
S'<stronger ,>'
p912
sg5
F0.0
sg6
F1.0
sg7
F1.4079191651658834e-07
sg8
F1.4079185704950266e-07
ssI453
(dp913
g2
F2.0
sg3
S'<beingso>'
p914
sg5
F0.0
sg6
F1.0
sg7
F1.4079191651658834e-07
sg8
F1.4079185704950266e-07
ssI454
(dp915
g2
F2.0
sg3
S'<finely>'
p916
sg5
F0.0
sg6
F1.0
sg7
F1.4079191651658834e-07
sg8
F1.4079185704950266e-07
ssI455
(dp917
g2
F2.0
sg3
S'<stiii>'
p918
sg5
F0.0
sg6
F1.0
sg7
F1.4079191651658834e-07
sg8
F1.4079185704950266e-07
ssI456
(dp919
g2
F2.0
sg3
S'<engaged to be>'
p920
sg5
F0.0
sg6
F1.0
sg7
F1.4079191651658834e-07
sg8
F1.4079185704950266e-07
ssI457
(dp921
g2
F2.0
sg3
S'<ever more>'
p922
sg5
F0.0
sg6
F1.0
sg7
F1.4079191651658834e-07
sg8
F1.4079185704950266e-07
ssI458
(dp923
g2
F2.0
sg3
S'<unreasonably>'
p924
sg5
F0.0
sg6
F1.0
sg7
F1.4079191651658834e-07
sg8
F1.4079185704950266e-07
ssI459
(dp925
g2
F2.0
sg3
S'<accessible to the>'
p926
sg5
F0.0
sg6
F1.0
sg7
F1.4079191651658834e-07
sg8
F1.4079185704950266e-07
ssI460
(dp927
g2
F2.0
sg3
S'<jolly>'
p928
sg5
F0.0
sg6
F1.0
sg7
F1.4079191651658834e-07
sg8
F1.4079185704950266e-07
ssI461
(dp929
g2
F2.0
sg3
S'<more readily>'
p930
sg5
F0.0
sg6
F1.0
sg7
F1.4079191651658834e-07
sg8
F1.4079185704950266e-07
ssI462
(dp931
g2
F2.0
sg3
S'<also very>'
p932
sg5
F0.0
sg6
F1.0
sg7
F1.4079191651658834e-07
sg8
F1.4079185704950266e-07
ssI463
(dp933
g2
F2.0
sg3
S'<democratically>'
p934
sg5
F0.0
sg6
F1.0
sg7
F1.4079191651658834e-07
sg8
F1.4079185704950266e-07
ssI464
(dp935
g2
F2.0
sg3
S'<if>'
p936
sg5
F0.0
sg6
F1.0
sg7
F1.4079191651658834e-07
sg8
F1.4079185704950266e-07
ssI465
(dp937
g2
F2.0
sg3
S'<massively>'
p938
sg5
F0.0
sg6
F1.0
sg7
F1.4079191651658834e-07
sg8
F1.4079185704950266e-07
ssI466
(dp939
g2
F2.0
sg3
S'<that much>'
p940
sg5
F0.0
sg6
F1.0
sg7
F1.4079191651658834e-07
sg8
F1.4079185704950266e-07
ssI467
(dp941
g2
F2.0
sg3
S'<no longer>'
p942
sg5
F0.0
sg6
F1.0
sg7
F1.4079191651658834e-07
sg8
F1.4079185704950266e-07
ssI468
(dp943
g2
F2.0
sg3
S"<gettin '>"
p944
sg5
F0.0
sg6
F1.0
sg7
F1.4079191651658834e-07
sg8
F1.4079185704950266e-07
ssI469
(dp945
g2
F2.0
sg3
S'<mad at>'
p946
sg5
F0.0
sg6
F1.0
sg7
F1.4079191651658834e-07
sg8
F1.4079185704950266e-07
ssI470
(dp947
g2
F2.0
sg3
S'<industrially>'
p948
sg5
F0.0
sg6
F1.0
sg7
F1.4079191651658834e-07
sg8
F1.4079185704950266e-07
ssI471
(dp949
g2
F2.0
sg3
S'<misguided ,>'
p950
sg5
F0.0
sg6
F1.0
sg7
F1.4079191651658834e-07
sg8
F1.4079185704950266e-07
ssI472
(dp951
g2
F2.0
sg3
S'<progressively>'
p952
sg5
F0.0
sg6
F1.0
sg7
F1.4079191651658834e-07
sg8
F1.4079185704950266e-07
ssI473
(dp953
g2
F2.0
sg3
S'<more easily>'
p954
sg5
F0.0
sg6
F1.0
sg7
F1.4079191651658834e-07
sg8
F1.4079185704950266e-07
ssI474
(dp955
g2
F2.0
sg3
S'<arguably>'
p956
sg5
F0.0
sg6
F1.0
sg7
F1.4079191651658834e-07
sg8
F1.4079185704950266e-07
ssI475
(dp957
g2
F2.0
sg3
S'<nineteen years>'
p958
sg5
F0.0
sg6
F1.0
sg7
F1.4079191651658834e-07
sg8
F1.4079185704950266e-07
ssI476
(dp959
g2
F2.0
sg3
S'<common>'
p960
sg5
F0.0
sg6
F1.0
sg7
F1.4079191651658834e-07
sg8
F1.4079185704950266e-07
ssI477
(dp961
g2
F2.0
sg3
S'<sometimes>'
p962
sg5
F0.0
sg6
F1.0
sg7
F1.4079191651658834e-07
sg8
F1.4079185704950266e-07
ssI478
(dp963
g2
F2.0
sg3
S'<third most>'
p964
sg5
F0.0
sg6
F1.0
sg7
F1.4079191651658834e-07
sg8
F1.4079185704950266e-07
ssI479
(dp965
g2
F2.0
sg3
S'<so damn>'
p966
sg5
F0.0
sg6
F1.0
sg7
F1.4079191651658834e-07
sg8
F1.4079185704950266e-07
ssI480
(dp967
g2
F2.0
sg3
S'<mildly>'
p968
sg5
F0.0
sg6
F1.0
sg7
F1.4079191651658834e-07
sg8
F1.4079185704950266e-07
ssI481
(dp969
g2
F2.0
sg3
S'<above->'
p970
sg5
F0.0
sg6
F1.0
sg7
F1.4079191651658834e-07
sg8
F1.4079185704950266e-07
ssI482
(dp971
g2
F2.0
sg3
S'<still more>'
p972
sg5
F0.0
sg6
F1.0
sg7
F1.4079191651658834e-07
sg8
F1.4079185704950266e-07
ssI483
(dp973
g2
F2.0
sg3
S'<persistently>'
p974
sg5
F0.0
sg6
F1.0
sg7
F1.4079191651658834e-07
sg8
F1.4079185704950266e-07
ssI484
(dp975
g2
F2.0
sg3
S'<fine with>'
p976
sg5
F0.0
sg6
F1.0
sg7
F1.4079191651658834e-07
sg8
F1.4079185704950266e-07
ssI485
(dp977
g2
F2.0
sg3
S'<deadly>'
p978
sg5
F0.0
sg6
F1.0
sg7
F1.4079191651658834e-07
sg8
F1.4079185704950266e-07
ssI486
(dp979
g2
F2.0
sg3
S'<as brief as>'
p980
sg5
F0.0
sg6
F1.0
sg7
F1.4079191651658834e-07
sg8
F1.4079185704950266e-07
ssI487
(dp981
g2
F2.0
sg3
S'<third>'
p982
sg5
F0.0
sg6
F1.0
sg7
F1.4079191651658834e-07
sg8
F1.4079185704950266e-07
ssI488
(dp983
g2
F2.0
sg3
S'<so perfectly>'
p984
sg5
F0.0
sg6
F1.0
sg7
F1.4079191651658834e-07
sg8
F1.4079185704950266e-07
ssI489
(dp985
g2
F2.0
sg3
S'<individually>'
p986
sg5
F0.0
sg6
F1.0
sg7
F1.4079191651658834e-07
sg8
F1.4079185704950266e-07
ssI490
(dp987
g2
F2.0
sg3
S'<so freaking>'
p988
sg5
F0.0
sg6
F1.0
sg7
F1.4079191651658834e-07
sg8
F1.4079185704950266e-07
ssI491
(dp989
g2
F2.0
sg3
S'<powerful>'
p990
sg5
F0.0
sg6
F1.0
sg7
F1.4079191651658834e-07
sg8
F1.4079185704950266e-07
ssI492
(dp991
g2
F2.0
sg3
S'<months>'
p992
sg5
F0.0
sg6
F1.0
sg7
F1.4079191651658834e-07
sg8
F1.4079185704950266e-07
ssI493
(dp993
g2
F2.0
sg3
S'<more environmentally>'
p994
sg5
F0.0
sg6
F1.0
sg7
F1.4079191651658834e-07
sg8
F1.4079185704950266e-07
ssI494
(dp995
g2
F2.0
sg3
S'<western>'
p996
sg5
F0.0
sg6
F1.0
sg7
F1.4079191651658834e-07
sg8
F1.4079185704950266e-07
ssI495
(dp997
g2
F2.0
sg3
S'<happily>'
p998
sg5
F0.0
sg6
F1.0
sg7
F1.4079191651658834e-07
sg8
F1.4079185704950266e-07
ssI496
(dp999
g2
F2.0
sg3
S'<consistently>'
p1000
sg5
F0.0
sg6
F1.0
sg7
F1.4079191651658834e-07
sg8
F1.4079185704950266e-07
ssI497
(dp1001
g2
F2.0
sg3
S'<deep>'
p1002
sg5
F0.0
sg6
F1.0
sg7
F1.4079191651658834e-07
sg8
F1.4079185704950266e-07
ssI498
(dp1003
g2
F2.0
sg3
S'<available to the>'
p1004
sg5
F0.0
sg6
F1.0
sg7
F1.4079191651658834e-07
sg8
F1.4079185704950266e-07
ssI499
(dp1005
g2
F2.0
sg3
S'<goddam>'
p1006
sg5
F0.0
sg6
F1.0
sg7
F1.4079191651658834e-07
sg8
F1.4079185704950266e-07
ssI500
(dp1007
g2
F2.0
sg3
S'<kids>'
p1008
sg5
F0.0
sg6
F1.0
sg7
F1.4079191651658834e-07
sg8
F1.4079185704950266e-07
ssI501
(dp1009
g2
F2.0
sg3
S'<acutely>'
p1010
sg5
F0.0
sg6
F1.0
sg7
F1.4079191651658834e-07
sg8
F1.4079185704950266e-07
ssI502
(dp1011
g2
F2.0
sg3
S'<evenly>'
p1012
sg5
F0.0
sg6
F1.0
sg7
F1.4079191651658834e-07
sg8
F1.4079185704950266e-07
ssI503
(dp1013
g2
F2.0
sg3
S'<so goddamn>'
p1014
sg5
F0.0
sg6
F1.0
sg7
F1.4079191651658834e-07
sg8
F1.4079185704950266e-07
ssI504
(dp1015
g2
F2.0
sg3
S'<precious>'
p1016
sg5
F0.0
sg6
F1.0
sg7
F1.4079191651658834e-07
sg8
F1.4079185704950266e-07
ssI505
(dp1017
g2
F2.0
sg3
S'<second most>'
p1018
sg5
F0.0
sg6
F1.0
sg7
F1.4079191651658834e-07
sg8
F1.4079185704950266e-07
ssI506
(dp1019
g2
F1.0
sg3
S'<last but not>'
p1020
sg5
F0.0
sg6
F1.0
sg7
F7.039595825829417e-08
sg8
F7.039594339152205e-08
ssI507
(dp1021
g2
F1.0
sg3
S'<sixteen years>'
p1022
sg5
F0.0
sg6
F1.0
sg7
F7.039595825829417e-08
sg8
F7.039594339152205e-08
ssI508
(dp1023
g2
F1.0
sg3
S'<come with>'
p1024
sg5
F0.0
sg6
F1.0
sg7
F7.039595825829417e-08
sg8
F7.039594339152205e-08
ssI509
(dp1025
g2
F1.0
sg3
S'<a bit more>'
p1026
sg5
F0.0
sg6
F1.0
sg7
F7.039595825829417e-08
sg8
F7.039594339152205e-08
ssI510
(dp1027
g2
F1.0
sg3
S'<a lot more>'
p1028
sg5
F0.0
sg6
F1.0
sg7
F7.039595825829417e-08
sg8
F7.039594339152205e-08
ssI511
(dp1029
g2
F1.0
sg3
S'<ten years>'
p1030
sg5
F0.0
sg6
F1.0
sg7
F7.039595825829417e-08
sg8
F7.039594339152205e-08
ssI512
(dp1031
g2
F1.0
sg3
S'<straight with>'
p1032
sg5
F0.0
sg6
F1.0
sg7
F7.039595825829417e-08
sg8
F7.039594339152205e-08
ssI513
(dp1033
g2
F1.0
sg3
S'<fiercely>'
p1034
sg5
F0.0
sg6
F1.0
sg7
F7.039595825829417e-08
sg8
F7.039594339152205e-08
ssI514
(dp1035
g2
F1.0
sg3
S'<therefore very>'
p1036
sg5
F0.0
sg6
F1.0
sg7
F7.039595825829417e-08
sg8
F7.039594339152205e-08
ssI515
(dp1037
g2
F1.0
sg3
S"<sure that 's>"
p1038
sg5
F0.0
sg6
F1.0
sg7
F7.039595825829417e-08
sg8
F7.039594339152205e-08
ssI516
(dp1039
g2
F1.0
sg3
S'<toll>'
p1040
sg5
F0.0
sg6
F1.0
sg7
F7.039595825829417e-08
sg8
F7.039594339152205e-08
ssI517
(dp1041
g2
F1.0
sg3
S'<good at>'
p1042
sg5
F0.0
sg6
F1.0
sg7
F7.039595825829417e-08
sg8
F7.039594339152205e-08
ssI518
(dp1043
g2
F1.0
sg3
S'<super>'
p1044
sg5
F0.0
sg6
F1.0
sg7
F7.039595825829417e-08
sg8
F7.039594339152205e-08
ssI519
(dp1045
g2
F1.0
sg3
S'<all rather>'
p1046
sg5
F0.0
sg6
F1.0
sg7
F7.039595825829417e-08
sg8
F7.039594339152205e-08
ssI520
(dp1047
g2
F1.0
sg3
S'<shot>'
p1048
sg5
F0.0
sg6
F1.0
sg7
F7.039595825829417e-08
sg8
F7.039594339152205e-08
ssI521
(dp1049
g2
F1.0
sg3
S'<reaily>'
p1050
sg5
F0.0
sg6
F1.0
sg7
F7.039595825829417e-08
sg8
F7.039594339152205e-08
ssI522
(dp1051
g2
F1.0
sg3
S'<fourteen years>'
p1052
sg5
F0.0
sg6
F1.0
sg7
F7.039595825829417e-08
sg8
F7.039594339152205e-08
ssI523
(dp1053
g2
F1.0
sg3
S'<someone>'
p1054
sg5
F0.0
sg6
F1.0
sg7
F7.039595825829417e-08
sg8
F7.039594339152205e-08
ssI524
(dp1055
g2
F1.0
sg3
S'<six years>'
p1056
sg5
F0.0
sg6
F1.0
sg7
F7.039595825829417e-08
sg8
F7.039594339152205e-08
ssI525
(dp1057
g2
F1.0
sg3
S'<farther>'
p1058
sg5
F0.0
sg6
F1.0
sg7
F7.039595825829417e-08
sg8
F7.039594339152205e-08
ssI526
(dp1059
g2
F1.0
sg3
S'<so many>'
p1060
sg5
F0.0
sg6
F1.0
sg7
F7.039595825829417e-08
sg8
F7.039594339152205e-08
ssI527
(dp1061
g2
F1.0
sg3
S'<someplace>'
p1062
sg5
F0.0
sg6
F1.0
sg7
F7.039595825829417e-08
sg8
F7.039594339152205e-08
ssI528
(dp1063
g2
F1.0
sg3
S'<resoundingly>'
p1064
sg5
F0.0
sg6
F1.0
sg7
F7.039595825829417e-08
sg8
F7.039594339152205e-08
ssI529
(dp1065
g2
F1.0
sg3
S'<french-speaking>'
p1066
sg5
F0.0
sg6
F1.0
sg7
F7.039595825829417e-08
sg8
F7.039594339152205e-08
ssI530
(dp1067
g2
F1.0
sg3
S'<middle>'
p1068
sg5
F0.0
sg6
F1.0
sg7
F7.039595825829417e-08
sg8
F7.039594339152205e-08
ssI531
(dp1069
g2
F1.0
sg3
S"<doin ' just>"
p1070
sg5
F0.0
sg6
F1.0
sg7
F7.039595825829417e-08
sg8
F7.039594339152205e-08
ssI532
(dp1071
g2
F1.0
sg3
S'<far more>'
p1072
sg5
F0.0
sg6
F1.0
sg7
F7.039595825829417e-08
sg8
F7.039594339152205e-08
ssI533
(dp1073
g2
F1.0
sg3
S'<stay with>'
p1074
sg5
F0.0
sg6
F1.0
sg7
F7.039595825829417e-08
sg8
F7.039594339152205e-08
ssI534
(dp1075
g2
F1.0
sg3
S'<too late for>'
p1076
sg5
F0.0
sg6
F1.0
sg7
F7.039595825829417e-08
sg8
F7.039594339152205e-08
ssI535
(dp1077
g2
F1.0
sg3
S'<backward>'
p1078
sg5
F0.0
sg6
F1.0
sg7
F7.039595825829417e-08
sg8
F7.039594339152205e-08
ssI536
(dp1079
g2
F1.0
sg3
S'<twenty years>'
p1080
sg5
F0.0
sg6
F1.0
sg7
F7.039595825829417e-08
sg8
F7.039594339152205e-08
ssI537
(dp1081
g2
F1.0
sg3
S'<a whole lot>'
p1082
sg5
F0.0
sg6
F1.0
sg7
F7.039595825829417e-08
sg8
F7.039594339152205e-08
ssI538
(dp1083
g2
F1.0
sg3
S'<twelve years>'
p1084
sg5
F0.0
sg6
F1.0
sg7
F7.039595825829417e-08
sg8
F7.039594339152205e-08
ssI539
(dp1085
g2
F1.0
sg3
S'<vastly>'
p1086
sg5
F0.0
sg6
F1.0
sg7
F7.039595825829417e-08
sg8
F7.039594339152205e-08
ssI540
(dp1087
g2
F1.0
sg3
S'<similarly>'
p1088
sg5
F0.0
sg6
F1.0
sg7
F7.039595825829417e-08
sg8
F7.039594339152205e-08
ssI541
(dp1089
g2
F1.0
sg3
S'<most highly>'
p1090
sg5
F0.0
sg6
F1.0
sg7
F7.039595825829417e-08
sg8
F7.039594339152205e-08
ssI542
(dp1091
g2
F1.0
sg3
S'<boys>'
p1092
sg5
F0.0
sg6
F1.0
sg7
F7.039595825829417e-08
sg8
F7.039594339152205e-08
ssI543
(dp1093
g2
F1.0
sg3
S'<many ,>'
p1094
sg5
F0.0
sg6
F1.0
sg7
F7.039595825829417e-08
sg8
F7.039594339152205e-08
ssI544
(dp1095
g2
F1.0
sg3
S'<hot in>'
p1096
sg5
F0.0
sg6
F1.0
sg7
F7.039595825829417e-08
sg8
F7.039594339152205e-08
ssI545
(dp1097
g2
F1.0
sg3
S'<eleven years>'
p1098
sg5
F0.0
sg6
F1.0
sg7
F7.039595825829417e-08
sg8
F7.039594339152205e-08
ssI546
(dp1099
g2
F1.0
sg3
S'<blindingly>'
p1100
sg5
F0.0
sg6
F1.0
sg7
F7.039595825829417e-08
sg8
F7.039594339152205e-08
ssI547
(dp1101
g2
F1.0
sg3
S'<ordre>'
p1102
sg5
F0.0
sg6
F1.0
sg7
F7.039595825829417e-08
sg8
F7.039594339152205e-08
ssI548
(dp1103
g2
F1.0
sg3
S'<very good at>'
p1104
sg5
F0.0
sg6
F1.0
sg7
F7.039595825829417e-08
sg8
F7.039594339152205e-08
ssI549
(dp1105
g2
F1.0
sg3
S'<criminally>'
p1106
sg5
F0.0
sg6
F1.0
sg7
F7.039595825829417e-08
sg8
F7.039594339152205e-08
ssI550
(dp1107
g2
F1.0
sg3
S'<tall ,>'
p1108
sg5
F0.0
sg6
F1.0
sg7
F7.039595825829417e-08
sg8
F7.039594339152205e-08
ssI551
(dp1109
g2
F1.0
sg3
S'<predominantly>'
p1110
sg5
F0.0
sg6
F1.0
sg7
F7.039595825829417e-08
sg8
F7.039594339152205e-08
ssI552
(dp1111
g2
F1.0
sg3
S'<kind to>'
p1112
sg5
F0.0
sg6
F1.0
sg7
F7.039595825829417e-08
sg8
F7.039594339152205e-08
ssI553
(dp1113
g2
F1.0
sg3
S'<densely>'
p1114
sg5
F0.0
sg6
F1.0
sg7
F7.039595825829417e-08
sg8
F7.039594339152205e-08
ssI554
(dp1115
g2
F1.0
sg3
S'<so terribly>'
p1116
sg5
F0.0
sg6
F1.0
sg7
F7.039595825829417e-08
sg8
F7.039594339152205e-08
ssI555
(dp1117
g2
F1.0
sg3
S'<unusually>'
p1118
sg5
F0.0
sg6
F1.0
sg7
F7.039595825829417e-08
sg8
F7.039594339152205e-08
ssI556
(dp1119
g2
F1.0
sg3
S'<roughly>'
p1120
sg5
F0.0
sg6
F1.0
sg7
F7.039595825829417e-08
sg8
F7.039594339152205e-08
ssI557
(dp1121
g2
F1.0
sg3
S'<good for>'
p1122
sg5
F0.0
sg6
F1.0
sg7
F7.039595825829417e-08
sg8
F7.039594339152205e-08
ssI558
(dp1123
g2
F1.0
sg3
S'<brand>'
p1124
sg5
F0.0
sg6
F1.0
sg7
F7.039595825829417e-08
sg8
F7.039594339152205e-08
ssI559
(dp1125
g2
F1.0
sg3
S'<as easy as>'
p1126
sg5
F0.0
sg6
F1.0
sg7
F7.039595825829417e-08
sg8
F7.039594339152205e-08
ssI560
(dp1127
g2
F1.0
sg3
S'<as good as>'
p1128
sg5
F0.0
sg6
F1.0
sg7
F7.039595825829417e-08
sg8
F7.039594339152205e-08
ssI561
(dp1129
g2
F1.0
sg3
S'<as far as>'
p1130
sg5
F0.0
sg6
F1.0
sg7
F7.039595825829417e-08
sg8
F7.039594339152205e-08
ssI562
(dp1131
g2
F1.0
sg3
S'<clinically>'
p1132
sg5
F0.0
sg6
F1.0
sg7
F7.039595825829417e-08
sg8
F7.039594339152205e-08
ssI563
(dp1133
g2
F1.0
sg3
S'<so->'
p1134
sg5
F0.0
sg6
F1.0
sg7
F7.039595825829417e-08
sg8
F7.039594339152205e-08
ssI564
(dp1135
g2
F1.0
sg3
S'<most frequently>'
p1136
sg5
F0.0
sg6
F1.0
sg7
F7.039595825829417e-08
sg8
F7.039594339152205e-08
ssI565
(dp1137
g2
F1.0
sg3
S'<technologically>'
p1138
sg5
F0.0
sg6
F1.0
sg7
F7.039595825829417e-08
sg8
F7.039594339152205e-08
ssI566
(dp1139
g2
F1.0
sg3
S'<enduringly>'
p1140
sg5
F0.0
sg6
F1.0
sg7
F7.039595825829417e-08
sg8
F7.039594339152205e-08
ssI567
(dp1141
g2
F1.0
sg3
S'<radically>'
p1142
sg5
F0.0
sg6
F1.0
sg7
F7.039595825829417e-08
sg8
F7.039594339152205e-08
ssI568
(dp1143
g2
F1.0
sg3
S'<strangely>'
p1144
sg5
F0.0
sg6
F1.0
sg7
F7.039595825829417e-08
sg8
F7.039594339152205e-08
ssI569
(dp1145
g2
F1.0
sg3
S'<wicked ,>'
p1146
sg5
F0.0
sg6
F1.0
sg7
F7.039595825829417e-08
sg8
F7.039594339152205e-08
ssI570
(dp1147
g2
F1.0
sg3
S'<about to get>'
p1148
sg5
F0.0
sg6
F1.0
sg7
F7.039595825829417e-08
sg8
F7.039594339152205e-08
ssI571
(dp1149
g2
F1.0
sg3
S'<considerably more>'
p1150
sg5
F0.0
sg6
F1.0
sg7
F7.039595825829417e-08
sg8
F7.039594339152205e-08
ssI572
(dp1151
g2
F1.0
sg3
S'<violently>'
p1152
sg5
F0.0
sg6
F1.0
sg7
F7.039595825829417e-08
sg8
F7.039594339152205e-08
ssI573
(dp1153
g2
F1.0
sg3
S'<absolute>'
p1154
sg5
F0.0
sg6
F1.0
sg7
F7.039595825829417e-08
sg8
F7.039594339152205e-08
ssI574
(dp1155
g2
F1.0
sg3
S'<notably>'
p1156
sg5
F0.0
sg6
F1.0
sg7
F7.039595825829417e-08
sg8
F7.039594339152205e-08
ssI575
(dp1157
g2
F1.0
sg3
S'<half as>'
p1158
sg5
F0.0
sg6
F1.0
sg7
F7.039595825829417e-08
sg8
F7.039594339152205e-08
ssI576
(dp1159
g2
F1.0
sg3
S'<more highly>'
p1160
sg5
F0.0
sg6
F1.0
sg7
F7.039595825829417e-08
sg8
F7.039594339152205e-08
ssI577
(dp1161
g2
F1.0
sg3
S'<major>'
p1162
sg5
F0.0
sg6
F1.0
sg7
F7.039595825829417e-08
sg8
F7.039594339152205e-08
ssI578
(dp1163
g2
F1.0
sg3
S'<most commonly>'
p1164
sg5
F0.0
sg6
F1.0
sg7
F7.039595825829417e-08
sg8
F7.039594339152205e-08
ssI579
(dp1165
g2
F1.0
sg3
S'<just not>'
p1166
sg5
F0.0
sg6
F1.0
sg7
F7.039595825829417e-08
sg8
F7.039594339152205e-08
ssI580
(dp1167
g2
F1.0
sg3
S'<only rather>'
p1168
sg5
F0.0
sg6
F1.0
sg7
F7.039595825829417e-08
sg8
F7.039594339152205e-08
ssI581
(dp1169
g2
F1.0
sg3
S'<comfortably>'
p1170
sg5
F0.0
sg6
F1.0
sg7
F7.039595825829417e-08
sg8
F7.039594339152205e-08
ssI582
(dp1171
g2
F1.0
sg3
S'<a little more>'
p1172
sg5
F0.0
sg6
F1.0
sg7
F7.039595825829417e-08
sg8
F7.039594339152205e-08
ssI583
(dp1173
g2
F1.0
sg3
S'<orally>'
p1174
sg5
F0.0
sg6
F1.0
sg7
F7.039595825829417e-08
sg8
F7.039594339152205e-08
ssI584
(dp1175
g2
F1.0
sg3
S'<fifty years>'
p1176
sg5
F0.0
sg6
F1.0
sg7
F7.039595825829417e-08
sg8
F7.039594339152205e-08
ssI585
(dp1177
g2
F1.0
sg3
S'<tough on>'
p1178
sg5
F0.0
sg6
F1.0
sg7
F7.039595825829417e-08
sg8
F7.039594339152205e-08
ssI586
(dp1179
g2
F1.0
sg3
S'<gravely>'
p1180
sg5
F0.0
sg6
F1.0
sg7
F7.039595825829417e-08
sg8
F7.039594339152205e-08
ssI587
(dp1181
g2
F1.0
sg3
S'<guys more>'
p1182
sg5
F0.0
sg6
F1.0
sg7
F7.039595825829417e-08
sg8
F7.039594339152205e-08
ssI588
(dp1183
g2
F1.0
sg3
S'<two months>'
p1184
sg5
F0.0
sg6
F1.0
sg7
F7.039595825829417e-08
sg8
F7.039594339152205e-08
ssI589
(dp1185
g2
F1.0
sg3
S'<squeaky>'
p1186
sg5
F0.0
sg6
F1.0
sg7
F7.039595825829417e-08
sg8
F7.039594339152205e-08
ssI590
(dp1187
g2
F1.0
sg3
S'<so far as>'
p1188
sg5
F0.0
sg6
F1.0
sg7
F7.039595825829417e-08
sg8
F7.039594339152205e-08
ssI591
(dp1189
g2
F1.0
sg3
S'<o for>'
p1190
sg5
F0.0
sg6
F1.0
sg7
F7.039595825829417e-08
sg8
F7.039594339152205e-08
ssI592
(dp1191
g2
F1.0
sg3
S'<top>'
p1192
sg5
F0.0
sg6
F1.0
sg7
F7.039595825829417e-08
sg8
F7.039594339152205e-08
ssI593
(dp1193
g2
F1.0
sg3
S'<luke>'
p1194
sg5
F0.0
sg6
F1.0
sg7
F7.039595825829417e-08
sg8
F7.039594339152205e-08
ssI594
(dp1195
g2
F1.0
sg3
S'<fast ,>'
p1196
sg5
F0.0
sg6
F1.0
sg7
F7.039595825829417e-08
sg8
F7.039594339152205e-08
ssI595
(dp1197
g2
F1.0
sg3
S'<okay ,>'
p1198
sg5
F0.0
sg6
F1.0
sg7
F7.039595825829417e-08
sg8
F7.039594339152205e-08
ssI596
(dp1199
g2
F1.0
sg3
S'<ice>'
p1200
sg5
F0.0
sg6
F1.0
sg7
F7.039595825829417e-08
sg8
F7.039594339152205e-08
ssI597
(dp1201
g2
F1.0
sg3
S'<thirteen years>'
p1202
sg5
F0.0
sg6
F1.0
sg7
F7.039595825829417e-08
sg8
F7.039594339152205e-08
ssI598
(dp1203
g2
F1.0
sg3
S'<fuel>'
p1204
sg5
F0.0
sg6
F1.0
sg7
F7.039595825829417e-08
sg8
F7.039594339152205e-08
ssI599
(dp1205
g2
F1.0
sg3
S'<physically or mentally>'
p1206
sg5
F0.0
sg6
F1.0
sg7
F7.039595825829417e-08
sg8
F7.039594339152205e-08
ssI600
(dp1207
g2
F1.0
sg3
S'<a great deal>'
p1208
sg5
F0.0
sg6
F1.0
sg7
F7.039595825829417e-08
sg8
F7.039594339152205e-08
ssI601
(dp1209
g2
F1.0
sg3
S'<as high as>'
p1210
sg5
F0.0
sg6
F1.0
sg7
F7.039595825829417e-08
sg8
F7.039594339152205e-08
ssI602
(dp1211
g2
F1.0
sg3
S'<plumb>'
p1212
sg5
F0.0
sg6
F1.0
sg7
F7.039595825829417e-08
sg8
F7.039594339152205e-08
ssI603
(dp1213
g2
F1.0
sg3
S'<most environmentally>'
p1214
sg5
F0.0
sg6
F1.0
sg7
F7.039595825829417e-08
sg8
F7.039594339152205e-08
ssI604
(dp1215
g2
F1.0
sg3
S'<fourth>'
p1216
sg5
F0.0
sg6
F1.0
sg7
F7.039595825829417e-08
sg8
F7.039594339152205e-08
ss.