(dp0
S'<widely>'
p1
(dp2
S'count'
p3
F108.0
sS'idx'
p4
I41
sS'min'
p5
F0.0
sS'max'
p6
F1.0
sS'mu'
p7
F7.602763491895771e-06
sS'sigma'
p8
F7.6025900867365355e-06
ssS'<otherwise>'
p9
(dp10
g3
F78.0
sg4
I49
sg5
F0.0
sg6
F1.0
sg7
F5.490884744146946e-06
sg8
F5.490794295032228e-06
ssS'<all>'
p11
(dp12
g3
F620.0
sg4
I10
sg5
F0.0
sg6
F1.0
sg7
F4.3645494120142385e-05
sg8
F4.3639779498954384e-05
ssS'<that>'
p13
(dp14
g3
F329.0
sg4
I21
sg5
F0.0
sg6
F1.0
sg7
F2.3160270266978785e-05
sg8
F2.3158661097468544e-05
ssS'<entirely>'
p15
(dp16
g3
F120.0
sg4
I39
sg5
F0.0
sg6
F1.0
sg7
F8.4475149909953e-06
sg8
F8.447300910672382e-06
ssS'<almost>'
p17
(dp18
g3
F123.0
sg4
I38
sg5
F0.0
sg6
F1.0
sg7
F8.658702865770183e-06
sg8
F8.65847794766257e-06
ssS'<just so>'
p19
(dp20
g3
F135.0
sg4
I35
sg5
F0.0
sg6
F1.0
sg7
F9.503454364869714e-06
sg8
F9.503183419651726e-06
ssS'<much>'
p21
(dp22
g3
F247.0
sg4
I26
sg5
F0.0
sg6
F1.0
sg7
F1.738780168979866e-05
sg8
F1.7386894693369846e-05
ssS'<just>'
p23
(dp24
g3
F810.0
sg4
I8
sg5
F0.0
sg6
F1.0
sg7
F5.702072618921828e-05
sg8
F5.701097247036394e-05
ssS'<real>'
p25
(dp26
g3
F273.0
sg4
I24
sg5
F0.0
sg6
F1.0
sg7
F1.921809660451431e-05
sg8
F1.9216988612998824e-05
ssS'<well>'
p27
(dp28
g3
F404.0
sg4
I17
sg5
F0.0
sg6
F1.0
sg7
F2.8439967136350846e-05
sg8
F2.8437540687164792e-05
ssS'<truly>'
p29
(dp30
g3
F175.0
sg4
I34
sg5
F0.0
sg6
F1.0
sg7
F1.231929269520148e-05
sg8
F1.2318837404023248e-05
ssS'<a little>'
p31
(dp32
g3
F254.0
sg4
I25
sg5
F0.0
sg6
F1.0
sg7
F1.788057339760672e-05
sg8
F1.787961426432508e-05
ssS'<extremely>'
p33
(dp34
g3
F572.0
sg4
I11
sg5
F0.0
sg6
F1.0
sg7
F4.026648812374427e-05
sg8
F4.026162408412207e-05
ssS'<therefore>'
p35
(dp36
g3
F235.0
sg4
I28
sg5
F0.0
sg6
F1.0
sg7
F1.654305019069913e-05
sg8
F1.654222918222498e-05
ssS'<really>'
p37
(dp38
g3
F2071.0
sg4
I4
sg5
F0.0
sg6
F1.0
sg7
F0.00014579002955292724
sg8
F0.00014572627155223745
ssS'<only>'
p39
(dp40
g3
F301.0
sg4
I22
sg5
F0.0
sg6
F1.0
sg7
F2.1189183435746546e-05
sg8
F2.1187836510289655e-05
ssS'<rather>'
p41
(dp42
g3
F479.0
sg4
I13
sg5
F0.0
sg6
F1.0
sg7
F3.371966400572291e-05
sg8
F3.371625303518095e-05
ssS'<relatively>'
p43
(dp44
g3
F377.0
sg4
I18
sg5
F0.0
sg6
F1.0
sg7
F2.6539276263376905e-05
sg8
F2.6537163301208144e-05
ssS'<kind of>'
p45
(dp46
g3
F181.0
sg4
I32
sg5
F0.0
sg6
F1.0
sg7
F1.2741668444751245e-05
sg8
F1.2741181398544201e-05
ssS'<generally>'
p47
(dp48
g3
F94.0
sg4
I44
sg5
F0.0
sg6
F1.0
sg7
F6.6172200762796525e-06
sg8
F6.6170887140545515e-06
ssS'<completely>'
p49
(dp50
g3
F452.0
sg4
I15
sg5
F0.0
sg6
F1.0
sg7
F3.181897313274897e-05
sg8
F3.1815935856025405e-05
ssS'<far>'
p51
(dp52
g3
F88.0
sg4
I45
sg5
F0.0
sg6
F1.0
sg7
F6.194844326729887e-06
sg8
F6.194729198916649e-06
ssS'<clearly>'
p53
(dp54
g3
F198.0
sg4
I30
sg5
F0.0
sg6
F1.0
sg7
F1.3938399735142247e-05
sg8
F1.3937816903596563e-05
ssS'<very>'
p55
(dp56
g3
F5658.0
sg4
I1
sg5
F0.0
sg6
F1.0
sg7
F0.00039830033182542844
sg8
F0.0003978245287376902
ssS'<most>'
p57
(dp58
g3
F2296.0
sg4
I3
sg5
F0.0
sg6
F1.0
sg7
F0.00016162912016104344
sg8
F0.00016155075668837333
ssS'<even>'
p59
(dp60
g3
F211.0
sg4
I29
sg5
F0.0
sg6
F1.0
sg7
F1.4853547192500072e-05
sg8
F1.4852885315461651e-05
ssS'<more>'
p61
(dp62
g3
F1665.0
sg4
I6
sg5
F0.0
sg6
F1.0
sg7
F0.0001172092705000598
sg8
F0.00011716805968123044
ssS'<a bit>'
p63
(dp64
g3
F78.0
sg4
I48
sg5
F0.0
sg6
F1.0
sg7
F5.490884744146946e-06
sg8
F5.490794295032228e-06
ssS'<is weaker than>'
p65
(dp66
g3
F3600171.0
sg4
I0
sg5
F0.0
sg6
F264508.0
sg7
F0.2534374874387212
sg8
F14521.900952863014
ssS'<highly>'
p67
(dp68
g3
F423.0
sg4
I16
sg5
F0.0
sg6
F1.0
sg7
F2.9777490343258435e-05
sg8
F2.977483029927248e-05
ssS'<pretty>'
p69
(dp70
g3
F1582.0
sg4
I7
sg5
F0.0
sg6
F1.0
sg7
F0.00011136640596462138
sg8
F0.0001113292012979271
ssS'<mutually>'
p71
(dp72
g3
F124.0
sg4
I37
sg5
F0.0
sg6
F1.0
sg7
F8.729098824028478e-06
sg8
F8.72887023385992e-06
ssS'<fairly>'
p73
(dp74
g3
F118.0
sg4
I40
sg5
F0.0
sg6
F1.0
sg7
F8.306723074478713e-06
sg8
F8.306516070680378e-06
ssS'<somewhat>'
p75
(dp76
g3
F176.0
sg4
I33
sg5
F0.0
sg6
F1.0
sg7
F1.2389688653459774e-05
sg8
F1.2389228144108748e-05
ssS'<so>'
p77
(dp78
g3
F3549.0
sg4
I2
sg5
F0.0
sg6
F1.0
sg7
F0.000249835255858686
sg8
F0.00024964803408171433
ssS'<readily>'
p79
(dp80
g3
F80.0
sg4
I47
sg5
F0.0
sg6
F1.0
sg7
F5.631676660663534e-06
sg8
F5.6315815136747276e-06
ssS'<particularly>'
p81
(dp82
g3
F288.0
sg4
I23
sg5
F0.0
sg6
F1.0
sg7
F2.027403597838872e-05
sg8
F2.02728028854509e-05
ssS'<too>'
p83
(dp84
g3
F342.0
sg4
I19
sg5
F0.0
sg6
F1.0
sg7
F2.407541772433661e-05
sg8
F2.407367887503013e-05
ssS'<as>'
p85
(dp86
g3
F516.0
sg4
I12
sg5
F0.0
sg6
F1.0
sg7
F3.6324314461279796e-05
sg8
F3.632035618967285e-05
ssS'<currently>'
p87
(dp88
g3
F88.0
sg4
I46
sg5
F0.0
sg6
F1.0
sg7
F6.194844326729887e-06
sg8
F6.194729198916649e-06
ssS'<any>'
p89
(dp90
g3
F126.0
sg4
I36
sg5
F0.0
sg6
F1.0
sg7
F8.869890740545067e-06
sg8
F8.86965471705547e-06
ssS'<absolutely>'
p91
(dp92
g3
F715.0
sg4
I9
sg5
F0.0
sg6
F1.0
sg7
F5.0333110154680334e-05
sg8
F5.0325510143776204e-05
ssS'<fully>'
p93
(dp94
g3
F194.0
sg4
I31
sg5
F0.0
sg6
F1.0
sg7
F1.365681590210907e-05
sg8
F1.3656256381341566e-05
ssS'<quite>'
p95
(dp96
g3
F1903.0
sg4
I5
sg5
F0.0
sg6
F1.0
sg7
F0.0001339635085655338
sg8
F0.0001339096747089256
ssS'<perfectly>'
p97
(dp98
g3
F339.0
sg4
I20
sg5
F0.0
sg6
F1.0
sg7
F2.3864229849561724e-05
sg8
F2.3862521372344125e-05
ssS'<totally>'
p99
(dp100
g3
F459.0
sg4
I14
sg5
F0.0
sg6
F1.0
sg7
F3.2311744840557026e-05
sg8
F3.230861276146344e-05
ssS'<less>'
p101
(dp102
g3
F237.0
sg4
I27
sg5
F0.0
sg6
F1.0
sg7
F1.668384210721572e-05
sg8
F1.6683007064741173e-05
ssS'<economically>'
p103
(dp104
g3
F98.0
sg4
I43
sg5
F0.0
sg6
F1.0
sg7
F6.898803909312829e-06
sg8
F6.898661129483352e-06
ssS'<environmentally>'
p105
(dp106
g3
F104.0
sg4
I42
sg5
F0.0
sg6
F1.0
sg7
F7.321179658862594e-06
sg8
F7.321018860632646e-06
ss.