(dp0
S'<is weaker than>'
p1
(dp2
S'count'
p3
F3600171.0
sS'idx'
p4
I0
sS'min'
p5
F0.0
sS'max'
p6
F264508.0
sS'mu'
p7
F0.2534374874387212
sS'sigma'
p8
F14521.900952863014
ssS'<very>'
p9
(dp10
g3
F5658.0
sg4
I1
sg5
F0.0
sg6
F1.0
sg7
F0.00039830033182542844
sg8
F0.0003978245287376902
ssS'<most>'
p11
(dp12
g3
F2296.0
sg4
I3
sg5
F0.0
sg6
F1.0
sg7
F0.00016162912016104344
sg8
F0.00016155075668837333
ssS'<so>'
p13
(dp14
g3
F3549.0
sg4
I2
sg5
F0.0
sg6
F1.0
sg7
F0.000249835255858686
sg8
F0.00024964803408171433
ssS'<really>'
p15
(dp16
g3
F2071.0
sg4
I4
sg5
F0.0
sg6
F1.0
sg7
F0.00014579002955292724
sg8
F0.00014572627155223745
ss.