(dp0
S'<all that>'
p1
(dp2
S'count'
p3
F19.0
sS'idx'
p4
I163
sS'min'
p5
F0.0
sS'max'
p6
F1.0
sS'mu'
p7
F1.3375232069075892e-06
sS'sigma'
p8
F1.3375178400073883e-06
ssS'<fast>'
p9
(dp10
g3
F11.0
sg4
I231
sg5
F0.0
sg6
F1.0
sg7
F7.743555408412359e-07
sg8
F7.743537419626536e-07
ssS'<carefully>'
p11
(dp12
g3
F12.0
sg4
I219
sg5
F0.0
sg6
F1.0
sg7
F8.4475149909953e-07
sg8
F8.447493582854501e-07
ssS'<otherwise>'
p13
(dp14
g3
F78.0
sg4
I49
sg5
F0.0
sg6
F1.0
sg7
F5.490884744146946e-06
sg8
F5.490794295032228e-06
ssS'<wonderful ,>'
p15
(dp16
g3
F21.0
sg4
I152
sg5
F0.0
sg6
F1.0
sg7
F1.4783151234241776e-06
sg8
F1.4783085671838258e-06
ssS'<now>'
p17
(dp18
g3
F27.0
sg4
I124
sg5
F0.0
sg6
F1.0
sg7
F1.9006908729739428e-06
sg8
F1.9006800351102909e-06
ssS'<friendly>'
p19
(dp20
g3
F8.0
sg4
I291
sg5
F0.0
sg6
F1.0
sg7
F5.631676660663534e-07
sg8
F5.631667145932505e-07
ssS'<large>'
p21
(dp22
g3
F13.0
sg4
I216
sg5
F0.0
sg6
F1.0
sg7
F9.151474573578242e-07
sg8
F9.151449448747507e-07
ssS'<crucially>'
p23
(dp24
g3
F21.0
sg4
I150
sg5
F0.0
sg6
F1.0
sg7
F1.4783151234241776e-06
sg8
F1.4783085671838258e-06
ssS'<bad ,>'
p25
(dp26
g3
F8.0
sg4
I278
sg5
F0.0
sg6
F1.0
sg7
F5.631676660663534e-07
sg8
F5.631667145932505e-07
ssS'<just so>'
p27
(dp28
g3
F135.0
sg4
I35
sg5
F0.0
sg6
F1.0
sg7
F9.503454364869714e-06
sg8
F9.503183419651726e-06
ssS'<about>'
p29
(dp30
g3
F44.0
sg4
I78
sg5
F0.0
sg6
F1.0
sg7
F3.0974221633649435e-06
sg8
F3.0973933813522037e-06
ssS'<a great>'
p31
(dp32
g3
F12.0
sg4
I223
sg5
F0.0
sg6
F1.0
sg7
F8.4475149909953e-07
sg8
F8.447493582854501e-07
ssS'<nothing>'
p33
(dp34
g3
F16.0
sg4
I176
sg5
F0.0
sg6
F1.0
sg7
F1.1263353321327067e-06
sg8
F1.1263315262417236e-06
ssS'<hardly>'
p35
(dp36
g3
F24.0
sg4
I134
sg5
F0.0
sg6
F1.0
sg7
F1.68950299819906e-06
sg8
F1.6894944349475622e-06
ssS"<fuckin '>"
p37
(dp38
g3
F12.0
sg4
I222
sg5
F0.0
sg6
F1.0
sg7
F8.4475149909953e-07
sg8
F8.447493582854501e-07
ssS'<still>'
p39
(dp40
g3
F74.0
sg4
I51
sg5
F0.0
sg6
F1.0
sg7
F5.209300911113769e-06
sg8
F5.209219500948553e-06
ssS'<closely>'
p41
(dp42
g3
F41.0
sg4
I86
sg5
F0.0
sg6
F1.0
sg7
F2.8862342885900612e-06
sg8
F2.8862092975930393e-06
ssS'<well>'
p43
(dp44
g3
F404.0
sg4
I17
sg5
F0.0
sg6
F1.0
sg7
F2.8439967136350846e-05
sg8
F2.8437540687164792e-05
ssS'<ready to>'
p45
(dp46
g3
F57.0
sg4
I63
sg5
F0.0
sg6
F1.0
sg7
F4.012569620722768e-06
sg8
F4.012521318707091e-06
ssS'<a little>'
p47
(dp48
g3
F254.0
sg4
I25
sg5
F0.0
sg6
F1.0
sg7
F1.788057339760672e-05
sg8
F1.787961426432508e-05
ssS'<generally>'
p49
(dp50
g3
F94.0
sg4
I44
sg5
F0.0
sg6
F1.0
sg7
F6.6172200762796525e-06
sg8
F6.6170887140545515e-06
ssS'<half>'
p51
(dp52
g3
F21.0
sg4
I148
sg5
F0.0
sg6
F1.0
sg7
F1.4783151234241776e-06
sg8
F1.4783085671838258e-06
ssS'<strongly>'
p53
(dp54
g3
F14.0
sg4
I197
sg5
F0.0
sg6
F1.0
sg7
F9.855434156161184e-07
sg8
F9.855405017305606e-07
ssS'<a bit>'
p55
(dp56
g3
F78.0
sg4
I48
sg5
F0.0
sg6
F1.0
sg7
F5.490884744146946e-06
sg8
F5.490794295032228e-06
ssS'<many>'
p57
(dp58
g3
F19.0
sg4
I160
sg5
F0.0
sg6
F1.0
sg7
F1.3375232069075892e-06
sg8
F1.3375178400073883e-06
ssS'<critically>'
p59
(dp60
g3
F26.0
sg4
I126
sg5
F0.0
sg6
F1.0
sg7
F1.8302949147156484e-06
sg8
F1.8302848647894868e-06
ssS'<clean ,>'
p61
(dp62
g3
F10.0
sg4
I256
sg5
F0.0
sg6
F1.0
sg7
F7.039595825829417e-07
sg8
F7.039580959063575e-07
ssS'<remarkably>'
p63
(dp64
g3
F13.0
sg4
I211
sg5
F0.0
sg6
F1.0
sg7
F9.151474573578242e-07
sg8
F9.151449448747507e-07
ssS'<afraid of>'
p65
(dp66
g3
F28.0
sg4
I120
sg5
F0.0
sg6
F1.0
sg7
F1.971086831232237e-06
sg8
F1.9710751756976654e-06
ssS'<politically>'
p67
(dp68
g3
F12.0
sg4
I217
sg5
F0.0
sg6
F1.0
sg7
F8.4475149909953e-07
sg8
F8.447493582854501e-07
ssS'<so fucking>'
p69
(dp70
g3
F18.0
sg4
I169
sg5
F0.0
sg6
F1.0
sg7
F1.267127248649295e-06
sg8
F1.2671224318189712e-06
ssS'<financially>'
p71
(dp72
g3
F39.0
sg4
I95
sg5
F0.0
sg6
F1.0
sg7
F2.745442372073473e-06
sg8
F2.7454197597534043e-06
ssS'<plainly>'
p73
(dp74
g3
F7.0
sg4
I299
sg5
F0.0
sg6
F1.0
sg7
F4.927717078080592e-07
sg8
F4.927709793364305e-07
ssS'<mentally>'
p75
(dp76
g3
F28.0
sg4
I118
sg5
F0.0
sg6
F1.0
sg7
F1.971086831232237e-06
sg8
F1.9710751756976654e-06
ssS'<regularly>'
p77
(dp78
g3
F13.0
sg4
I215
sg5
F0.0
sg6
F1.0
sg7
F9.151474573578242e-07
sg8
F9.151449448747507e-07
ssS'<a lot>'
p79
(dp80
g3
F45.0
sg4
I74
sg5
F0.0
sg6
F1.0
sg7
F3.167818121623238e-06
sg8
F3.1677880164718606e-06
ssS'<officially>'
p81
(dp82
g3
F13.0
sg4
I210
sg5
F0.0
sg6
F1.0
sg7
F9.151474573578242e-07
sg8
F9.151449448747507e-07
ssS'<often>'
p83
(dp84
g3
F25.0
sg4
I129
sg5
F0.0
sg6
F1.0
sg7
F1.7598989564573543e-06
sg8
F1.7598896647352441e-06
ssS'<scared>'
p85
(dp86
g3
F12.0
sg4
I226
sg5
F0.0
sg6
F1.0
sg7
F8.4475149909953e-07
sg8
F8.447493582854501e-07
ssS'<very>'
p87
(dp88
g3
F5658.0
sg4
I1
sg5
F0.0
sg6
F1.0
sg7
F0.00039830033182542844
sg8
F0.0003978245287376902
ssS'<mighty>'
p89
(dp90
g3
F22.0
sg4
I145
sg5
F0.0
sg6
F1.0
sg7
F1.5487110816824718e-06
sg8
F1.548703886171858e-06
ssS'<therefore>'
p91
(dp92
g3
F235.0
sg4
I28
sg5
F0.0
sg6
F1.0
sg7
F1.654305019069913e-05
sg8
F1.654222918222498e-05
ssS'<strictly>'
p93
(dp94
g3
F24.0
sg4
I132
sg5
F0.0
sg6
F1.0
sg7
F1.68950299819906e-06
sg8
F1.6894944349475622e-06
ssS'<already>'
p95
(dp96
g3
F70.0
sg4
I55
sg5
F0.0
sg6
F1.0
sg7
F4.927717078080592e-06
sg8
F4.927644231133106e-06
ssS'<formally>'
p97
(dp98
g3
F8.0
sg4
I274
sg5
F0.0
sg6
F1.0
sg7
F5.631676660663534e-07
sg8
F5.631667145932505e-07
ssS'<anything>'
p99
(dp100
g3
F7.0
sg4
I298
sg5
F0.0
sg6
F1.0
sg7
F4.927717078080592e-07
sg8
F4.927709793364305e-07
ssS'<hereby>'
p101
(dp102
g3
F19.0
sg4
I159
sg5
F0.0
sg6
F1.0
sg7
F1.3375232069075892e-06
sg8
F1.3375178400073883e-06
ssS'<close to being>'
p103
(dp104
g3
F13.0
sg4
I205
sg5
F0.0
sg6
F1.0
sg7
F9.151474573578242e-07
sg8
F9.151449448747507e-07
ssS'<somewhat>'
p105
(dp106
g3
F176.0
sg4
I33
sg5
F0.0
sg6
F1.0
sg7
F1.2389688653459774e-05
sg8
F1.2389228144108748e-05
ssS'<surprisingly>'
p107
(dp108
g3
F8.0
sg4
I290
sg5
F0.0
sg6
F1.0
sg7
F5.631676660663534e-07
sg8
F5.631667145932505e-07
ssS'<specifically>'
p109
(dp110
g3
F13.0
sg4
I204
sg5
F0.0
sg6
F1.0
sg7
F9.151474573578242e-07
sg8
F9.151449448747507e-07
ssS'<readily>'
p111
(dp112
g3
F80.0
sg4
I47
sg5
F0.0
sg6
F1.0
sg7
F5.631676660663534e-06
sg8
F5.6315815136747276e-06
ssS'<usually>'
p113
(dp114
g3
F7.0
sg4
I292
sg5
F0.0
sg6
F1.0
sg7
F4.927717078080592e-07
sg8
F4.927709793364305e-07
ssS'<fucking>'
p115
(dp116
g3
F52.0
sg4
I68
sg5
F0.0
sg6
F1.0
sg7
F3.660589829431297e-06
sg8
F3.660549629775705e-06
ssS'<emotionally>'
p117
(dp118
g3
F11.0
sg4
I230
sg5
F0.0
sg6
F1.0
sg7
F7.743555408412359e-07
sg8
F7.743537419626536e-07
ssS'<desperately>'
p119
(dp120
g3
F8.0
sg4
I283
sg5
F0.0
sg6
F1.0
sg7
F5.631676660663534e-07
sg8
F5.631667145932505e-07
ssS'<greater>'
p121
(dp122
g3
F18.0
sg4
I165
sg5
F0.0
sg6
F1.0
sg7
F1.267127248649295e-06
sg8
F1.2671224318189712e-06
ssS'<nice ,>'
p123
(dp124
g3
F8.0
sg4
I288
sg5
F0.0
sg6
F1.0
sg7
F5.631676660663534e-07
sg8
F5.631667145932505e-07
ssS'<fully>'
p125
(dp126
g3
F194.0
sg4
I31
sg5
F0.0
sg6
F1.0
sg7
F1.365681590210907e-05
sg8
F1.3656256381341566e-05
ssS'<quite>'
p127
(dp128
g3
F1903.0
sg4
I5
sg5
F0.0
sg6
F1.0
sg7
F0.0001339635085655338
sg8
F0.0001339096747089256
ssS'<south>'
p129
(dp130
g3
F11.0
sg4
I242
sg5
F0.0
sg6
F1.0
sg7
F7.743555408412359e-07
sg8
F7.743537419626536e-07
ssS'<potentially>'
p131
(dp132
g3
F72.0
sg4
I53
sg5
F0.0
sg6
F1.0
sg7
F5.06850899459718e-06
sg8
F5.0684319255073085e-06
ssS'<guys>'
p133
(dp134
g3
F11.0
sg4
I239
sg5
F0.0
sg6
F1.0
sg7
F7.743555408412359e-07
sg8
F7.743537419626536e-07
ssS'<definitely>'
p135
(dp136
g3
F10.0
sg4
I246
sg5
F0.0
sg6
F1.0
sg7
F7.039595825829417e-07
sg8
F7.039580959063575e-07
ssS'<appropriately>'
p137
(dp138
g3
F13.0
sg4
I203
sg5
F0.0
sg6
F1.0
sg7
F9.151474573578242e-07
sg8
F9.151449448747507e-07
ssS'<totally>'
p139
(dp140
g3
F459.0
sg4
I14
sg5
F0.0
sg6
F1.0
sg7
F3.2311744840557026e-05
sg8
F3.230861276146344e-05
ssS'<one>'
p141
(dp142
g3
F16.0
sg4
I178
sg5
F0.0
sg6
F1.0
sg7
F1.1263353321327067e-06
sg8
F1.1263315262417236e-06
ssS'<clearly>'
p143
(dp144
g3
F198.0
sg4
I30
sg5
F0.0
sg6
F1.0
sg7
F1.3938399735142247e-05
sg8
F1.3937816903596563e-05
ssS'<sort of>'
p145
(dp146
g3
F7.0
sg4
I297
sg5
F0.0
sg6
F1.0
sg7
F4.927717078080592e-07
sg8
F4.927709793364305e-07
ssS'<poorly>'
p147
(dp148
g3
F10.0
sg4
I254
sg5
F0.0
sg6
F1.0
sg7
F7.039595825829417e-07
sg8
F7.039580959063575e-07
ssS'<so much>'
p149
(dp150
g3
F11.0
sg4
I237
sg5
F0.0
sg6
F1.0
sg7
F7.743555408412359e-07
sg8
F7.743537419626536e-07
ssS'<wherever>'
p151
(dp152
g3
F8.0
sg4
I279
sg5
F0.0
sg6
F1.0
sg7
F5.631676660663534e-07
sg8
F5.631667145932505e-07
ssS'<and>'
p153
(dp154
g3
F16.0
sg4
I177
sg5
F0.0
sg6
F1.0
sg7
F1.1263353321327067e-06
sg8
F1.1263315262417236e-06
ssS'<newly>'
p155
(dp156
g3
F70.0
sg4
I56
sg5
F0.0
sg6
F1.0
sg7
F4.927717078080592e-06
sg8
F4.927644231133106e-06
ssS'<inherently>'
p157
(dp158
g3
F8.0
sg4
I286
sg5
F0.0
sg6
F1.0
sg7
F5.631676660663534e-07
sg8
F5.631667145932505e-07
ssS'<dead>'
p159
(dp160
g3
F20.0
sg4
I157
sg5
F0.0
sg6
F1.0
sg7
F1.4079191651658834e-06
sg8
F1.4079132184623385e-06
ssS'<allegedly>'
p161
(dp162
g3
F8.0
sg4
I270
sg5
F0.0
sg6
F1.0
sg7
F5.631676660663534e-07
sg8
F5.631667145932505e-07
ssS'<physically>'
p163
(dp164
g3
F39.0
sg4
I94
sg5
F0.0
sg6
F1.0
sg7
F2.745442372073473e-06
sg8
F2.7454197597534043e-06
ssS'<patently>'
p165
(dp166
g3
F45.0
sg4
I75
sg5
F0.0
sg6
F1.0
sg7
F3.167818121623238e-06
sg8
F3.1677880164718606e-06
ssS'<best>'
p167
(dp168
g3
F29.0
sg4
I114
sg5
F0.0
sg6
F1.0
sg7
F2.041482789490531e-06
sg8
F2.041470286551609e-06
ssS'<east>'
p169
(dp170
g3
F11.0
sg4
I240
sg5
F0.0
sg6
F1.0
sg7
F7.743555408412359e-07
sg8
F7.743537419626536e-07
ssS'<tremendously>'
p171
(dp172
g3
F10.0
sg4
I244
sg5
F0.0
sg6
F1.0
sg7
F7.039595825829417e-07
sg8
F7.039580959063575e-07
ssS'<presently>'
p173
(dp174
g3
F8.0
sg4
I289
sg5
F0.0
sg6
F1.0
sg7
F5.631676660663534e-07
sg8
F5.631667145932505e-07
ssS'<utterly>'
p175
(dp176
g3
F27.0
sg4
I123
sg5
F0.0
sg6
F1.0
sg7
F1.9006908729739428e-06
sg8
F1.9006800351102909e-06
ssS'<much>'
p177
(dp178
g3
F247.0
sg4
I26
sg5
F0.0
sg6
F1.0
sg7
F1.738780168979866e-05
sg8
F1.7386894693369846e-05
ssS'<unacceptably>'
p179
(dp180
g3
F27.0
sg4
I121
sg5
F0.0
sg6
F1.0
sg7
F1.9006908729739428e-06
sg8
F1.9006800351102909e-06
ssS'<something>'
p181
(dp182
g3
F33.0
sg4
I107
sg5
F0.0
sg6
F1.0
sg7
F2.323066622523708e-06
sg8
F2.3230504326331834e-06
ssS'<medically>'
p183
(dp184
g3
F14.0
sg4
I194
sg5
F0.0
sg6
F1.0
sg7
F9.855434156161184e-07
sg8
F9.855405017305606e-07
ssS'<excellent ,>'
p185
(dp186
g3
F13.0
sg4
I202
sg5
F0.0
sg6
F1.0
sg7
F9.151474573578242e-07
sg8
F9.151449448747507e-07
ssS'<properly>'
p187
(dp188
g3
F43.0
sg4
I80
sg5
F0.0
sg6
F1.0
sg7
F3.0270262051066496e-06
sg8
F3.026998716499183e-06
ssS'<fair>'
p189
(dp190
g3
F31.0
sg4
I110
sg5
F0.0
sg6
F1.0
sg7
F2.1822747060071195e-06
sg8
F2.182260419059226e-06
ssS'<truly>'
p191
(dp192
g3
F175.0
sg4
I34
sg5
F0.0
sg6
F1.0
sg7
F1.231929269520148e-05
sg8
F1.2318837404023248e-05
ssS'<extremely>'
p193
(dp194
g3
F572.0
sg4
I11
sg5
F0.0
sg6
F1.0
sg7
F4.026648812374427e-05
sg8
F4.026162408412207e-05
ssS'<close>'
p195
(dp196
g3
F24.0
sg4
I131
sg5
F0.0
sg6
F1.0
sg7
F1.68950299819906e-06
sg8
F1.6894944349475622e-06
ssS'<fine ,>'
p197
(dp198
g3
F22.0
sg4
I146
sg5
F0.0
sg6
F1.0
sg7
F1.5487110816824718e-06
sg8
F1.548703886171858e-06
ssS'<only>'
p199
(dp200
g3
F301.0
sg4
I22
sg5
F0.0
sg6
F1.0
sg7
F2.1189183435746546e-05
sg8
F2.1187836510289655e-05
ssS'<crazy>'
p201
(dp202
g3
F28.0
sg4
I116
sg5
F0.0
sg6
F1.0
sg7
F1.971086831232237e-06
sg8
F1.9710751756976654e-06
ssS'<firmly>'
p203
(dp204
g3
F9.0
sg4
I266
sg5
F0.0
sg6
F1.0
sg7
F6.335636243246475e-07
sg8
F6.335624201165582e-07
ssS'<responsible>'
p205
(dp206
g3
F11.0
sg4
I233
sg5
F0.0
sg6
F1.0
sg7
F7.743555408412359e-07
sg8
F7.743537419626536e-07
ssS'<the>'
p207
(dp208
g3
F41.0
sg4
I85
sg5
F0.0
sg6
F1.0
sg7
F2.8862342885900612e-06
sg8
F2.8862092975930393e-06
ssS'<yet>'
p209
(dp210
g3
F33.0
sg4
I106
sg5
F0.0
sg6
F1.0
sg7
F2.323066622523708e-06
sg8
F2.3230504326331834e-06
ssS'<more>'
p211
(dp212
g3
F1665.0
sg4
I6
sg5
F0.0
sg6
F1.0
sg7
F0.0001172092705000598
sg8
F0.00011716805968123044
ssS'<exactly>'
p213
(dp214
g3
F30.0
sg4
I113
sg5
F0.0
sg6
F1.0
sg7
F2.111878747748825e-06
sg8
F2.111865367672128e-06
ssS'<relatively>'
p215
(dp216
g3
F377.0
sg4
I18
sg5
F0.0
sg6
F1.0
sg7
F2.6539276263376905e-05
sg8
F2.6537163301208144e-05
ssS'<honest with>'
p217
(dp218
g3
F35.0
sg4
I100
sg5
F0.0
sg6
F1.0
sg7
F2.463858539040296e-06
sg8
F2.463840327273509e-06
ssS'<sounds>'
p219
(dp220
g3
F14.0
sg4
I193
sg5
F0.0
sg6
F1.0
sg7
F9.855434156161184e-07
sg8
F9.855405017305606e-07
ssS'<immediately>'
p221
(dp222
g3
F18.0
sg4
I168
sg5
F0.0
sg6
F1.0
sg7
F1.267127248649295e-06
sg8
F1.2671224318189712e-06
ssS'<comparatively>'
p223
(dp224
g3
F18.0
sg4
I166
sg5
F0.0
sg6
F1.0
sg7
F1.267127248649295e-06
sg8
F1.2671224318189712e-06
ssS'<simply>'
p225
(dp226
g3
F40.0
sg4
I90
sg5
F0.0
sg6
F1.0
sg7
F2.815838330331767e-06
sg8
F2.8158145435399116e-06
ssS'<fundamentally>'
p227
(dp228
g3
F15.0
sg4
I185
sg5
F0.0
sg6
F1.0
sg7
F1.0559393738744126e-06
sg8
F1.0559360288528836e-06
ssS'<most>'
p229
(dp230
g3
F2296.0
sg4
I3
sg5
F0.0
sg6
F1.0
sg7
F0.00016162912016104344
sg8
F0.00016155075668837333
ssS'<perhaps>'
p231
(dp232
g3
F7.0
sg4
I295
sg5
F0.0
sg6
F1.0
sg7
F4.927717078080592e-07
sg8
F4.927709793364305e-07
ssS'<available for>'
p233
(dp234
g3
F21.0
sg4
I149
sg5
F0.0
sg6
F1.0
sg7
F1.4783151234241776e-06
sg8
F1.4783085671838258e-06
ssS'<is weaker than>'
p235
(dp236
g3
F3600171.0
sg4
I0
sg5
F0.0
sg6
F264508.0
sg7
F0.2534374874387212
sg8
F14521.900952863014
ssS'<bloody>'
p237
(dp238
g3
F24.0
sg4
I130
sg5
F0.0
sg6
F1.0
sg7
F1.68950299819906e-06
sg8
F1.6894944349475622e-06
ssS'<insanely>'
p239
(dp240
g3
F9.0
sg4
I267
sg5
F0.0
sg6
F1.0
sg7
F6.335636243246475e-07
sg8
F6.335624201165582e-07
ssS'<mutually>'
p241
(dp242
g3
F124.0
sg4
I37
sg5
F0.0
sg6
F1.0
sg7
F8.729098824028478e-06
sg8
F8.72887023385992e-06
ssS'<possible>'
p243
(dp244
g3
F16.0
sg4
I181
sg5
F0.0
sg6
F1.0
sg7
F1.1263353321327067e-06
sg8
F1.1263315262417236e-06
ssS'<broadly>'
p245
(dp246
g3
F45.0
sg4
I76
sg5
F0.0
sg6
F1.0
sg7
F3.167818121623238e-06
sg8
F3.1677880164718606e-06
ssS'<open to>'
p247
(dp248
g3
F34.0
sg4
I103
sg5
F0.0
sg6
F1.0
sg7
F2.393462580782002e-06
sg8
F2.3934453948200473e-06
ssS'<overly>'
p249
(dp250
g3
F19.0
sg4
I161
sg5
F0.0
sg6
F1.0
sg7
F1.3375232069075892e-06
sg8
F1.3375178400073883e-06
ssS'<so>'
p251
(dp252
g3
F3549.0
sg4
I2
sg5
F0.0
sg6
F1.0
sg7
F0.000249835255858686
sg8
F0.00024964803408171433
ssS'<significantly>'
p253
(dp254
g3
F34.0
sg4
I102
sg5
F0.0
sg6
F1.0
sg7
F2.393462580782002e-06
sg8
F2.3934453948200473e-06
ssS'<reasonably>'
p255
(dp256
g3
F74.0
sg4
I52
sg5
F0.0
sg6
F1.0
sg7
F5.209300911113769e-06
sg8
F5.209219500948553e-06
ssS'<greatest>'
p257
(dp258
g3
F23.0
sg4
I138
sg5
F0.0
sg6
F1.0
sg7
F1.619107039940766e-06
sg8
F1.6190991754264338e-06
ssS'<gonna>'
p259
(dp260
g3
F15.0
sg4
I187
sg5
F0.0
sg6
F1.0
sg7
F1.0559393738744126e-06
sg8
F1.0559360288528836e-06
ssS'<long>'
p261
(dp262
g3
F45.0
sg4
I77
sg5
F0.0
sg6
F1.0
sg7
F3.167818121623238e-06
sg8
F3.1677880164718606e-06
ssS'<largely>'
p263
(dp264
g3
F10.0
sg4
I249
sg5
F0.0
sg6
F1.0
sg7
F7.039595825829417e-07
sg8
F7.039580959063575e-07
ssS'<ever>'
p265
(dp266
g3
F78.0
sg4
I50
sg5
F0.0
sg6
F1.0
sg7
F5.490884744146946e-06
sg8
F5.490794295032228e-06
ssS'<just as>'
p267
(dp268
g3
F11.0
sg4
I236
sg5
F0.0
sg6
F1.0
sg7
F7.743555408412359e-07
sg8
F7.743537419626536e-07
ssS'<other>'
p269
(dp270
g3
F17.0
sg4
I171
sg5
F0.0
sg6
F1.0
sg7
F1.196731290391001e-06
sg8
F1.1967269938970844e-06
ssS'<at all>'
p271
(dp272
g3
F11.0
sg4
I229
sg5
F0.0
sg6
F1.0
sg7
F7.743555408412359e-07
sg8
F7.743537419626536e-07
ssS'<any>'
p273
(dp274
g3
F126.0
sg4
I36
sg5
F0.0
sg6
F1.0
sg7
F8.869890740545067e-06
sg8
F8.86965471705547e-06
ssS'<good ,>'
p275
(dp276
g3
F9.0
sg4
I261
sg5
F0.0
sg6
F1.0
sg7
F6.335636243246475e-07
sg8
F6.335624201165582e-07
ssS'<where>'
p277
(dp278
g3
F43.0
sg4
I82
sg5
F0.0
sg6
F1.0
sg7
F3.0270262051066496e-06
sg8
F3.026998716499183e-06
ssS'<absolutely>'
p279
(dp280
g3
F715.0
sg4
I9
sg5
F0.0
sg6
F1.0
sg7
F5.0333110154680334e-05
sg8
F5.0325510143776204e-05
ssS'<how>'
p281
(dp282
g3
F53.0
sg4
I64
sg5
F0.0
sg6
F1.0
sg7
F3.7309857876895913e-06
sg8
F3.7309440270286165e-06
ssS'<also>'
p283
(dp284
g3
F12.0
sg4
I225
sg5
F0.0
sg6
F1.0
sg7
F8.4475149909953e-07
sg8
F8.447493582854501e-07
ssS'<fantastic ,>'
p285
(dp286
g3
F10.0
sg4
I253
sg5
F0.0
sg6
F1.0
sg7
F7.039595825829417e-07
sg8
F7.039580959063575e-07
ssS'<nearly>'
p287
(dp288
g3
F22.0
sg4
I143
sg5
F0.0
sg6
F1.0
sg7
F1.5487110816824718e-06
sg8
F1.548703886171858e-06
ssS'<wide>'
p289
(dp290
g3
F12.0
sg4
I221
sg5
F0.0
sg6
F1.0
sg7
F8.4475149909953e-07
sg8
F8.447493582854501e-07
ssS'<anywhere>'
p291
(dp292
g3
F11.0
sg4
I235
sg5
F0.0
sg6
F1.0
sg7
F7.743555408412359e-07
sg8
F7.743537419626536e-07
ssS'<vitally>'
p293
(dp294
g3
F40.0
sg4
I92
sg5
F0.0
sg6
F1.0
sg7
F2.815838330331767e-06
sg8
F2.8158145435399116e-06
ssS'<especially>'
p295
(dp296
g3
F51.0
sg4
I71
sg5
F0.0
sg6
F1.0
sg7
F3.590193871173003e-06
sg8
F3.590155202789461e-06
ssS'<recently>'
p297
(dp298
g3
F23.0
sg4
I137
sg5
F0.0
sg6
F1.0
sg7
F1.619107039940766e-06
sg8
F1.6190991754264338e-06
ssS'<right ,>'
p299
(dp300
g3
F30.0
sg4
I112
sg5
F0.0
sg6
F1.0
sg7
F2.111878747748825e-06
sg8
F2.111865367672128e-06
ssS'<sorry ,>'
p301
(dp302
g3
F40.0
sg4
I88
sg5
F0.0
sg6
F1.0
sg7
F2.815838330331767e-06
sg8
F2.8158145435399116e-06
ssS'<enormously>'
p303
(dp304
g3
F34.0
sg4
I101
sg5
F0.0
sg6
F1.0
sg7
F2.393462580782002e-06
sg8
F2.3934453948200473e-06
ssS'<worst>'
p305
(dp306
g3
F8.0
sg4
I284
sg5
F0.0
sg6
F1.0
sg7
F5.631676660663534e-07
sg8
F5.631667145932505e-07
ssS'<constantly>'
p307
(dp308
g3
F17.0
sg4
I175
sg5
F0.0
sg6
F1.0
sg7
F1.196731290391001e-06
sg8
F1.1967269938970844e-06
ssS'<internationally>'
p309
(dp310
g3
F22.0
sg4
I141
sg5
F0.0
sg6
F1.0
sg7
F1.5487110816824718e-06
sg8
F1.548703886171858e-06
ssS'<widely>'
p311
(dp312
g3
F108.0
sg4
I41
sg5
F0.0
sg6
F1.0
sg7
F7.602763491895771e-06
sg8
F7.6025900867365355e-06
ssS'<longer>'
p313
(dp314
g3
F10.0
sg4
I252
sg5
F0.0
sg6
F1.0
sg7
F7.039595825829417e-07
sg8
F7.039580959063575e-07
ssS'<all>'
p315
(dp316
g3
F620.0
sg4
I10
sg5
F0.0
sg6
F1.0
sg7
F4.3645494120142385e-05
sg8
F4.3639779498954384e-05
ssS'<incredibly>'
p317
(dp318
g3
F50.0
sg4
I72
sg5
F0.0
sg6
F1.0
sg7
F3.5197979129147086e-06
sg8
F3.519760746069879e-06
ssS'<entirely>'
p319
(dp320
g3
F120.0
sg4
I39
sg5
F0.0
sg6
F1.0
sg7
F8.4475149909953e-06
sg8
F8.447300910672382e-06
ssS'<deeply>'
p321
(dp322
g3
F53.0
sg4
I66
sg5
F0.0
sg6
F1.0
sg7
F3.7309857876895913e-06
sg8
F3.7309440270286165e-06
ssS'<almost>'
p323
(dp324
g3
F123.0
sg4
I38
sg5
F0.0
sg6
F1.0
sg7
F8.658702865770183e-06
sg8
F8.65847794766257e-06
ssS'<as beautiful as>'
p325
(dp326
g3
F10.0
sg4
I245
sg5
F0.0
sg6
F1.0
sg7
F7.039595825829417e-07
sg8
F7.039580959063575e-07
ssS'<nice>'
p327
(dp328
g3
F22.0
sg4
I144
sg5
F0.0
sg6
F1.0
sg7
F1.5487110816824718e-06
sg8
F1.548703886171858e-06
ssS'<universally>'
p329
(dp330
g3
F11.0
sg4
I241
sg5
F0.0
sg6
F1.0
sg7
F7.743555408412359e-07
sg8
F7.743537419626536e-07
ssS'<specially>'
p331
(dp332
g3
F19.0
sg4
I164
sg5
F0.0
sg6
F1.0
sg7
F1.3375232069075892e-06
sg8
F1.3375178400073883e-06
ssS'<just>'
p333
(dp334
g3
F810.0
sg4
I8
sg5
F0.0
sg6
F1.0
sg7
F5.702072618921828e-05
sg8
F5.701097247036394e-05
ssS'<then>'
p335
(dp336
g3
F10.0
sg4
I251
sg5
F0.0
sg6
F1.0
sg7
F7.039595825829417e-07
sg8
F7.039580959063575e-07
ssS'<disproportionately>'
p337
(dp338
g3
F10.0
sg4
I248
sg5
F0.0
sg6
F1.0
sg7
F7.039595825829417e-07
sg8
F7.039580959063575e-07
ssS'<environmentally>'
p339
(dp340
g3
F104.0
sg4
I42
sg5
F0.0
sg6
F1.0
sg7
F7.321179658862594e-06
sg8
F7.321018860632646e-06
ssS'<above>'
p341
(dp342
g3
F34.0
sg4
I105
sg5
F0.0
sg6
F1.0
sg7
F2.393462580782002e-06
sg8
F2.3934453948200473e-06
ssS'<visually>'
p343
(dp344
g3
F8.0
sg4
I282
sg5
F0.0
sg6
F1.0
sg7
F5.631676660663534e-07
sg8
F5.631667145932505e-07
ssS'<kinda>'
p345
(dp346
g3
F52.0
sg4
I70
sg5
F0.0
sg6
F1.0
sg7
F3.660589829431297e-06
sg8
F3.660549629775705e-06
ssS'<nice to>'
p347
(dp348
g3
F19.0
sg4
I158
sg5
F0.0
sg6
F1.0
sg7
F1.3375232069075892e-06
sg8
F1.3375178400073883e-06
ssS'<such>'
p349
(dp350
g3
F20.0
sg4
I155
sg5
F0.0
sg6
F1.0
sg7
F1.4079191651658834e-06
sg8
F1.4079132184623385e-06
ssS'<damn>'
p351
(dp352
g3
F15.0
sg4
I183
sg5
F0.0
sg6
F1.0
sg7
F1.0559393738744126e-06
sg8
F1.0559360288528836e-06
ssS'<right>'
p353
(dp354
g3
F30.0
sg4
I111
sg5
F0.0
sg6
F1.0
sg7
F2.111878747748825e-06
sg8
F2.111865367672128e-06
ssS'<bad>'
p355
(dp356
g3
F9.0
sg4
I258
sg5
F0.0
sg6
F1.0
sg7
F6.335636243246475e-07
sg8
F6.335624201165582e-07
ssS'<user>'
p357
(dp358
g3
F8.0
sg4
I268
sg5
F0.0
sg6
F1.0
sg7
F5.631676660663534e-07
sg8
F5.631667145932505e-07
ssS'<strong>'
p359
(dp360
g3
F14.0
sg4
I191
sg5
F0.0
sg6
F1.0
sg7
F9.855434156161184e-07
sg8
F9.855405017305606e-07
ssS'<geographically>'
p361
(dp362
g3
F15.0
sg4
I182
sg5
F0.0
sg6
F1.0
sg7
F1.0559393738744126e-06
sg8
F1.0559360288528836e-06
ssS'<lowest>'
p363
(dp364
g3
F7.0
sg4
I296
sg5
F0.0
sg6
F1.0
sg7
F4.927717078080592e-07
sg8
F4.927709793364305e-07
ssS'<further>'
p365
(dp366
g3
F24.0
sg4
I133
sg5
F0.0
sg6
F1.0
sg7
F1.68950299819906e-06
sg8
F1.6894944349475622e-06
ssS'<widest>'
p367
(dp368
g3
F13.0
sg4
I208
sg5
F0.0
sg6
F1.0
sg7
F9.151474573578242e-07
sg8
F9.151449448747507e-07
ssS'<kind of>'
p369
(dp370
g3
F181.0
sg4
I32
sg5
F0.0
sg6
F1.0
sg7
F1.2741668444751245e-05
sg8
F1.2741181398544201e-05
ssS'<tough>'
p371
(dp372
g3
F8.0
sg4
I275
sg5
F0.0
sg6
F1.0
sg7
F5.631676660663534e-07
sg8
F5.631667145932505e-07
ssS'<this>'
p373
(dp374
g3
F53.0
sg4
I65
sg5
F0.0
sg6
F1.0
sg7
F3.7309857876895913e-06
sg8
F3.7309440270286165e-06
ssS'<alarmingly>'
p375
(dp376
g3
F25.0
sg4
I128
sg5
F0.0
sg6
F1.0
sg7
F1.7598989564573543e-06
sg8
F1.7598896647352441e-06
ssS'<much more>'
p377
(dp378
g3
F22.0
sg4
I142
sg5
F0.0
sg6
F1.0
sg7
F1.5487110816824718e-06
sg8
F1.548703886171858e-06
ssS'<equally>'
p379
(dp380
g3
F40.0
sg4
I91
sg5
F0.0
sg6
F1.0
sg7
F2.815838330331767e-06
sg8
F2.8158145435399116e-06
ssS'<little>'
p381
(dp382
g3
F64.0
sg4
I60
sg5
F0.0
sg6
F1.0
sg7
F4.505341328530827e-06
sg8
F4.5052804344122635e-06
ssS'<economically>'
p383
(dp384
g3
F98.0
sg4
I43
sg5
F0.0
sg6
F1.0
sg7
F6.898803909312829e-06
sg8
F6.898661129483352e-06
ssS'<all the more>'
p385
(dp386
g3
F13.0
sg4
I209
sg5
F0.0
sg6
F1.0
sg7
F9.151474573578242e-07
sg8
F9.151449448747507e-07
ssS'<cost>'
p387
(dp388
g3
F35.0
sg4
I99
sg5
F0.0
sg6
F1.0
sg7
F2.463858539040296e-06
sg8
F2.463840327273509e-06
ssS'<pretty>'
p389
(dp390
g3
F1582.0
sg4
I7
sg5
F0.0
sg6
F1.0
sg7
F0.00011136640596462138
sg8
F0.0001113292012979271
ssS'<rarely>'
p391
(dp392
g3
F23.0
sg4
I136
sg5
F0.0
sg6
F1.0
sg7
F1.619107039940766e-06
sg8
F1.6190991754264338e-06
ssS'<north>'
p393
(dp394
g3
F13.0
sg4
I214
sg5
F0.0
sg6
F1.0
sg7
F9.151474573578242e-07
sg8
F9.151449448747507e-07
ssS'<fairly>'
p395
(dp396
g3
F118.0
sg4
I40
sg5
F0.0
sg6
F1.0
sg7
F8.306723074478713e-06
sg8
F8.306516070680378e-06
ssS'<previously>'
p397
(dp398
g3
F60.0
sg4
I62
sg5
F0.0
sg6
F1.0
sg7
F4.22375749549765e-06
sg8
F4.22370397526621e-06
ssS'<hard>'
p399
(dp400
g3
F16.0
sg4
I180
sg5
F0.0
sg6
F1.0
sg7
F1.1263353321327067e-06
sg8
F1.1263315262417236e-06
ssS'<excessively>'
p401
(dp402
g3
F15.0
sg4
I186
sg5
F0.0
sg6
F1.0
sg7
F1.0559393738744126e-06
sg8
F1.0559360288528836e-06
ssS'<duly>'
p403
(dp404
g3
F18.0
sg4
I167
sg5
F0.0
sg6
F1.0
sg7
F1.267127248649295e-06
sg8
F1.2671224318189712e-06
ssS'<so very>'
p405
(dp406
g3
F34.0
sg4
I104
sg5
F0.0
sg6
F1.0
sg7
F2.393462580782002e-06
sg8
F2.3934453948200473e-06
ssS'<no>'
p407
(dp408
g3
F40.0
sg4
I87
sg5
F0.0
sg6
F1.0
sg7
F2.815838330331767e-06
sg8
F2.8158145435399116e-06
ssS'<naturally>'
p409
(dp410
g3
F19.0
sg4
I162
sg5
F0.0
sg6
F1.0
sg7
F1.3375232069075892e-06
sg8
F1.3375178400073883e-06
ssS'<jointly>'
p411
(dp412
g3
F8.0
sg4
I273
sg5
F0.0
sg6
F1.0
sg7
F5.631676660663534e-07
sg8
F5.631667145932505e-07
ssS'<virtually>'
p413
(dp414
g3
F27.0
sg4
I122
sg5
F0.0
sg6
F1.0
sg7
F1.9006908729739428e-06
sg8
F1.9006800351102909e-06
ssS'<as>'
p415
(dp416
g3
F516.0
sg4
I12
sg5
F0.0
sg6
F1.0
sg7
F3.6324314461279796e-05
sg8
F3.632035618967285e-05
ssS'<prohibitively>'
p417
(dp418
g3
F8.0
sg4
I285
sg5
F0.0
sg6
F1.0
sg7
F5.631676660663534e-07
sg8
F5.631667145932505e-07
ssS'<better>'
p419
(dp420
g3
F20.0
sg4
I156
sg5
F0.0
sg6
F1.0
sg7
F1.4079191651658834e-06
sg8
F1.4079132184623385e-06
ssS'<culturally>'
p421
(dp422
g3
F12.0
sg4
I227
sg5
F0.0
sg6
F1.0
sg7
F8.4475149909953e-07
sg8
F8.447493582854501e-07
ssS'<goddamn>'
p423
(dp424
g3
F15.0
sg4
I189
sg5
F0.0
sg6
F1.0
sg7
F1.0559393738744126e-06
sg8
F1.0559360288528836e-06
ssS'<manifestly>'
p425
(dp426
g3
F14.0
sg4
I200
sg5
F0.0
sg6
F1.0
sg7
F9.855434156161184e-07
sg8
F9.855405017305606e-07
ssS'<socially>'
p427
(dp428
g3
F22.0
sg4
I147
sg5
F0.0
sg6
F1.0
sg7
F1.5487110816824718e-06
sg8
F1.548703886171858e-06
ssS'<perfectly>'
p429
(dp430
g3
F339.0
sg4
I20
sg5
F0.0
sg6
F1.0
sg7
F2.3864229849561724e-05
sg8
F2.3862521372344125e-05
ssS'<extraordinarily>'
p431
(dp432
g3
F36.0
sg4
I97
sg5
F0.0
sg6
F1.0
sg7
F2.53425449729859e-06
sg8
F2.5342352299935726e-06
ssS'<first>'
p433
(dp434
g3
F10.0
sg4
I250
sg5
F0.0
sg6
F1.0
sg7
F7.039595825829417e-07
sg8
F7.039580959063575e-07
ssS'<even more>'
p435
(dp436
g3
F21.0
sg4
I151
sg5
F0.0
sg6
F1.0
sg7
F1.4783151234241776e-06
sg8
F1.4783085671838258e-06
ssS'<less>'
p437
(dp438
g3
F237.0
sg4
I27
sg5
F0.0
sg6
F1.0
sg7
F1.668384210721572e-05
sg8
F1.6683007064741173e-05
ssS'<crystal>'
p439
(dp440
g3
F17.0
sg4
I173
sg5
F0.0
sg6
F1.0
sg7
F1.196731290391001e-06
sg8
F1.1967269938970844e-06
ssS'<lot>'
p441
(dp442
g3
F20.0
sg4
I153
sg5
F0.0
sg6
F1.0
sg7
F1.4079191651658834e-06
sg8
F1.4079132184623385e-06
ssS'<intensely>'
p443
(dp444
g3
F9.0
sg4
I257
sg5
F0.0
sg6
F1.0
sg7
F6.335636243246475e-07
sg8
F6.335624201165582e-07
ssS'<effective ,>'
p445
(dp446
g3
F10.0
sg4
I247
sg5
F0.0
sg6
F1.0
sg7
F7.039595825829417e-07
sg8
F7.039580959063575e-07
ssS'<precisely>'
p447
(dp448
g3
F7.0
sg4
I294
sg5
F0.0
sg6
F1.0
sg7
F4.927717078080592e-07
sg8
F4.927709793364305e-07
ssS'<single>'
p449
(dp450
g3
F35.0
sg4
I98
sg5
F0.0
sg6
F1.0
sg7
F2.463858539040296e-06
sg8
F2.463840327273509e-06
ssS'<actively>'
p451
(dp452
g3
F17.0
sg4
I172
sg5
F0.0
sg6
F1.0
sg7
F1.196731290391001e-06
sg8
F1.1967269938970844e-06
ssS'<abundantly>'
p453
(dp454
g3
F39.0
sg4
I93
sg5
F0.0
sg6
F1.0
sg7
F2.745442372073473e-06
sg8
F2.7454197597534043e-06
ssS'<that>'
p455
(dp456
g3
F329.0
sg4
I21
sg5
F0.0
sg6
F1.0
sg7
F2.3160270266978785e-05
sg8
F2.3158661097468544e-05
ssS'<important>'
p457
(dp458
g3
F9.0
sg4
I259
sg5
F0.0
sg6
F1.0
sg7
F6.335636243246475e-07
sg8
F6.335624201165582e-07
ssS'<plain>'
p459
(dp460
g3
F13.0
sg4
I213
sg5
F0.0
sg6
F1.0
sg7
F9.151474573578242e-07
sg8
F9.151449448747507e-07
ssS'<somewhere>'
p461
(dp462
g3
F15.0
sg4
I184
sg5
F0.0
sg6
F1.0
sg7
F1.0559393738744126e-06
sg8
F1.0559360288528836e-06
ssS'<highest>'
p463
(dp464
g3
F11.0
sg4
I228
sg5
F0.0
sg6
F1.0
sg7
F7.743555408412359e-07
sg8
F7.743537419626536e-07
ssS'<worried about>'
p465
(dp466
g3
F52.0
sg4
I69
sg5
F0.0
sg6
F1.0
sg7
F3.660589829431297e-06
sg8
F3.660549629775705e-06
ssS'<increasingly>'
p467
(dp468
g3
F68.0
sg4
I57
sg5
F0.0
sg6
F1.0
sg7
F4.786925161564004e-06
sg8
F4.786856417825883e-06
ssS'<considerably>'
p469
(dp470
g3
F14.0
sg4
I192
sg5
F0.0
sg6
F1.0
sg7
F9.855434156161184e-07
sg8
F9.855405017305606e-07
ssS'<real>'
p471
(dp472
g3
F273.0
sg4
I24
sg5
F0.0
sg6
F1.0
sg7
F1.921809660451431e-05
sg8
F1.9216988612998824e-05
ssS'<nonetheless>'
p473
(dp474
g3
F9.0
sg4
I264
sg5
F0.0
sg6
F1.0
sg7
F6.335636243246475e-07
sg8
F6.335624201165582e-07
ssS'<directly>'
p475
(dp476
g3
F23.0
sg4
I140
sg5
F0.0
sg6
F1.0
sg7
F1.619107039940766e-06
sg8
F1.6190991754264338e-06
ssS'<least>'
p477
(dp478
g3
F37.0
sg4
I96
sg5
F0.0
sg6
F1.0
sg7
F2.6046504555568845e-06
sg8
F2.6046301029802375e-06
ssS'<easy>'
p479
(dp480
g3
F20.0
sg4
I154
sg5
F0.0
sg6
F1.0
sg7
F1.4079191651658834e-06
sg8
F1.4079132184623385e-06
ssS'<operationally>'
p481
(dp482
g3
F11.0
sg4
I234
sg5
F0.0
sg6
F1.0
sg7
F7.743555408412359e-07
sg8
F7.743537419626536e-07
ssS'<easily>'
p483
(dp484
g3
F49.0
sg4
I73
sg5
F0.0
sg6
F1.0
sg7
F3.4494019546564146e-06
sg8
F3.449366259616966e-06
ssS'<simple>'
p485
(dp486
g3
F17.0
sg4
I174
sg5
F0.0
sg6
F1.0
sg7
F1.196731290391001e-06
sg8
F1.1967269938970844e-06
ssS'<really>'
p487
(dp488
g3
F2071.0
sg4
I4
sg5
F0.0
sg6
F1.0
sg7
F0.00014579002955292724
sg8
F0.00014572627155223745
ssS'<quick>'
p489
(dp490
g3
F14.0
sg4
I199
sg5
F0.0
sg6
F1.0
sg7
F9.855434156161184e-07
sg8
F9.855405017305606e-07
ssS'<suitably>'
p491
(dp492
g3
F8.0
sg4
I276
sg5
F0.0
sg6
F1.0
sg7
F5.631676660663534e-07
sg8
F5.631667145932505e-07
ssS'<broadest>'
p493
(dp494
g3
F14.0
sg4
I196
sg5
F0.0
sg6
F1.0
sg7
F9.855434156161184e-07
sg8
F9.855405017305606e-07
ssS'<two>'
p495
(dp496
g3
F8.0
sg4
I281
sg5
F0.0
sg6
F1.0
sg7
F5.631676660663534e-07
sg8
F5.631667145932505e-07
ssS'<some>'
p497
(dp498
g3
F8.0
sg4
I287
sg5
F0.0
sg6
F1.0
sg7
F5.631676660663534e-07
sg8
F5.631667145932505e-07
ssS'<rather>'
p499
(dp500
g3
F479.0
sg4
I13
sg5
F0.0
sg6
F1.0
sg7
F3.371966400572291e-05
sg8
F3.371625303518095e-05
ssS'<here>'
p501
(dp502
g3
F28.0
sg4
I115
sg5
F0.0
sg6
F1.0
sg7
F1.971086831232237e-06
sg8
F1.9710751756976654e-06
ssS'<adversely>'
p503
(dp504
g3
F10.0
sg4
I255
sg5
F0.0
sg6
F1.0
sg7
F7.039595825829417e-07
sg8
F7.039580959063575e-07
ssS'<wholly>'
p505
(dp506
g3
F14.0
sg4
I190
sg5
F0.0
sg6
F1.0
sg7
F9.855434156161184e-07
sg8
F9.855405017305606e-07
ssS'<technically>'
p507
(dp508
g3
F12.0
sg4
I218
sg5
F0.0
sg6
F1.0
sg7
F8.4475149909953e-07
sg8
F8.447493582854501e-07
ssS'<as simple as>'
p509
(dp510
g3
F8.0
sg4
I272
sg5
F0.0
sg6
F1.0
sg7
F5.631676660663534e-07
sg8
F5.631667145932505e-07
ssS'<ready to go>'
p511
(dp512
g3
F9.0
sg4
I260
sg5
F0.0
sg6
F1.0
sg7
F6.335636243246475e-07
sg8
F6.335624201165582e-07
ssS'<far>'
p513
(dp514
g3
F88.0
sg4
I45
sg5
F0.0
sg6
F1.0
sg7
F6.194844326729887e-06
sg8
F6.194729198916649e-06
ssS'<completely>'
p515
(dp516
g3
F452.0
sg4
I15
sg5
F0.0
sg6
F1.0
sg7
F3.181897313274897e-05
sg8
F3.1815935856025405e-05
ssS'<frequently>'
p517
(dp518
g3
F28.0
sg4
I117
sg5
F0.0
sg6
F1.0
sg7
F1.971086831232237e-06
sg8
F1.9710751756976654e-06
ssS'<open to the>'
p519
(dp520
g3
F8.0
sg4
I280
sg5
F0.0
sg6
F1.0
sg7
F5.631676660663534e-07
sg8
F5.631667145932505e-07
ssS'<internally>'
p521
(dp522
g3
F15.0
sg4
I188
sg5
F0.0
sg6
F1.0
sg7
F1.0559393738744126e-06
sg8
F1.0559360288528836e-06
ssS'<nevertheless>'
p523
(dp524
g3
F13.0
sg4
I207
sg5
F0.0
sg6
F1.0
sg7
F9.151474573578242e-07
sg8
F9.151449448747507e-07
ssS'<publicly>'
p525
(dp526
g3
F65.0
sg4
I59
sg5
F0.0
sg6
F1.0
sg7
F4.575737286789121e-06
sg8
F4.57567447486557e-06
ssS'<sufficiently>'
p527
(dp528
g3
F53.0
sg4
I67
sg5
F0.0
sg6
F1.0
sg7
F3.7309857876895913e-06
sg8
F3.7309440270286165e-06
ssS'<exceptionally>'
p529
(dp530
g3
F43.0
sg4
I81
sg5
F0.0
sg6
F1.0
sg7
F3.0270262051066496e-06
sg8
F3.026998716499183e-06
ssS'<second>'
p531
(dp532
g3
F16.0
sg4
I179
sg5
F0.0
sg6
F1.0
sg7
F1.1263353321327067e-06
sg8
F1.1263315262417236e-06
ssS'<even>'
p533
(dp534
g3
F211.0
sg4
I29
sg5
F0.0
sg6
F1.0
sg7
F1.4853547192500072e-05
sg8
F1.4852885315461651e-05
ssS'<highly>'
p535
(dp536
g3
F423.0
sg4
I16
sg5
F0.0
sg6
F1.0
sg7
F2.9777490343258435e-05
sg8
F2.977483029927248e-05
ssS'<less than>'
p537
(dp538
g3
F12.0
sg4
I220
sg5
F0.0
sg6
F1.0
sg7
F8.4475149909953e-07
sg8
F8.447493582854501e-07
ssS'<commercially>'
p539
(dp540
g3
F26.0
sg4
I125
sg5
F0.0
sg6
F1.0
sg7
F1.8302949147156484e-06
sg8
F1.8302848647894868e-06
ssS'<self>'
p541
(dp542
g3
F23.0
sg4
I135
sg5
F0.0
sg6
F1.0
sg7
F1.619107039940766e-06
sg8
F1.6190991754264338e-06
ssS'<good>'
p543
(dp544
g3
F25.0
sg4
I127
sg5
F0.0
sg6
F1.0
sg7
F1.7598989564573543e-06
sg8
F1.7598896647352441e-06
ssS'<several>'
p545
(dp546
g3
F11.0
sg4
I232
sg5
F0.0
sg6
F1.0
sg7
F7.743555408412359e-07
sg8
F7.743537419626536e-07
ssS'<terribly>'
p547
(dp548
g3
F41.0
sg4
I84
sg5
F0.0
sg6
F1.0
sg7
F2.8862342885900612e-06
sg8
F2.8862092975930393e-06
ssS'<purely>'
p549
(dp550
g3
F9.0
sg4
I263
sg5
F0.0
sg6
F1.0
sg7
F6.335636243246475e-07
sg8
F6.335624201165582e-07
ssS'<seriously>'
p551
(dp552
g3
F14.0
sg4
I195
sg5
F0.0
sg6
F1.0
sg7
F9.855434156161184e-07
sg8
F9.855405017305606e-07
ssS'<bit>'
p553
(dp554
g3
F9.0
sg4
I265
sg5
F0.0
sg6
F1.0
sg7
F6.335636243246475e-07
sg8
F6.335624201165582e-07
ssS'<ecologically>'
p555
(dp556
g3
F23.0
sg4
I139
sg5
F0.0
sg6
F1.0
sg7
F1.619107039940766e-06
sg8
F1.6190991754264338e-06
ssS'<particularly>'
p557
(dp558
g3
F288.0
sg4
I23
sg5
F0.0
sg6
F1.0
sg7
F2.027403597838872e-05
sg8
F2.02728028854509e-05
ssS'<too>'
p559
(dp560
g3
F342.0
sg4
I19
sg5
F0.0
sg6
F1.0
sg7
F2.407541772433661e-05
sg8
F2.407367887503013e-05
ssS'<currently>'
p561
(dp562
g3
F88.0
sg4
I46
sg5
F0.0
sg6
F1.0
sg7
F6.194844326729887e-06
sg8
F6.194729198916649e-06
ssS'<great>'
p563
(dp564
g3
F13.0
sg4
I206
sg5
F0.0
sg6
F1.0
sg7
F9.151474573578242e-07
sg8
F9.151449448747507e-07
ssS'<great ,>'
p565
(dp566
g3
F41.0
sg4
I83
sg5
F0.0
sg6
F1.0
sg7
F2.8862342885900612e-06
sg8
F2.8862092975930393e-06
ssS'<heavily>'
p567
(dp568
g3
F11.0
sg4
I238
sg5
F0.0
sg6
F1.0
sg7
F7.743555408412359e-07
sg8
F7.743537419626536e-07
ssS'<disgusting ,>'
p569
(dp570
g3
F9.0
sg4
I262
sg5
F0.0
sg6
F1.0
sg7
F6.335636243246475e-07
sg8
F6.335624201165582e-07
ssS'<freely>'
p571
(dp572
g3
F8.0
sg4
I269
sg5
F0.0
sg6
F1.0
sg7
F5.631676660663534e-07
sg8
F5.631667145932505e-07
ssS'<higher>'
p573
(dp574
g3
F14.0
sg4
I198
sg5
F0.0
sg6
F1.0
sg7
F9.855434156161184e-07
sg8
F9.855405017305606e-07
ssS'<awfully>'
p575
(dp576
g3
F44.0
sg4
I79
sg5
F0.0
sg6
F1.0
sg7
F3.0974221633649435e-06
sg8
F3.0973933813522037e-06
ssS'<glaringly>'
p577
(dp578
g3
F11.0
sg4
I243
sg5
F0.0
sg6
F1.0
sg7
F7.743555408412359e-07
sg8
F7.743537419626536e-07
ssS'<severely>'
p579
(dp580
g3
F8.0
sg4
I277
sg5
F0.0
sg6
F1.0
sg7
F5.631676660663534e-07
sg8
F5.631667145932505e-07
ssS'<high>'
p581
(dp582
g3
F17.0
sg4
I170
sg5
F0.0
sg6
F1.0
sg7
F1.196731290391001e-06
sg8
F1.1967269938970844e-06
ssS'<commonly>'
p583
(dp584
g3
F63.0
sg4
I61
sg5
F0.0
sg6
F1.0
sg7
F4.434945370272533e-06
sg8
F4.4348863642256764e-06
ssS'<either>'
p585
(dp586
g3
F40.0
sg4
I89
sg5
F0.0
sg6
F1.0
sg7
F2.815838330331767e-06
sg8
F2.8158145435399116e-06
ssS'<slightly>'
p587
(dp588
g3
F32.0
sg4
I108
sg5
F0.0
sg6
F1.0
sg7
F2.2526706642654135e-06
sg8
F2.252655440712912e-06
ssS'<very well>'
p589
(dp590
g3
F13.0
sg4
I212
sg5
F0.0
sg6
F1.0
sg7
F9.151474573578242e-07
sg8
F9.151449448747507e-07
ssS'<big ,>'
p591
(dp592
g3
F7.0
sg4
I293
sg5
F0.0
sg6
F1.0
sg7
F4.927717078080592e-07
sg8
F4.927709793364305e-07
ssS'<beautiful ,>'
p593
(dp594
g3
F70.0
sg4
I54
sg5
F0.0
sg6
F1.0
sg7
F4.927717078080592e-06
sg8
F4.927644231133106e-06
ssS'<legally>'
p595
(dp596
g3
F67.0
sg4
I58
sg5
F0.0
sg6
F1.0
sg7
F4.71652920330571e-06
sg8
F4.7164624665723745e-06
ssS'<substantially>'
p597
(dp598
g3
F13.0
sg4
I201
sg5
F0.0
sg6
F1.0
sg7
F9.151474573578242e-07
sg8
F9.151449448747507e-07
ssS'<practically>'
p599
(dp600
g3
F28.0
sg4
I119
sg5
F0.0
sg6
F1.0
sg7
F1.971086831232237e-06
sg8
F1.9710751756976654e-06
ssS'<merely>'
p601
(dp602
g3
F8.0
sg4
I271
sg5
F0.0
sg6
F1.0
sg7
F5.631676660663534e-07
sg8
F5.631667145932505e-07
ssS'<urgently>'
p603
(dp604
g3
F31.0
sg4
I109
sg5
F0.0
sg6
F1.0
sg7
F2.1822747060071195e-06
sg8
F2.182260419059226e-06
ssS'<surely>'
p605
(dp606
g3
F12.0
sg4
I224
sg5
F0.0
sg6
F1.0
sg7
F8.4475149909953e-07
sg8
F8.447493582854501e-07
ss.