(dp0
S'<bled>'
p1
(dp2
S'count'
p3
F3.0
sS'idx'
p4
I445
sS'min'
p5
F0.0
sS'max'
p6
F1.0
sS'mu'
p7
F2.111878747748825e-07
sS'sigma'
p8
F2.1118774097394605e-07
ssS'<wonderful ,>'
p9
(dp10
g3
F21.0
sg4
I152
sg5
F0.0
sg6
F1.0
sg7
F1.4783151234241776e-06
sg8
F1.4783085671838258e-06
ssS'<large>'
p11
(dp12
g3
F13.0
sg4
I216
sg5
F0.0
sg6
F1.0
sg7
F9.151474573578242e-07
sg8
F9.151449448747507e-07
ssS'<friendly>'
p13
(dp14
g3
F8.0
sg4
I291
sg5
F0.0
sg6
F1.0
sg7
F5.631676660663534e-07
sg8
F5.631667145932505e-07
ssS'<personally>'
p15
(dp16
g3
F7.0
sg4
I312
sg5
F0.0
sg6
F1.0
sg7
F4.927717078080592e-07
sg8
F4.927709793364305e-07
ssS'<hardly>'
p17
(dp18
g3
F24.0
sg4
I134
sg5
F0.0
sg6
F1.0
sg7
F1.68950299819906e-06
sg8
F1.6894944349475622e-06
ssS'<closely>'
p19
(dp20
g3
F41.0
sg4
I86
sg5
F0.0
sg6
F1.0
sg7
F2.8862342885900612e-06
sg8
F2.8862092975930393e-06
ssS'<immensely>'
p21
(dp22
g3
F5.0
sg4
I364
sg5
F0.0
sg6
F1.0
sg7
F3.5197979129147086e-07
sg8
F3.519794196222376e-07
ssS'<culturally>'
p23
(dp24
g3
F12.0
sg4
I227
sg5
F0.0
sg6
F1.0
sg7
F8.4475149909953e-07
sg8
F8.447493582854501e-07
ssS'<critically>'
p25
(dp26
g3
F26.0
sg4
I126
sg5
F0.0
sg6
F1.0
sg7
F1.8302949147156484e-06
sg8
F1.8302848647894868e-06
ssS'<clean ,>'
p27
(dp28
g3
F10.0
sg4
I256
sg5
F0.0
sg6
F1.0
sg7
F7.039595825829417e-07
sg8
F7.039580959063575e-07
ssS'<afraid of>'
p29
(dp30
g3
F28.0
sg4
I120
sg5
F0.0
sg6
F1.0
sg7
F1.971086831232237e-06
sg8
F1.9710751756976654e-06
ssS'<e.>'
p31
(dp32
g3
F3.0
sg4
I444
sg5
F0.0
sg6
F1.0
sg7
F2.111878747748825e-07
sg8
F2.1118774097394605e-07
ssS'<else>'
p33
(dp34
g3
F3.0
sg4
I443
sg5
F0.0
sg6
F1.0
sg7
F2.111878747748825e-07
sg8
F2.1118774097394605e-07
ssS'<often>'
p35
(dp36
g3
F25.0
sg4
I129
sg5
F0.0
sg6
F1.0
sg7
F1.7598989564573543e-06
sg8
F1.7598896647352441e-06
ssS'<scared>'
p37
(dp38
g3
F12.0
sg4
I226
sg5
F0.0
sg6
F1.0
sg7
F8.4475149909953e-07
sg8
F8.447493582854501e-07
ssS'<nationally>'
p39
(dp40
g3
F3.0
sg4
I411
sg5
F0.0
sg6
F1.0
sg7
F2.111878747748825e-07
sg8
F2.1118774097394605e-07
ssS'<scientifically>'
p41
(dp42
g3
F6.0
sg4
I336
sg5
F0.0
sg6
F1.0
sg7
F4.22375749549765e-07
sg8
F4.2237521434609433e-07
ssS'<satisfactory>'
p43
(dp44
g3
F3.0
sg4
I441
sg5
F0.0
sg6
F1.0
sg7
F2.111878747748825e-07
sg8
F2.1118774097394605e-07
ssS'<glaringly>'
p45
(dp46
g3
F11.0
sg4
I243
sg5
F0.0
sg6
F1.0
sg7
F7.743555408412359e-07
sg8
F7.743537419626536e-07
ssS'<twice as>'
p47
(dp48
g3
F4.0
sg4
I392
sg5
F0.0
sg6
F1.0
sg7
F2.815838330331767e-07
sg8
F2.8158359516485625e-07
ssS'<surprisingly>'
p49
(dp50
g3
F8.0
sg4
I290
sg5
F0.0
sg6
F1.0
sg7
F5.631676660663534e-07
sg8
F5.631667145932505e-07
ssS'<brutally>'
p51
(dp52
g3
F7.0
sg4
I311
sg5
F0.0
sg6
F1.0
sg7
F4.927717078080592e-07
sg8
F4.927709793364305e-07
ssS'<humanly>'
p53
(dp54
g3
F4.0
sg4
I390
sg5
F0.0
sg6
F1.0
sg7
F2.815838330331767e-07
sg8
F2.8158359516485625e-07
ssS'<extra>'
p55
(dp56
g3
F3.0
sg4
I440
sg5
F0.0
sg6
F1.0
sg7
F2.111878747748825e-07
sg8
F2.1118774097394605e-07
ssS'<south>'
p57
(dp58
g3
F11.0
sg4
I242
sg5
F0.0
sg6
F1.0
sg7
F7.743555408412359e-07
sg8
F7.743537419626536e-07
ssS'<presently>'
p59
(dp60
g3
F8.0
sg4
I289
sg5
F0.0
sg6
F1.0
sg7
F5.631676660663534e-07
sg8
F5.631667145932505e-07
ssS'<powerful>'
p61
(dp62
g3
F2.0
sg4
I491
sg5
F0.0
sg6
F1.0
sg7
F1.4079191651658834e-07
sg8
F1.4079185704950266e-07
ssS'<undoubtedly>'
p63
(dp64
g3
F4.0
sg4
I391
sg5
F0.0
sg6
F1.0
sg7
F2.815838330331767e-07
sg8
F2.8158359516485625e-07
ssS'<professionally>'
p65
(dp66
g3
F7.0
sg4
I310
sg5
F0.0
sg6
F1.0
sg7
F4.927717078080592e-07
sg8
F4.927709793364305e-07
ssS'<adversely>'
p67
(dp68
g3
F10.0
sg4
I255
sg5
F0.0
sg6
F1.0
sg7
F7.039595825829417e-07
sg8
F7.039580959063575e-07
ssS'<all too>'
p69
(dp70
g3
F7.0
sg4
I309
sg5
F0.0
sg6
F1.0
sg7
F4.927717078080592e-07
sg8
F4.927709793364305e-07
ssS'<something>'
p71
(dp72
g3
F33.0
sg4
I107
sg5
F0.0
sg6
F1.0
sg7
F2.323066622523708e-06
sg8
F2.3230504326331834e-06
ssS'<regularly>'
p73
(dp74
g3
F13.0
sg4
I215
sg5
F0.0
sg6
F1.0
sg7
F9.151474573578242e-07
sg8
F9.151449448747507e-07
ssS'<perfectly>'
p75
(dp76
g3
F339.0
sg4
I20
sg5
F0.0
sg6
F1.0
sg7
F2.3864229849561724e-05
sg8
F2.3862521372344125e-05
ssS'<firmly>'
p77
(dp78
g3
F9.0
sg4
I266
sg5
F0.0
sg6
F1.0
sg7
F6.335636243246475e-07
sg8
F6.335624201165582e-07
ssS'<only>'
p79
(dp80
g3
F301.0
sg4
I22
sg5
F0.0
sg6
F1.0
sg7
F2.1189183435746546e-05
sg8
F2.1187836510289655e-05
ssS'<grossly>'
p81
(dp82
g3
F4.0
sg4
I382
sg5
F0.0
sg6
F1.0
sg7
F2.815838330331767e-07
sg8
F2.8158359516485625e-07
ssS'<the>'
p83
(dp84
g3
F41.0
sg4
I85
sg5
F0.0
sg6
F1.0
sg7
F2.8862342885900612e-06
sg8
F2.8862092975930393e-06
ssS'<specially>'
p85
(dp86
g3
F19.0
sg4
I164
sg5
F0.0
sg6
F1.0
sg7
F1.3375232069075892e-06
sg8
F1.3375178400073883e-06
ssS'<unnecessarily>'
p87
(dp88
g3
F3.0
sg4
I439
sg5
F0.0
sg6
F1.0
sg7
F2.111878747748825e-07
sg8
F2.1118774097394605e-07
ssS'<exactly>'
p89
(dp90
g3
F30.0
sg4
I113
sg5
F0.0
sg6
F1.0
sg7
F2.111878747748825e-06
sg8
F2.111865367672128e-06
ssS'<honest with>'
p91
(dp92
g3
F35.0
sg4
I100
sg5
F0.0
sg6
F1.0
sg7
F2.463858539040296e-06
sg8
F2.463840327273509e-06
ssS'<common>'
p93
(dp94
g3
F2.0
sg4
I476
sg5
F0.0
sg6
F1.0
sg7
F1.4079191651658834e-07
sg8
F1.4079185704950266e-07
ssS'<safe ,>'
p95
(dp96
g3
F3.0
sg4
I438
sg5
F0.0
sg6
F1.0
sg7
F2.111878747748825e-07
sg8
F2.1118774097394605e-07
ssS'<hugely>'
p97
(dp98
g3
F7.0
sg4
I307
sg5
F0.0
sg6
F1.0
sg7
F4.927717078080592e-07
sg8
F4.927709793364305e-07
ssS'<most>'
p99
(dp100
g3
F2296.0
sg4
I3
sg5
F0.0
sg6
F1.0
sg7
F0.00016162912016104344
sg8
F0.00016155075668837333
ssS'<once>'
p101
(dp102
g3
F5.0
sg4
I363
sg5
F0.0
sg6
F1.0
sg7
F3.5197979129147086e-07
sg8
F3.519794196222376e-07
ssS'<always>'
p103
(dp104
g3
F3.0
sg4
I437
sg5
F0.0
sg6
F1.0
sg7
F2.111878747748825e-07
sg8
F2.1118774097394605e-07
ssS'<constantly>'
p105
(dp106
g3
F17.0
sg4
I175
sg5
F0.0
sg6
F1.0
sg7
F1.196731290391001e-06
sg8
F1.1967269938970844e-06
ssS'<nothing>'
p107
(dp108
g3
F16.0
sg4
I176
sg5
F0.0
sg6
F1.0
sg7
F1.1263353321327067e-06
sg8
F1.1263315262417236e-06
ssS'<surely>'
p109
(dp110
g3
F12.0
sg4
I224
sg5
F0.0
sg6
F1.0
sg7
F8.4475149909953e-07
sg8
F8.447493582854501e-07
ssS'<long>'
p111
(dp112
g3
F45.0
sg4
I77
sg5
F0.0
sg6
F1.0
sg7
F3.167818121623238e-06
sg8
F3.1677880164718606e-06
ssS'<ever>'
p113
(dp114
g3
F78.0
sg4
I50
sg5
F0.0
sg6
F1.0
sg7
F5.490884744146946e-06
sg8
F5.490794295032228e-06
ssS'<so perfectly>'
p115
(dp116
g3
F2.0
sg4
I488
sg5
F0.0
sg6
F1.0
sg7
F1.4079191651658834e-07
sg8
F1.4079185704950266e-07
ssS'<any>'
p117
(dp118
g3
F126.0
sg4
I36
sg5
F0.0
sg6
F1.0
sg7
F8.869890740545067e-06
sg8
F8.86965471705547e-06
ssS'<also>'
p119
(dp120
g3
F12.0
sg4
I225
sg5
F0.0
sg6
F1.0
sg7
F8.4475149909953e-07
sg8
F8.447493582854501e-07
ssS'<smaller>'
p121
(dp122
g3
F6.0
sg4
I335
sg5
F0.0
sg6
F1.0
sg7
F4.22375749549765e-07
sg8
F4.2237521434609433e-07
ssS'<especially>'
p123
(dp124
g3
F51.0
sg4
I71
sg5
F0.0
sg6
F1.0
sg7
F3.590193871173003e-06
sg8
F3.590155202789461e-06
ssS'<okay with>'
p125
(dp126
g3
F6.0
sg4
I337
sg5
F0.0
sg6
F1.0
sg7
F4.22375749549765e-07
sg8
F4.2237521434609433e-07
ssS'<rock>'
p127
(dp128
g3
F5.0
sg4
I362
sg5
F0.0
sg6
F1.0
sg7
F3.5197979129147086e-07
sg8
F3.519794196222376e-07
ssS'<darn>'
p129
(dp130
g3
F3.0
sg4
I436
sg5
F0.0
sg6
F1.0
sg7
F2.111878747748825e-07
sg8
F2.1118774097394605e-07
ssS'<continuously>'
p131
(dp132
g3
F5.0
sg4
I361
sg5
F0.0
sg6
F1.0
sg7
F3.5197979129147086e-07
sg8
F3.519794196222376e-07
ssS'<thus>'
p133
(dp134
g3
F6.0
sg4
I334
sg5
F0.0
sg6
F1.0
sg7
F4.22375749549765e-07
sg8
F4.2237521434609433e-07
ssS'<incredibly>'
p135
(dp136
g3
F50.0
sg4
I72
sg5
F0.0
sg6
F1.0
sg7
F3.5197979129147086e-06
sg8
F3.519760746069879e-06
ssS'<entirely>'
p137
(dp138
g3
F120.0
sg4
I39
sg5
F0.0
sg6
F1.0
sg7
F8.4475149909953e-06
sg8
F8.447300910672382e-06
ssS'<or>'
p139
(dp140
g3
F3.0
sg4
I435
sg5
F0.0
sg6
F1.0
sg7
F2.111878747748825e-07
sg8
F2.1118774097394605e-07
ssS'<abundantly>'
p141
(dp142
g3
F39.0
sg4
I93
sg5
F0.0
sg6
F1.0
sg7
F2.745442372073473e-06
sg8
F2.7454197597534043e-06
ssS'<occupationally>'
p143
(dp144
g3
F3.0
sg4
I434
sg5
F0.0
sg6
F1.0
sg7
F2.111878747748825e-07
sg8
F2.1118774097394605e-07
ssS'<kinda>'
p145
(dp146
g3
F52.0
sg4
I70
sg5
F0.0
sg6
F1.0
sg7
F3.660589829431297e-06
sg8
F3.660549629775705e-06
ssS'<maximum>'
p147
(dp148
g3
F4.0
sg4
I389
sg5
F0.0
sg6
F1.0
sg7
F2.815838330331767e-07
sg8
F2.8158359516485625e-07
ssS'<lower>'
p149
(dp150
g3
F4.0
sg4
I388
sg5
F0.0
sg6
F1.0
sg7
F2.815838330331767e-07
sg8
F2.8158359516485625e-07
ssS'<perry ,>'
p151
(dp152
g3
F6.0
sg4
I316
sg5
F0.0
sg6
F1.0
sg7
F4.22375749549765e-07
sg8
F4.2237521434609433e-07
ssS'<tremendously>'
p153
(dp154
g3
F10.0
sg4
I244
sg5
F0.0
sg6
F1.0
sg7
F7.039595825829417e-07
sg8
F7.039580959063575e-07
ssS'<all quite>'
p155
(dp156
g3
F3.0
sg4
I409
sg5
F0.0
sg6
F1.0
sg7
F2.111878747748825e-07
sg8
F2.1118774097394605e-07
ssS'<alarmingly>'
p157
(dp158
g3
F25.0
sg4
I128
sg5
F0.0
sg6
F1.0
sg7
F1.7598989564573543e-06
sg8
F1.7598896647352441e-06
ssS'<c.>'
p159
(dp160
g3
F3.0
sg4
I432
sg5
F0.0
sg6
F1.0
sg7
F2.111878747748825e-07
sg8
F2.1118774097394605e-07
ssS'<economically>'
p161
(dp162
g3
F98.0
sg4
I43
sg5
F0.0
sg6
F1.0
sg7
F6.898803909312829e-06
sg8
F6.898661129483352e-06
ssS'<arguably>'
p163
(dp164
g3
F2.0
sg4
I474
sg5
F0.0
sg6
F1.0
sg7
F1.4079191651658834e-07
sg8
F1.4079185704950266e-07
ssS'<fairly>'
p165
(dp166
g3
F118.0
sg4
I40
sg5
F0.0
sg6
F1.0
sg7
F8.306723074478713e-06
sg8
F8.306516070680378e-06
ssS'<previously>'
p167
(dp168
g3
F60.0
sg4
I62
sg5
F0.0
sg6
F1.0
sg7
F4.22375749549765e-06
sg8
F4.22370397526621e-06
ssS'<nice ,>'
p169
(dp170
g3
F8.0
sg4
I288
sg5
F0.0
sg6
F1.0
sg7
F5.631676660663534e-07
sg8
F5.631667145932505e-07
ssS'<goddam>'
p171
(dp172
g3
F2.0
sg4
I499
sg5
F0.0
sg6
F1.0
sg7
F1.4079191651658834e-07
sg8
F1.4079185704950266e-07
ssS'<reasonably>'
p173
(dp174
g3
F74.0
sg4
I52
sg5
F0.0
sg6
F1.0
sg7
F5.209300911113769e-06
sg8
F5.209219500948553e-06
ssS'<available to the>'
p175
(dp176
g3
F2.0
sg4
I498
sg5
F0.0
sg6
F1.0
sg7
F1.4079191651658834e-07
sg8
F1.4079185704950266e-07
ssS'<structurally>'
p177
(dp178
g3
F5.0
sg4
I360
sg5
F0.0
sg6
F1.0
sg7
F3.5197979129147086e-07
sg8
F3.519794196222376e-07
ssS'<manifestly>'
p179
(dp180
g3
F14.0
sg4
I200
sg5
F0.0
sg6
F1.0
sg7
F9.855434156161184e-07
sg8
F9.855405017305606e-07
ssS'<even more>'
p181
(dp182
g3
F21.0
sg4
I151
sg5
F0.0
sg6
F1.0
sg7
F1.4783151234241776e-06
sg8
F1.4783085671838258e-06
ssS'<less>'
p183
(dp184
g3
F237.0
sg4
I27
sg5
F0.0
sg6
F1.0
sg7
F1.668384210721572e-05
sg8
F1.6683007064741173e-05
ssS'<primarily>'
p185
(dp186
g3
F5.0
sg4
I359
sg5
F0.0
sg6
F1.0
sg7
F3.5197979129147086e-07
sg8
F3.519794196222376e-07
ssS'<deep>'
p187
(dp188
g3
F2.0
sg4
I497
sg5
F0.0
sg6
F1.0
sg7
F1.4079191651658834e-07
sg8
F1.4079185704950266e-07
ssS'<worried about>'
p189
(dp190
g3
F52.0
sg4
I69
sg5
F0.0
sg6
F1.0
sg7
F3.660589829431297e-06
sg8
F3.660549629775705e-06
ssS'<goddamn>'
p191
(dp192
g3
F15.0
sg4
I189
sg5
F0.0
sg6
F1.0
sg7
F1.0559393738744126e-06
sg8
F1.0559360288528836e-06
ssS'<consistently>'
p193
(dp194
g3
F2.0
sg4
I496
sg5
F0.0
sg6
F1.0
sg7
F1.4079191651658834e-07
sg8
F1.4079185704950266e-07
ssS'<somehow>'
p195
(dp196
g3
F3.0
sg4
I431
sg5
F0.0
sg6
F1.0
sg7
F2.111878747748825e-07
sg8
F2.1118774097394605e-07
ssS'<increasingly>'
p197
(dp198
g3
F68.0
sg4
I57
sg5
F0.0
sg6
F1.0
sg7
F4.786925161564004e-06
sg8
F4.786856417825883e-06
ssS'<painfully>'
p199
(dp200
g3
F5.0
sg4
I358
sg5
F0.0
sg6
F1.0
sg7
F3.5197979129147086e-07
sg8
F3.519794196222376e-07
ssS'<fastest>'
p201
(dp202
g3
F3.0
sg4
I430
sg5
F0.0
sg6
F1.0
sg7
F2.111878747748825e-07
sg8
F2.1118774097394605e-07
ssS'<quick>'
p203
(dp204
g3
F14.0
sg4
I199
sg5
F0.0
sg6
F1.0
sg7
F9.855434156161184e-07
sg8
F9.855405017305606e-07
ssS'<bit>'
p205
(dp206
g3
F9.0
sg4
I265
sg5
F0.0
sg6
F1.0
sg7
F6.335636243246475e-07
sg8
F6.335624201165582e-07
ssS'<happily>'
p207
(dp208
g3
F2.0
sg4
I495
sg5
F0.0
sg6
F1.0
sg7
F1.4079191651658834e-07
sg8
F1.4079185704950266e-07
ssS'<rather>'
p209
(dp210
g3
F479.0
sg4
I13
sg5
F0.0
sg6
F1.0
sg7
F3.371966400572291e-05
sg8
F3.371625303518095e-05
ssS'<where>'
p211
(dp212
g3
F43.0
sg4
I82
sg5
F0.0
sg6
F1.0
sg7
F3.0270262051066496e-06
sg8
F3.026998716499183e-06
ssS'<that much>'
p213
(dp214
g3
F2.0
sg4
I466
sg5
F0.0
sg6
F1.0
sg7
F1.4079191651658834e-07
sg8
F1.4079185704950266e-07
ssS'<some>'
p215
(dp216
g3
F8.0
sg4
I287
sg5
F0.0
sg6
F1.0
sg7
F5.631676660663534e-07
sg8
F5.631667145932505e-07
ssS'<nevertheless>'
p217
(dp218
g3
F13.0
sg4
I207
sg5
F0.0
sg6
F1.0
sg7
F9.151474573578242e-07
sg8
F9.151449448747507e-07
ssS'<reasonable>'
p219
(dp220
g3
F6.0
sg4
I328
sg5
F0.0
sg6
F1.0
sg7
F4.22375749549765e-07
sg8
F4.2237521434609433e-07
ssS'<sufficiently>'
p221
(dp222
g3
F53.0
sg4
I67
sg5
F0.0
sg6
F1.0
sg7
F3.7309857876895913e-06
sg8
F3.7309440270286165e-06
ssS'<exceptionally>'
p223
(dp224
g3
F43.0
sg4
I81
sg5
F0.0
sg6
F1.0
sg7
F3.0270262051066496e-06
sg8
F3.026998716499183e-06
ssS'<even>'
p225
(dp226
g3
F211.0
sg4
I29
sg5
F0.0
sg6
F1.0
sg7
F1.4853547192500072e-05
sg8
F1.4852885315461651e-05
ssS'<east>'
p227
(dp228
g3
F11.0
sg4
I240
sg5
F0.0
sg6
F1.0
sg7
F7.743555408412359e-07
sg8
F7.743537419626536e-07
ssS'<less than>'
p229
(dp230
g3
F12.0
sg4
I220
sg5
F0.0
sg6
F1.0
sg7
F8.4475149909953e-07
sg8
F8.447493582854501e-07
ssS'<western>'
p231
(dp232
g3
F2.0
sg4
I494
sg5
F0.0
sg6
F1.0
sg7
F1.4079191651658834e-07
sg8
F1.4079185704950266e-07
ssS'<be>'
p233
(dp234
g3
F6.0
sg4
I332
sg5
F0.0
sg6
F1.0
sg7
F4.22375749549765e-07
sg8
F4.2237521434609433e-07
ssS'<altogether>'
p235
(dp236
g3
F5.0
sg4
I357
sg5
F0.0
sg6
F1.0
sg7
F3.5197979129147086e-07
sg8
F3.519794196222376e-07
ssS'<purely>'
p237
(dp238
g3
F9.0
sg4
I263
sg5
F0.0
sg6
F1.0
sg7
F6.335636243246475e-07
sg8
F6.335624201165582e-07
ssS'<a few>'
p239
(dp240
g3
F3.0
sg4
I429
sg5
F0.0
sg6
F1.0
sg7
F2.111878747748825e-07
sg8
F2.1118774097394605e-07
ssS'<currently>'
p241
(dp242
g3
F88.0
sg4
I46
sg5
F0.0
sg6
F1.0
sg7
F6.194844326729887e-06
sg8
F6.194729198916649e-06
ssS'<sadly>'
p243
(dp244
g3
F4.0
sg4
I387
sg5
F0.0
sg6
F1.0
sg7
F2.815838330331767e-07
sg8
F2.8158359516485625e-07
ssS'<profoundly>'
p245
(dp246
g3
F3.0
sg4
I428
sg5
F0.0
sg6
F1.0
sg7
F2.111878747748825e-07
sg8
F2.1118774097394605e-07
ssS'<a little too>'
p247
(dp248
g3
F3.0
sg4
I427
sg5
F0.0
sg6
F1.0
sg7
F2.111878747748825e-07
sg8
F2.1118774097394605e-07
ssS'<everything>'
p249
(dp250
g3
F3.0
sg4
I426
sg5
F0.0
sg6
F1.0
sg7
F2.111878747748825e-07
sg8
F2.1118774097394605e-07
ssS'<practically>'
p251
(dp252
g3
F28.0
sg4
I119
sg5
F0.0
sg6
F1.0
sg7
F1.971086831232237e-06
sg8
F1.9710751756976654e-06
ssS'<more environmentally>'
p253
(dp254
g3
F2.0
sg4
I493
sg5
F0.0
sg6
F1.0
sg7
F1.4079191651658834e-07
sg8
F1.4079185704950266e-07
ssS'<all that>'
p255
(dp256
g3
F19.0
sg4
I163
sg5
F0.0
sg6
F1.0
sg7
F1.3375232069075892e-06
sg8
F1.3375178400073883e-06
ssS'<otherwise>'
p257
(dp258
g3
F78.0
sg4
I49
sg5
F0.0
sg6
F1.0
sg7
F5.490884744146946e-06
sg8
F5.490794295032228e-06
ssS'<now>'
p259
(dp260
g3
F27.0
sg4
I124
sg5
F0.0
sg6
F1.0
sg7
F1.9006908729739428e-06
sg8
F1.9006800351102909e-06
ssS'<crucially>'
p261
(dp262
g3
F21.0
sg4
I150
sg5
F0.0
sg6
F1.0
sg7
F1.4783151234241776e-06
sg8
F1.4783085671838258e-06
ssS'<months>'
p263
(dp264
g3
F2.0
sg4
I492
sg5
F0.0
sg6
F1.0
sg7
F1.4079191651658834e-07
sg8
F1.4079185704950266e-07
ssS'<a great>'
p265
(dp266
g3
F12.0
sg4
I223
sg5
F0.0
sg6
F1.0
sg7
F8.4475149909953e-07
sg8
F8.447493582854501e-07
ssS'<guys>'
p267
(dp268
g3
F11.0
sg4
I239
sg5
F0.0
sg6
F1.0
sg7
F7.743555408412359e-07
sg8
F7.743537419626536e-07
ssS"<fuckin '>"
p269
(dp270
g3
F12.0
sg4
I222
sg5
F0.0
sg6
F1.0
sg7
F8.4475149909953e-07
sg8
F8.447493582854501e-07
ssS'<all>'
p271
(dp272
g3
F620.0
sg4
I10
sg5
F0.0
sg6
F1.0
sg7
F4.3645494120142385e-05
sg8
F4.3639779498954384e-05
ssS'<a little>'
p273
(dp274
g3
F254.0
sg4
I25
sg5
F0.0
sg6
F1.0
sg7
F1.788057339760672e-05
sg8
F1.787961426432508e-05
ssS'<available for>'
p275
(dp276
g3
F21.0
sg4
I149
sg5
F0.0
sg6
F1.0
sg7
F1.4783151234241776e-06
sg8
F1.4783085671838258e-06
ssS'<naturally>'
p277
(dp278
g3
F19.0
sg4
I162
sg5
F0.0
sg6
F1.0
sg7
F1.3375232069075892e-06
sg8
F1.3375178400073883e-06
ssS'<just about>'
p279
(dp280
g3
F3.0
sg4
I425
sg5
F0.0
sg6
F1.0
sg7
F2.111878747748825e-07
sg8
F2.1118774097394605e-07
ssS'<current>'
p281
(dp282
g3
F6.0
sg4
I330
sg5
F0.0
sg6
F1.0
sg7
F4.22375749549765e-07
sg8
F4.2237521434609433e-07
ssS'<historically>'
p283
(dp284
g3
F3.0
sg4
I424
sg5
F0.0
sg6
F1.0
sg7
F2.111878747748825e-07
sg8
F2.1118774097394605e-07
ssS'<international>'
p285
(dp286
g3
F3.0
sg4
I423
sg5
F0.0
sg6
F1.0
sg7
F2.111878747748825e-07
sg8
F2.1118774097394605e-07
ssS'<adequately>'
p287
(dp288
g3
F5.0
sg4
I356
sg5
F0.0
sg6
F1.0
sg7
F3.5197979129147086e-07
sg8
F3.519794196222376e-07
ssS'<so fucking>'
p289
(dp290
g3
F18.0
sg4
I169
sg5
F0.0
sg6
F1.0
sg7
F1.267127248649295e-06
sg8
F1.2671224318189712e-06
ssS'<financially>'
p291
(dp292
g3
F39.0
sg4
I95
sg5
F0.0
sg6
F1.0
sg7
F2.745442372073473e-06
sg8
F2.7454197597534043e-06
ssS'<wicked>'
p293
(dp294
g3
F7.0
sg4
I302
sg5
F0.0
sg6
F1.0
sg7
F4.927717078080592e-07
sg8
F4.927709793364305e-07
ssS'<sometimes>'
p295
(dp296
g3
F2.0
sg4
I477
sg5
F0.0
sg6
F1.0
sg7
F1.4079191651658834e-07
sg8
F1.4079185704950266e-07
ssS'<member>'
p297
(dp298
g3
F5.0
sg4
I355
sg5
F0.0
sg6
F1.0
sg7
F3.5197979129147086e-07
sg8
F3.519794196222376e-07
ssS'<more>'
p299
(dp300
g3
F1665.0
sg4
I6
sg5
F0.0
sg6
F1.0
sg7
F0.0001172092705000598
sg8
F0.00011716805968123044
ssS'<still more>'
p301
(dp302
g3
F2.0
sg4
I482
sg5
F0.0
sg6
F1.0
sg7
F1.4079191651658834e-07
sg8
F1.4079185704950266e-07
ssS'<distinctly>'
p303
(dp304
g3
F5.0
sg4
I354
sg5
F0.0
sg6
F1.0
sg7
F3.5197979129147086e-07
sg8
F3.519794196222376e-07
ssS'<somewhat>'
p305
(dp306
g3
F176.0
sg4
I33
sg5
F0.0
sg6
F1.0
sg7
F1.2389688653459774e-05
sg8
F1.2389228144108748e-05
ssS'<poorly>'
p307
(dp308
g3
F10.0
sg4
I254
sg5
F0.0
sg6
F1.0
sg7
F7.039595825829417e-07
sg8
F7.039580959063575e-07
ssS'<just>'
p309
(dp310
g3
F810.0
sg4
I8
sg5
F0.0
sg6
F1.0
sg7
F5.702072618921828e-05
sg8
F5.701097247036394e-05
ssS'<badly>'
p311
(dp312
g3
F5.0
sg4
I352
sg5
F0.0
sg6
F1.0
sg7
F3.5197979129147086e-07
sg8
F3.519794196222376e-07
ssS'<totally>'
p313
(dp314
g3
F459.0
sg4
I14
sg5
F0.0
sg6
F1.0
sg7
F3.2311744840557026e-05
sg8
F3.230861276146344e-05
ssS'<clearly>'
p315
(dp316
g3
F198.0
sg4
I30
sg5
F0.0
sg6
F1.0
sg7
F1.3938399735142247e-05
sg8
F1.3937816903596563e-05
ssS'<any more>'
p317
(dp318
g3
F6.0
sg4
I329
sg5
F0.0
sg6
F1.0
sg7
F4.22375749549765e-07
sg8
F4.2237521434609433e-07
ssS'<so freaking>'
p319
(dp320
g3
F2.0
sg4
I490
sg5
F0.0
sg6
F1.0
sg7
F1.4079191651658834e-07
sg8
F1.4079185704950266e-07
ssS'<newly>'
p321
(dp322
g3
F70.0
sg4
I56
sg5
F0.0
sg6
F1.0
sg7
F4.927717078080592e-06
sg8
F4.927644231133106e-06
ssS'<plenty>'
p323
(dp324
g3
F3.0
sg4
I422
sg5
F0.0
sg6
F1.0
sg7
F2.111878747748825e-07
sg8
F2.1118774097394605e-07
ssS'<sweet ,>'
p325
(dp326
g3
F4.0
sg4
I386
sg5
F0.0
sg6
F1.0
sg7
F2.815838330331767e-07
sg8
F2.8158359516485625e-07
ssS'<unduly>'
p327
(dp328
g3
F3.0
sg4
I408
sg5
F0.0
sg6
F1.0
sg7
F2.111878747748825e-07
sg8
F2.1118774097394605e-07
ssS'<patently>'
p329
(dp330
g3
F45.0
sg4
I75
sg5
F0.0
sg6
F1.0
sg7
F3.167818121623238e-06
sg8
F3.1677880164718606e-06
ssS'<inherently>'
p331
(dp332
g3
F8.0
sg4
I286
sg5
F0.0
sg6
F1.0
sg7
F5.631676660663534e-07
sg8
F5.631667145932505e-07
ssS'<utterly>'
p333
(dp334
g3
F27.0
sg4
I123
sg5
F0.0
sg6
F1.0
sg7
F1.9006908729739428e-06
sg8
F1.9006800351102909e-06
ssS'<permanently>'
p335
(dp336
g3
F6.0
sg4
I327
sg5
F0.0
sg6
F1.0
sg7
F4.22375749549765e-07
sg8
F4.2237521434609433e-07
ssS'<sure this is>'
p337
(dp338
g3
F5.0
sg4
I351
sg5
F0.0
sg6
F1.0
sg7
F3.5197979129147086e-07
sg8
F3.519794196222376e-07
ssS'<fair>'
p339
(dp340
g3
F31.0
sg4
I110
sg5
F0.0
sg6
F1.0
sg7
F2.1822747060071195e-06
sg8
F2.182260419059226e-06
ssS'<truly>'
p341
(dp342
g3
F175.0
sg4
I34
sg5
F0.0
sg6
F1.0
sg7
F1.231929269520148e-05
sg8
F1.2318837404023248e-05
ssS'<sufficient>'
p343
(dp344
g3
F5.0
sg4
I350
sg5
F0.0
sg6
F1.0
sg7
F3.5197979129147086e-07
sg8
F3.519794196222376e-07
ssS'<better than>'
p345
(dp346
g3
F3.0
sg4
I421
sg5
F0.0
sg6
F1.0
sg7
F2.111878747748825e-07
sg8
F2.1118774097394605e-07
ssS'<yet>'
p347
(dp348
g3
F33.0
sg4
I106
sg5
F0.0
sg6
F1.0
sg7
F2.323066622523708e-06
sg8
F2.3230504326331834e-06
ssS'<individually>'
p349
(dp350
g3
F2.0
sg4
I489
sg5
F0.0
sg6
F1.0
sg7
F1.4079191651658834e-07
sg8
F1.4079185704950266e-07
ssS'<more easily>'
p351
(dp352
g3
F2.0
sg4
I473
sg5
F0.0
sg6
F1.0
sg7
F1.4079191651658834e-07
sg8
F1.4079185704950266e-07
ssS'<awful>'
p353
(dp354
g3
F5.0
sg4
I349
sg5
F0.0
sg6
F1.0
sg7
F3.5197979129147086e-07
sg8
F3.519794196222376e-07
ssS'<conspicuously>'
p355
(dp356
g3
F3.0
sg4
I420
sg5
F0.0
sg6
F1.0
sg7
F2.111878747748825e-07
sg8
F2.1118774097394605e-07
ssS'<dear>'
p357
(dp358
g3
F3.0
sg4
I419
sg5
F0.0
sg6
F1.0
sg7
F2.111878747748825e-07
sg8
F2.1118774097394605e-07
ssS'<immediately>'
p359
(dp360
g3
F18.0
sg4
I168
sg5
F0.0
sg6
F1.0
sg7
F1.267127248649295e-06
sg8
F1.2671224318189712e-06
ssS'<mutually>'
p361
(dp362
g3
F124.0
sg4
I37
sg5
F0.0
sg6
F1.0
sg7
F8.729098824028478e-06
sg8
F8.72887023385992e-06
ssS'<fine>'
p363
(dp364
g3
F3.0
sg4
I418
sg5
F0.0
sg6
F1.0
sg7
F2.111878747748825e-07
sg8
F2.1118774097394605e-07
ssS'<almost>'
p365
(dp366
g3
F123.0
sg4
I38
sg5
F0.0
sg6
F1.0
sg7
F8.658702865770183e-06
sg8
F8.65847794766257e-06
ssS'<possible>'
p367
(dp368
g3
F16.0
sg4
I181
sg5
F0.0
sg6
F1.0
sg7
F1.1263353321327067e-06
sg8
F1.1263315262417236e-06
ssS'<broadly>'
p369
(dp370
g3
F45.0
sg4
I76
sg5
F0.0
sg6
F1.0
sg7
F3.167818121623238e-06
sg8
F3.1677880164718606e-06
ssS'<fantastic ,>'
p371
(dp372
g3
F10.0
sg4
I253
sg5
F0.0
sg6
F1.0
sg7
F7.039595825829417e-07
sg8
F7.039580959063575e-07
ssS'<prohibitively>'
p373
(dp374
g3
F8.0
sg4
I285
sg5
F0.0
sg6
F1.0
sg7
F5.631676660663534e-07
sg8
F5.631667145932505e-07
ssS'<crystal>'
p375
(dp376
g3
F17.0
sg4
I173
sg5
F0.0
sg6
F1.0
sg7
F1.196731290391001e-06
sg8
F1.1967269938970844e-06
ssS'<vitally>'
p377
(dp378
g3
F40.0
sg4
I92
sg5
F0.0
sg6
F1.0
sg7
F2.815838330331767e-06
sg8
F2.8158145435399116e-06
ssS'<nonetheless>'
p379
(dp380
g3
F9.0
sg4
I264
sg5
F0.0
sg6
F1.0
sg7
F6.335636243246475e-07
sg8
F6.335624201165582e-07
ssS'<right ,>'
p381
(dp382
g3
F30.0
sg4
I112
sg5
F0.0
sg6
F1.0
sg7
F2.111878747748825e-06
sg8
F2.111865367672128e-06
ssS'<cool with>'
p383
(dp384
g3
F3.0
sg4
I417
sg5
F0.0
sg6
F1.0
sg7
F2.111878747748825e-07
sg8
F2.1118774097394605e-07
ssS'<worst>'
p385
(dp386
g3
F8.0
sg4
I284
sg5
F0.0
sg6
F1.0
sg7
F5.631676660663534e-07
sg8
F5.631667145932505e-07
ssS'<longer>'
p387
(dp388
g3
F10.0
sg4
I252
sg5
F0.0
sg6
F1.0
sg7
F7.039595825829417e-07
sg8
F7.039580959063575e-07
ssS'<deeply>'
p389
(dp390
g3
F53.0
sg4
I66
sg5
F0.0
sg6
F1.0
sg7
F3.7309857876895913e-06
sg8
F3.7309440270286165e-06
ssS'<long ,>'
p391
(dp392
g3
F6.0
sg4
I326
sg5
F0.0
sg6
F1.0
sg7
F4.22375749549765e-07
sg8
F4.2237521434609433e-07
ssS'<third>'
p393
(dp394
g3
F2.0
sg4
I487
sg5
F0.0
sg6
F1.0
sg7
F1.4079191651658834e-07
sg8
F1.4079185704950266e-07
ssS'<then>'
p395
(dp396
g3
F10.0
sg4
I251
sg5
F0.0
sg6
F1.0
sg7
F7.039595825829417e-07
sg8
F7.039580959063575e-07
ssS'<so nice to>'
p397
(dp398
g3
F5.0
sg4
I348
sg5
F0.0
sg6
F1.0
sg7
F3.5197979129147086e-07
sg8
F3.519794196222376e-07
ssS'<visually>'
p399
(dp400
g3
F8.0
sg4
I282
sg5
F0.0
sg6
F1.0
sg7
F5.631676660663534e-07
sg8
F5.631667145932505e-07
ssS'<explicitly>'
p401
(dp402
g3
F3.0
sg4
I416
sg5
F0.0
sg6
F1.0
sg7
F2.111878747748825e-07
sg8
F2.1118774097394605e-07
ssS'<duty>'
p403
(dp404
g3
F3.0
sg4
I415
sg5
F0.0
sg6
F1.0
sg7
F2.111878747748825e-07
sg8
F2.1118774097394605e-07
ssS'<overly>'
p405
(dp406
g3
F19.0
sg4
I161
sg5
F0.0
sg6
F1.0
sg7
F1.3375232069075892e-06
sg8
F1.3375178400073883e-06
ssS'<home>'
p407
(dp408
g3
F3.0
sg4
I414
sg5
F0.0
sg6
F1.0
sg7
F2.111878747748825e-07
sg8
F2.1118774097394605e-07
ssS'<geographically>'
p409
(dp410
g3
F15.0
sg4
I182
sg5
F0.0
sg6
F1.0
sg7
F1.0559393738744126e-06
sg8
F1.0559360288528836e-06
ssS'<kind of>'
p411
(dp412
g3
F181.0
sg4
I32
sg5
F0.0
sg6
F1.0
sg7
F1.2741668444751245e-05
sg8
F1.2741181398544201e-05
ssS'<as brief as>'
p413
(dp414
g3
F2.0
sg4
I486
sg5
F0.0
sg6
F1.0
sg7
F1.4079191651658834e-07
sg8
F1.4079185704950266e-07
ssS'<equally>'
p415
(dp416
g3
F40.0
sg4
I91
sg5
F0.0
sg6
F1.0
sg7
F2.815838330331767e-06
sg8
F2.8158145435399116e-06
ssS'<cost>'
p417
(dp418
g3
F35.0
sg4
I99
sg5
F0.0
sg6
F1.0
sg7
F2.463858539040296e-06
sg8
F2.463840327273509e-06
ssS'<north>'
p419
(dp420
g3
F13.0
sg4
I214
sg5
F0.0
sg6
F1.0
sg7
F9.151474573578242e-07
sg8
F9.151449448747507e-07
ssS'<this>'
p421
(dp422
g3
F53.0
sg4
I65
sg5
F0.0
sg6
F1.0
sg7
F3.7309857876895913e-06
sg8
F3.7309440270286165e-06
ssS'<several>'
p423
(dp424
g3
F11.0
sg4
I232
sg5
F0.0
sg6
F1.0
sg7
F7.743555408412359e-07
sg8
F7.743537419626536e-07
ssS'<virtually>'
p425
(dp426
g3
F27.0
sg4
I122
sg5
F0.0
sg6
F1.0
sg7
F1.9006908729739428e-06
sg8
F1.9006800351102909e-06
ssS'<glad to see>'
p427
(dp428
g3
F5.0
sg4
I346
sg5
F0.0
sg6
F1.0
sg7
F3.5197979129147086e-07
sg8
F3.519794196222376e-07
ssS'<warm>'
p429
(dp430
g3
F4.0
sg4
I385
sg5
F0.0
sg6
F1.0
sg7
F2.815838330331767e-07
sg8
F2.8158359516485625e-07
ssS'<a little bit>'
p431
(dp432
g3
F3.0
sg4
I413
sg5
F0.0
sg6
F1.0
sg7
F2.111878747748825e-07
sg8
F2.1118774097394605e-07
ssS'<socially>'
p433
(dp434
g3
F22.0
sg4
I147
sg5
F0.0
sg6
F1.0
sg7
F1.5487110816824718e-06
sg8
F1.548703886171858e-06
ssS'<more than>'
p435
(dp436
g3
F3.0
sg4
I412
sg5
F0.0
sg6
F1.0
sg7
F2.111878747748825e-07
sg8
F2.1118774097394605e-07
ssS'<extraordinarily>'
p437
(dp438
g3
F36.0
sg4
I97
sg5
F0.0
sg6
F1.0
sg7
F2.53425449729859e-06
sg8
F2.5342352299935726e-06
ssS'<two feet>'
p439
(dp440
g3
F6.0
sg4
I322
sg5
F0.0
sg6
F1.0
sg7
F4.22375749549765e-07
sg8
F4.2237521434609433e-07
ssS'<person>'
p441
(dp442
g3
F6.0
sg4
I325
sg5
F0.0
sg6
F1.0
sg7
F4.22375749549765e-07
sg8
F4.2237521434609433e-07
ssS'<actively>'
p443
(dp444
g3
F17.0
sg4
I172
sg5
F0.0
sg6
F1.0
sg7
F1.196731290391001e-06
sg8
F1.1967269938970844e-06
ssS'<plain>'
p445
(dp446
g3
F13.0
sg4
I213
sg5
F0.0
sg6
F1.0
sg7
F9.151474573578242e-07
sg8
F9.151449448747507e-07
ssS'<first>'
p447
(dp448
g3
F10.0
sg4
I250
sg5
F0.0
sg6
F1.0
sg7
F7.039595825829417e-07
sg8
F7.039580959063575e-07
ssS'<easily>'
p449
(dp450
g3
F49.0
sg4
I73
sg5
F0.0
sg6
F1.0
sg7
F3.4494019546564146e-06
sg8
F3.449366259616966e-06
ssS'<two>'
p451
(dp452
g3
F8.0
sg4
I281
sg5
F0.0
sg6
F1.0
sg7
F5.631676660663534e-07
sg8
F5.631667145932505e-07
ssS'<wholly>'
p453
(dp454
g3
F14.0
sg4
I190
sg5
F0.0
sg6
F1.0
sg7
F9.855434156161184e-07
sg8
F9.855405017305606e-07
ssS'<open to the>'
p455
(dp456
g3
F8.0
sg4
I280
sg5
F0.0
sg6
F1.0
sg7
F5.631676660663534e-07
sg8
F5.631667145932505e-07
ssS'<cold in>'
p457
(dp458
g3
F4.0
sg4
I383
sg5
F0.0
sg6
F1.0
sg7
F2.815838330331767e-07
sg8
F2.8158359516485625e-07
ssS'<internally>'
p459
(dp460
g3
F15.0
sg4
I188
sg5
F0.0
sg6
F1.0
sg7
F1.0559393738744126e-06
sg8
F1.0559360288528836e-06
ssS'<engaged to be>'
p461
(dp462
g3
F2.0
sg4
I456
sg5
F0.0
sg6
F1.0
sg7
F1.4079191651658834e-07
sg8
F1.4079185704950266e-07
ssS'<fine ,>'
p463
(dp464
g3
F22.0
sg4
I146
sg5
F0.0
sg6
F1.0
sg7
F1.5487110816824718e-06
sg8
F1.548703886171858e-06
ssS'<duly>'
p465
(dp466
g3
F18.0
sg4
I167
sg5
F0.0
sg6
F1.0
sg7
F1.267127248649295e-06
sg8
F1.2671224318189712e-06
ssS'<exceedingly>'
p467
(dp468
g3
F5.0
sg4
I344
sg5
F0.0
sg6
F1.0
sg7
F3.5197979129147086e-07
sg8
F3.519794196222376e-07
ssS'<commercially>'
p469
(dp470
g3
F26.0
sg4
I125
sg5
F0.0
sg6
F1.0
sg7
F1.8302949147156484e-06
sg8
F1.8302848647894868e-06
ssS'<strongest>'
p471
(dp472
g3
F6.0
sg4
I324
sg5
F0.0
sg6
F1.0
sg7
F4.22375749549765e-07
sg8
F4.2237521434609433e-07
ssS'<terribly>'
p473
(dp474
g3
F41.0
sg4
I84
sg5
F0.0
sg6
F1.0
sg7
F2.8862342885900612e-06
sg8
F2.8862092975930393e-06
ssS'<ecologically>'
p475
(dp476
g3
F23.0
sg4
I139
sg5
F0.0
sg6
F1.0
sg7
F1.619107039940766e-06
sg8
F1.6190991754264338e-06
ssS'<too>'
p477
(dp478
g3
F342.0
sg4
I19
sg5
F0.0
sg6
F1.0
sg7
F2.407541772433661e-05
sg8
F2.407367887503013e-05
ssS'<heavily>'
p479
(dp480
g3
F11.0
sg4
I238
sg5
F0.0
sg6
F1.0
sg7
F7.743555408412359e-07
sg8
F7.743537419626536e-07
ssS'<disgusting ,>'
p481
(dp482
g3
F9.0
sg4
I262
sg5
F0.0
sg6
F1.0
sg7
F6.335636243246475e-07
sg8
F6.335624201165582e-07
ssS'<higher>'
p483
(dp484
g3
F14.0
sg4
I198
sg5
F0.0
sg6
F1.0
sg7
F9.855434156161184e-07
sg8
F9.855405017305606e-07
ssS'<very well>'
p485
(dp486
g3
F13.0
sg4
I212
sg5
F0.0
sg6
F1.0
sg7
F9.151474573578242e-07
sg8
F9.151449448747507e-07
ssS'<downright>'
p487
(dp488
g3
F5.0
sg4
I347
sg5
F0.0
sg6
F1.0
sg7
F3.5197979129147086e-07
sg8
F3.519794196222376e-07
ssS'<wide>'
p489
(dp490
g3
F12.0
sg4
I221
sg5
F0.0
sg6
F1.0
sg7
F8.4475149909953e-07
sg8
F8.447493582854501e-07
ssS'<so much>'
p491
(dp492
g3
F11.0
sg4
I237
sg5
F0.0
sg6
F1.0
sg7
F7.743555408412359e-07
sg8
F7.743537419626536e-07
ssS'<still>'
p493
(dp494
g3
F74.0
sg4
I51
sg5
F0.0
sg6
F1.0
sg7
F5.209300911113769e-06
sg8
F5.209219500948553e-06
ssS'<damned>'
p495
(dp496
g3
F5.0
sg4
I343
sg5
F0.0
sg6
F1.0
sg7
F3.5197979129147086e-07
sg8
F3.519794196222376e-07
ssS'<rarely>'
p497
(dp498
g3
F23.0
sg4
I136
sg5
F0.0
sg6
F1.0
sg7
F1.619107039940766e-06
sg8
F1.6190991754264338e-06
ssS'<generally>'
p499
(dp500
g3
F94.0
sg4
I44
sg5
F0.0
sg6
F1.0
sg7
F6.6172200762796525e-06
sg8
F6.6170887140545515e-06
ssS'<strongly>'
p501
(dp502
g3
F14.0
sg4
I197
sg5
F0.0
sg6
F1.0
sg7
F9.855434156161184e-07
sg8
F9.855405017305606e-07
ssS'<a bit>'
p503
(dp504
g3
F78.0
sg4
I48
sg5
F0.0
sg6
F1.0
sg7
F5.490884744146946e-06
sg8
F5.490794295032228e-06
ssS'<many>'
p505
(dp506
g3
F19.0
sg4
I160
sg5
F0.0
sg6
F1.0
sg7
F1.3375232069075892e-06
sg8
F1.3375178400073883e-06
ssS'<deadly>'
p507
(dp508
g3
F2.0
sg4
I485
sg5
F0.0
sg6
F1.0
sg7
F1.4079191651658834e-07
sg8
F1.4079185704950266e-07
ssS'<kind>'
p509
(dp510
g3
F3.0
sg4
I410
sg5
F0.0
sg6
F1.0
sg7
F2.111878747748825e-07
sg8
F2.1118774097394605e-07
ssS'<stiii>'
p511
(dp512
g3
F2.0
sg4
I455
sg5
F0.0
sg6
F1.0
sg7
F1.4079191651658834e-07
sg8
F1.4079185704950266e-07
ssS'<fine with>'
p513
(dp514
g3
F2.0
sg4
I484
sg5
F0.0
sg6
F1.0
sg7
F1.4079191651658834e-07
sg8
F1.4079185704950266e-07
ssS'<mentally>'
p515
(dp516
g3
F28.0
sg4
I118
sg5
F0.0
sg6
F1.0
sg7
F1.971086831232237e-06
sg8
F1.9710751756976654e-06
ssS'<too fucking>'
p517
(dp518
g3
F4.0
sg4
I381
sg5
F0.0
sg6
F1.0
sg7
F2.815838330331767e-07
sg8
F2.8158359516485625e-07
ssS'<way>'
p519
(dp520
g3
F7.0
sg4
I306
sg5
F0.0
sg6
F1.0
sg7
F4.927717078080592e-07
sg8
F4.927709793364305e-07
ssS'<persistently>'
p521
(dp522
g3
F2.0
sg4
I483
sg5
F0.0
sg6
F1.0
sg7
F1.4079191651658834e-07
sg8
F1.4079185704950266e-07
ssS'<officially>'
p523
(dp524
g3
F13.0
sg4
I210
sg5
F0.0
sg6
F1.0
sg7
F9.151474573578242e-07
sg8
F9.151449448747507e-07
ssS'<over>'
p525
(dp526
g3
F4.0
sg4
I380
sg5
F0.0
sg6
F1.0
sg7
F2.815838330331767e-07
sg8
F2.8158359516485625e-07
ssS'<mighty>'
p527
(dp528
g3
F22.0
sg4
I145
sg5
F0.0
sg6
F1.0
sg7
F1.5487110816824718e-06
sg8
F1.548703886171858e-06
ssS'<therefore>'
p529
(dp530
g3
F235.0
sg4
I28
sg5
F0.0
sg6
F1.0
sg7
F1.654305019069913e-05
sg8
F1.654222918222498e-05
ssS'<already>'
p531
(dp532
g3
F70.0
sg4
I55
sg5
F0.0
sg6
F1.0
sg7
F4.927717078080592e-06
sg8
F4.927644231133106e-06
ssS'<readily>'
p533
(dp534
g3
F80.0
sg4
I47
sg5
F0.0
sg6
F1.0
sg7
F5.631676660663534e-06
sg8
F5.6315815136747276e-06
ssS'<fucking>'
p535
(dp536
g3
F52.0
sg4
I68
sg5
F0.0
sg6
F1.0
sg7
F3.660589829431297e-06
sg8
F3.660549629775705e-06
ssS'<emotionally>'
p537
(dp538
g3
F11.0
sg4
I230
sg5
F0.0
sg6
F1.0
sg7
F7.743555408412359e-07
sg8
F7.743537419626536e-07
ssS'<fully>'
p539
(dp540
g3
F194.0
sg4
I31
sg5
F0.0
sg6
F1.0
sg7
F1.365681590210907e-05
sg8
F1.3656256381341566e-05
ssS'<quite>'
p541
(dp542
g3
F1903.0
sg4
I5
sg5
F0.0
sg6
F1.0
sg7
F0.0001339635085655338
sg8
F0.0001339096747089256
ssS'<gonna be all>'
p543
(dp544
g3
F6.0
sg4
I323
sg5
F0.0
sg6
F1.0
sg7
F4.22375749549765e-07
sg8
F4.2237521434609433e-07
ssS'<unsustainably>'
p545
(dp546
g3
F4.0
sg4
I384
sg5
F0.0
sg6
F1.0
sg7
F2.815838330331767e-07
sg8
F2.8158359516485625e-07
ssS'<essentially>'
p547
(dp548
g3
F6.0
sg4
I331
sg5
F0.0
sg6
F1.0
sg7
F4.22375749549765e-07
sg8
F4.2237521434609433e-07
ssS'<gonna be>'
p549
(dp550
g3
F7.0
sg4
I305
sg5
F0.0
sg6
F1.0
sg7
F4.927717078080592e-07
sg8
F4.927709793364305e-07
ssS'<wherever>'
p551
(dp552
g3
F8.0
sg4
I279
sg5
F0.0
sg6
F1.0
sg7
F5.631676660663534e-07
sg8
F5.631667145932505e-07
ssS'<dead>'
p553
(dp554
g3
F20.0
sg4
I157
sg5
F0.0
sg6
F1.0
sg7
F1.4079191651658834e-06
sg8
F1.4079132184623385e-06
ssS'<above->'
p555
(dp556
g3
F2.0
sg4
I481
sg5
F0.0
sg6
F1.0
sg7
F1.4079191651658834e-07
sg8
F1.4079185704950266e-07
ssS'<physically>'
p557
(dp558
g3
F39.0
sg4
I94
sg5
F0.0
sg6
F1.0
sg7
F2.745442372073473e-06
sg8
F2.7454197597534043e-06
ssS'<best>'
p559
(dp560
g3
F29.0
sg4
I114
sg5
F0.0
sg6
F1.0
sg7
F2.041482789490531e-06
sg8
F2.041470286551609e-06
ssS'<mildly>'
p561
(dp562
g3
F2.0
sg4
I480
sg5
F0.0
sg6
F1.0
sg7
F1.4079191651658834e-07
sg8
F1.4079185704950266e-07
ssS'<mostly>'
p563
(dp564
g3
F5.0
sg4
I342
sg5
F0.0
sg6
F1.0
sg7
F3.5197979129147086e-07
sg8
F3.519794196222376e-07
ssS'<extremely>'
p565
(dp566
g3
F572.0
sg4
I11
sg5
F0.0
sg6
F1.0
sg7
F4.026648812374427e-05
sg8
F4.026162408412207e-05
ssS'<so damn>'
p567
(dp568
g3
F2.0
sg4
I479
sg5
F0.0
sg6
F1.0
sg7
F1.4079191651658834e-07
sg8
F1.4079185704950266e-07
ssS'<relatively>'
p569
(dp570
g3
F377.0
sg4
I18
sg5
F0.0
sg6
F1.0
sg7
F2.6539276263376905e-05
sg8
F2.6537163301208144e-05
ssS'<simply>'
p571
(dp572
g3
F40.0
sg4
I90
sg5
F0.0
sg6
F1.0
sg7
F2.815838330331767e-06
sg8
F2.8158145435399116e-06
ssS'<is weaker than>'
p573
(dp574
g3
F3600171.0
sg4
I0
sg5
F0.0
sg6
F264508.0
sg7
F0.2534374874387212
sg8
F14521.900952863014
ssS'<glamorous>'
p575
(dp576
g3
F4.0
sg4
I379
sg5
F0.0
sg6
F1.0
sg7
F2.815838330331767e-07
sg8
F2.8158359516485625e-07
ssS'<bad ,>'
p577
(dp578
g3
F8.0
sg4
I278
sg5
F0.0
sg6
F1.0
sg7
F5.631676660663534e-07
sg8
F5.631667145932505e-07
ssS'<good ,>'
p579
(dp580
g3
F9.0
sg4
I261
sg5
F0.0
sg6
F1.0
sg7
F6.335636243246475e-07
sg8
F6.335624201165582e-07
ssS'<all the more>'
p581
(dp582
g3
F13.0
sg4
I209
sg5
F0.0
sg6
F1.0
sg7
F9.151474573578242e-07
sg8
F9.151449448747507e-07
ssS'<single>'
p583
(dp584
g3
F35.0
sg4
I98
sg5
F0.0
sg6
F1.0
sg7
F2.463858539040296e-06
sg8
F2.463840327273509e-06
ssS'<greatest>'
p585
(dp586
g3
F23.0
sg4
I138
sg5
F0.0
sg6
F1.0
sg7
F1.619107039940766e-06
sg8
F1.6190991754264338e-06
ssS'<largely>'
p587
(dp588
g3
F10.0
sg4
I249
sg5
F0.0
sg6
F1.0
sg7
F7.039595825829417e-07
sg8
F7.039580959063575e-07
ssS'<just as>'
p589
(dp590
g3
F11.0
sg4
I236
sg5
F0.0
sg6
F1.0
sg7
F7.743555408412359e-07
sg8
F7.743537419626536e-07
ssS'<better ,>'
p591
(dp592
g3
F5.0
sg4
I341
sg5
F0.0
sg6
F1.0
sg7
F3.5197979129147086e-07
sg8
F3.519794196222376e-07
ssS'<other>'
p593
(dp594
g3
F17.0
sg4
I171
sg5
F0.0
sg6
F1.0
sg7
F1.196731290391001e-06
sg8
F1.1967269938970844e-06
ssS'<third most>'
p595
(dp596
g3
F2.0
sg4
I478
sg5
F0.0
sg6
F1.0
sg7
F1.4079191651658834e-07
sg8
F1.4079185704950266e-07
ssS'<completely>'
p597
(dp598
g3
F452.0
sg4
I15
sg5
F0.0
sg6
F1.0
sg7
F3.181897313274897e-05
sg8
F3.1815935856025405e-05
ssS'<absolutely>'
p599
(dp600
g3
F715.0
sg4
I9
sg5
F0.0
sg6
F1.0
sg7
F5.0333110154680334e-05
sg8
F5.0325510143776204e-05
ssS'<how>'
p601
(dp602
g3
F53.0
sg4
I64
sg5
F0.0
sg6
F1.0
sg7
F3.7309857876895913e-06
sg8
F3.7309440270286165e-06
ssS'<anywhere>'
p603
(dp604
g3
F11.0
sg4
I235
sg5
F0.0
sg6
F1.0
sg7
F7.743555408412359e-07
sg8
F7.743537419626536e-07
ssS'<recently>'
p605
(dp606
g3
F23.0
sg4
I137
sg5
F0.0
sg6
F1.0
sg7
F1.619107039940766e-06
sg8
F1.6190991754264338e-06
ssS'<marginally>'
p607
(dp608
g3
F6.0
sg4
I321
sg5
F0.0
sg6
F1.0
sg7
F4.22375749549765e-07
sg8
F4.2237521434609433e-07
ssS'<severely>'
p609
(dp610
g3
F8.0
sg4
I277
sg5
F0.0
sg6
F1.0
sg7
F5.631676660663534e-07
sg8
F5.631667145932505e-07
ssS'<half>'
p611
(dp612
g3
F21.0
sg4
I148
sg5
F0.0
sg6
F1.0
sg7
F1.4783151234241776e-06
sg8
F1.4783085671838258e-06
ssS'<nice>'
p613
(dp614
g3
F22.0
sg4
I144
sg5
F0.0
sg6
F1.0
sg7
F1.5487110816824718e-06
sg8
F1.548703886171858e-06
ssS'<disproportionately>'
p615
(dp616
g3
F10.0
sg4
I248
sg5
F0.0
sg6
F1.0
sg7
F7.039595825829417e-07
sg8
F7.039580959063575e-07
ssS'<environmentally>'
p617
(dp618
g3
F104.0
sg4
I42
sg5
F0.0
sg6
F1.0
sg7
F7.321179658862594e-06
sg8
F7.321018860632646e-06
ssS'<suitably>'
p619
(dp620
g3
F8.0
sg4
I276
sg5
F0.0
sg6
F1.0
sg7
F5.631676660663534e-07
sg8
F5.631667145932505e-07
ssS'<gonna>'
p621
(dp622
g3
F15.0
sg4
I187
sg5
F0.0
sg6
F1.0
sg7
F1.0559393738744126e-06
sg8
F1.0559360288528836e-06
ssS'<right>'
p623
(dp624
g3
F30.0
sg4
I111
sg5
F0.0
sg6
F1.0
sg7
F2.111878747748825e-06
sg8
F2.111865367672128e-06
ssS'<strong>'
p625
(dp626
g3
F14.0
sg4
I191
sg5
F0.0
sg6
F1.0
sg7
F9.855434156161184e-07
sg8
F9.855405017305606e-07
ssS'<widest>'
p627
(dp628
g3
F13.0
sg4
I208
sg5
F0.0
sg6
F1.0
sg7
F9.151474573578242e-07
sg8
F9.151449448747507e-07
ssS'<deliberately>'
p629
(dp630
g3
F4.0
sg4
I378
sg5
F0.0
sg6
F1.0
sg7
F2.815838330331767e-07
sg8
F2.8158359516485625e-07
ssS'<tough>'
p631
(dp632
g3
F8.0
sg4
I275
sg5
F0.0
sg6
F1.0
sg7
F5.631676660663534e-07
sg8
F5.631667145932505e-07
ssS'<little>'
p633
(dp634
g3
F64.0
sg4
I60
sg5
F0.0
sg6
F1.0
sg7
F4.505341328530827e-06
sg8
F4.5052804344122635e-06
ssS'<old>'
p635
(dp636
g3
F3.0
sg4
I406
sg5
F0.0
sg6
F1.0
sg7
F2.111878747748825e-07
sg8
F2.1118774097394605e-07
ssS'<fullest>'
p637
(dp638
g3
F7.0
sg4
I304
sg5
F0.0
sg6
F1.0
sg7
F4.927717078080592e-07
sg8
F4.927709793364305e-07
ssS'<whole>'
p639
(dp640
g3
F7.0
sg4
I303
sg5
F0.0
sg6
F1.0
sg7
F4.927717078080592e-07
sg8
F4.927709793364305e-07
ssS'<excessively>'
p641
(dp642
g3
F15.0
sg4
I186
sg5
F0.0
sg6
F1.0
sg7
F1.0559393738744126e-06
sg8
F1.0559360288528836e-06
ssS'<hard>'
p643
(dp644
g3
F16.0
sg4
I180
sg5
F0.0
sg6
F1.0
sg7
F1.1263353321327067e-06
sg8
F1.1263315262417236e-06
ssS'<formally>'
p645
(dp646
g3
F8.0
sg4
I274
sg5
F0.0
sg6
F1.0
sg7
F5.631676660663534e-07
sg8
F5.631667145932505e-07
ssS'<so very>'
p647
(dp648
g3
F34.0
sg4
I104
sg5
F0.0
sg6
F1.0
sg7
F2.393462580782002e-06
sg8
F2.3934453948200473e-06
ssS'<as>'
p649
(dp650
g3
F516.0
sg4
I12
sg5
F0.0
sg6
F1.0
sg7
F3.6324314461279796e-05
sg8
F3.632035618967285e-05
ssS'<better>'
p651
(dp652
g3
F20.0
sg4
I156
sg5
F0.0
sg6
F1.0
sg7
F1.4079191651658834e-06
sg8
F1.4079132184623385e-06
ssS'<hlv>'
p653
(dp654
g3
F3.0
sg4
I442
sg5
F0.0
sg6
F1.0
sg7
F2.111878747748825e-07
sg8
F2.1118774097394605e-07
ssS'<insanely>'
p655
(dp656
g3
F9.0
sg4
I267
sg5
F0.0
sg6
F1.0
sg7
F6.335636243246475e-07
sg8
F6.335624201165582e-07
ssS'<morally>'
p657
(dp658
g3
F7.0
sg4
I308
sg5
F0.0
sg6
F1.0
sg7
F4.927717078080592e-07
sg8
F4.927709793364305e-07
ssS'<jointly>'
p659
(dp660
g3
F8.0
sg4
I273
sg5
F0.0
sg6
F1.0
sg7
F5.631676660663534e-07
sg8
F5.631667145932505e-07
ssS'<considerably>'
p661
(dp662
g3
F14.0
sg4
I192
sg5
F0.0
sg6
F1.0
sg7
F9.855434156161184e-07
sg8
F9.855405017305606e-07
ssS'<fundamentally>'
p663
(dp664
g3
F15.0
sg4
I185
sg5
F0.0
sg6
F1.0
sg7
F1.0559393738744126e-06
sg8
F1.0559360288528836e-06
ssS'<nineteen years>'
p665
(dp666
g3
F2.0
sg4
I475
sg5
F0.0
sg6
F1.0
sg7
F1.4079191651658834e-07
sg8
F1.4079185704950266e-07
ssS'<earliest>'
p667
(dp668
g3
F3.0
sg4
I405
sg5
F0.0
sg6
F1.0
sg7
F2.111878747748825e-07
sg8
F2.1118774097394605e-07
ssS'<effective ,>'
p669
(dp670
g3
F10.0
sg4
I247
sg5
F0.0
sg6
F1.0
sg7
F7.039595825829417e-07
sg8
F7.039580959063575e-07
ssS'<above>'
p671
(dp672
g3
F34.0
sg4
I105
sg5
F0.0
sg6
F1.0
sg7
F2.393462580782002e-06
sg8
F2.3934453948200473e-06
ssS'<that>'
p673
(dp674
g3
F329.0
sg4
I21
sg5
F0.0
sg6
F1.0
sg7
F2.3160270266978785e-05
sg8
F2.3158661097468544e-05
ssS'<somewhere>'
p675
(dp676
g3
F15.0
sg4
I184
sg5
F0.0
sg6
F1.0
sg7
F1.0559393738744126e-06
sg8
F1.0559360288528836e-06
ssS'<years>'
p677
(dp678
g3
F6.0
sg4
I333
sg5
F0.0
sg6
F1.0
sg7
F4.22375749549765e-07
sg8
F4.2237521434609433e-07
ssS'<indeed>'
p679
(dp680
g3
F6.0
sg4
I320
sg5
F0.0
sg6
F1.0
sg7
F4.22375749549765e-07
sg8
F4.2237521434609433e-07
ssS'<operationally>'
p681
(dp682
g3
F11.0
sg4
I234
sg5
F0.0
sg6
F1.0
sg7
F7.743555408412359e-07
sg8
F7.743537419626536e-07
ssS'<ready to go>'
p683
(dp684
g3
F9.0
sg4
I260
sg5
F0.0
sg6
F1.0
sg7
F6.335636243246475e-07
sg8
F6.335624201165582e-07
ssS'<simple>'
p685
(dp686
g3
F17.0
sg4
I174
sg5
F0.0
sg6
F1.0
sg7
F1.196731290391001e-06
sg8
F1.1967269938970844e-06
ssS'<broadest>'
p687
(dp688
g3
F14.0
sg4
I196
sg5
F0.0
sg6
F1.0
sg7
F9.855434156161184e-07
sg8
F9.855405017305606e-07
ssS'<self>'
p689
(dp690
g3
F23.0
sg4
I135
sg5
F0.0
sg6
F1.0
sg7
F1.619107039940766e-06
sg8
F1.6190991754264338e-06
ssS"<sure you 're>"
p691
(dp692
g3
F4.0
sg4
I377
sg5
F0.0
sg6
F1.0
sg7
F2.815838330331767e-07
sg8
F2.8158359516485625e-07
ssS'<statistically>'
p693
(dp694
g3
F7.0
sg4
I301
sg5
F0.0
sg6
F1.0
sg7
F4.927717078080592e-07
sg8
F4.927709793364305e-07
ssS'<safer and more>'
p695
(dp696
g3
F4.0
sg4
I376
sg5
F0.0
sg6
F1.0
sg7
F2.815838330331767e-07
sg8
F2.8158359516485625e-07
ssS'<year>'
p697
(dp698
g3
F3.0
sg4
I407
sg5
F0.0
sg6
F1.0
sg7
F2.111878747748825e-07
sg8
F2.1118774097394605e-07
ssS'<second>'
p699
(dp700
g3
F16.0
sg4
I179
sg5
F0.0
sg6
F1.0
sg7
F1.1263353321327067e-06
sg8
F1.1263315262417236e-06
ssS'<frequently>'
p701
(dp702
g3
F28.0
sg4
I117
sg5
F0.0
sg6
F1.0
sg7
F1.971086831232237e-06
sg8
F1.9710751756976654e-06
ssS'<different from each>'
p703
(dp704
g3
F4.0
sg4
I375
sg5
F0.0
sg6
F1.0
sg7
F2.815838330331767e-07
sg8
F2.8158359516485625e-07
ssS'<publicly>'
p705
(dp706
g3
F65.0
sg4
I59
sg5
F0.0
sg6
F1.0
sg7
F4.575737286789121e-06
sg8
F4.57567447486557e-06
ssS'<basically>'
p707
(dp708
g3
F7.0
sg4
I300
sg5
F0.0
sg6
F1.0
sg7
F4.927717078080592e-07
sg8
F4.927709793364305e-07
ssS'<responsible>'
p709
(dp710
g3
F11.0
sg4
I233
sg5
F0.0
sg6
F1.0
sg7
F7.743555408412359e-07
sg8
F7.743537419626536e-07
ssS'<highly>'
p711
(dp712
g3
F423.0
sg4
I16
sg5
F0.0
sg6
F1.0
sg7
F2.9777490343258435e-05
sg8
F2.977483029927248e-05
ssS'<progressively>'
p713
(dp714
g3
F2.0
sg4
I472
sg5
F0.0
sg6
F1.0
sg7
F1.4079191651658834e-07
sg8
F1.4079185704950266e-07
ssS'<good>'
p715
(dp716
g3
F25.0
sg4
I127
sg5
F0.0
sg6
F1.0
sg7
F1.7598989564573543e-06
sg8
F1.7598896647352441e-06
ssS'<nearly>'
p717
(dp718
g3
F22.0
sg4
I143
sg5
F0.0
sg6
F1.0
sg7
F1.5487110816824718e-06
sg8
F1.548703886171858e-06
ssS'<misguided ,>'
p719
(dp720
g3
F2.0
sg4
I471
sg5
F0.0
sg6
F1.0
sg7
F1.4079191651658834e-07
sg8
F1.4079185704950266e-07
ssS'<seriously>'
p721
(dp722
g3
F14.0
sg4
I195
sg5
F0.0
sg6
F1.0
sg7
F9.855434156161184e-07
sg8
F9.855405017305606e-07
ssS'<desperately>'
p723
(dp724
g3
F8.0
sg4
I283
sg5
F0.0
sg6
F1.0
sg7
F5.631676660663534e-07
sg8
F5.631667145932505e-07
ssS'<shortest>'
p725
(dp726
g3
F5.0
sg4
I353
sg5
F0.0
sg6
F1.0
sg7
F3.5197979129147086e-07
sg8
F3.519794196222376e-07
ssS'<such>'
p727
(dp728
g3
F20.0
sg4
I155
sg5
F0.0
sg6
F1.0
sg7
F1.4079191651658834e-06
sg8
F1.4079132184623385e-06
ssS'<scared of>'
p729
(dp730
g3
F4.0
sg4
I374
sg5
F0.0
sg6
F1.0
sg7
F2.815838330331767e-07
sg8
F2.8158359516485625e-07
ssS'<temporarily>'
p731
(dp732
g3
F5.0
sg4
I340
sg5
F0.0
sg6
F1.0
sg7
F3.5197979129147086e-07
sg8
F3.519794196222376e-07
ssS'<great>'
p733
(dp734
g3
F13.0
sg4
I206
sg5
F0.0
sg6
F1.0
sg7
F9.151474573578242e-07
sg8
F9.151449448747507e-07
ssS'<great ,>'
p735
(dp736
g3
F41.0
sg4
I83
sg5
F0.0
sg6
F1.0
sg7
F2.8862342885900612e-06
sg8
F2.8862092975930393e-06
ssS'<industrially>'
p737
(dp738
g3
F2.0
sg4
I470
sg5
F0.0
sg6
F1.0
sg7
F1.4079191651658834e-07
sg8
F1.4079185704950266e-07
ssS'<mad at>'
p739
(dp740
g3
F2.0
sg4
I469
sg5
F0.0
sg6
F1.0
sg7
F1.4079191651658834e-07
sg8
F1.4079185704950266e-07
ssS'<awfully>'
p741
(dp742
g3
F44.0
sg4
I79
sg5
F0.0
sg6
F1.0
sg7
F3.0974221633649435e-06
sg8
F3.0973933813522037e-06
ssS"<gettin '>"
p743
(dp744
g3
F2.0
sg4
I468
sg5
F0.0
sg6
F1.0
sg7
F1.4079191651658834e-07
sg8
F1.4079185704950266e-07
ssS'<either>'
p745
(dp746
g3
F40.0
sg4
I89
sg5
F0.0
sg6
F1.0
sg7
F2.815838330331767e-06
sg8
F2.8158145435399116e-06
ssS'<slightly>'
p747
(dp748
g3
F32.0
sg4
I108
sg5
F0.0
sg6
F1.0
sg7
F2.2526706642654135e-06
sg8
F2.252655440712912e-06
ssS'<perfect ,>'
p749
(dp750
g3
F6.0
sg4
I319
sg5
F0.0
sg6
F1.0
sg7
F4.22375749549765e-07
sg8
F4.2237521434609433e-07
ssS'<fast>'
p751
(dp752
g3
F11.0
sg4
I231
sg5
F0.0
sg6
F1.0
sg7
F7.743555408412359e-07
sg8
F7.743537419626536e-07
ssS'<globally>'
p753
(dp754
g3
F4.0
sg4
I373
sg5
F0.0
sg6
F1.0
sg7
F2.815838330331767e-07
sg8
F2.8158359516485625e-07
ssS'<carefully>'
p755
(dp756
g3
F12.0
sg4
I219
sg5
F0.0
sg6
F1.0
sg7
F8.4475149909953e-07
sg8
F8.447493582854501e-07
ssS'<important>'
p757
(dp758
g3
F9.0
sg4
I259
sg5
F0.0
sg6
F1.0
sg7
F6.335636243246475e-07
sg8
F6.335624201165582e-07
ssS'<no longer>'
p759
(dp760
g3
F2.0
sg4
I467
sg5
F0.0
sg6
F1.0
sg7
F1.4079191651658834e-07
sg8
F1.4079185704950266e-07
ssS'<away>'
p761
(dp762
g3
F4.0
sg4
I372
sg5
F0.0
sg6
F1.0
sg7
F2.815838330331767e-07
sg8
F2.8158359516485625e-07
ssS'<just so>'
p763
(dp764
g3
F135.0
sg4
I35
sg5
F0.0
sg6
F1.0
sg7
F9.503454364869714e-06
sg8
F9.503183419651726e-06
ssS'<about>'
p765
(dp766
g3
F44.0
sg4
I78
sg5
F0.0
sg6
F1.0
sg7
F3.0974221633649435e-06
sg8
F3.0973933813522037e-06
ssS'<technically>'
p767
(dp768
g3
F12.0
sg4
I218
sg5
F0.0
sg6
F1.0
sg7
F8.4475149909953e-07
sg8
F8.447493582854501e-07
ssS'<medically>'
p769
(dp770
g3
F14.0
sg4
I194
sg5
F0.0
sg6
F1.0
sg7
F9.855434156161184e-07
sg8
F9.855405017305606e-07
ssS'<ready to>'
p771
(dp772
g3
F57.0
sg4
I63
sg5
F0.0
sg6
F1.0
sg7
F4.012569620722768e-06
sg8
F4.012521318707091e-06
ssS'<sounds>'
p773
(dp774
g3
F14.0
sg4
I193
sg5
F0.0
sg6
F1.0
sg7
F9.855434156161184e-07
sg8
F9.855405017305606e-07
ssS'<comparatively>'
p775
(dp776
g3
F18.0
sg4
I166
sg5
F0.0
sg6
F1.0
sg7
F1.267127248649295e-06
sg8
F1.2671224318189712e-06
ssS'<as simple as>'
p777
(dp778
g3
F8.0
sg4
I272
sg5
F0.0
sg6
F1.0
sg7
F5.631676660663534e-07
sg8
F5.631667145932505e-07
ssS'<plainly>'
p779
(dp780
g3
F7.0
sg4
I299
sg5
F0.0
sg6
F1.0
sg7
F4.927717078080592e-07
sg8
F4.927709793364305e-07
ssS'<a lot>'
p781
(dp782
g3
F45.0
sg4
I74
sg5
F0.0
sg6
F1.0
sg7
F3.167818121623238e-06
sg8
F3.1677880164718606e-06
ssS'<aii>'
p783
(dp784
g3
F5.0
sg4
I339
sg5
F0.0
sg6
F1.0
sg7
F3.5197979129147086e-07
sg8
F3.519794196222376e-07
ssS'<very>'
p785
(dp786
g3
F5658.0
sg4
I1
sg5
F0.0
sg6
F1.0
sg7
F0.00039830033182542844
sg8
F0.0003978245287376902
ssS'<solid>'
p787
(dp788
g3
F5.0
sg4
I338
sg5
F0.0
sg6
F1.0
sg7
F3.5197979129147086e-07
sg8
F3.519794196222376e-07
ssS'<massively>'
p789
(dp790
g3
F2.0
sg4
I465
sg5
F0.0
sg6
F1.0
sg7
F1.4079191651658834e-07
sg8
F1.4079185704950266e-07
ssS'<strictly>'
p791
(dp792
g3
F24.0
sg4
I132
sg5
F0.0
sg6
F1.0
sg7
F1.68950299819906e-06
sg8
F1.6894944349475622e-06
ssS'<anything>'
p793
(dp794
g3
F7.0
sg4
I298
sg5
F0.0
sg6
F1.0
sg7
F4.927717078080592e-07
sg8
F4.927709793364305e-07
ssS'<west>'
p795
(dp796
g3
F4.0
sg4
I371
sg5
F0.0
sg6
F1.0
sg7
F2.815838330331767e-07
sg8
F2.8158359516485625e-07
ssS'<more widely>'
p797
(dp798
g3
F4.0
sg4
I370
sg5
F0.0
sg6
F1.0
sg7
F2.815838330331767e-07
sg8
F2.8158359516485625e-07
ssS'<close to being>'
p799
(dp800
g3
F13.0
sg4
I205
sg5
F0.0
sg6
F1.0
sg7
F9.151474573578242e-07
sg8
F9.151449448747507e-07
ssS'<specifically>'
p801
(dp802
g3
F13.0
sg4
I204
sg5
F0.0
sg6
F1.0
sg7
F9.151474573578242e-07
sg8
F9.151449448747507e-07
ssS'<greater>'
p803
(dp804
g3
F18.0
sg4
I165
sg5
F0.0
sg6
F1.0
sg7
F1.267127248649295e-06
sg8
F1.2671224318189712e-06
ssS'<if>'
p805
(dp806
g3
F2.0
sg4
I464
sg5
F0.0
sg6
F1.0
sg7
F1.4079191651658834e-07
sg8
F1.4079185704950266e-07
ssS'<much too>'
p807
(dp808
g3
F3.0
sg4
I404
sg5
F0.0
sg6
F1.0
sg7
F2.111878747748825e-07
sg8
F2.1118774097394605e-07
ssS'<suddenly>'
p809
(dp810
g3
F3.0
sg4
I403
sg5
F0.0
sg6
F1.0
sg7
F2.111878747748825e-07
sg8
F2.1118774097394605e-07
ssS'<appropriately>'
p811
(dp812
g3
F13.0
sg4
I203
sg5
F0.0
sg6
F1.0
sg7
F9.151474573578242e-07
sg8
F9.151449448747507e-07
ssS'<one>'
p813
(dp814
g3
F16.0
sg4
I178
sg5
F0.0
sg6
F1.0
sg7
F1.1263353321327067e-06
sg8
F1.1263315262417236e-06
ssS'<definitely>'
p815
(dp816
g3
F10.0
sg4
I246
sg5
F0.0
sg6
F1.0
sg7
F7.039595825829417e-07
sg8
F7.039580959063575e-07
ssS'<sort of>'
p817
(dp818
g3
F7.0
sg4
I297
sg5
F0.0
sg6
F1.0
sg7
F4.927717078080592e-07
sg8
F4.927709793364305e-07
ssS'<democratically>'
p819
(dp820
g3
F2.0
sg4
I463
sg5
F0.0
sg6
F1.0
sg7
F1.4079191651658834e-07
sg8
F1.4079185704950266e-07
ssS'<very much>'
p821
(dp822
g3
F3.0
sg4
I402
sg5
F0.0
sg6
F1.0
sg7
F2.111878747748825e-07
sg8
F2.1118774097394605e-07
ssS'<and>'
p823
(dp824
g3
F16.0
sg4
I177
sg5
F0.0
sg6
F1.0
sg7
F1.1263353321327067e-06
sg8
F1.1263315262417236e-06
ssS'<also very>'
p825
(dp826
g3
F2.0
sg4
I462
sg5
F0.0
sg6
F1.0
sg7
F1.4079191651658834e-07
sg8
F1.4079185704950266e-07
ssS'<allegedly>'
p827
(dp828
g3
F8.0
sg4
I270
sg5
F0.0
sg6
F1.0
sg7
F5.631676660663534e-07
sg8
F5.631667145932505e-07
ssS'<more readily>'
p829
(dp830
g3
F2.0
sg4
I461
sg5
F0.0
sg6
F1.0
sg7
F1.4079191651658834e-07
sg8
F1.4079185704950266e-07
ssS'<jolly>'
p831
(dp832
g3
F2.0
sg4
I460
sg5
F0.0
sg6
F1.0
sg7
F1.4079191651658834e-07
sg8
F1.4079185704950266e-07
ssS'<much>'
p833
(dp834
g3
F247.0
sg4
I26
sg5
F0.0
sg6
F1.0
sg7
F1.738780168979866e-05
sg8
F1.7386894693369846e-05
ssS'<accessible to the>'
p835
(dp836
g3
F2.0
sg4
I459
sg5
F0.0
sg6
F1.0
sg7
F1.4079191651658834e-07
sg8
F1.4079185704950266e-07
ssS'<lowest>'
p837
(dp838
g3
F7.0
sg4
I296
sg5
F0.0
sg6
F1.0
sg7
F4.927717078080592e-07
sg8
F4.927709793364305e-07
ssS'<properly>'
p839
(dp840
g3
F43.0
sg4
I80
sg5
F0.0
sg6
F1.0
sg7
F3.0270262051066496e-06
sg8
F3.026998716499183e-06
ssS'<easy>'
p841
(dp842
g3
F20.0
sg4
I154
sg5
F0.0
sg6
F1.0
sg7
F1.4079191651658834e-06
sg8
F1.4079132184623385e-06
ssS'<far>'
p843
(dp844
g3
F88.0
sg4
I45
sg5
F0.0
sg6
F1.0
sg7
F6.194844326729887e-06
sg8
F6.194729198916649e-06
ssS'<close>'
p845
(dp846
g3
F24.0
sg4
I131
sg5
F0.0
sg6
F1.0
sg7
F1.68950299819906e-06
sg8
F1.6894944349475622e-06
ssS'<openly>'
p847
(dp848
g3
F6.0
sg4
I318
sg5
F0.0
sg6
F1.0
sg7
F4.22375749549765e-07
sg8
F4.2237521434609433e-07
ssS'<crazy>'
p849
(dp850
g3
F28.0
sg4
I116
sg5
F0.0
sg6
F1.0
sg7
F1.971086831232237e-06
sg8
F1.9710751756976654e-06
ssS'<eastern>'
p851
(dp852
g3
F3.0
sg4
I401
sg5
F0.0
sg6
F1.0
sg7
F2.111878747748825e-07
sg8
F2.1118774097394605e-07
ssS'<unacceptably>'
p853
(dp854
g3
F27.0
sg4
I121
sg5
F0.0
sg6
F1.0
sg7
F1.9006908729739428e-06
sg8
F1.9006800351102909e-06
ssS'<perhaps>'
p855
(dp856
g3
F7.0
sg4
I295
sg5
F0.0
sg6
F1.0
sg7
F4.927717078080592e-07
sg8
F4.927709793364305e-07
ssS'<bloody>'
p857
(dp858
g3
F24.0
sg4
I130
sg5
F0.0
sg6
F1.0
sg7
F1.68950299819906e-06
sg8
F1.6894944349475622e-06
ssS'<unreasonably>'
p859
(dp860
g3
F2.0
sg4
I458
sg5
F0.0
sg6
F1.0
sg7
F1.4079191651658834e-07
sg8
F1.4079185704950266e-07
ssS'<open to>'
p861
(dp862
g3
F34.0
sg4
I103
sg5
F0.0
sg6
F1.0
sg7
F2.393462580782002e-06
sg8
F2.3934453948200473e-06
ssS'<so>'
p863
(dp864
g3
F3549.0
sg4
I2
sg5
F0.0
sg6
F1.0
sg7
F0.000249835255858686
sg8
F0.00024964803408171433
ssS'<significantly>'
p865
(dp866
g3
F34.0
sg4
I102
sg5
F0.0
sg6
F1.0
sg7
F2.393462580782002e-06
sg8
F2.3934453948200473e-06
ssS'<damn>'
p867
(dp868
g3
F15.0
sg4
I183
sg5
F0.0
sg6
F1.0
sg7
F1.0559393738744126e-06
sg8
F1.0559360288528836e-06
ssS'<frightfully>'
p869
(dp870
g3
F3.0
sg4
I400
sg5
F0.0
sg6
F1.0
sg7
F2.111878747748825e-07
sg8
F2.1118774097394605e-07
ssS'<bad>'
p871
(dp872
g3
F9.0
sg4
I258
sg5
F0.0
sg6
F1.0
sg7
F6.335636243246475e-07
sg8
F6.335624201165582e-07
ssS'<at all>'
p873
(dp874
g3
F11.0
sg4
I229
sg5
F0.0
sg6
F1.0
sg7
F7.743555408412359e-07
sg8
F7.743537419626536e-07
ssS'<far too>'
p875
(dp876
g3
F3.0
sg4
I399
sg5
F0.0
sg6
F1.0
sg7
F2.111878747748825e-07
sg8
F2.1118774097394605e-07
ssS'<a well>'
p877
(dp878
g3
F3.0
sg4
I398
sg5
F0.0
sg6
F1.0
sg7
F2.111878747748825e-07
sg8
F2.1118774097394605e-07
ssS'<merely>'
p879
(dp880
g3
F8.0
sg4
I271
sg5
F0.0
sg6
F1.0
sg7
F5.631676660663534e-07
sg8
F5.631667145932505e-07
ssS'<sorry ,>'
p881
(dp882
g3
F40.0
sg4
I88
sg5
F0.0
sg6
F1.0
sg7
F2.815838330331767e-06
sg8
F2.8158145435399116e-06
ssS'<enormously>'
p883
(dp884
g3
F34.0
sg4
I101
sg5
F0.0
sg6
F1.0
sg7
F2.393462580782002e-06
sg8
F2.3934453948200473e-06
ssS'<the least bit>'
p885
(dp886
g3
F4.0
sg4
I369
sg5
F0.0
sg6
F1.0
sg7
F2.815838330331767e-07
sg8
F2.8158359516485625e-07
ssS'<ever more>'
p887
(dp888
g3
F2.0
sg4
I457
sg5
F0.0
sg6
F1.0
sg7
F1.4079191651658834e-07
sg8
F1.4079185704950266e-07
ssS'<widely>'
p889
(dp890
g3
F108.0
sg4
I41
sg5
F0.0
sg6
F1.0
sg7
F7.602763491895771e-06
sg8
F7.6025900867365355e-06
ssS'<well>'
p891
(dp892
g3
F404.0
sg4
I17
sg5
F0.0
sg6
F1.0
sg7
F2.8439967136350846e-05
sg8
F2.8437540687164792e-05
ssS'<politically>'
p893
(dp894
g3
F12.0
sg4
I217
sg5
F0.0
sg6
F1.0
sg7
F8.4475149909953e-07
sg8
F8.447493582854501e-07
ssS'<as beautiful as>'
p895
(dp896
g3
F10.0
sg4
I245
sg5
F0.0
sg6
F1.0
sg7
F7.039595825829417e-07
sg8
F7.039580959063575e-07
ssS'<hereby>'
p897
(dp898
g3
F19.0
sg4
I159
sg5
F0.0
sg6
F1.0
sg7
F1.3375232069075892e-06
sg8
F1.3375178400073883e-06
ssS'<universally>'
p899
(dp900
g3
F11.0
sg4
I241
sg5
F0.0
sg6
F1.0
sg7
F7.743555408412359e-07
sg8
F7.743537419626536e-07
ssS'<whenever>'
p901
(dp902
g3
F4.0
sg4
I368
sg5
F0.0
sg6
F1.0
sg7
F2.815838330331767e-07
sg8
F2.8158359516485625e-07
ssS'<potentially>'
p903
(dp904
g3
F72.0
sg4
I53
sg5
F0.0
sg6
F1.0
sg7
F5.06850899459718e-06
sg8
F5.0684319255073085e-06
ssS'<nice to>'
p905
(dp906
g3
F19.0
sg4
I158
sg5
F0.0
sg6
F1.0
sg7
F1.3375232069075892e-06
sg8
F1.3375178400073883e-06
ssS'<just too>'
p907
(dp908
g3
F4.0
sg4
I367
sg5
F0.0
sg6
F1.0
sg7
F2.815838330331767e-07
sg8
F2.8158359516485625e-07
ssS'<further>'
p909
(dp910
g3
F24.0
sg4
I133
sg5
F0.0
sg6
F1.0
sg7
F1.68950299819906e-06
sg8
F1.6894944349475622e-06
ssS'<largest>'
p911
(dp912
g3
F4.0
sg4
I366
sg5
F0.0
sg6
F1.0
sg7
F2.815838330331767e-07
sg8
F2.8158359516485625e-07
ssS'<hiv>'
p913
(dp914
g3
F6.0
sg4
I317
sg5
F0.0
sg6
F1.0
sg7
F4.22375749549765e-07
sg8
F4.2237521434609433e-07
ssS'<much more>'
p915
(dp916
g3
F22.0
sg4
I142
sg5
F0.0
sg6
F1.0
sg7
F1.5487110816824718e-06
sg8
F1.548703886171858e-06
ssS'<obviously>'
p917
(dp918
g3
F3.0
sg4
I397
sg5
F0.0
sg6
F1.0
sg7
F2.111878747748825e-07
sg8
F2.1118774097394605e-07
ssS'<pretty>'
p919
(dp920
g3
F1582.0
sg4
I7
sg5
F0.0
sg6
F1.0
sg7
F0.00011136640596462138
sg8
F0.0001113292012979271
ssS'<moderately>'
p921
(dp922
g3
F5.0
sg4
I345
sg5
F0.0
sg6
F1.0
sg7
F3.5197979129147086e-07
sg8
F3.519794196222376e-07
ssS'<this case>'
p923
(dp924
g3
F3.0
sg4
I433
sg5
F0.0
sg6
F1.0
sg7
F2.111878747748825e-07
sg8
F2.1118774097394605e-07
ssS'<no>'
p925
(dp926
g3
F40.0
sg4
I87
sg5
F0.0
sg6
F1.0
sg7
F2.815838330331767e-06
sg8
F2.8158145435399116e-06
ssS'<directly>'
p927
(dp928
g3
F23.0
sg4
I140
sg5
F0.0
sg6
F1.0
sg7
F1.619107039940766e-06
sg8
F1.6190991754264338e-06
ssS'<finely>'
p929
(dp930
g3
F2.0
sg4
I454
sg5
F0.0
sg6
F1.0
sg7
F1.4079191651658834e-07
sg8
F1.4079185704950266e-07
ssS'<excellent ,>'
p931
(dp932
g3
F13.0
sg4
I202
sg5
F0.0
sg6
F1.0
sg7
F9.151474573578242e-07
sg8
F9.151449448747507e-07
ssS'<basic ,>'
p933
(dp934
g3
F4.0
sg4
I365
sg5
F0.0
sg6
F1.0
sg7
F2.815838330331767e-07
sg8
F2.8158359516485625e-07
ssS'<nathan ,>'
p935
(dp936
g3
F6.0
sg4
I315
sg5
F0.0
sg6
F1.0
sg7
F4.22375749549765e-07
sg8
F4.2237521434609433e-07
ssS'<beingso>'
p937
(dp938
g3
F2.0
sg4
I453
sg5
F0.0
sg6
F1.0
sg7
F1.4079191651658834e-07
sg8
F1.4079185704950266e-07
ssS'<stronger ,>'
p939
(dp940
g3
F2.0
sg4
I452
sg5
F0.0
sg6
F1.0
sg7
F1.4079191651658834e-07
sg8
F1.4079185704950266e-07
ssS'<lot>'
p941
(dp942
g3
F20.0
sg4
I153
sg5
F0.0
sg6
F1.0
sg7
F1.4079191651658834e-06
sg8
F1.4079132184623385e-06
ssS'<intensely>'
p943
(dp944
g3
F9.0
sg4
I257
sg5
F0.0
sg6
F1.0
sg7
F6.335636243246475e-07
sg8
F6.335624201165582e-07
ssS'<precisely>'
p945
(dp946
g3
F7.0
sg4
I294
sg5
F0.0
sg6
F1.0
sg7
F4.927717078080592e-07
sg8
F4.927709793364305e-07
ssS'<internationally>'
p947
(dp948
g3
F22.0
sg4
I141
sg5
F0.0
sg6
F1.0
sg7
F1.5487110816824718e-06
sg8
F1.548703886171858e-06
ssS'<fifteen years>'
p949
(dp950
g3
F2.0
sg4
I451
sg5
F0.0
sg6
F1.0
sg7
F1.4079191651658834e-07
sg8
F1.4079185704950266e-07
ssS'<big>'
p951
(dp952
g3
F6.0
sg4
I314
sg5
F0.0
sg6
F1.0
sg7
F4.22375749549765e-07
sg8
F4.2237521434609433e-07
ssS'<happy to see>'
p953
(dp954
g3
F3.0
sg4
I396
sg5
F0.0
sg6
F1.0
sg7
F2.111878747748825e-07
sg8
F2.1118774097394605e-07
ssS'<highest>'
p955
(dp956
g3
F11.0
sg4
I228
sg5
F0.0
sg6
F1.0
sg7
F7.743555408412359e-07
sg8
F7.743537419626536e-07
ssS'<genuinely>'
p957
(dp958
g3
F3.0
sg4
I395
sg5
F0.0
sg6
F1.0
sg7
F2.111878747748825e-07
sg8
F2.1118774097394605e-07
ssS'<real>'
p959
(dp960
g3
F273.0
sg4
I24
sg5
F0.0
sg6
F1.0
sg7
F1.921809660451431e-05
sg8
F1.9216988612998824e-05
ssS'<least>'
p961
(dp962
g3
F37.0
sg4
I96
sg5
F0.0
sg6
F1.0
sg7
F2.6046504555568845e-06
sg8
F2.6046301029802375e-06
ssS'<really>'
p963
(dp964
g3
F2071.0
sg4
I4
sg5
F0.0
sg6
F1.0
sg7
F0.00014579002955292724
sg8
F0.00014572627155223745
ssS'<here>'
p965
(dp966
g3
F28.0
sg4
I115
sg5
F0.0
sg6
F1.0
sg7
F1.971086831232237e-06
sg8
F1.9710751756976654e-06
ssS'<just simply>'
p967
(dp968
g3
F2.0
sg4
I450
sg5
F0.0
sg6
F1.0
sg7
F1.4079191651658834e-07
sg8
F1.4079185704950266e-07
ssS'<so sure about>'
p969
(dp970
g3
F3.0
sg4
I394
sg5
F0.0
sg6
F1.0
sg7
F2.111878747748825e-07
sg8
F2.1118774097394605e-07
ssS'<remarkably>'
p971
(dp972
g3
F13.0
sg4
I211
sg5
F0.0
sg6
F1.0
sg7
F9.151474573578242e-07
sg8
F9.151449448747507e-07
ssS'<warm in>'
p973
(dp974
g3
F3.0
sg4
I393
sg5
F0.0
sg6
F1.0
sg7
F2.111878747748825e-07
sg8
F2.1118774097394605e-07
ssS'<trusted ,>'
p975
(dp976
g3
F2.0
sg4
I449
sg5
F0.0
sg6
F1.0
sg7
F1.4079191651658834e-07
sg8
F1.4079185704950266e-07
ssS'<hot ,>'
p977
(dp978
g3
F2.0
sg4
I448
sg5
F0.0
sg6
F1.0
sg7
F1.4079191651658834e-07
sg8
F1.4079185704950266e-07
ssS'<particularly>'
p979
(dp980
g3
F288.0
sg4
I23
sg5
F0.0
sg6
F1.0
sg7
F2.027403597838872e-05
sg8
F2.02728028854509e-05
ssS'<re>'
p981
(dp982
g3
F2.0
sg4
I447
sg5
F0.0
sg6
F1.0
sg7
F1.4079191651658834e-07
sg8
F1.4079185704950266e-07
ssS'<freely>'
p983
(dp984
g3
F8.0
sg4
I269
sg5
F0.0
sg6
F1.0
sg7
F5.631676660663534e-07
sg8
F5.631667145932505e-07
ssS'<too late>'
p985
(dp986
g3
F2.0
sg4
I446
sg5
F0.0
sg6
F1.0
sg7
F1.4079191651658834e-07
sg8
F1.4079185704950266e-07
ssS'<high>'
p987
(dp988
g3
F17.0
sg4
I170
sg5
F0.0
sg6
F1.0
sg7
F1.196731290391001e-06
sg8
F1.1967269938970844e-06
ssS'<commonly>'
p989
(dp990
g3
F63.0
sg4
I61
sg5
F0.0
sg6
F1.0
sg7
F4.434945370272533e-06
sg8
F4.4348863642256764e-06
ssS'<urgently>'
p991
(dp992
g3
F31.0
sg4
I109
sg5
F0.0
sg6
F1.0
sg7
F2.1822747060071195e-06
sg8
F2.182260419059226e-06
ssS'<big ,>'
p993
(dp994
g3
F7.0
sg4
I293
sg5
F0.0
sg6
F1.0
sg7
F4.927717078080592e-07
sg8
F4.927709793364305e-07
ssS'<beautiful ,>'
p995
(dp996
g3
F70.0
sg4
I54
sg5
F0.0
sg6
F1.0
sg7
F4.927717078080592e-06
sg8
F4.927644231133106e-06
ssS'<legally>'
p997
(dp998
g3
F67.0
sg4
I58
sg5
F0.0
sg6
F1.0
sg7
F4.71652920330571e-06
sg8
F4.7164624665723745e-06
ssS'<substantially>'
p999
(dp1000
g3
F13.0
sg4
I201
sg5
F0.0
sg6
F1.0
sg7
F9.151474573578242e-07
sg8
F9.151449448747507e-07
ssS'<materially>'
p1001
(dp1002
g3
F6.0
sg4
I313
sg5
F0.0
sg6
F1.0
sg7
F4.22375749549765e-07
sg8
F4.2237521434609433e-07
ssS'<usually>'
p1003
(dp1004
g3
F7.0
sg4
I292
sg5
F0.0
sg6
F1.0
sg7
F4.927717078080592e-07
sg8
F4.927709793364305e-07
ssS'<user>'
p1005
(dp1006
g3
F8.0
sg4
I268
sg5
F0.0
sg6
F1.0
sg7
F5.631676660663534e-07
sg8
F5.631667145932505e-07
ss.