(dp0
S'<otherwise>'
p1
(dp2
S'count'
p3
F78.0
sS'idx'
p4
I49
sS'min'
p5
F0.0
sS'max'
p6
F1.0
sS'mu'
p7
F5.490884744146946e-06
sS'sigma'
p8
F5.490794295032228e-06
ssS'<just so>'
p9
(dp10
g3
F135.0
sg4
I35
sg5
F0.0
sg6
F1.0
sg7
F9.503454364869714e-06
sg8
F9.503183419651726e-06
ssS'<about>'
p11
(dp12
g3
F44.0
sg4
I78
sg5
F0.0
sg6
F1.0
sg7
F3.0974221633649435e-06
sg8
F3.0973933813522037e-06
ssS'<still>'
p13
(dp14
g3
F74.0
sg4
I51
sg5
F0.0
sg6
F1.0
sg7
F5.209300911113769e-06
sg8
F5.209219500948553e-06
ssS'<closely>'
p15
(dp16
g3
F41.0
sg4
I86
sg5
F0.0
sg6
F1.0
sg7
F2.8862342885900612e-06
sg8
F2.8862092975930393e-06
ssS'<well>'
p17
(dp18
g3
F404.0
sg4
I17
sg5
F0.0
sg6
F1.0
sg7
F2.8439967136350846e-05
sg8
F2.8437540687164792e-05
ssS'<ready to>'
p19
(dp20
g3
F57.0
sg4
I63
sg5
F0.0
sg6
F1.0
sg7
F4.012569620722768e-06
sg8
F4.012521318707091e-06
ssS'<a little>'
p21
(dp22
g3
F254.0
sg4
I25
sg5
F0.0
sg6
F1.0
sg7
F1.788057339760672e-05
sg8
F1.787961426432508e-05
ssS'<generally>'
p23
(dp24
g3
F94.0
sg4
I44
sg5
F0.0
sg6
F1.0
sg7
F6.6172200762796525e-06
sg8
F6.6170887140545515e-06
ssS'<a bit>'
p25
(dp26
g3
F78.0
sg4
I48
sg5
F0.0
sg6
F1.0
sg7
F5.490884744146946e-06
sg8
F5.490794295032228e-06
ssS'<financially>'
p27
(dp28
g3
F39.0
sg4
I95
sg5
F0.0
sg6
F1.0
sg7
F2.745442372073473e-06
sg8
F2.7454197597534043e-06
ssS'<a lot>'
p29
(dp30
g3
F45.0
sg4
I74
sg5
F0.0
sg6
F1.0
sg7
F3.167818121623238e-06
sg8
F3.1677880164718606e-06
ssS'<very>'
p31
(dp32
g3
F5658.0
sg4
I1
sg5
F0.0
sg6
F1.0
sg7
F0.00039830033182542844
sg8
F0.0003978245287376902
ssS'<therefore>'
p33
(dp34
g3
F235.0
sg4
I28
sg5
F0.0
sg6
F1.0
sg7
F1.654305019069913e-05
sg8
F1.654222918222498e-05
ssS'<already>'
p35
(dp36
g3
F70.0
sg4
I55
sg5
F0.0
sg6
F1.0
sg7
F4.927717078080592e-06
sg8
F4.927644231133106e-06
ssS'<somewhat>'
p37
(dp38
g3
F176.0
sg4
I33
sg5
F0.0
sg6
F1.0
sg7
F1.2389688653459774e-05
sg8
F1.2389228144108748e-05
ssS'<readily>'
p39
(dp40
g3
F80.0
sg4
I47
sg5
F0.0
sg6
F1.0
sg7
F5.631676660663534e-06
sg8
F5.6315815136747276e-06
ssS'<fucking>'
p41
(dp42
g3
F52.0
sg4
I68
sg5
F0.0
sg6
F1.0
sg7
F3.660589829431297e-06
sg8
F3.660549629775705e-06
ssS'<fully>'
p43
(dp44
g3
F194.0
sg4
I31
sg5
F0.0
sg6
F1.0
sg7
F1.365681590210907e-05
sg8
F1.3656256381341566e-05
ssS'<quite>'
p45
(dp46
g3
F1903.0
sg4
I5
sg5
F0.0
sg6
F1.0
sg7
F0.0001339635085655338
sg8
F0.0001339096747089256
ssS'<potentially>'
p47
(dp48
g3
F72.0
sg4
I53
sg5
F0.0
sg6
F1.0
sg7
F5.06850899459718e-06
sg8
F5.0684319255073085e-06
ssS'<totally>'
p49
(dp50
g3
F459.0
sg4
I14
sg5
F0.0
sg6
F1.0
sg7
F3.2311744840557026e-05
sg8
F3.230861276146344e-05
ssS'<clearly>'
p51
(dp52
g3
F198.0
sg4
I30
sg5
F0.0
sg6
F1.0
sg7
F1.3938399735142247e-05
sg8
F1.3937816903596563e-05
ssS'<newly>'
p53
(dp54
g3
F70.0
sg4
I56
sg5
F0.0
sg6
F1.0
sg7
F4.927717078080592e-06
sg8
F4.927644231133106e-06
ssS'<physically>'
p55
(dp56
g3
F39.0
sg4
I94
sg5
F0.0
sg6
F1.0
sg7
F2.745442372073473e-06
sg8
F2.7454197597534043e-06
ssS'<patently>'
p57
(dp58
g3
F45.0
sg4
I75
sg5
F0.0
sg6
F1.0
sg7
F3.167818121623238e-06
sg8
F3.1677880164718606e-06
ssS'<much>'
p59
(dp60
g3
F247.0
sg4
I26
sg5
F0.0
sg6
F1.0
sg7
F1.738780168979866e-05
sg8
F1.7386894693369846e-05
ssS'<properly>'
p61
(dp62
g3
F43.0
sg4
I80
sg5
F0.0
sg6
F1.0
sg7
F3.0270262051066496e-06
sg8
F3.026998716499183e-06
ssS'<truly>'
p63
(dp64
g3
F175.0
sg4
I34
sg5
F0.0
sg6
F1.0
sg7
F1.231929269520148e-05
sg8
F1.2318837404023248e-05
ssS'<extremely>'
p65
(dp66
g3
F572.0
sg4
I11
sg5
F0.0
sg6
F1.0
sg7
F4.026648812374427e-05
sg8
F4.026162408412207e-05
ssS'<only>'
p67
(dp68
g3
F301.0
sg4
I22
sg5
F0.0
sg6
F1.0
sg7
F2.1189183435746546e-05
sg8
F2.1187836510289655e-05
ssS'<the>'
p69
(dp70
g3
F41.0
sg4
I85
sg5
F0.0
sg6
F1.0
sg7
F2.8862342885900612e-06
sg8
F2.8862092975930393e-06
ssS'<more>'
p71
(dp72
g3
F1665.0
sg4
I6
sg5
F0.0
sg6
F1.0
sg7
F0.0001172092705000598
sg8
F0.00011716805968123044
ssS'<relatively>'
p73
(dp74
g3
F377.0
sg4
I18
sg5
F0.0
sg6
F1.0
sg7
F2.6539276263376905e-05
sg8
F2.6537163301208144e-05
ssS'<simply>'
p75
(dp76
g3
F40.0
sg4
I90
sg5
F0.0
sg6
F1.0
sg7
F2.815838330331767e-06
sg8
F2.8158145435399116e-06
ssS'<most>'
p77
(dp78
g3
F2296.0
sg4
I3
sg5
F0.0
sg6
F1.0
sg7
F0.00016162912016104344
sg8
F0.00016155075668837333
ssS'<is weaker than>'
p79
(dp80
g3
F3600171.0
sg4
I0
sg5
F0.0
sg6
F264508.0
sg7
F0.2534374874387212
sg8
F14521.900952863014
ssS'<mutually>'
p81
(dp82
g3
F124.0
sg4
I37
sg5
F0.0
sg6
F1.0
sg7
F8.729098824028478e-06
sg8
F8.72887023385992e-06
ssS'<broadly>'
p83
(dp84
g3
F45.0
sg4
I76
sg5
F0.0
sg6
F1.0
sg7
F3.167818121623238e-06
sg8
F3.1677880164718606e-06
ssS'<so>'
p85
(dp86
g3
F3549.0
sg4
I2
sg5
F0.0
sg6
F1.0
sg7
F0.000249835255858686
sg8
F0.00024964803408171433
ssS'<reasonably>'
p87
(dp88
g3
F74.0
sg4
I52
sg5
F0.0
sg6
F1.0
sg7
F5.209300911113769e-06
sg8
F5.209219500948553e-06
ssS'<long>'
p89
(dp90
g3
F45.0
sg4
I77
sg5
F0.0
sg6
F1.0
sg7
F3.167818121623238e-06
sg8
F3.1677880164718606e-06
ssS'<ever>'
p91
(dp92
g3
F78.0
sg4
I50
sg5
F0.0
sg6
F1.0
sg7
F5.490884744146946e-06
sg8
F5.490794295032228e-06
ssS'<any>'
p93
(dp94
g3
F126.0
sg4
I36
sg5
F0.0
sg6
F1.0
sg7
F8.869890740545067e-06
sg8
F8.86965471705547e-06
ssS'<where>'
p95
(dp96
g3
F43.0
sg4
I82
sg5
F0.0
sg6
F1.0
sg7
F3.0270262051066496e-06
sg8
F3.026998716499183e-06
ssS'<absolutely>'
p97
(dp98
g3
F715.0
sg4
I9
sg5
F0.0
sg6
F1.0
sg7
F5.0333110154680334e-05
sg8
F5.0325510143776204e-05
ssS'<how>'
p99
(dp100
g3
F53.0
sg4
I64
sg5
F0.0
sg6
F1.0
sg7
F3.7309857876895913e-06
sg8
F3.7309440270286165e-06
ssS'<vitally>'
p101
(dp102
g3
F40.0
sg4
I92
sg5
F0.0
sg6
F1.0
sg7
F2.815838330331767e-06
sg8
F2.8158145435399116e-06
ssS'<especially>'
p103
(dp104
g3
F51.0
sg4
I71
sg5
F0.0
sg6
F1.0
sg7
F3.590193871173003e-06
sg8
F3.590155202789461e-06
ssS'<sorry ,>'
p105
(dp106
g3
F40.0
sg4
I88
sg5
F0.0
sg6
F1.0
sg7
F2.815838330331767e-06
sg8
F2.8158145435399116e-06
ssS'<widely>'
p107
(dp108
g3
F108.0
sg4
I41
sg5
F0.0
sg6
F1.0
sg7
F7.602763491895771e-06
sg8
F7.6025900867365355e-06
ssS'<all>'
p109
(dp110
g3
F620.0
sg4
I10
sg5
F0.0
sg6
F1.0
sg7
F4.3645494120142385e-05
sg8
F4.3639779498954384e-05
ssS'<incredibly>'
p111
(dp112
g3
F50.0
sg4
I72
sg5
F0.0
sg6
F1.0
sg7
F3.5197979129147086e-06
sg8
F3.519760746069879e-06
ssS'<entirely>'
p113
(dp114
g3
F120.0
sg4
I39
sg5
F0.0
sg6
F1.0
sg7
F8.4475149909953e-06
sg8
F8.447300910672382e-06
ssS'<deeply>'
p115
(dp116
g3
F53.0
sg4
I66
sg5
F0.0
sg6
F1.0
sg7
F3.7309857876895913e-06
sg8
F3.7309440270286165e-06
ssS'<almost>'
p117
(dp118
g3
F123.0
sg4
I38
sg5
F0.0
sg6
F1.0
sg7
F8.658702865770183e-06
sg8
F8.65847794766257e-06
ssS'<just>'
p119
(dp120
g3
F810.0
sg4
I8
sg5
F0.0
sg6
F1.0
sg7
F5.702072618921828e-05
sg8
F5.701097247036394e-05
ssS'<environmentally>'
p121
(dp122
g3
F104.0
sg4
I42
sg5
F0.0
sg6
F1.0
sg7
F7.321179658862594e-06
sg8
F7.321018860632646e-06
ssS'<kinda>'
p123
(dp124
g3
F52.0
sg4
I70
sg5
F0.0
sg6
F1.0
sg7
F3.660589829431297e-06
sg8
F3.660549629775705e-06
ssS'<kind of>'
p125
(dp126
g3
F181.0
sg4
I32
sg5
F0.0
sg6
F1.0
sg7
F1.2741668444751245e-05
sg8
F1.2741181398544201e-05
ssS'<this>'
p127
(dp128
g3
F53.0
sg4
I65
sg5
F0.0
sg6
F1.0
sg7
F3.7309857876895913e-06
sg8
F3.7309440270286165e-06
ssS'<equally>'
p129
(dp130
g3
F40.0
sg4
I91
sg5
F0.0
sg6
F1.0
sg7
F2.815838330331767e-06
sg8
F2.8158145435399116e-06
ssS'<little>'
p131
(dp132
g3
F64.0
sg4
I60
sg5
F0.0
sg6
F1.0
sg7
F4.505341328530827e-06
sg8
F4.5052804344122635e-06
ssS'<economically>'
p133
(dp134
g3
F98.0
sg4
I43
sg5
F0.0
sg6
F1.0
sg7
F6.898803909312829e-06
sg8
F6.898661129483352e-06
ssS'<cost>'
p135
(dp136
g3
F35.0
sg4
I99
sg5
F0.0
sg6
F1.0
sg7
F2.463858539040296e-06
sg8
F2.463840327273509e-06
ssS'<pretty>'
p137
(dp138
g3
F1582.0
sg4
I7
sg5
F0.0
sg6
F1.0
sg7
F0.00011136640596462138
sg8
F0.0001113292012979271
ssS'<fairly>'
p139
(dp140
g3
F118.0
sg4
I40
sg5
F0.0
sg6
F1.0
sg7
F8.306723074478713e-06
sg8
F8.306516070680378e-06
ssS'<previously>'
p141
(dp142
g3
F60.0
sg4
I62
sg5
F0.0
sg6
F1.0
sg7
F4.22375749549765e-06
sg8
F4.22370397526621e-06
ssS'<no>'
p143
(dp144
g3
F40.0
sg4
I87
sg5
F0.0
sg6
F1.0
sg7
F2.815838330331767e-06
sg8
F2.8158145435399116e-06
ssS'<as>'
p145
(dp146
g3
F516.0
sg4
I12
sg5
F0.0
sg6
F1.0
sg7
F3.6324314461279796e-05
sg8
F3.632035618967285e-05
ssS'<perfectly>'
p147
(dp148
g3
F339.0
sg4
I20
sg5
F0.0
sg6
F1.0
sg7
F2.3864229849561724e-05
sg8
F2.3862521372344125e-05
ssS'<extraordinarily>'
p149
(dp150
g3
F36.0
sg4
I97
sg5
F0.0
sg6
F1.0
sg7
F2.53425449729859e-06
sg8
F2.5342352299935726e-06
ssS'<less>'
p151
(dp152
g3
F237.0
sg4
I27
sg5
F0.0
sg6
F1.0
sg7
F1.668384210721572e-05
sg8
F1.6683007064741173e-05
ssS'<single>'
p153
(dp154
g3
F35.0
sg4
I98
sg5
F0.0
sg6
F1.0
sg7
F2.463858539040296e-06
sg8
F2.463840327273509e-06
ssS'<abundantly>'
p155
(dp156
g3
F39.0
sg4
I93
sg5
F0.0
sg6
F1.0
sg7
F2.745442372073473e-06
sg8
F2.7454197597534043e-06
ssS'<that>'
p157
(dp158
g3
F329.0
sg4
I21
sg5
F0.0
sg6
F1.0
sg7
F2.3160270266978785e-05
sg8
F2.3158661097468544e-05
ssS'<worried about>'
p159
(dp160
g3
F52.0
sg4
I69
sg5
F0.0
sg6
F1.0
sg7
F3.660589829431297e-06
sg8
F3.660549629775705e-06
ssS'<increasingly>'
p161
(dp162
g3
F68.0
sg4
I57
sg5
F0.0
sg6
F1.0
sg7
F4.786925161564004e-06
sg8
F4.786856417825883e-06
ssS'<real>'
p163
(dp164
g3
F273.0
sg4
I24
sg5
F0.0
sg6
F1.0
sg7
F1.921809660451431e-05
sg8
F1.9216988612998824e-05
ssS'<least>'
p165
(dp166
g3
F37.0
sg4
I96
sg5
F0.0
sg6
F1.0
sg7
F2.6046504555568845e-06
sg8
F2.6046301029802375e-06
ssS'<easily>'
p167
(dp168
g3
F49.0
sg4
I73
sg5
F0.0
sg6
F1.0
sg7
F3.4494019546564146e-06
sg8
F3.449366259616966e-06
ssS'<really>'
p169
(dp170
g3
F2071.0
sg4
I4
sg5
F0.0
sg6
F1.0
sg7
F0.00014579002955292724
sg8
F0.00014572627155223745
ssS'<rather>'
p171
(dp172
g3
F479.0
sg4
I13
sg5
F0.0
sg6
F1.0
sg7
F3.371966400572291e-05
sg8
F3.371625303518095e-05
ssS'<far>'
p173
(dp174
g3
F88.0
sg4
I45
sg5
F0.0
sg6
F1.0
sg7
F6.194844326729887e-06
sg8
F6.194729198916649e-06
ssS'<completely>'
p175
(dp176
g3
F452.0
sg4
I15
sg5
F0.0
sg6
F1.0
sg7
F3.181897313274897e-05
sg8
F3.1815935856025405e-05
ssS'<publicly>'
p177
(dp178
g3
F65.0
sg4
I59
sg5
F0.0
sg6
F1.0
sg7
F4.575737286789121e-06
sg8
F4.57567447486557e-06
ssS'<sufficiently>'
p179
(dp180
g3
F53.0
sg4
I67
sg5
F0.0
sg6
F1.0
sg7
F3.7309857876895913e-06
sg8
F3.7309440270286165e-06
ssS'<exceptionally>'
p181
(dp182
g3
F43.0
sg4
I81
sg5
F0.0
sg6
F1.0
sg7
F3.0270262051066496e-06
sg8
F3.026998716499183e-06
ssS'<even>'
p183
(dp184
g3
F211.0
sg4
I29
sg5
F0.0
sg6
F1.0
sg7
F1.4853547192500072e-05
sg8
F1.4852885315461651e-05
ssS'<highly>'
p185
(dp186
g3
F423.0
sg4
I16
sg5
F0.0
sg6
F1.0
sg7
F2.9777490343258435e-05
sg8
F2.977483029927248e-05
ssS'<terribly>'
p187
(dp188
g3
F41.0
sg4
I84
sg5
F0.0
sg6
F1.0
sg7
F2.8862342885900612e-06
sg8
F2.8862092975930393e-06
ssS'<particularly>'
p189
(dp190
g3
F288.0
sg4
I23
sg5
F0.0
sg6
F1.0
sg7
F2.027403597838872e-05
sg8
F2.02728028854509e-05
ssS'<too>'
p191
(dp192
g3
F342.0
sg4
I19
sg5
F0.0
sg6
F1.0
sg7
F2.407541772433661e-05
sg8
F2.407367887503013e-05
ssS'<currently>'
p193
(dp194
g3
F88.0
sg4
I46
sg5
F0.0
sg6
F1.0
sg7
F6.194844326729887e-06
sg8
F6.194729198916649e-06
ssS'<great ,>'
p195
(dp196
g3
F41.0
sg4
I83
sg5
F0.0
sg6
F1.0
sg7
F2.8862342885900612e-06
sg8
F2.8862092975930393e-06
ssS'<awfully>'
p197
(dp198
g3
F44.0
sg4
I79
sg5
F0.0
sg6
F1.0
sg7
F3.0974221633649435e-06
sg8
F3.0973933813522037e-06
ssS'<commonly>'
p199
(dp200
g3
F63.0
sg4
I61
sg5
F0.0
sg6
F1.0
sg7
F4.434945370272533e-06
sg8
F4.4348863642256764e-06
ssS'<either>'
p201
(dp202
g3
F40.0
sg4
I89
sg5
F0.0
sg6
F1.0
sg7
F2.815838330331767e-06
sg8
F2.8158145435399116e-06
ssS'<beautiful ,>'
p203
(dp204
g3
F70.0
sg4
I54
sg5
F0.0
sg6
F1.0
sg7
F4.927717078080592e-06
sg8
F4.927644231133106e-06
ssS'<legally>'
p205
(dp206
g3
F67.0
sg4
I58
sg5
F0.0
sg6
F1.0
sg7
F4.71652920330571e-06
sg8
F4.7164624665723745e-06
ss.