(dp0
S'<very>'
p1
(dp2
S'count'
p3
F5658.0
sS'idx'
p4
I1
sS'min'
p5
F0.0
sS'max'
p6
F1.0
sS'mu'
p7
F0.00039830033182542844
sS'sigma'
p8
F0.0003978245287376902
ssS'<really>'
p9
(dp10
g3
F2071.0
sg4
I4
sg5
F0.0
sg6
F1.0
sg7
F0.00014579002955292724
sg8
F0.00014572627155223745
ssS'<most>'
p11
(dp12
g3
F2296.0
sg4
I3
sg5
F0.0
sg6
F1.0
sg7
F0.00016162912016104344
sg8
F0.00016155075668837333
ssS'<more>'
p13
(dp14
g3
F1665.0
sg4
I6
sg5
F0.0
sg6
F1.0
sg7
F0.0001172092705000598
sg8
F0.00011716805968123044
ssS'<is weaker than>'
p15
(dp16
g3
F3600171.0
sg4
I0
sg5
F0.0
sg6
F264508.0
sg7
F0.2534374874387212
sg8
F14521.900952863014
ssS'<pretty>'
p17
(dp18
g3
F1582.0
sg4
I7
sg5
F0.0
sg6
F1.0
sg7
F0.00011136640596462138
sg8
F0.0001113292012979271
ssS'<quite>'
p19
(dp20
g3
F1903.0
sg4
I5
sg5
F0.0
sg6
F1.0
sg7
F0.0001339635085655338
sg8
F0.0001339096747089256
ssS'<absolutely>'
p21
(dp22
g3
F715.0
sg4
I9
sg5
F0.0
sg6
F1.0
sg7
F5.0333110154680334e-05
sg8
F5.0325510143776204e-05
ssS'<just>'
p23
(dp24
g3
F810.0
sg4
I8
sg5
F0.0
sg6
F1.0
sg7
F5.702072618921828e-05
sg8
F5.701097247036394e-05
ssS'<so>'
p25
(dp26
g3
F3549.0
sg4
I2
sg5
F0.0
sg6
F1.0
sg7
F0.000249835255858686
sg8
F0.00024964803408171433
ss.