(dp0
S'<ngram weaker than>'
p1
(dp2
S'count'
p3
F3600171.0
sS'idx'
p4
I0
sS'min'
p5
F0.0
sS'max'
p6
F264508.0
sS'mu'
p7
F0.2534374874387212
sS'sigma'
p8
F14521.901113737891
ssS'<ppdb weaker than>'
p9
(dp10
g3
F33343.0
sg4
I1
sg5
F0.0
sg6
F29.0
sg7
F0.002347212436206303
sg8
F0.009317217315493514
ss.