(dp0
S'tau'
p1
F-0.696551724137931
sS'|tau|'
p2
F1.0
sS'pairwise'
p3
F0.15172413793103448
sS'ranking'
p4
(dp5
I0
(dp6
g1
F-1.0
sS'gold'
p7
(lp8
(lp9
S'fairer'
p10
aa(lp11
S'fairest'
p12
aasS'raw'
p13
(dp14
S'prob*'
p15
cnumpy.core.multiarray
scalar
p16
(cnumpy
dtype
p17
(S'f8'
p18
I0
I1
tp19
Rp20
(I3
S'<'
p21
NNNI-1
I-1
I0
tp22
bS'\x00\x00\x00\x00\x00\x00\xe0?'
p23
tp24
Rp25
sS'link-probs'
p26
(lp27
(g12
g10
F0.5
tp28
assg3
F0.0
sS'algo'
p29
(lp30
(lp31
g12
aa(lp32
g10
aasg2
F1.0
ssI1
(dp33
g1
F-1.0
sg7
(lp34
(lp35
S'sad'
p36
aa(lp37
S'sadder'
p38
aasg13
(dp39
g15
g16
(g20
S'\x00\x00\x00\x00\x00\x00\xe0?'
p40
tp41
Rp42
sg26
(lp43
(g38
g36
F0.5
tp44
assg3
F0.0
sg29
(lp45
(lp46
g38
aa(lp47
g36
aasg2
F1.0
ssI2
(dp48
g1
F-1.0
sg7
(lp49
(lp50
S'newer'
p51
aa(lp52
S'newest'
p53
aasg13
(dp54
g15
g16
(g20
S'\x00\x00\x00\x00\x00\x00\xe0?'
p55
tp56
Rp57
sg26
(lp58
(g53
g51
F0.5
tp59
assg3
F0.0
sg29
(lp60
(lp61
g53
aa(lp62
g51
aasg2
F1.0
ssI3
(dp63
g1
F-1.0
sg7
(lp64
(lp65
S'warmer'
p66
aa(lp67
S'warmest'
p68
aasg13
(dp69
g15
g16
(g20
S'\x00\x00\x00\x00\x00\x00\xe0?'
p70
tp71
Rp72
sg26
(lp73
(g68
g66
F0.5
tp74
assg3
F0.0
sg29
(lp75
(lp76
g68
aa(lp77
g66
aasg2
F1.0
ssI4
(dp78
g1
F-1.0
sg7
(lp79
(lp80
S'smart'
p81
aa(lp82
S'smartest'
p83
aasg13
(dp84
g15
g16
(g20
S'\x00\x00\x00\x00\x00\x00\xe0?'
p85
tp86
Rp87
sg26
(lp88
(g83
g81
F0.5
tp89
assg3
F0.0
sg29
(lp90
(lp91
g83
aa(lp92
g81
aasg2
F1.0
ssI5
(dp93
g1
F-1.0
sg7
(lp94
(lp95
S'steep'
p96
aa(lp97
S'steeper'
p98
aasg13
(dp99
g15
g16
(g20
S'\x00\x00\x00\x00\x00\x00\xe0?'
p100
tp101
Rp102
sg26
(lp103
(g98
g96
F0.5
tp104
assg3
F0.0
sg29
(lp105
(lp106
g98
aa(lp107
g96
aasg2
F1.0
ssI6
(dp108
g1
F-1.0
sg7
(lp109
(lp110
S'shorter'
p111
aa(lp112
S'shortest'
p113
aasg13
(dp114
g15
g16
(g20
S'\x00\x00\x00\x00\x00\x00\xe0?'
p115
tp116
Rp117
sg26
(lp118
(g113
g111
F0.5
tp119
assg3
F0.0
sg29
(lp120
(lp121
g113
aa(lp122
g111
aasg2
F1.0
ssI7
(dp123
g1
F-1.0
sg7
(lp124
(lp125
S'fine'
p126
aa(lp127
S'finer'
p128
aasg13
(dp129
g15
g16
(g20
S'\x00\x00\x00\x00\x00\x00\xe0?'
p130
tp131
Rp132
sg26
(lp133
(g128
g126
F0.5
tp134
assg3
F0.0
sg29
(lp135
(lp136
g128
aa(lp137
g126
aasg2
F1.0
ssI8
(dp138
g1
F1.0
sg7
(lp139
(lp140
S'wealthy'
p141
aa(lp142
S'wealthiest'
p143
aasg13
(dp144
g15
g16
(g20
S'\x00\x00\x00\x00\x00\x00\xe0?'
p145
tp146
Rp147
sg26
(lp148
(g141
g143
F0.5
tp149
assg3
F1.0
sg29
(lp150
(lp151
g141
aa(lp152
g143
aasg2
F1.0
ssI9
(dp153
g1
F-1.0
sg7
(lp154
(lp155
S'brave'
p156
aa(lp157
S'braver'
p158
aasg13
(dp159
g15
g16
(g20
S'\x00\x00\x00\x00\x00\x00\xe0?'
p160
tp161
Rp162
sg26
(lp163
(g158
g156
F0.5
tp164
assg3
F0.0
sg29
(lp165
(lp166
g158
aa(lp167
g156
aasg2
F1.0
ssI10
(dp168
g1
F-1.0
sg7
(lp169
(lp170
S'fine'
p171
aa(lp172
S'finest'
p173
aasg13
(dp174
g15
g16
(g20
S'\x00\x00\x00\x00\x00\x00\xe0?'
p175
tp176
Rp177
sg26
(lp178
(g173
g171
F0.5
tp179
assg3
F0.0
sg29
(lp180
(lp181
g173
aa(lp182
g171
aasg2
F1.0
ssI11
(dp183
g1
F-1.0
sg7
(lp184
(lp185
S'larger'
p186
aa(lp187
S'largest'
p188
aasg13
(dp189
g15
g16
(g20
S'\x00\x00\x00\x00\x00\x00\xe0?'
p190
tp191
Rp192
sg26
(lp193
(g188
g186
F0.5
tp194
assg3
F0.0
sg29
(lp195
(lp196
g188
aa(lp197
g186
aasg2
F1.0
ssI12
(dp198
g1
F-1.0
sg7
(lp199
(lp200
S'freer'
p201
aa(lp202
S'freest'
p203
aasg13
(dp204
g15
g16
(g20
S'\x00\x00\x00\x00\x00\x00\xe0?'
p205
tp206
Rp207
sg26
(lp208
(g203
g201
F0.5
tp209
assg3
F0.0
sg29
(lp210
(lp211
g203
aa(lp212
g201
aasg2
F1.0
ssI13
(dp213
g1
F-1.0
sg7
(lp214
(lp215
S'moist'
p216
aa(lp217
S'moister'
p218
aasg13
(dp219
g15
g16
(g20
S'\x00\x00\x00\x00\x00\x00\xe0?'
p220
tp221
Rp222
sg26
(lp223
(g218
g216
F0.5
tp224
assg3
F0.0
sg29
(lp225
(lp226
g218
aa(lp227
g216
aasg2
F1.0
ssI14
(dp228
g1
F1.0
sg7
(lp229
(lp230
S'east'
p231
aa(lp232
S'easier'
p233
aasg13
(dp234
g15
g16
(g20
S'\x00\x00\x00\x00\x00\x00\xe0?'
p235
tp236
Rp237
sg26
(lp238
(g231
g233
F0.5
tp239
assg3
F1.0
sg29
(lp240
(lp241
g231
aa(lp242
g233
aasg2
F1.0
ssI15
(dp243
g1
F-1.0
sg7
(lp244
(lp245
S'larger'
p246
aa(lp247
S'largest'
p248
aasg13
(dp249
g15
g16
(g20
S'\x00\x00\x00\x00\x00\x00\xe0?'
p250
tp251
Rp252
sg26
(lp253
(g248
g246
F0.5
tp254
assg3
F0.0
sg29
(lp255
(lp256
g248
aa(lp257
g246
aasg2
F1.0
ssI16
(dp258
g1
F1.0
sg7
(lp259
(lp260
S'friendly'
p261
aa(lp262
S'friendlier'
p263
aasg13
(dp264
g15
g16
(g20
S'\x00\x00\x00\x00\x00\x00\xe0?'
p265
tp266
Rp267
sg26
(lp268
(g261
g263
F0.5
tp269
assg3
F1.0
sg29
(lp270
(lp271
g261
aa(lp272
g263
aasg2
F1.0
ssI17
(dp273
g1
F1.0
sg7
(lp274
(lp275
S'timely'
p276
aa(lp277
S'timelier'
p278
aasg13
(dp279
g15
g16
(g20
S'\x00\x00\x00\x00\x00\x00\xe0?'
p280
tp281
Rp282
sg26
(lp283
(g276
g278
F0.5
tp284
assg3
F1.0
sg29
(lp285
(lp286
g276
aa(lp287
g278
aasg2
F1.0
ssI18
(dp288
g1
F-1.0
sg7
(lp289
(lp290
g171
aa(lp291
S'finer'
p292
aasg13
(dp293
g15
g16
(g20
S'\x00\x00\x00\x00\x00\x00\xe0?'
p294
tp295
Rp296
sg26
(lp297
(g292
g171
F0.5
tp298
assg3
F0.0
sg29
(lp299
(lp300
g292
aa(lp301
g171
aasg2
F1.0
ssI19
(dp302
g1
F-1.0
sg7
(lp303
(lp304
g96
aa(lp305
g98
aasg13
(dp306
g15
g16
(g20
S'\x00\x00\x00\x00\x00\x00\xe0?'
p307
tp308
Rp309
sg26
(lp310
(g98
g96
F0.5
tp311
assg3
F0.0
sg29
(lp312
(lp313
g98
aa(lp314
g96
aasg2
F1.0
ssI20
(dp315
g1
F-1.0
sg7
(lp316
(lp317
S'cleaner'
p318
aa(lp319
S'cleanest'
p320
aasg13
(dp321
g15
g16
(g20
S'\x00\x00\x00\x00\x00\x00\xe0?'
p322
tp323
Rp324
sg26
(lp325
(g320
g318
F0.5
tp326
assg3
F0.0
sg29
(lp327
(lp328
g320
aa(lp329
g318
aasg2
F1.0
ssI21
(dp330
g1
F-1.0
sg7
(lp331
(lp332
S'weaker'
p333
aa(lp334
S'weakest'
p335
aasg13
(dp336
g15
g16
(g20
S'\x00\x00\x00\x00\x00\x00\xe0?'
p337
tp338
Rp339
sg26
(lp340
(g335
g333
F0.5
tp341
assg3
F0.0
sg29
(lp342
(lp343
g335
aa(lp344
g333
aasg2
F1.0
ssI22
(dp345
g1
F-1.0
sg7
(lp346
(lp347
S'clever'
p348
aa(lp349
S'cleverer'
p350
aasg13
(dp351
g15
g16
(g20
S'\x00\x00\x00\x00\x00\x00\xe0?'
p352
tp353
Rp354
sg26
(lp355
(g350
g348
F0.5
tp356
assg3
F0.0
sg29
(lp357
(lp358
g350
aa(lp359
g348
aasg2
F1.0
ssI23
(dp360
g1
F-1.0
sg7
(lp361
(lp362
S'smart'
p363
aa(lp364
S'smartest'
p365
aasg13
(dp366
g15
g16
(g20
S'\x00\x00\x00\x00\x00\x00\xe0?'
p367
tp368
Rp369
sg26
(lp370
(g365
g363
F0.5
tp371
assg3
F0.0
sg29
(lp372
(lp373
g365
aa(lp374
g363
aasg2
F1.0
ssI24
(dp375
g1
F-1.0
sg7
(lp376
(lp377
S'late'
p378
aa(lp379
S'latest'
p380
aasg13
(dp381
g15
g16
(g20
S'\x00\x00\x00\x00\x00\x00\xe0?'
p382
tp383
Rp384
sg26
(lp385
(g380
g378
F0.5
tp386
assg3
F0.0
sg29
(lp387
(lp388
g380
aa(lp389
g378
aasg2
F1.0
ssI25
(dp390
g1
F-1.0
sg7
(lp391
(lp392
S'richer'
p393
aa(lp394
S'richest'
p395
aasg13
(dp396
g15
g16
(g20
S'\x00\x00\x00\x00\x00\x00\xe0?'
p397
tp398
Rp399
sg26
(lp400
(g395
g393
F0.5
tp401
assg3
F0.0
sg29
(lp402
(lp403
g395
aa(lp404
g393
aasg2
F1.0
ssI26
(dp405
g1
F-1.0
sg7
(lp406
(lp407
g348
aa(lp408
g350
aasg13
(dp409
g15
g16
(g20
S'\x00\x00\x00\x00\x00\x00\xe0?'
p410
tp411
Rp412
sg26
(lp413
(g350
g348
F0.5
tp414
assg3
F0.0
sg29
(lp415
(lp416
g350
aa(lp417
g348
aasg2
F1.0
ssI27
(dp418
g1
F-1.0
sg7
(lp419
(lp420
S'hard'
p421
aa(lp422
S'hardest'
p423
aasg13
(dp424
g15
g16
(g20
S'\x00\x00\x00\x00\x00\x00\xe0?'
p425
tp426
Rp427
sg26
(lp428
(g423
g421
F0.5
tp429
assg3
F0.0
sg29
(lp430
(lp431
g423
aa(lp432
g421
aasg2
F1.0
ssI28
(dp433
g1
F-1.0
sg7
(lp434
(lp435
S'older'
p436
aa(lp437
S'oldest'
p438
aasg13
(dp439
g15
g16
(g20
S'\x00\x00\x00\x00\x00\x00\xe0?'
p440
tp441
Rp442
sg26
(lp443
(g438
g436
F0.5
tp444
assg3
F0.0
sg29
(lp445
(lp446
g438
aa(lp447
g436
aasg2
F1.0
ssI29
(dp448
g1
F-1.0
sg7
(lp449
(lp450
g186
aa(lp451
g188
aasg13
(dp452
g15
g16
(g20
S'\x00\x00\x00\x00\x00\x00\xe0?'
p453
tp454
Rp455
sg26
(lp456
(g188
g186
F0.5
tp457
assg3
F0.0
sg29
(lp458
(lp459
g188
aa(lp460
g186
aasg2
F1.0
ssI30
(dp461
g1
F-1.0
sg7
(lp462
(lp463
S'quick'
p464
aa(lp465
S'quickest'
p466
aasg13
(dp467
g15
g16
(g20
S'\x00\x00\x00\x00\x00\x00\xe0?'
p468
tp469
Rp470
sg26
(lp471
(g466
g464
F0.5
tp472
assg3
F0.0
sg29
(lp473
(lp474
g466
aa(lp475
g464
aasg2
F1.0
ssI31
(dp476
g1
F-1.0
sg7
(lp477
(lp478
S'large'
p479
aa(lp480
g248
aasg13
(dp481
g15
g16
(g20
S'\x00\x00\x00\x00\x00\x00\xe0?'
p482
tp483
Rp484
sg26
(lp485
(g248
g479
F0.5
tp486
assg3
F0.0
sg29
(lp487
(lp488
g248
aa(lp489
g479
aasg2
F1.0
ssI32
(dp490
g1
F-1.0
sg7
(lp491
(lp492
S'dre'
p493
aa(lp494
S'drier'
p495
aasg13
(dp496
g15
g16
(g20
S'\x00\x00\x00\x00\x00\x00\xe0?'
p497
tp498
Rp499
sg26
(lp500
(g495
g493
F0.5
tp501
assg3
F0.0
sg29
(lp502
(lp503
g495
aa(lp504
g493
aasg2
F1.0
ssI33
(dp505
g1
F-1.0
sg7
(lp506
(lp507
S'smarter'
p508
aa(lp509
g365
aasg13
(dp510
g15
g16
(g20
S'\x00\x00\x00\x00\x00\x00\xe0?'
p511
tp512
Rp513
sg26
(lp514
(g365
g508
F0.5
tp515
assg3
F0.0
sg29
(lp516
(lp517
g365
aa(lp518
g508
aasg2
F1.0
ssI34
(dp519
g1
F-1.0
sg7
(lp520
(lp521
S'fuller'
p522
aa(lp523
S'fullest'
p524
aasg13
(dp525
g15
g16
(g20
S'\x00\x00\x00\x00\x00\x00\xe0?'
p526
tp527
Rp528
sg26
(lp529
(g524
g522
F0.5
tp530
assg3
F0.0
sg29
(lp531
(lp532
g524
aa(lp533
g522
aasg2
F1.0
ssI35
(dp534
g1
F-1.0
sg7
(lp535
(lp536
S'slim'
p537
aa(lp538
S'slimmer'
p539
aasg13
(dp540
g15
g16
(g20
S'\x00\x00\x00\x00\x00\x00\xe0?'
p541
tp542
Rp543
sg26
(lp544
(g539
g537
F0.5
tp545
assg3
F0.0
sg29
(lp546
(lp547
g539
aa(lp548
g537
aasg2
F1.0
ssI36
(dp549
g1
F-1.0
sg7
(lp550
(lp551
g363
aa(lp552
g365
aasg13
(dp553
g15
g16
(g20
S'\x00\x00\x00\x00\x00\x00\xe0?'
p554
tp555
Rp556
sg26
(lp557
(g365
g363
F0.5
tp558
assg3
F0.0
sg29
(lp559
(lp560
g365
aa(lp561
g363
aasg2
F1.0
ssI37
(dp562
g1
F1.0
sg7
(lp563
(lp564
S'east'
p565
aa(lp566
S'easiest'
p567
aasg13
(dp568
g15
g16
(g20
S'\x00\x00\x00\x00\x00\x00\xe0?'
p569
tp570
Rp571
sg26
(lp572
(g565
g567
F0.5
tp573
assg3
F1.0
sg29
(lp574
(lp575
g565
aa(lp576
g567
aasg2
F1.0
ssI38
(dp577
g1
F-1.0
sg7
(lp578
(lp579
S'grave'
p580
aa(lp581
S'graver'
p582
aasg13
(dp583
g15
g16
(g20
S'\x00\x00\x00\x00\x00\x00\xe0?'
p584
tp585
Rp586
sg26
(lp587
(g582
g580
F0.5
tp588
assg3
F0.0
sg29
(lp589
(lp590
g582
aa(lp591
g580
aasg2
F1.0
ssI39
(dp592
g1
F-1.0
sg7
(lp593
(lp594
S'happier'
p595
aa(lp596
S'happiest'
p597
aasg13
(dp598
g15
g16
(g20
S'\x00\x00\x00\x00\x00\x00\xe0?'
p599
tp600
Rp601
sg26
(lp602
(g597
g595
F0.5
tp603
assg3
F0.0
sg29
(lp604
(lp605
g597
aa(lp606
g595
aasg2
F1.0
ssI40
(dp607
g1
F-1.0
sg7
(lp608
(lp609
S'dear'
p610
aa(lp611
S'dearer'
p612
aasg13
(dp613
g15
g16
(g20
S'\x00\x00\x00\x00\x00\x00\xe0?'
p614
tp615
Rp616
sg26
(lp617
(g612
g610
F0.5
tp618
assg3
F0.0
sg29
(lp619
(lp620
g612
aa(lp621
g610
aasg2
F1.0
ssI41
(dp622
g1
F-1.0
sg7
(lp623
(lp624
S'bright'
p625
aa(lp626
S'brightest'
p627
aasg13
(dp628
g15
g16
(g20
S'\x00\x00\x00\x00\x00\x00\xe0?'
p629
tp630
Rp631
sg26
(lp632
(g627
g625
F0.5
tp633
assg3
F0.0
sg29
(lp634
(lp635
g627
aa(lp636
g625
aasg2
F1.0
ssI42
(dp637
g1
F-1.0
sg7
(lp638
(lp639
S'bright'
p640
aa(lp641
S'brightest'
p642
aasg13
(dp643
g15
g16
(g20
S'\x00\x00\x00\x00\x00\x00\xe0?'
p644
tp645
Rp646
sg26
(lp647
(g642
g640
F0.5
tp648
assg3
F0.0
sg29
(lp649
(lp650
g642
aa(lp651
g640
aasg2
F1.0
ssI43
(dp652
g1
F-1.0
sg7
(lp653
(lp654
S'far'
p655
aa(lp656
S'furthest'
p657
aasg13
(dp658
g15
g16
(g20
S'\x00\x00\x00\x00\x00\x00\xe0?'
p659
tp660
Rp661
sg26
(lp662
(g657
g655
F0.5
tp663
assg3
F0.0
sg29
(lp664
(lp665
g657
aa(lp666
g655
aasg2
F1.0
ssI44
(dp667
g1
F-1.0
sg7
(lp668
(lp669
S'soon'
p670
aa(lp671
S'sooner'
p672
aasg13
(dp673
g15
g16
(g20
S'\x00\x00\x00\x00\x00\x00\xe0?'
p674
tp675
Rp676
sg26
(lp677
(g672
g670
F0.5
tp678
assg3
F0.0
sg29
(lp679
(lp680
g672
aa(lp681
g670
aasg2
F1.0
ssI45
(dp682
g1
F1.0
sg7
(lp683
(lp684
S'funny'
p685
aa(lp686
S'funnier'
p687
aasg13
(dp688
g15
g16
(g20
S'\x00\x00\x00\x00\x00\x00\xe0?'
p689
tp690
Rp691
sg26
(lp692
(g685
g687
F0.5
tp693
assg3
F1.0
sg29
(lp694
(lp695
g685
aa(lp696
g687
aasg2
F1.0
ssI46
(dp697
g1
F-1.0
sg7
(lp698
(lp699
S'graver'
p700
aa(lp701
S'gravest'
p702
aasg13
(dp703
g15
g16
(g20
S'\x00\x00\x00\x00\x00\x00\xe0?'
p704
tp705
Rp706
sg26
(lp707
(g702
g700
F0.5
tp708
assg3
F0.0
sg29
(lp709
(lp710
g702
aa(lp711
g700
aasg2
F1.0
ssI47
(dp712
g1
F1.0
sg7
(lp713
(lp714
S'lengthy'
p715
aa(lp716
S'lengthier'
p717
aasg13
(dp718
g15
g16
(g20
S'\x00\x00\x00\x00\x00\x00\xe0?'
p719
tp720
Rp721
sg26
(lp722
(g715
g717
F0.5
tp723
assg3
F1.0
sg29
(lp724
(lp725
g715
aa(lp726
g717
aasg2
F1.0
ssI48
(dp727
g1
F-1.0
sg7
(lp728
(lp729
S'rarer'
p730
aa(lp731
S'rarest'
p732
aasg13
(dp733
g15
g16
(g20
S'\x00\x00\x00\x00\x00\x00\xe0?'
p734
tp735
Rp736
sg26
(lp737
(g732
g730
F0.5
tp738
assg3
F0.0
sg29
(lp739
(lp740
g732
aa(lp741
g730
aasg2
F1.0
ssI49
(dp742
g1
F1.0
sg7
(lp743
(lp744
g141
aa(lp745
S'wealthier'
p746
aasg13
(dp747
g15
g16
(g20
S'\x00\x00\x00\x00\x00\x00\xe0?'
p748
tp749
Rp750
sg26
(lp751
(g141
g746
F0.5
tp752
assg3
F1.0
sg29
(lp753
(lp754
g141
aa(lp755
g746
aasg2
F1.0
ssI50
(dp756
g1
F-1.0
sg7
(lp757
(lp758
S'older'
p759
aa(lp760
S'oldest'
p761
aasg13
(dp762
g15
g16
(g20
S'\x00\x00\x00\x00\x00\x00\xe0?'
p763
tp764
Rp765
sg26
(lp766
(g761
g759
F0.5
tp767
assg3
F0.0
sg29
(lp768
(lp769
g761
aa(lp770
g759
aasg2
F1.0
ssI51
(dp771
g1
F-1.0
sg7
(lp772
(lp773
S'full'
p774
aa(lp775
S'fuller'
p776
aasg13
(dp777
g15
g16
(g20
S'\x00\x00\x00\x00\x00\x00\xe0?'
p778
tp779
Rp780
sg26
(lp781
(g776
g774
F0.5
tp782
assg3
F0.0
sg29
(lp783
(lp784
g776
aa(lp785
g774
aasg2
F1.0
ssI52
(dp786
g1
F-1.0
sg7
(lp787
(lp788
S'old'
p789
aa(lp790
g761
aasg13
(dp791
g15
g16
(g20
S'\x00\x00\x00\x00\x00\x00\xe0?'
p792
tp793
Rp794
sg26
(lp795
(g761
g789
F0.5
tp796
assg3
F0.0
sg29
(lp797
(lp798
g761
aa(lp799
g789
aasg2
F1.0
ssI53
(dp800
g1
F-1.0
sg7
(lp801
(lp802
g292
aa(lp803
g173
aasg13
(dp804
g15
g16
(g20
S'\x00\x00\x00\x00\x00\x00\xe0?'
p805
tp806
Rp807
sg26
(lp808
(g173
g292
F0.5
tp809
assg3
F0.0
sg29
(lp810
(lp811
g173
aa(lp812
g292
aasg2
F1.0
ssI54
(dp813
g1
F-1.0
sg7
(lp814
(lp815
S'near'
p816
aa(lp817
S'nearest'
p818
aasg13
(dp819
g15
g16
(g20
S'\x00\x00\x00\x00\x00\x00\xe0?'
p820
tp821
Rp822
sg26
(lp823
(g818
g816
F0.5
tp824
assg3
F0.0
sg29
(lp825
(lp826
g818
aa(lp827
g816
aasg2
F1.0
ssI55
(dp828
g1
F-1.0
sg7
(lp829
(lp830
g582
aa(lp831
S'gravest'
p832
aasg13
(dp833
g15
g16
(g20
S'\x00\x00\x00\x00\x00\x00\xe0?'
p834
tp835
Rp836
sg26
(lp837
(g832
g582
F0.5
tp838
assg3
F0.0
sg29
(lp839
(lp840
g832
aa(lp841
g582
aasg2
F1.0
ssI56
(dp842
g1
F-1.0
sg7
(lp843
(lp844
S'freer'
p845
aa(lp846
S'freest'
p847
aasg13
(dp848
g15
g16
(g20
S'\x00\x00\x00\x00\x00\x00\xe0?'
p849
tp850
Rp851
sg26
(lp852
(g847
g845
F0.5
tp853
assg3
F0.0
sg29
(lp854
(lp855
g847
aa(lp856
g845
aasg2
F1.0
ssI57
(dp857
g1
F-1.0
sg7
(lp858
(lp859
g746
aa(lp860
g143
aasg13
(dp861
g15
g16
(g20
S'\x00\x00\x00\x00\x00\x00\xe0?'
p862
tp863
Rp864
sg26
(lp865
(g143
g746
F0.5
tp866
assg3
F0.0
sg29
(lp867
(lp868
g143
aa(lp869
g746
aasg2
F1.0
ssI58
(dp870
g1
F1.0
sg7
(lp871
(lp872
S'some'
p873
aa(lp874
S'most'
p875
aasg13
(dp876
g15
g16
(g20
S'\x00\x00\x00\x00\x00\x00\xe0?'
p877
tp878
Rp879
sg26
(lp880
(g873
g875
F0.5
tp881
assg3
F1.0
sg29
(lp882
(lp883
g873
aa(lp884
g875
aasg2
F1.0
ssI59
(dp885
g1
F-1.0
sg7
(lp886
(lp887
S'full'
p888
aa(lp889
S'fullest'
p890
aasg13
(dp891
g15
g16
(g20
S'\x00\x00\x00\x00\x00\x00\xe0?'
p892
tp893
Rp894
sg26
(lp895
(g890
g888
F0.5
tp896
assg3
F0.0
sg29
(lp897
(lp898
g890
aa(lp899
g888
aasg2
F1.0
ssI60
(dp900
g1
F-1.0
sg7
(lp901
(lp902
S'smooth'
p903
aa(lp904
S'smoother'
p905
aasg13
(dp906
g15
g16
(g20
S'\x00\x00\x00\x00\x00\x00\xe0?'
p907
tp908
Rp909
sg26
(lp910
(g905
g903
F0.5
tp911
assg3
F0.0
sg29
(lp912
(lp913
g905
aa(lp914
g903
aasg2
F1.0
ssI61
(dp915
g1
F-1.0
sg7
(lp916
(lp917
S'deep'
p918
aa(lp919
S'deepest'
p920
aasg13
(dp921
g15
g16
(g20
S'\x00\x00\x00\x00\x00\x00\xe0?'
p922
tp923
Rp924
sg26
(lp925
(g920
g918
F0.5
tp926
assg3
F0.0
sg29
(lp927
(lp928
g920
aa(lp929
g918
aasg2
F1.0
ssI62
(dp930
g1
F-1.0
sg7
(lp931
(lp932
g746
aa(lp933
g143
aasg13
(dp934
g15
g16
(g20
S'\x00\x00\x00\x00\x00\x00\xe0?'
p935
tp936
Rp937
sg26
(lp938
(g143
g746
F0.5
tp939
assg3
F0.0
sg29
(lp940
(lp941
g143
aa(lp942
g746
aasg2
F1.0
ssI63
(dp943
g1
F-1.0
sg7
(lp944
(lp945
S'soft'
p946
aa(lp947
S'softer'
p948
aasg13
(dp949
g15
g16
(g20
S'\x00\x00\x00\x00\x00\x00\xe0?'
p950
tp951
Rp952
sg26
(lp953
(g948
g946
F0.5
tp954
assg3
F0.0
sg29
(lp955
(lp956
g948
aa(lp957
g946
aasg2
F1.0
ssI64
(dp958
g1
F-1.0
sg7
(lp959
(lp960
S'earlier'
p961
aa(lp962
S'earliest'
p963
aasg13
(dp964
g15
g16
(g20
S'\x00\x00\x00\x00\x00\x00\xe0?'
p965
tp966
Rp967
sg26
(lp968
(g963
g961
F0.5
tp969
assg3
F0.0
sg29
(lp970
(lp971
g963
aa(lp972
g961
aasg2
F1.0
ssI65
(dp973
g1
F1.0
sg7
(lp974
(lp975
S'speedy'
p976
aa(lp977
S'speedier'
p978
aasg13
(dp979
g15
g16
(g20
S'\x00\x00\x00\x00\x00\x00\xe0?'
p980
tp981
Rp982
sg26
(lp983
(g976
g978
F0.5
tp984
assg3
F1.0
sg29
(lp985
(lp986
g976
aa(lp987
g978
aasg2
F1.0
ssI66
(dp988
g1
F-1.0
sg7
(lp989
(lp990
S'further'
p991
aa(lp992
g657
aasg13
(dp993
g15
g16
(g20
S'\x00\x00\x00\x00\x00\x00\xe0?'
p994
tp995
Rp996
sg26
(lp997
(g657
g991
F0.5
tp998
assg3
F0.0
sg29
(lp999
(lp1000
g657
aa(lp1001
g991
aasg2
F1.0
ssI67
(dp1002
g1
F-1.0
sg7
(lp1003
(lp1004
g36
aa(lp1005
g38
aasg13
(dp1006
g15
g16
(g20
S'\x00\x00\x00\x00\x00\x00\xe0?'
p1007
tp1008
Rp1009
sg26
(lp1010
(g38
g36
F0.5
tp1011
assg3
F0.0
sg29
(lp1012
(lp1013
g38
aa(lp1014
g36
aasg2
F1.0
ssI68
(dp1015
g1
F-1.0
sg7
(lp1016
(lp1017
g888
aa(lp1018
g890
aasg13
(dp1019
g15
g16
(g20
S'\x00\x00\x00\x00\x00\x00\xe0?'
p1020
tp1021
Rp1022
sg26
(lp1023
(g890
g888
F0.5
tp1024
assg3
F0.0
sg29
(lp1025
(lp1026
g890
aa(lp1027
g888
aasg2
F1.0
ssI69
(dp1028
g1
F-1.0
sg7
(lp1029
(lp1030
S'earlier'
p1031
aa(lp1032
S'earliest'
p1033
aasg13
(dp1034
g15
g16
(g20
S'\x00\x00\x00\x00\x00\x00\xe0?'
p1035
tp1036
Rp1037
sg26
(lp1038
(g1033
g1031
F0.5
tp1039
assg3
F0.0
sg29
(lp1040
(lp1041
g1033
aa(lp1042
g1031
aasg2
F1.0
ssI70
(dp1043
g1
F1.0
sg7
(lp1044
(lp1045
S'well'
p1046
aa(lp1047
S'best'
p1048
aasg13
(dp1049
g15
g16
(g20
S'\x00\x00\x00\x00\x00\x00\xe0?'
p1050
tp1051
Rp1052
sg26
(lp1053
(g1046
g1048
F0.5
tp1054
assg3
F1.0
sg29
(lp1055
(lp1056
g1046
aa(lp1057
g1048
aasg2
F1.0
ssI71
(dp1058
g1
F-1.0
sg7
(lp1059
(lp1060
S'far'
p1061
aa(lp1062
S'furthest'
p1063
aasg13
(dp1064
g15
g16
(g20
S'\x00\x00\x00\x00\x00\x00\xe0?'
p1065
tp1066
Rp1067
sg26
(lp1068
(g1063
g1061
F0.5
tp1069
assg3
F0.0
sg29
(lp1070
(lp1071
g1063
aa(lp1072
g1061
aasg2
F1.0
ssI72
(dp1073
g1
F1.0
sg7
(lp1074
(lp1075
S'wealthy'
p1076
aa(lp1077
S'wealthier'
p1078
aasg13
(dp1079
g15
g16
(g20
S'\x00\x00\x00\x00\x00\x00\xe0?'
p1080
tp1081
Rp1082
sg26
(lp1083
(g1076
g1078
F0.5
tp1084
assg3
F1.0
sg29
(lp1085
(lp1086
g1076
aa(lp1087
g1078
aasg2
F1.0
ssI73
(dp1088
g1
F-1.0
sg7
(lp1089
(lp1090
S'safe'
p1091
aa(lp1092
S'safest'
p1093
aasg13
(dp1094
g15
g16
(g20
S'\x00\x00\x00\x00\x00\x00\xe0?'
p1095
tp1096
Rp1097
sg26
(lp1098
(g1093
g1091
F0.5
tp1099
assg3
F0.0
sg29
(lp1100
(lp1101
g1093
aa(lp1102
g1091
aasg2
F1.0
ssI74
(dp1103
g1
F1.0
sg7
(lp1104
(lp1105
g565
aa(lp1106
g567
aasg13
(dp1107
g15
g16
(g20
S'\x00\x00\x00\x00\x00\x00\xe0?'
p1108
tp1109
Rp1110
sg26
(lp1111
(g565
g567
F0.5
tp1112
assg3
F1.0
sg29
(lp1113
(lp1114
g565
aa(lp1115
g567
aasg2
F1.0
ssI75
(dp1116
g1
F1.0
sg7
(lp1117
(lp1118
g141
aa(lp1119
g143
aasg13
(dp1120
g15
g16
(g20
S'\x00\x00\x00\x00\x00\x00\xe0?'
p1121
tp1122
Rp1123
sg26
(lp1124
(g141
g143
F0.5
tp1125
assg3
F1.0
sg29
(lp1126
(lp1127
g141
aa(lp1128
g143
aasg2
F1.0
ssI76
(dp1129
g1
F1.0
sg7
(lp1130
(lp1131
S'wealthy'
p1132
aa(lp1133
S'wealthiest'
p1134
aasg13
(dp1135
g15
g16
(g20
S'\x00\x00\x00\x00\x00\x00\xe0?'
p1136
tp1137
Rp1138
sg26
(lp1139
(g1132
g1134
F0.5
tp1140
assg3
F1.0
sg29
(lp1141
(lp1142
g1132
aa(lp1143
g1134
aasg2
F1.0
ssI77
(dp1144
g1
F-1.0
sg7
(lp1145
(lp1146
S'new'
p1147
aa(lp1148
S'newer'
p1149
aasg13
(dp1150
g15
g16
(g20
S'\x00\x00\x00\x00\x00\x00\xe0?'
p1151
tp1152
Rp1153
sg26
(lp1154
(g1149
g1147
F0.5
tp1155
assg3
F0.0
sg29
(lp1156
(lp1157
g1149
aa(lp1158
g1147
aasg2
F1.0
ssI78
(dp1159
g1
F-1.0
sg7
(lp1160
(lp1161
S'finer'
p1162
aa(lp1163
S'finest'
p1164
aasg13
(dp1165
g15
g16
(g20
S'\x00\x00\x00\x00\x00\x00\xe0?'
p1166
tp1167
Rp1168
sg26
(lp1169
(g1164
g1162
F0.5
tp1170
assg3
F0.0
sg29
(lp1171
(lp1172
g1164
aa(lp1173
g1162
aasg2
F1.0
ssI79
(dp1174
g1
F-1.0
sg7
(lp1175
(lp1176
S'clean'
p1177
aa(lp1178
S'cleanest'
p1179
aasg13
(dp1180
g15
g16
(g20
S'\x00\x00\x00\x00\x00\x00\xe0?'
p1181
tp1182
Rp1183
sg26
(lp1184
(g1179
g1177
F0.5
tp1185
assg3
F0.0
sg29
(lp1186
(lp1187
g1179
aa(lp1188
g1177
aasg2
F1.0
ssI80
(dp1189
g1
F-1.0
sg7
(lp1190
(lp1191
S'sharp'
p1192
aa(lp1193
S'sharper'
p1194
aasg13
(dp1195
g15
g16
(g20
S'\x00\x00\x00\x00\x00\x00\xe0?'
p1196
tp1197
Rp1198
sg26
(lp1199
(g1194
g1192
F0.5
tp1200
assg3
F0.0
sg29
(lp1201
(lp1202
g1194
aa(lp1203
g1192
aasg2
F1.0
ssI81
(dp1204
g1
F-1.0
sg7
(lp1205
(lp1206
S'further'
p1207
aa(lp1208
S'furthest'
p1209
aasg13
(dp1210
g15
g16
(g20
S'\x00\x00\x00\x00\x00\x00\xe0?'
p1211
tp1212
Rp1213
sg26
(lp1214
(g1209
g1207
F0.5
tp1215
assg3
F0.0
sg29
(lp1216
(lp1217
g1209
aa(lp1218
g1207
aasg2
F1.0
ssI82
(dp1219
g1
F-1.0
sg7
(lp1220
(lp1221
g610
aa(lp1222
g612
aasg13
(dp1223
g15
g16
(g20
S'\x00\x00\x00\x00\x00\x00\xe0?'
p1224
tp1225
Rp1226
sg26
(lp1227
(g612
g610
F0.5
tp1228
assg3
F0.0
sg29
(lp1229
(lp1230
g612
aa(lp1231
g610
aasg2
F1.0
ssI83
(dp1232
g1
F-1.0
sg7
(lp1233
(lp1234
g378
aa(lp1235
g380
aasg13
(dp1236
g15
g16
(g20
S'\x00\x00\x00\x00\x00\x00\xe0?'
p1237
tp1238
Rp1239
sg26
(lp1240
(g380
g378
F0.5
tp1241
assg3
F0.0
sg29
(lp1242
(lp1243
g380
aa(lp1244
g378
aasg2
F1.0
ssI84
(dp1245
g1
F-1.0
sg7
(lp1246
(lp1247
S'brave'
p1248
aa(lp1249
S'bravest'
p1250
aasg13
(dp1251
g15
g16
(g20
S'\x00\x00\x00\x00\x00\x00\xe0?'
p1252
tp1253
Rp1254
sg26
(lp1255
(g1250
g1248
F0.5
tp1256
assg3
F0.0
sg29
(lp1257
(lp1258
g1250
aa(lp1259
g1248
aasg2
F1.0
ssI85
(dp1260
g1
F1.0
sg7
(lp1261
(lp1262
S'east'
p1263
aa(lp1264
S'easier'
p1265
aasg13
(dp1266
g15
g16
(g20
S'\x00\x00\x00\x00\x00\x00\xe0?'
p1267
tp1268
Rp1269
sg26
(lp1270
(g1263
g1265
F0.5
tp1271
assg3
F1.0
sg29
(lp1272
(lp1273
g1263
aa(lp1274
g1265
aasg2
F1.0
ssI86
(dp1275
g1
F-1.0
sg7
(lp1276
(lp1277
g508
aa(lp1278
g365
aasg13
(dp1279
g15
g16
(g20
S'\x00\x00\x00\x00\x00\x00\xe0?'
p1280
tp1281
Rp1282
sg26
(lp1283
(g365
g508
F0.5
tp1284
assg3
F0.0
sg29
(lp1285
(lp1286
g365
aa(lp1287
g508
aasg2
F1.0
ssI87
(dp1288
g1
F-1.0
sg7
(lp1289
(lp1290
g421
aa(lp1291
g423
aasg13
(dp1292
g15
g16
(g20
S'\x00\x00\x00\x00\x00\x00\xe0?'
p1293
tp1294
Rp1295
sg26
(lp1296
(g423
g421
F0.5
tp1297
assg3
F0.0
sg29
(lp1298
(lp1299
g423
aa(lp1300
g421
aasg2
F1.0
ssI88
(dp1301
g1
F-1.0
sg7
(lp1302
(lp1303
S'darker'
p1304
aa(lp1305
S'darkest'
p1306
aasg13
(dp1307
g15
g16
(g20
S'\x00\x00\x00\x00\x00\x00\xe0?'
p1308
tp1309
Rp1310
sg26
(lp1311
(g1306
g1304
F0.5
tp1312
assg3
F0.0
sg29
(lp1313
(lp1314
g1306
aa(lp1315
g1304
aasg2
F1.0
ssI89
(dp1316
g1
F-1.0
sg7
(lp1317
(lp1318
S'braver'
p1319
aa(lp1320
S'bravest'
p1321
aasg13
(dp1322
g15
g16
(g20
S'\x00\x00\x00\x00\x00\x00\xe0?'
p1323
tp1324
Rp1325
sg26
(lp1326
(g1321
g1319
F0.5
tp1327
assg3
F0.0
sg29
(lp1328
(lp1329
g1321
aa(lp1330
g1319
aasg2
F1.0
ssI90
(dp1331
g1
F-1.0
sg7
(lp1332
(lp1333
S'swift'
p1334
aa(lp1335
S'swifter'
p1336
aasg13
(dp1337
g15
g16
(g20
S'\x00\x00\x00\x00\x00\x00\xe0?'
p1338
tp1339
Rp1340
sg26
(lp1341
(g1336
g1334
F0.5
tp1342
assg3
F0.0
sg29
(lp1343
(lp1344
g1336
aa(lp1345
g1334
aasg2
F1.0
ssI91
(dp1346
g1
F-1.0
sg7
(lp1347
(lp1348
S'thick'
p1349
aa(lp1350
S'thicker'
p1351
aasg13
(dp1352
g15
g16
(g20
S'\x00\x00\x00\x00\x00\x00\xe0?'
p1353
tp1354
Rp1355
sg26
(lp1356
(g1351
g1349
F0.5
tp1357
assg3
F0.0
sg29
(lp1358
(lp1359
g1351
aa(lp1360
g1349
aasg2
F1.0
ssI92
(dp1361
g1
F-1.0
sg7
(lp1362
(lp1363
S'stricter'
p1364
aa(lp1365
S'strictest'
p1366
aasg13
(dp1367
g15
g16
(g20
S'\x00\x00\x00\x00\x00\x00\xe0?'
p1368
tp1369
Rp1370
sg26
(lp1371
(g1366
g1364
F0.5
tp1372
assg3
F0.0
sg29
(lp1373
(lp1374
g1366
aa(lp1375
g1364
aasg2
F1.0
ssI93
(dp1376
g1
F-1.0
sg7
(lp1377
(lp1378
S'heavier'
p1379
aa(lp1380
S'heaviest'
p1381
aasg13
(dp1382
g15
g16
(g20
S'\x00\x00\x00\x00\x00\x00\xe0?'
p1383
tp1384
Rp1385
sg26
(lp1386
(g1381
g1379
F0.5
tp1387
assg3
F0.0
sg29
(lp1388
(lp1389
g1381
aa(lp1390
g1379
aasg2
F1.0
ssI94
(dp1391
g1
F-1.0
sg7
(lp1392
(lp1393
g111
aa(lp1394
g113
aasg13
(dp1395
g15
g16
(g20
S'\x00\x00\x00\x00\x00\x00\xe0?'
p1396
tp1397
Rp1398
sg26
(lp1399
(g113
g111
F0.5
tp1400
assg3
F0.0
sg29
(lp1401
(lp1402
g113
aa(lp1403
g111
aasg2
F1.0
ssI95
(dp1404
g1
F1.0
sg7
(lp1405
(lp1406
g261
aa(lp1407
g263
aasg13
(dp1408
g15
g16
(g20
S'\x00\x00\x00\x00\x00\x00\xe0?'
p1409
tp1410
Rp1411
sg26
(lp1412
(g261
g263
F0.5
tp1413
assg3
F1.0
sg29
(lp1414
(lp1415
g261
aa(lp1416
g263
aasg2
F1.0
ssI96
(dp1417
g1
F1.0
sg7
(lp1418
(lp1419
g231
aa(lp1420
S'easiest'
p1421
aasg13
(dp1422
g15
g16
(g20
S'\x00\x00\x00\x00\x00\x00\xe0?'
p1423
tp1424
Rp1425
sg26
(lp1426
(g231
g1421
F0.5
tp1427
assg3
F1.0
sg29
(lp1428
(lp1429
g231
aa(lp1430
g1421
aasg2
F1.0
ssI97
(dp1431
g1
F-1.0
sg7
(lp1432
(lp1433
S'cheap'
p1434
aa(lp1435
S'cheapest'
p1436
aasg13
(dp1437
g15
g16
(g20
S'\x00\x00\x00\x00\x00\x00\xe0?'
p1438
tp1439
Rp1440
sg26
(lp1441
(g1436
g1434
F0.5
tp1442
assg3
F0.0
sg29
(lp1443
(lp1444
g1436
aa(lp1445
g1434
aasg2
F1.0
ssI98
(dp1446
g1
F-1.0
sg7
(lp1447
(lp1448
S'fairer'
p1449
aa(lp1450
S'fairest'
p1451
aasg13
(dp1452
g15
g16
(g20
S'\x00\x00\x00\x00\x00\x00\xe0?'
p1453
tp1454
Rp1455
sg26
(lp1456
(g1451
g1449
F0.5
tp1457
assg3
F0.0
sg29
(lp1458
(lp1459
g1451
aa(lp1460
g1449
aasg2
F1.0
ssI99
(dp1461
g1
F-1.0
sg7
(lp1462
(lp1463
g670
aa(lp1464
g672
aasg13
(dp1465
g15
g16
(g20
S'\x00\x00\x00\x00\x00\x00\xe0?'
p1466
tp1467
Rp1468
sg26
(lp1469
(g672
g670
F0.5
tp1470
assg3
F0.0
sg29
(lp1471
(lp1472
g672
aa(lp1473
g670
aasg2
F1.0
ssI100
(dp1474
g1
F-1.0
sg7
(lp1475
(lp1476
S'old'
p1477
aa(lp1478
S'oldest'
p1479
aasg13
(dp1480
g15
g16
(g20
S'\x00\x00\x00\x00\x00\x00\xe0?'
p1481
tp1482
Rp1483
sg26
(lp1484
(g1479
g1477
F0.5
tp1485
assg3
F0.0
sg29
(lp1486
(lp1487
g1479
aa(lp1488
g1477
aasg2
F1.0
ssI101
(dp1489
g1
F-1.0
sg7
(lp1490
(lp1491
g700
aa(lp1492
g702
aasg13
(dp1493
g15
g16
(g20
S'\x00\x00\x00\x00\x00\x00\xe0?'
p1494
tp1495
Rp1496
sg26
(lp1497
(g702
g700
F0.5
tp1498
assg3
F0.0
sg29
(lp1499
(lp1500
g702
aa(lp1501
g700
aasg2
F1.0
ssI102
(dp1502
g1
F-1.0
sg7
(lp1503
(lp1504
S'stricter'
p1505
aa(lp1506
S'strictest'
p1507
aasg13
(dp1508
g15
g16
(g20
S'\x00\x00\x00\x00\x00\x00\xe0?'
p1509
tp1510
Rp1511
sg26
(lp1512
(g1507
g1505
F0.5
tp1513
assg3
F0.0
sg29
(lp1514
(lp1515
g1507
aa(lp1516
g1505
aasg2
F1.0
ssI103
(dp1517
g1
F1.0
sg7
(lp1518
(lp1519
S'holy'
p1520
aa(lp1521
S'holier'
p1522
aasg13
(dp1523
g15
g16
(g20
S'\x00\x00\x00\x00\x00\x00\xe0?'
p1524
tp1525
Rp1526
sg26
(lp1527
(g1520
g1522
F0.5
tp1528
assg3
F1.0
sg29
(lp1529
(lp1530
g1520
aa(lp1531
g1522
aasg2
F1.0
ssI104
(dp1532
g1
F-1.0
sg7
(lp1533
(lp1534
S'warmer'
p1535
aa(lp1536
S'warmest'
p1537
aasg13
(dp1538
g15
g16
(g20
S'\x00\x00\x00\x00\x00\x00\xe0?'
p1539
tp1540
Rp1541
sg26
(lp1542
(g1537
g1535
F0.5
tp1543
assg3
F0.0
sg29
(lp1544
(lp1545
g1537
aa(lp1546
g1535
aasg2
F1.0
ssI105
(dp1547
g1
F-1.0
sg7
(lp1548
(lp1549
S'cleaner'
p1550
aa(lp1551
g1179
aasg13
(dp1552
g15
g16
(g20
S'\x00\x00\x00\x00\x00\x00\xe0?'
p1553
tp1554
Rp1555
sg26
(lp1556
(g1179
g1550
F0.5
tp1557
assg3
F0.0
sg29
(lp1558
(lp1559
g1179
aa(lp1560
g1550
aasg2
F1.0
ssI106
(dp1561
g1
F-1.0
sg7
(lp1562
(lp1563
g903
aa(lp1564
g905
aasg13
(dp1565
g15
g16
(g20
S'\x00\x00\x00\x00\x00\x00\xe0?'
p1566
tp1567
Rp1568
sg26
(lp1569
(g905
g903
F0.5
tp1570
assg3
F0.0
sg29
(lp1571
(lp1572
g905
aa(lp1573
g903
aasg2
F1.0
ssI107
(dp1574
g1
F-1.0
sg7
(lp1575
(lp1576
g292
aa(lp1577
g173
aasg13
(dp1578
g15
g16
(g20
S'\x00\x00\x00\x00\x00\x00\xe0?'
p1579
tp1580
Rp1581
sg26
(lp1582
(g173
g292
F0.5
tp1583
assg3
F0.0
sg29
(lp1584
(lp1585
g173
aa(lp1586
g292
aasg2
F1.0
ssI108
(dp1587
g1
F-1.0
sg7
(lp1588
(lp1589
S'bold'
p1590
aa(lp1591
S'bolder'
p1592
aasg13
(dp1593
g15
g16
(g20
S'\x00\x00\x00\x00\x00\x00\xe0?'
p1594
tp1595
Rp1596
sg26
(lp1597
(g1592
g1590
F0.5
tp1598
assg3
F0.0
sg29
(lp1599
(lp1600
g1592
aa(lp1601
g1590
aasg2
F1.0
ssI109
(dp1602
g1
F-1.0
sg7
(lp1603
(lp1604
S'heavier'
p1605
aa(lp1606
S'heaviest'
p1607
aasg13
(dp1608
g15
g16
(g20
S'\x00\x00\x00\x00\x00\x00\xe0?'
p1609
tp1610
Rp1611
sg26
(lp1612
(g1607
g1605
F0.5
tp1613
assg3
F0.0
sg29
(lp1614
(lp1615
g1607
aa(lp1616
g1605
aasg2
F1.0
ssI110
(dp1617
g1
F-1.0
sg7
(lp1618
(lp1619
g1449
aa(lp1620
g1451
aasg13
(dp1621
g15
g16
(g20
S'\x00\x00\x00\x00\x00\x00\xe0?'
p1622
tp1623
Rp1624
sg26
(lp1625
(g1451
g1449
F0.5
tp1626
assg3
F0.0
sg29
(lp1627
(lp1628
g1451
aa(lp1629
g1449
aasg2
F1.0
ssI111
(dp1630
g1
F1.0
sg7
(lp1631
(lp1632
S'sunny'
p1633
aa(lp1634
S'sunnier'
p1635
aasg13
(dp1636
g15
g16
(g20
S'\x00\x00\x00\x00\x00\x00\xe0?'
p1637
tp1638
Rp1639
sg26
(lp1640
(g1633
g1635
F0.5
tp1641
assg3
F1.0
sg29
(lp1642
(lp1643
g1633
aa(lp1644
g1635
aasg2
F1.0
ssI112
(dp1645
g1
F-1.0
sg7
(lp1646
(lp1647
S'stupide'
p1648
aa(lp1649
S'stupider'
p1650
aasg13
(dp1651
g15
g16
(g20
S'\x00\x00\x00\x00\x00\x00\xe0?'
p1652
tp1653
Rp1654
sg26
(lp1655
(g1650
g1648
F0.5
tp1656
assg3
F0.0
sg29
(lp1657
(lp1658
g1650
aa(lp1659
g1648
aasg2
F1.0
ssI113
(dp1660
g1
F-1.0
sg7
(lp1661
(lp1662
S'sweet'
p1663
aa(lp1664
S'sweeter'
p1665
aasg13
(dp1666
g15
g16
(g20
S'\x00\x00\x00\x00\x00\x00\xe0?'
p1667
tp1668
Rp1669
sg26
(lp1670
(g1665
g1663
F0.5
tp1671
assg3
F0.0
sg29
(lp1672
(lp1673
g1665
aa(lp1674
g1663
aasg2
F1.0
ssI114
(dp1675
g1
F-1.0
sg7
(lp1676
(lp1677
g156
aa(lp1678
S'bravest'
p1679
aasg13
(dp1680
g15
g16
(g20
S'\x00\x00\x00\x00\x00\x00\xe0?'
p1681
tp1682
Rp1683
sg26
(lp1684
(g1679
g156
F0.5
tp1685
assg3
F0.0
sg29
(lp1686
(lp1687
g1679
aa(lp1688
g156
aasg2
F1.0
ssI115
(dp1689
g1
F-1.0
sg7
(lp1690
(lp1691
S'new'
p1692
aa(lp1693
g51
aasg13
(dp1694
g15
g16
(g20
S'\x00\x00\x00\x00\x00\x00\xe0?'
p1695
tp1696
Rp1697
sg26
(lp1698
(g51
g1692
F0.5
tp1699
assg3
F0.0
sg29
(lp1700
(lp1701
g51
aa(lp1702
g1692
aasg2
F1.0
ssI116
(dp1703
g1
F-1.0
sg7
(lp1704
(lp1705
S'wealthier'
p1706
aa(lp1707
S'wealthiest'
p1708
aasg13
(dp1709
g15
g16
(g20
S'\x00\x00\x00\x00\x00\x00\xe0?'
p1710
tp1711
Rp1712
sg26
(lp1713
(g1708
g1706
F0.5
tp1714
assg3
F0.0
sg29
(lp1715
(lp1716
g1708
aa(lp1717
g1706
aasg2
F1.0
ssI117
(dp1718
g1
F-1.0
sg7
(lp1719
(lp1720
S'quick'
p1721
aa(lp1722
S'quickest'
p1723
aasg13
(dp1724
g15
g16
(g20
S'\x00\x00\x00\x00\x00\x00\xe0?'
p1725
tp1726
Rp1727
sg26
(lp1728
(g1723
g1721
F0.5
tp1729
assg3
F0.0
sg29
(lp1730
(lp1731
g1723
aa(lp1732
g1721
aasg2
F1.0
ssI118
(dp1733
g1
F-1.0
sg7
(lp1734
(lp1735
S'mean'
p1736
aa(lp1737
S'meaner'
p1738
aasg13
(dp1739
g15
g16
(g20
S'\x00\x00\x00\x00\x00\x00\xe0?'
p1740
tp1741
Rp1742
sg26
(lp1743
(g1738
g1736
F0.5
tp1744
assg3
F0.0
sg29
(lp1745
(lp1746
g1738
aa(lp1747
g1736
aasg2
F1.0
ssI119
(dp1748
g1
F-1.0
sg7
(lp1749
(lp1750
S'late'
p1751
aa(lp1752
S'latest'
p1753
aasg13
(dp1754
g15
g16
(g20
S'\x00\x00\x00\x00\x00\x00\xe0?'
p1755
tp1756
Rp1757
sg26
(lp1758
(g1753
g1751
F0.5
tp1759
assg3
F0.0
sg29
(lp1760
(lp1761
g1753
aa(lp1762
g1751
aasg2
F1.0
ssI120
(dp1763
g1
F-1.0
sg7
(lp1764
(lp1765
g216
aa(lp1766
g218
aasg13
(dp1767
g15
g16
(g20
S'\x00\x00\x00\x00\x00\x00\xe0?'
p1768
tp1769
Rp1770
sg26
(lp1771
(g218
g216
F0.5
tp1772
assg3
F0.0
sg29
(lp1773
(lp1774
g218
aa(lp1775
g216
aasg2
F1.0
ssI121
(dp1776
g1
F-1.0
sg7
(lp1777
(lp1778
g1091
aa(lp1779
g1093
aasg13
(dp1780
g15
g16
(g20
S'\x00\x00\x00\x00\x00\x00\xe0?'
p1781
tp1782
Rp1783
sg26
(lp1784
(g1093
g1091
F0.5
tp1785
assg3
F0.0
sg29
(lp1786
(lp1787
g1093
aa(lp1788
g1091
aasg2
F1.0
ssI122
(dp1789
g1
F-1.0
sg7
(lp1790
(lp1791
S'scarce'
p1792
aa(lp1793
S'scarcer'
p1794
aasg13
(dp1795
g15
g16
(g20
S'\x00\x00\x00\x00\x00\x00\xe0?'
p1796
tp1797
Rp1798
sg26
(lp1799
(g1794
g1792
F0.5
tp1800
assg3
F0.0
sg29
(lp1801
(lp1802
g1794
aa(lp1803
g1792
aasg2
F1.0
ssI123
(dp1804
g1
F-1.0
sg7
(lp1805
(lp1806
g1434
aa(lp1807
g1436
aasg13
(dp1808
g15
g16
(g20
S'\x00\x00\x00\x00\x00\x00\xe0?'
p1809
tp1810
Rp1811
sg26
(lp1812
(g1436
g1434
F0.5
tp1813
assg3
F0.0
sg29
(lp1814
(lp1815
g1436
aa(lp1816
g1434
aasg2
F1.0
ssI124
(dp1817
g1
F-1.0
sg7
(lp1818
(lp1819
S'wet'
p1820
aa(lp1821
S'wetter'
p1822
aasg13
(dp1823
g15
g16
(g20
S'\x00\x00\x00\x00\x00\x00\xe0?'
p1824
tp1825
Rp1826
sg26
(lp1827
(g1822
g1820
F0.5
tp1828
assg3
F0.0
sg29
(lp1829
(lp1830
g1822
aa(lp1831
g1820
aasg2
F1.0
ssI125
(dp1832
g1
F-1.0
sg7
(lp1833
(lp1834
S'large'
p1835
aa(lp1836
S'largest'
p1837
aasg13
(dp1838
g15
g16
(g20
S'\x00\x00\x00\x00\x00\x00\xe0?'
p1839
tp1840
Rp1841
sg26
(lp1842
(g1837
g1835
F0.5
tp1843
assg3
F0.0
sg29
(lp1844
(lp1845
g1837
aa(lp1846
g1835
aasg2
F1.0
ssI126
(dp1847
g1
F1.0
sg7
(lp1848
(lp1849
S'costly'
p1850
aa(lp1851
S'costlier'
p1852
aasg13
(dp1853
g15
g16
(g20
S'\x00\x00\x00\x00\x00\x00\xe0?'
p1854
tp1855
Rp1856
sg26
(lp1857
(g1850
g1852
F0.5
tp1858
assg3
F1.0
sg29
(lp1859
(lp1860
g1850
aa(lp1861
g1852
aasg2
F1.0
ssI127
(dp1862
g1
F-1.0
sg7
(lp1863
(lp1864
S'dumb'
p1865
aa(lp1866
S'dumber'
p1867
aasg13
(dp1868
g15
g16
(g20
S'\x00\x00\x00\x00\x00\x00\xe0?'
p1869
tp1870
Rp1871
sg26
(lp1872
(g1867
g1865
F0.5
tp1873
assg3
F0.0
sg29
(lp1874
(lp1875
g1867
aa(lp1876
g1865
aasg2
F1.0
ssI128
(dp1877
g1
F-1.0
sg7
(lp1878
(lp1879
S'fuller'
p1880
aa(lp1881
g890
aasg13
(dp1882
g15
g16
(g20
S'\x00\x00\x00\x00\x00\x00\xe0?'
p1883
tp1884
Rp1885
sg26
(lp1886
(g890
g1880
F0.5
tp1887
assg3
F0.0
sg29
(lp1888
(lp1889
g890
aa(lp1890
g1880
aasg2
F1.0
ssI129
(dp1891
g1
F-1.0
sg7
(lp1892
(lp1893
g318
aa(lp1894
g320
aasg13
(dp1895
g15
g16
(g20
S'\x00\x00\x00\x00\x00\x00\xe0?'
p1896
tp1897
Rp1898
sg26
(lp1899
(g320
g318
F0.5
tp1900
assg3
F0.0
sg29
(lp1901
(lp1902
g320
aa(lp1903
g318
aasg2
F1.0
ssI130
(dp1904
g1
F-1.0
sg7
(lp1905
(lp1906
S'cheaper'
p1907
aa(lp1908
S'cheapest'
p1909
aasg13
(dp1910
g15
g16
(g20
S'\x00\x00\x00\x00\x00\x00\xe0?'
p1911
tp1912
Rp1913
sg26
(lp1914
(g1909
g1907
F0.5
tp1915
assg3
F0.0
sg29
(lp1916
(lp1917
g1909
aa(lp1918
g1907
aasg2
F1.0
ssI131
(dp1919
g1
F-1.0
sg7
(lp1920
(lp1921
g171
aa(lp1922
g173
aasg13
(dp1923
g15
g16
(g20
S'\x00\x00\x00\x00\x00\x00\xe0?'
p1924
tp1925
Rp1926
sg26
(lp1927
(g173
g171
F0.5
tp1928
assg3
F0.0
sg29
(lp1929
(lp1930
g173
aa(lp1931
g171
aasg2
F1.0
ssI132
(dp1932
g1
F-1.0
sg7
(lp1933
(lp1934
g961
aa(lp1935
g963
aasg13
(dp1936
g15
g16
(g20
S'\x00\x00\x00\x00\x00\x00\xe0?'
p1937
tp1938
Rp1939
sg26
(lp1940
(g963
g961
F0.5
tp1941
assg3
F0.0
sg29
(lp1942
(lp1943
g963
aa(lp1944
g961
aasg2
F1.0
ssI133
(dp1945
g1
F-1.0
sg7
(lp1946
(lp1947
S'clean'
p1948
aa(lp1949
S'cleaner'
p1950
aasg13
(dp1951
g15
g16
(g20
S'\x00\x00\x00\x00\x00\x00\xe0?'
p1952
tp1953
Rp1954
sg26
(lp1955
(g1950
g1948
F0.5
tp1956
assg3
F0.0
sg29
(lp1957
(lp1958
g1950
aa(lp1959
g1948
aasg2
F1.0
ssI134
(dp1960
g1
F-1.0
sg7
(lp1961
(lp1962
g1248
aa(lp1963
g1250
aasg13
(dp1964
g15
g16
(g20
S'\x00\x00\x00\x00\x00\x00\xe0?'
p1965
tp1966
Rp1967
sg26
(lp1968
(g1250
g1248
F0.5
tp1969
assg3
F0.0
sg29
(lp1970
(lp1971
g1250
aa(lp1972
g1248
aasg2
F1.0
ssI135
(dp1973
g1
F-1.0
sg7
(lp1974
(lp1975
g759
aa(lp1976
g761
aasg13
(dp1977
g15
g16
(g20
S'\x00\x00\x00\x00\x00\x00\xe0?'
p1978
tp1979
Rp1980
sg26
(lp1981
(g761
g759
F0.5
tp1982
assg3
F0.0
sg29
(lp1983
(lp1984
g761
aa(lp1985
g759
aasg2
F1.0
ssI136
(dp1986
g1
F-1.0
sg7
(lp1987
(lp1988
g156
aa(lp1989
g158
aasg13
(dp1990
g15
g16
(g20
S'\x00\x00\x00\x00\x00\x00\xe0?'
p1991
tp1992
Rp1993
sg26
(lp1994
(g158
g156
F0.5
tp1995
assg3
F0.0
sg29
(lp1996
(lp1997
g158
aa(lp1998
g156
aasg2
F1.0
ssI137
(dp1999
g1
F-1.0
sg7
(lp2000
(lp2001
g126
aa(lp2002
g128
aasg13
(dp2003
g15
g16
(g20
S'\x00\x00\x00\x00\x00\x00\xe0?'
p2004
tp2005
Rp2006
sg26
(lp2007
(g128
g126
F0.5
tp2008
assg3
F0.0
sg29
(lp2009
(lp2010
g128
aa(lp2011
g126
aasg2
F1.0
ssI138
(dp2012
g1
F-1.0
sg7
(lp2013
(lp2014
g66
aa(lp2015
g68
aasg13
(dp2016
g15
g16
(g20
S'\x00\x00\x00\x00\x00\x00\xe0?'
p2017
tp2018
Rp2019
sg26
(lp2020
(g68
g66
F0.5
tp2021
assg3
F0.0
sg29
(lp2022
(lp2023
g68
aa(lp2024
g66
aasg2
F1.0
ssI139
(dp2025
g1
F-1.0
sg7
(lp2026
(lp2027
S'mild'
p2028
aa(lp2029
S'milder'
p2030
aasg13
(dp2031
g15
g16
(g20
S'\x00\x00\x00\x00\x00\x00\xe0?'
p2032
tp2033
Rp2034
sg26
(lp2035
(g2030
g2028
F0.5
tp2036
assg3
F0.0
sg29
(lp2037
(lp2038
g2030
aa(lp2039
g2028
aasg2
F1.0
ssI140
(dp2040
g1
F-1.0
sg7
(lp2041
(lp2042
S'brave'
p2043
aa(lp2044
S'braver'
p2045
aasg13
(dp2046
g15
g16
(g20
S'\x00\x00\x00\x00\x00\x00\xe0?'
p2047
tp2048
Rp2049
sg26
(lp2050
(g2045
g2043
F0.5
tp2051
assg3
F0.0
sg29
(lp2052
(lp2053
g2045
aa(lp2054
g2043
aasg2
F1.0
ssI141
(dp2055
g1
F-1.0
sg7
(lp2056
(lp2057
S'shorter'
p2058
aa(lp2059
S'shortest'
p2060
aasg13
(dp2061
g15
g16
(g20
S'\x00\x00\x00\x00\x00\x00\xe0?'
p2062
tp2063
Rp2064
sg26
(lp2065
(g2060
g2058
F0.5
tp2066
assg3
F0.0
sg29
(lp2067
(lp2068
g2060
aa(lp2069
g2058
aasg2
F1.0
ssI142
(dp2070
g1
F-1.0
sg7
(lp2071
(lp2072
g1907
aa(lp2073
g1909
aasg13
(dp2074
g15
g16
(g20
S'\x00\x00\x00\x00\x00\x00\xe0?'
p2075
tp2076
Rp2077
sg26
(lp2078
(g1909
g1907
F0.5
tp2079
assg3
F0.0
sg29
(lp2080
(lp2081
g1909
aa(lp2082
g1907
aasg2
F1.0
ssI143
(dp2083
g1
F-1.0
sg7
(lp2084
(lp2085
S'cheap'
p2086
aa(lp2087
S'cheapest'
p2088
aasg13
(dp2089
g15
g16
(g20
S'\x00\x00\x00\x00\x00\x00\xe0?'
p2090
tp2091
Rp2092
sg26
(lp2093
(g2088
g2086
F0.5
tp2094
assg3
F0.0
sg29
(lp2095
(lp2096
g2088
aa(lp2097
g2086
aasg2
F1.0
ssI144
(dp2098
g1
F-1.0
sg7
(lp2099
(lp2100
g1721
aa(lp2101
g1723
aasg13
(dp2102
g15
g16
(g20
S'\x00\x00\x00\x00\x00\x00\xe0?'
p2103
tp2104
Rp2105
sg26
(lp2106
(g1723
g1721
F0.5
tp2107
assg3
F0.0
sg29
(lp2108
(lp2109
g1723
aa(lp2110
g1721
aasg2
F1.0
ssI145
(dp2111
g1
F-1.0
sg7
(lp2112
(lp2113
g1865
aa(lp2114
g1867
aasg13
(dp2115
g15
g16
(g20
S'\x00\x00\x00\x00\x00\x00\xe0?'
p2116
tp2117
Rp2118
sg26
(lp2119
(g1867
g1865
F0.5
tp2120
assg3
F0.0
sg29
(lp2121
(lp2122
g1867
aa(lp2123
g1865
aasg2
F1.0
ssI146
(dp2124
g1
F-1.0
sg7
(lp2125
(lp2126
g81
aa(lp2127
g83
aasg13
(dp2128
g15
g16
(g20
S'\x00\x00\x00\x00\x00\x00\xe0?'
p2129
tp2130
Rp2131
sg26
(lp2132
(g83
g81
F0.5
tp2133
assg3
F0.0
sg29
(lp2134
(lp2135
g83
aa(lp2136
g81
aasg2
F1.0
ssI147
(dp2137
g1
F-1.0
sg7
(lp2138
(lp2139
S'grave'
p2140
aa(lp2141
S'graver'
p2142
aasg13
(dp2143
g15
g16
(g20
S'\x00\x00\x00\x00\x00\x00\xe0?'
p2144
tp2145
Rp2146
sg26
(lp2147
(g2142
g2140
F0.5
tp2148
assg3
F0.0
sg29
(lp2149
(lp2150
g2142
aa(lp2151
g2140
aasg2
F1.0
ssI148
(dp2152
g1
F-1.0
sg7
(lp2153
(lp2154
g171
aa(lp2155
g292
aasg13
(dp2156
g15
g16
(g20
S'\x00\x00\x00\x00\x00\x00\xe0?'
p2157
tp2158
Rp2159
sg26
(lp2160
(g292
g171
F0.5
tp2161
assg3
F0.0
sg29
(lp2162
(lp2163
g292
aa(lp2164
g171
aasg2
F1.0
ssI149
(dp2165
g1
F-1.0
sg7
(lp2166
(lp2167
g918
aa(lp2168
g920
aasg13
(dp2169
g15
g16
(g20
S'\x00\x00\x00\x00\x00\x00\xe0?'
p2170
tp2171
Rp2172
sg26
(lp2173
(g920
g918
F0.5
tp2174
assg3
F0.0
sg29
(lp2175
(lp2176
g920
aa(lp2177
g918
aasg2
F1.0
ssI150
(dp2178
g1
F-1.0
sg7
(lp2179
(lp2180
g158
aa(lp2181
g1679
aasg13
(dp2182
g15
g16
(g20
S'\x00\x00\x00\x00\x00\x00\xe0?'
p2183
tp2184
Rp2185
sg26
(lp2186
(g1679
g158
F0.5
tp2187
assg3
F0.0
sg29
(lp2188
(lp2189
g1679
aa(lp2190
g158
aasg2
F1.0
ssI151
(dp2191
g1
F-1.0
sg7
(lp2192
(lp2193
S'stark'
p2194
aa(lp2195
S'starker'
p2196
aasg13
(dp2197
g15
g16
(g20
S'\x00\x00\x00\x00\x00\x00\xe0?'
p2198
tp2199
Rp2200
sg26
(lp2201
(g2196
g2194
F0.5
tp2202
assg3
F0.0
sg29
(lp2203
(lp2204
g2196
aa(lp2205
g2194
aasg2
F1.0
ssI152
(dp2206
g1
F-1.0
sg7
(lp2207
(lp2208
S'brighter'
p2209
aa(lp2210
g627
aasg13
(dp2211
g15
g16
(g20
S'\x00\x00\x00\x00\x00\x00\xe0?'
p2212
tp2213
Rp2214
sg26
(lp2215
(g627
g2209
F0.5
tp2216
assg3
F0.0
sg29
(lp2217
(lp2218
g627
aa(lp2219
g2209
aasg2
F1.0
ssI153
(dp2220
g1
F-1.0
sg7
(lp2221
(lp2222
S'fierce'
p2223
aa(lp2224
S'fiercer'
p2225
aasg13
(dp2226
g15
g16
(g20
S'\x00\x00\x00\x00\x00\x00\xe0?'
p2227
tp2228
Rp2229
sg26
(lp2230
(g2225
g2223
F0.5
tp2231
assg3
F0.0
sg29
(lp2232
(lp2233
g2225
aa(lp2234
g2223
aasg2
F1.0
ssI154
(dp2235
g1
F-1.0
sg7
(lp2236
(lp2237
g730
aa(lp2238
g732
aasg13
(dp2239
g15
g16
(g20
S'\x00\x00\x00\x00\x00\x00\xe0?'
p2240
tp2241
Rp2242
sg26
(lp2243
(g732
g730
F0.5
tp2244
assg3
F0.0
sg29
(lp2245
(lp2246
g732
aa(lp2247
g730
aasg2
F1.0
ssI155
(dp2248
g1
F-1.0
sg7
(lp2249
(lp2250
g888
aa(lp2251
g1880
aasg13
(dp2252
g15
g16
(g20
S'\x00\x00\x00\x00\x00\x00\xe0?'
p2253
tp2254
Rp2255
sg26
(lp2256
(g1880
g888
F0.5
tp2257
assg3
F0.0
sg29
(lp2258
(lp2259
g1880
aa(lp2260
g888
aasg2
F1.0
ssI156
(dp2261
g1
F1.0
sg7
(lp2262
(lp2263
S'dirty'
p2264
aa(lp2265
S'dirtier'
p2266
aasg13
(dp2267
g15
g16
(g20
S'\x00\x00\x00\x00\x00\x00\xe0?'
p2268
tp2269
Rp2270
sg26
(lp2271
(g2264
g2266
F0.5
tp2272
assg3
F1.0
sg29
(lp2273
(lp2274
g2264
aa(lp2275
g2266
aasg2
F1.0
ssI157
(dp2276
g1
F-1.0
sg7
(lp2277
(lp2278
S'smarter'
p2279
aa(lp2280
S'smartest'
p2281
aasg13
(dp2282
g15
g16
(g20
S'\x00\x00\x00\x00\x00\x00\xe0?'
p2283
tp2284
Rp2285
sg26
(lp2286
(g2281
g2279
F0.5
tp2287
assg3
F0.0
sg29
(lp2288
(lp2289
g2281
aa(lp2290
g2279
aasg2
F1.0
ssI158
(dp2291
g1
F-1.0
sg7
(lp2292
(lp2293
g1031
aa(lp2294
g1033
aasg13
(dp2295
g15
g16
(g20
S'\x00\x00\x00\x00\x00\x00\xe0?'
p2296
tp2297
Rp2298
sg26
(lp2299
(g1033
g1031
F0.5
tp2300
assg3
F0.0
sg29
(lp2301
(lp2302
g1033
aa(lp2303
g1031
aasg2
F1.0
ssI159
(dp2304
g1
F-1.0
sg7
(lp2305
(lp2306
g2194
aa(lp2307
g2196
aasg13
(dp2308
g15
g16
(g20
S'\x00\x00\x00\x00\x00\x00\xe0?'
p2309
tp2310
Rp2311
sg26
(lp2312
(g2196
g2194
F0.5
tp2313
assg3
F0.0
sg29
(lp2314
(lp2315
g2196
aa(lp2316
g2194
aasg2
F1.0
ssI160
(dp2317
g1
F-1.0
sg7
(lp2318
(lp2319
S'happier'
p2320
aa(lp2321
S'happiest'
p2322
aasg13
(dp2323
g15
g16
(g20
S'\x00\x00\x00\x00\x00\x00\xe0?'
p2324
tp2325
Rp2326
sg26
(lp2327
(g2322
g2320
F0.5
tp2328
assg3
F0.0
sg29
(lp2329
(lp2330
g2322
aa(lp2331
g2320
aasg2
F1.0
ssI161
(dp2332
g1
F-1.0
sg7
(lp2333
(lp2334
S'hon'
p2335
aa(lp2336
S'honest'
p2337
aasg13
(dp2338
g15
g16
(g20
S'\x00\x00\x00\x00\x00\x00\xe0?'
p2339
tp2340
Rp2341
sg26
(lp2342
(g2337
g2335
F0.5
tp2343
assg3
F0.0
sg29
(lp2344
(lp2345
g2337
aa(lp2346
g2335
aasg2
F1.0
ssI162
(dp2347
g1
F-1.0
sg7
(lp2348
(lp2349
S'brighter'
p2350
aa(lp2351
S'brightest'
p2352
aasg13
(dp2353
g15
g16
(g20
S'\x00\x00\x00\x00\x00\x00\xe0?'
p2354
tp2355
Rp2356
sg26
(lp2357
(g2352
g2350
F0.5
tp2358
assg3
F0.0
sg29
(lp2359
(lp2360
g2352
aa(lp2361
g2350
aasg2
F1.0
ssI163
(dp2362
g1
F-1.0
sg7
(lp2363
(lp2364
g522
aa(lp2365
g524
aasg13
(dp2366
g15
g16
(g20
S'\x00\x00\x00\x00\x00\x00\xe0?'
p2367
tp2368
Rp2369
sg26
(lp2370
(g524
g522
F0.5
tp2371
assg3
F0.0
sg29
(lp2372
(lp2373
g524
aa(lp2374
g522
aasg2
F1.0
ssI164
(dp2375
g1
F-1.0
sg7
(lp2376
(lp2377
g1820
aa(lp2378
g1822
aasg13
(dp2379
g15
g16
(g20
S'\x00\x00\x00\x00\x00\x00\xe0?'
p2380
tp2381
Rp2382
sg26
(lp2383
(g1822
g1820
F0.5
tp2384
assg3
F0.0
sg29
(lp2385
(lp2386
g1822
aa(lp2387
g1820
aasg2
F1.0
ssI165
(dp2388
g1
F-1.0
sg7
(lp2389
(lp2390
g1550
aa(lp2391
g1179
aasg13
(dp2392
g15
g16
(g20
S'\x00\x00\x00\x00\x00\x00\xe0?'
p2393
tp2394
Rp2395
sg26
(lp2396
(g1179
g1550
F0.5
tp2397
assg3
F0.0
sg29
(lp2398
(lp2399
g1179
aa(lp2400
g1550
aasg2
F1.0
ssI166
(dp2401
g1
F-1.0
sg7
(lp2402
(lp2403
S'ill'
p2404
aa(lp2405
S'worse'
p2406
aasg13
(dp2407
g15
g16
(g20
S'\x00\x00\x00\x00\x00\x00\xe0?'
p2408
tp2409
Rp2410
sg26
(lp2411
(g2406
g2404
F0.5
tp2412
assg3
F0.0
sg29
(lp2413
(lp2414
g2406
aa(lp2415
g2404
aasg2
F1.0
ssI167
(dp2416
g1
F1.0
sg7
(lp2417
(lp2418
g1850
aa(lp2419
g1852
aasg13
(dp2420
g15
g16
(g20
S'\x00\x00\x00\x00\x00\x00\xe0?'
p2421
tp2422
Rp2423
sg26
(lp2424
(g1850
g1852
F0.5
tp2425
assg3
F1.0
sg29
(lp2426
(lp2427
g1850
aa(lp2428
g1852
aasg2
F1.0
ssI168
(dp2429
g1
F-1.0
sg7
(lp2430
(lp2431
S'ill'
p2432
aa(lp2433
S'worst'
p2434
aasg13
(dp2435
g15
g16
(g20
S'\x00\x00\x00\x00\x00\x00\xe0?'
p2436
tp2437
Rp2438
sg26
(lp2439
(g2434
g2432
F0.5
tp2440
assg3
F0.0
sg29
(lp2441
(lp2442
g2434
aa(lp2443
g2432
aasg2
F1.0
ssI169
(dp2444
g1
F-1.0
sg7
(lp2445
(lp2446
S'cheaper'
p2447
aa(lp2448
g1436
aasg13
(dp2449
g15
g16
(g20
S'\x00\x00\x00\x00\x00\x00\xe0?'
p2450
tp2451
Rp2452
sg26
(lp2453
(g1436
g2447
F0.5
tp2454
assg3
F0.0
sg29
(lp2455
(lp2456
g1436
aa(lp2457
g2447
aasg2
F1.0
ssI170
(dp2458
g1
F-1.0
sg7
(lp2459
(lp2460
g774
aa(lp2461
g776
aasg13
(dp2462
g15
g16
(g20
S'\x00\x00\x00\x00\x00\x00\xe0?'
p2463
tp2464
Rp2465
sg26
(lp2466
(g776
g774
F0.5
tp2467
assg3
F0.0
sg29
(lp2468
(lp2469
g776
aa(lp2470
g774
aasg2
F1.0
ssI171
(dp2471
g1
F-1.0
sg7
(lp2472
(lp2473
S'loose'
p2474
aa(lp2475
S'looser'
p2476
aasg13
(dp2477
g15
g16
(g20
S'\x00\x00\x00\x00\x00\x00\xe0?'
p2478
tp2479
Rp2480
sg26
(lp2481
(g2476
g2474
F0.5
tp2482
assg3
F0.0
sg29
(lp2483
(lp2484
g2476
aa(lp2485
g2474
aasg2
F1.0
ssI172
(dp2486
g1
F-1.0
sg7
(lp2487
(lp2488
g595
aa(lp2489
g597
aasg13
(dp2490
g15
g16
(g20
S'\x00\x00\x00\x00\x00\x00\xe0?'
p2491
tp2492
Rp2493
sg26
(lp2494
(g597
g595
F0.5
tp2495
assg3
F0.0
sg29
(lp2496
(lp2497
g597
aa(lp2498
g595
aasg2
F1.0
ssI173
(dp2499
g1
F-1.0
sg7
(lp2500
(lp2501
g1663
aa(lp2502
g1665
aasg13
(dp2503
g15
g16
(g20
S'\x00\x00\x00\x00\x00\x00\xe0?'
p2504
tp2505
Rp2506
sg26
(lp2507
(g1665
g1663
F0.5
tp2508
assg3
F0.0
sg29
(lp2509
(lp2510
g1665
aa(lp2511
g1663
aasg2
F1.0
ssI174
(dp2512
g1
F-1.0
sg7
(lp2513
(lp2514
g1692
aa(lp2515
g51
aasg13
(dp2516
g15
g16
(g20
S'\x00\x00\x00\x00\x00\x00\xe0?'
p2517
tp2518
Rp2519
sg26
(lp2520
(g51
g1692
F0.5
tp2521
assg3
F0.0
sg29
(lp2522
(lp2523
g51
aa(lp2524
g1692
aasg2
F1.0
ssI175
(dp2525
g1
F-1.0
sg7
(lp2526
(lp2527
g1792
aa(lp2528
g1794
aasg13
(dp2529
g15
g16
(g20
S'\x00\x00\x00\x00\x00\x00\xe0?'
p2530
tp2531
Rp2532
sg26
(lp2533
(g1794
g1792
F0.5
tp2534
assg3
F0.0
sg29
(lp2535
(lp2536
g1794
aa(lp2537
g1792
aasg2
F1.0
ssI176
(dp2538
g1
F-1.0
sg7
(lp2539
(lp2540
g1147
aa(lp2541
g1149
aasg13
(dp2542
g15
g16
(g20
S'\x00\x00\x00\x00\x00\x00\xe0?'
p2543
tp2544
Rp2545
sg26
(lp2546
(g1149
g1147
F0.5
tp2547
assg3
F0.0
sg29
(lp2548
(lp2549
g1149
aa(lp2550
g1147
aasg2
F1.0
ssI177
(dp2551
g1
F-1.0
sg7
(lp2552
(lp2553
S'clean'
p2554
aa(lp2555
S'cleanest'
p2556
aasg13
(dp2557
g15
g16
(g20
S'\x00\x00\x00\x00\x00\x00\xe0?'
p2558
tp2559
Rp2560
sg26
(lp2561
(g2556
g2554
F0.5
tp2562
assg3
F0.0
sg29
(lp2563
(lp2564
g2556
aa(lp2565
g2554
aasg2
F1.0
ssI178
(dp2566
g1
F-1.0
sg7
(lp2567
(lp2568
S'deep'
p2569
aa(lp2570
S'deepest'
p2571
aasg13
(dp2572
g15
g16
(g20
S'\x00\x00\x00\x00\x00\x00\xe0?'
p2573
tp2574
Rp2575
sg26
(lp2576
(g2571
g2569
F0.5
tp2577
assg3
F0.0
sg29
(lp2578
(lp2579
g2571
aa(lp2580
g2569
aasg2
F1.0
ssI179
(dp2581
g1
F-1.0
sg7
(lp2582
(lp2583
g2140
aa(lp2584
g2142
aasg13
(dp2585
g15
g16
(g20
S'\x00\x00\x00\x00\x00\x00\xe0?'
p2586
tp2587
Rp2588
sg26
(lp2589
(g2142
g2140
F0.5
tp2590
assg3
F0.0
sg29
(lp2591
(lp2592
g2142
aa(lp2593
g2140
aasg2
F1.0
ssI180
(dp2594
g1
F-1.0
sg7
(lp2595
(lp2596
g1648
aa(lp2597
g1650
aasg13
(dp2598
g15
g16
(g20
S'\x00\x00\x00\x00\x00\x00\xe0?'
p2599
tp2600
Rp2601
sg26
(lp2602
(g1650
g1648
F0.5
tp2603
assg3
F0.0
sg29
(lp2604
(lp2605
g1650
aa(lp2606
g1648
aasg2
F1.0
ssI181
(dp2607
g1
F-1.0
sg7
(lp2608
(lp2609
g1207
aa(lp2610
g1209
aasg13
(dp2611
g15
g16
(g20
S'\x00\x00\x00\x00\x00\x00\xe0?'
p2612
tp2613
Rp2614
sg26
(lp2615
(g1209
g1207
F0.5
tp2616
assg3
F0.0
sg29
(lp2617
(lp2618
g1209
aa(lp2619
g1207
aasg2
F1.0
ssI182
(dp2620
g1
F-1.0
sg7
(lp2621
(lp2622
g2554
aa(lp2623
g2556
aasg13
(dp2624
g15
g16
(g20
S'\x00\x00\x00\x00\x00\x00\xe0?'
p2625
tp2626
Rp2627
sg26
(lp2628
(g2556
g2554
F0.5
tp2629
assg3
F0.0
sg29
(lp2630
(lp2631
g2556
aa(lp2632
g2554
aasg2
F1.0
ssI183
(dp2633
g1
F-1.0
sg7
(lp2634
(lp2635
g2043
aa(lp2636
g2045
aasg13
(dp2637
g15
g16
(g20
S'\x00\x00\x00\x00\x00\x00\xe0?'
p2638
tp2639
Rp2640
sg26
(lp2641
(g2045
g2043
F0.5
tp2642
assg3
F0.0
sg29
(lp2643
(lp2644
g2045
aa(lp2645
g2043
aasg2
F1.0
ssI184
(dp2646
g1
F-1.0
sg7
(lp2647
(lp2648
g2432
aa(lp2649
g2434
aasg13
(dp2650
g15
g16
(g20
S'\x00\x00\x00\x00\x00\x00\xe0?'
p2651
tp2652
Rp2653
sg26
(lp2654
(g2434
g2432
F0.5
tp2655
assg3
F0.0
sg29
(lp2656
(lp2657
g2434
aa(lp2658
g2432
aasg2
F1.0
ssI185
(dp2659
g1
F-1.0
sg7
(lp2660
(lp2661
g1535
aa(lp2662
g1537
aasg13
(dp2663
g15
g16
(g20
S'\x00\x00\x00\x00\x00\x00\xe0?'
p2664
tp2665
Rp2666
sg26
(lp2667
(g1537
g1535
F0.5
tp2668
assg3
F0.0
sg29
(lp2669
(lp2670
g1537
aa(lp2671
g1535
aasg2
F1.0
ssI186
(dp2672
g1
F-1.0
sg7
(lp2673
(lp2674
g464
aa(lp2675
g466
aasg13
(dp2676
g15
g16
(g20
S'\x00\x00\x00\x00\x00\x00\xe0?'
p2677
tp2678
Rp2679
sg26
(lp2680
(g466
g464
F0.5
tp2681
assg3
F0.0
sg29
(lp2682
(lp2683
g466
aa(lp2684
g464
aasg2
F1.0
ssI187
(dp2685
g1
F-1.0
sg7
(lp2686
(lp2687
S'safe'
p2688
aa(lp2689
S'safest'
p2690
aasg13
(dp2691
g15
g16
(g20
S'\x00\x00\x00\x00\x00\x00\xe0?'
p2692
tp2693
Rp2694
sg26
(lp2695
(g2690
g2688
F0.5
tp2696
assg3
F0.0
sg29
(lp2697
(lp2698
g2690
aa(lp2699
g2688
aasg2
F1.0
ssI188
(dp2700
g1
F-1.0
sg7
(lp2701
(lp2702
g1319
aa(lp2703
g1321
aasg13
(dp2704
g15
g16
(g20
S'\x00\x00\x00\x00\x00\x00\xe0?'
p2705
tp2706
Rp2707
sg26
(lp2708
(g1321
g1319
F0.5
tp2709
assg3
F0.0
sg29
(lp2710
(lp2711
g1321
aa(lp2712
g1319
aasg2
F1.0
ssI189
(dp2713
g1
F-1.0
sg7
(lp2714
(lp2715
g1364
aa(lp2716
g1366
aasg13
(dp2717
g15
g16
(g20
S'\x00\x00\x00\x00\x00\x00\xe0?'
p2718
tp2719
Rp2720
sg26
(lp2721
(g1366
g1364
F0.5
tp2722
assg3
F0.0
sg29
(lp2723
(lp2724
g1366
aa(lp2725
g1364
aasg2
F1.0
ssI190
(dp2726
g1
F-1.0
sg7
(lp2727
(lp2728
g2058
aa(lp2729
g2060
aasg13
(dp2730
g15
g16
(g20
S'\x00\x00\x00\x00\x00\x00\xe0?'
p2731
tp2732
Rp2733
sg26
(lp2734
(g2060
g2058
F0.5
tp2735
assg3
F0.0
sg29
(lp2736
(lp2737
g2060
aa(lp2738
g2058
aasg2
F1.0
ssI191
(dp2739
g1
F-1.0
sg7
(lp2740
(lp2741
g158
aa(lp2742
g1679
aasg13
(dp2743
g15
g16
(g20
S'\x00\x00\x00\x00\x00\x00\xe0?'
p2744
tp2745
Rp2746
sg26
(lp2747
(g1679
g158
F0.5
tp2748
assg3
F0.0
sg29
(lp2749
(lp2750
g1679
aa(lp2751
g158
aasg2
F1.0
ssI192
(dp2752
g1
F1.0
sg7
(lp2753
(lp2754
g231
aa(lp2755
g1421
aasg13
(dp2756
g15
g16
(g20
S'\x00\x00\x00\x00\x00\x00\xe0?'
p2757
tp2758
Rp2759
sg26
(lp2760
(g231
g1421
F0.5
tp2761
assg3
F1.0
sg29
(lp2762
(lp2763
g231
aa(lp2764
g1421
aasg2
F1.0
ssI193
(dp2765
g1
F1.0
sg7
(lp2766
(lp2767
S'heavy'
p2768
aa(lp2769
S'heaviest'
p2770
aasg13
(dp2771
g15
g16
(g20
S'\x00\x00\x00\x00\x00\x00\xe0?'
p2772
tp2773
Rp2774
sg26
(lp2775
(g2768
g2770
F0.5
tp2776
assg3
F1.0
sg29
(lp2777
(lp2778
g2768
aa(lp2779
g2770
aasg2
F1.0
ssI194
(dp2780
g1
F-1.0
sg7
(lp2781
(lp2782
g816
aa(lp2783
g818
aasg13
(dp2784
g15
g16
(g20
S'\x00\x00\x00\x00\x00\x00\xe0?'
p2785
tp2786
Rp2787
sg26
(lp2788
(g818
g816
F0.5
tp2789
assg3
F0.0
sg29
(lp2790
(lp2791
g818
aa(lp2792
g816
aasg2
F1.0
ssI195
(dp2793
g1
F1.0
sg7
(lp2794
(lp2795
g1046
aa(lp2796
g1048
aasg13
(dp2797
g15
g16
(g20
S'\x00\x00\x00\x00\x00\x00\xe0?'
p2798
tp2799
Rp2800
sg26
(lp2801
(g1046
g1048
F0.5
tp2802
assg3
F1.0
sg29
(lp2803
(lp2804
g1046
aa(lp2805
g1048
aasg2
F1.0
ssI196
(dp2806
g1
F-1.0
sg7
(lp2807
(lp2808
g2569
aa(lp2809
g2571
aasg13
(dp2810
g15
g16
(g20
S'\x00\x00\x00\x00\x00\x00\xe0?'
p2811
tp2812
Rp2813
sg26
(lp2814
(g2571
g2569
F0.5
tp2815
assg3
F0.0
sg29
(lp2816
(lp2817
g2571
aa(lp2818
g2569
aasg2
F1.0
ssI197
(dp2819
g1
F-1.0
sg7
(lp2820
(lp2821
g625
aa(lp2822
g627
aasg13
(dp2823
g15
g16
(g20
S'\x00\x00\x00\x00\x00\x00\xe0?'
p2824
tp2825
Rp2826
sg26
(lp2827
(g627
g625
F0.5
tp2828
assg3
F0.0
sg29
(lp2829
(lp2830
g627
aa(lp2831
g625
aasg2
F1.0
ssI198
(dp2832
g1
F-1.0
sg7
(lp2833
(lp2834
g1192
aa(lp2835
g1194
aasg13
(dp2836
g15
g16
(g20
S'\x00\x00\x00\x00\x00\x00\xe0?'
p2837
tp2838
Rp2839
sg26
(lp2840
(g1194
g1192
F0.5
tp2841
assg3
F0.0
sg29
(lp2842
(lp2843
g1194
aa(lp2844
g1192
aasg2
F1.0
ssI199
(dp2845
g1
F-1.0
sg7
(lp2846
(lp2847
g436
aa(lp2848
g438
aasg13
(dp2849
g15
g16
(g20
S'\x00\x00\x00\x00\x00\x00\xe0?'
p2850
tp2851
Rp2852
sg26
(lp2853
(g438
g436
F0.5
tp2854
assg3
F0.0
sg29
(lp2855
(lp2856
g438
aa(lp2857
g436
aasg2
F1.0
ssI200
(dp2858
g1
F-1.0
sg7
(lp2859
(lp2860
g1736
aa(lp2861
g1738
aasg13
(dp2862
g15
g16
(g20
S'\x00\x00\x00\x00\x00\x00\xe0?'
p2863
tp2864
Rp2865
sg26
(lp2866
(g1738
g1736
F0.5
tp2867
assg3
F0.0
sg29
(lp2868
(lp2869
g1738
aa(lp2870
g1736
aasg2
F1.0
ssI201
(dp2871
g1
F1.0
sg7
(lp2872
(lp2873
g873
aa(lp2874
g875
aasg13
(dp2875
g15
g16
(g20
S'\x00\x00\x00\x00\x00\x00\xe0?'
p2876
tp2877
Rp2878
sg26
(lp2879
(g873
g875
F0.5
tp2880
assg3
F1.0
sg29
(lp2881
(lp2882
g873
aa(lp2883
g875
aasg2
F1.0
ssI202
(dp2884
g1
F1.0
sg7
(lp2885
(lp2886
g976
aa(lp2887
g978
aasg13
(dp2888
g15
g16
(g20
S'\x00\x00\x00\x00\x00\x00\xe0?'
p2889
tp2890
Rp2891
sg26
(lp2892
(g976
g978
F0.5
tp2893
assg3
F1.0
sg29
(lp2894
(lp2895
g976
aa(lp2896
g978
aasg2
F1.0
ssI203
(dp2897
g1
F-1.0
sg7
(lp2898
(lp2899
g1590
aa(lp2900
g1592
aasg13
(dp2901
g15
g16
(g20
S'\x00\x00\x00\x00\x00\x00\xe0?'
p2902
tp2903
Rp2904
sg26
(lp2905
(g1592
g1590
F0.5
tp2906
assg3
F0.0
sg29
(lp2907
(lp2908
g1592
aa(lp2909
g1590
aasg2
F1.0
ssI204
(dp2910
g1
F-1.0
sg7
(lp2911
(lp2912
g1706
aa(lp2913
g1708
aasg13
(dp2914
g15
g16
(g20
S'\x00\x00\x00\x00\x00\x00\xe0?'
p2915
tp2916
Rp2917
sg26
(lp2918
(g1708
g1706
F0.5
tp2919
assg3
F0.0
sg29
(lp2920
(lp2921
g1708
aa(lp2922
g1706
aasg2
F1.0
ssI205
(dp2923
g1
F-1.0
sg7
(lp2924
(lp2925
g1334
aa(lp2926
g1336
aasg13
(dp2927
g15
g16
(g20
S'\x00\x00\x00\x00\x00\x00\xe0?'
p2928
tp2929
Rp2930
sg26
(lp2931
(g1336
g1334
F0.5
tp2932
assg3
F0.0
sg29
(lp2933
(lp2934
g1336
aa(lp2935
g1334
aasg2
F1.0
ssI206
(dp2936
g1
F-1.0
sg7
(lp2937
(lp2938
S'full'
p2939
aa(lp2940
S'fullest'
p2941
aasg13
(dp2942
g15
g16
(g20
S'\x00\x00\x00\x00\x00\x00\xe0?'
p2943
tp2944
Rp2945
sg26
(lp2946
(g2941
g2939
F0.5
tp2947
assg3
F0.0
sg29
(lp2948
(lp2949
g2941
aa(lp2950
g2939
aasg2
F1.0
ssI207
(dp2951
g1
F-1.0
sg7
(lp2952
(lp2953
g1477
aa(lp2954
g1479
aasg13
(dp2955
g15
g16
(g20
S'\x00\x00\x00\x00\x00\x00\xe0?'
p2956
tp2957
Rp2958
sg26
(lp2959
(g1479
g1477
F0.5
tp2960
assg3
F0.0
sg29
(lp2961
(lp2962
g1479
aa(lp2963
g1477
aasg2
F1.0
ssI208
(dp2964
g1
F-1.0
sg7
(lp2965
(lp2966
g10
aa(lp2967
g12
aasg13
(dp2968
g15
g16
(g20
S'\x00\x00\x00\x00\x00\x00\xe0?'
p2969
tp2970
Rp2971
sg26
(lp2972
(g12
g10
F0.5
tp2973
assg3
F0.0
sg29
(lp2974
(lp2975
g12
aa(lp2976
g10
aasg2
F1.0
ssI209
(dp2977
g1
F-1.0
sg7
(lp2978
(lp2979
g946
aa(lp2980
g948
aasg13
(dp2981
g15
g16
(g20
S'\x00\x00\x00\x00\x00\x00\xe0?'
p2982
tp2983
Rp2984
sg26
(lp2985
(g948
g946
F0.5
tp2986
assg3
F0.0
sg29
(lp2987
(lp2988
g948
aa(lp2989
g946
aasg2
F1.0
ssI210
(dp2990
g1
F-1.0
sg7
(lp2991
(lp2992
g2320
aa(lp2993
g2322
aasg13
(dp2994
g15
g16
(g20
S'\x00\x00\x00\x00\x00\x00\xe0?'
p2995
tp2996
Rp2997
sg26
(lp2998
(g2322
g2320
F0.5
tp2999
assg3
F0.0
sg29
(lp3000
(lp3001
g2322
aa(lp3002
g2320
aasg2
F1.0
ssI211
(dp3003
g1
F-1.0
sg7
(lp3004
(lp3005
S'richer'
p3006
aa(lp3007
S'richest'
p3008
aasg13
(dp3009
g15
g16
(g20
S'\x00\x00\x00\x00\x00\x00\xe0?'
p3010
tp3011
Rp3012
sg26
(lp3013
(g3008
g3006
F0.5
tp3014
assg3
F0.0
sg29
(lp3015
(lp3016
g3008
aa(lp3017
g3006
aasg2
F1.0
ssI212
(dp3018
g1
F1.0
sg7
(lp3019
(lp3020
g1633
aa(lp3021
g1635
aasg13
(dp3022
g15
g16
(g20
S'\x00\x00\x00\x00\x00\x00\xe0?'
p3023
tp3024
Rp3025
sg26
(lp3026
(g1633
g1635
F0.5
tp3027
assg3
F1.0
sg29
(lp3028
(lp3029
g1633
aa(lp3030
g1635
aasg2
F1.0
ssI213
(dp3031
g1
F1.0
sg7
(lp3032
(lp3033
g1132
aa(lp3034
g1134
aasg13
(dp3035
g15
g16
(g20
S'\x00\x00\x00\x00\x00\x00\xe0?'
p3036
tp3037
Rp3038
sg26
(lp3039
(g1132
g1134
F0.5
tp3040
assg3
F1.0
sg29
(lp3041
(lp3042
g1132
aa(lp3043
g1134
aasg2
F1.0
ssI214
(dp3044
g1
F-1.0
sg7
(lp3045
(lp3046
S'newer'
p3047
aa(lp3048
S'newest'
p3049
aasg13
(dp3050
g15
g16
(g20
S'\x00\x00\x00\x00\x00\x00\xe0?'
p3051
tp3052
Rp3053
sg26
(lp3054
(g3049
g3047
F0.5
tp3055
assg3
F0.0
sg29
(lp3056
(lp3057
g3049
aa(lp3058
g3047
aasg2
F1.0
ssI215
(dp3059
g1
F-1.0
sg7
(lp3060
(lp3061
S'tight'
p3062
aa(lp3063
S'tighter'
p3064
aasg13
(dp3065
g15
g16
(g20
S'\x00\x00\x00\x00\x00\x00\xe0?'
p3066
tp3067
Rp3068
sg26
(lp3069
(g3064
g3062
F0.5
tp3070
assg3
F0.0
sg29
(lp3071
(lp3072
g3064
aa(lp3073
g3062
aasg2
F1.0
ssI216
(dp3074
g1
F-1.0
sg7
(lp3075
(lp3076
S'hard'
p3077
aa(lp3078
S'hardest'
p3079
aasg13
(dp3080
g15
g16
(g20
S'\x00\x00\x00\x00\x00\x00\xe0?'
p3081
tp3082
Rp3083
sg26
(lp3084
(g3079
g3077
F0.5
tp3085
assg3
F0.0
sg29
(lp3086
(lp3087
g3079
aa(lp3088
g3077
aasg2
F1.0
ssI217
(dp3089
g1
F-1.0
sg7
(lp3090
(lp3091
g333
aa(lp3092
g335
aasg13
(dp3093
g15
g16
(g20
S'\x00\x00\x00\x00\x00\x00\xe0?'
p3094
tp3095
Rp3096
sg26
(lp3097
(g335
g333
F0.5
tp3098
assg3
F0.0
sg29
(lp3099
(lp3100
g335
aa(lp3101
g333
aasg2
F1.0
ssI218
(dp3102
g1
F1.0
sg7
(lp3103
(lp3104
g1263
aa(lp3105
g1265
aasg13
(dp3106
g15
g16
(g20
S'\x00\x00\x00\x00\x00\x00\xe0?'
p3107
tp3108
Rp3109
sg26
(lp3110
(g1263
g1265
F0.5
tp3111
assg3
F1.0
sg29
(lp3112
(lp3113
g1263
aa(lp3114
g1265
aasg2
F1.0
ssI219
(dp3115
g1
F-1.0
sg7
(lp3116
(lp3117
S'fine'
p3118
aa(lp3119
S'finest'
p3120
aasg13
(dp3121
g15
g16
(g20
S'\x00\x00\x00\x00\x00\x00\xe0?'
p3122
tp3123
Rp3124
sg26
(lp3125
(g3120
g3118
F0.5
tp3126
assg3
F0.0
sg29
(lp3127
(lp3128
g3120
aa(lp3129
g3118
aasg2
F1.0
ssI220
(dp3130
g1
F-1.0
sg7
(lp3131
(lp3132
g655
aa(lp3133
g657
aasg13
(dp3134
g15
g16
(g20
S'\x00\x00\x00\x00\x00\x00\xe0?'
p3135
tp3136
Rp3137
sg26
(lp3138
(g657
g655
F0.5
tp3139
assg3
F0.0
sg29
(lp3140
(lp3141
g657
aa(lp3142
g655
aasg2
F1.0
ssI221
(dp3143
g1
F-1.0
sg7
(lp3144
(lp3145
g2209
aa(lp3146
g627
aasg13
(dp3147
g15
g16
(g20
S'\x00\x00\x00\x00\x00\x00\xe0?'
p3148
tp3149
Rp3150
sg26
(lp3151
(g627
g2209
F0.5
tp3152
assg3
F0.0
sg29
(lp3153
(lp3154
g627
aa(lp3155
g2209
aasg2
F1.0
ssI222
(dp3156
g1
F-1.0
sg7
(lp3157
(lp3158
g246
aa(lp3159
g248
aasg13
(dp3160
g15
g16
(g20
S'\x00\x00\x00\x00\x00\x00\xe0?'
p3161
tp3162
Rp3163
sg26
(lp3164
(g248
g246
F0.5
tp3165
assg3
F0.0
sg29
(lp3166
(lp3167
g248
aa(lp3168
g246
aasg2
F1.0
ssI223
(dp3169
g1
F-1.0
sg7
(lp3170
(lp3171
g201
aa(lp3172
g203
aasg13
(dp3173
g15
g16
(g20
S'\x00\x00\x00\x00\x00\x00\xe0?'
p3174
tp3175
Rp3176
sg26
(lp3177
(g203
g201
F0.5
tp3178
assg3
F0.0
sg29
(lp3179
(lp3180
g203
aa(lp3181
g201
aasg2
F1.0
ssI224
(dp3182
g1
F-1.0
sg7
(lp3183
(lp3184
g2223
aa(lp3185
g2225
aasg13
(dp3186
g15
g16
(g20
S'\x00\x00\x00\x00\x00\x00\xe0?'
p3187
tp3188
Rp3189
sg26
(lp3190
(g2225
g2223
F0.5
tp3191
assg3
F0.0
sg29
(lp3192
(lp3193
g2225
aa(lp3194
g2223
aasg2
F1.0
ssI225
(dp3195
g1
F-1.0
sg7
(lp3196
(lp3197
S'up'
p3198
aa(lp3199
S'upper'
p3200
aasg13
(dp3201
g15
g16
(g20
S'\x00\x00\x00\x00\x00\x00\xe0?'
p3202
tp3203
Rp3204
sg26
(lp3205
(g3200
g3198
F0.5
tp3206
assg3
F0.0
sg29
(lp3207
(lp3208
g3200
aa(lp3209
g3198
aasg2
F1.0
ssI226
(dp3210
g1
F-1.0
sg7
(lp3211
(lp3212
g1177
aa(lp3213
g1550
aasg13
(dp3214
g15
g16
(g20
S'\x00\x00\x00\x00\x00\x00\xe0?'
p3215
tp3216
Rp3217
sg26
(lp3218
(g1550
g1177
F0.5
tp3219
assg3
F0.0
sg29
(lp3220
(lp3221
g1550
aa(lp3222
g1177
aasg2
F1.0
ssI227
(dp3223
g1
F-1.0
sg7
(lp3224
(lp3225
g3118
aa(lp3226
g3120
aasg13
(dp3227
g15
g16
(g20
S'\x00\x00\x00\x00\x00\x00\xe0?'
p3228
tp3229
Rp3230
sg26
(lp3231
(g3120
g3118
F0.5
tp3232
assg3
F0.0
sg29
(lp3233
(lp3234
g3120
aa(lp3235
g3118
aasg2
F1.0
ssI228
(dp3236
g1
F1.0
sg7
(lp3237
(lp3238
g1076
aa(lp3239
g1078
aasg13
(dp3240
g15
g16
(g20
S'\x00\x00\x00\x00\x00\x00\xe0?'
p3241
tp3242
Rp3243
sg26
(lp3244
(g1076
g1078
F0.5
tp3245
assg3
F1.0
sg29
(lp3246
(lp3247
g1076
aa(lp3248
g1078
aasg2
F1.0
ssI229
(dp3249
g1
F-1.0
sg7
(lp3250
(lp3251
g2028
aa(lp3252
g2030
aasg13
(dp3253
g15
g16
(g20
S'\x00\x00\x00\x00\x00\x00\xe0?'
p3254
tp3255
Rp3256
sg26
(lp3257
(g2030
g2028
F0.5
tp3258
assg3
F0.0
sg29
(lp3259
(lp3260
g2030
aa(lp3261
g2028
aasg2
F1.0
ssI230
(dp3262
g1
F-1.0
sg7
(lp3263
(lp3264
g2335
aa(lp3265
g2337
aasg13
(dp3266
g15
g16
(g20
S'\x00\x00\x00\x00\x00\x00\xe0?'
p3267
tp3268
Rp3269
sg26
(lp3270
(g2337
g2335
F0.5
tp3271
assg3
F0.0
sg29
(lp3272
(lp3273
g2337
aa(lp3274
g2335
aasg2
F1.0
ssI231
(dp3275
g1
F1.0
sg7
(lp3276
(lp3277
g276
aa(lp3278
g278
aasg13
(dp3279
g15
g16
(g20
S'\x00\x00\x00\x00\x00\x00\xe0?'
p3280
tp3281
Rp3282
sg26
(lp3283
(g276
g278
F0.5
tp3284
assg3
F1.0
sg29
(lp3285
(lp3286
g276
aa(lp3287
g278
aasg2
F1.0
ssI232
(dp3288
g1
F1.0
sg7
(lp3289
(lp3290
g2264
aa(lp3291
g2266
aasg13
(dp3292
g15
g16
(g20
S'\x00\x00\x00\x00\x00\x00\xe0?'
p3293
tp3294
Rp3295
sg26
(lp3296
(g2264
g2266
F0.5
tp3297
assg3
F1.0
sg29
(lp3298
(lp3299
g2264
aa(lp3300
g2266
aasg2
F1.0
ssI233
(dp3301
g1
F1.0
sg7
(lp3302
(lp3303
S'heavy'
p3304
aa(lp3305
g1607
aasg13
(dp3306
g15
g16
(g20
S'\x00\x00\x00\x00\x00\x00\xe0?'
p3307
tp3308
Rp3309
sg26
(lp3310
(g3304
g1607
F0.5
tp3311
assg3
F1.0
sg29
(lp3312
(lp3313
g3304
aa(lp3314
g1607
aasg2
F1.0
ssI234
(dp3315
g1
F1.0
sg7
(lp3316
(lp3317
S'mighty'
p3318
aa(lp3319
S'mightier'
p3320
aasg13
(dp3321
g15
g16
(g20
S'\x00\x00\x00\x00\x00\x00\xe0?'
p3322
tp3323
Rp3324
sg26
(lp3325
(g3318
g3320
F0.5
tp3326
assg3
F1.0
sg29
(lp3327
(lp3328
g3318
aa(lp3329
g3320
aasg2
F1.0
ssI235
(dp3330
g1
F1.0
sg7
(lp3331
(lp3332
g141
aa(lp3333
g746
aasg13
(dp3334
g15
g16
(g20
S'\x00\x00\x00\x00\x00\x00\xe0?'
p3335
tp3336
Rp3337
sg26
(lp3338
(g141
g746
F0.5
tp3339
assg3
F1.0
sg29
(lp3340
(lp3341
g141
aa(lp3342
g746
aasg2
F1.0
ssI236
(dp3343
g1
F-1.0
sg7
(lp3344
(lp3345
g3198
aa(lp3346
g3200
aasg13
(dp3347
g15
g16
(g20
S'\x00\x00\x00\x00\x00\x00\xe0?'
p3348
tp3349
Rp3350
sg26
(lp3351
(g3200
g3198
F0.5
tp3352
assg3
F0.0
sg29
(lp3353
(lp3354
g3200
aa(lp3355
g3198
aasg2
F1.0
ssI237
(dp3356
g1
F-1.0
sg7
(lp3357
(lp3358
g1061
aa(lp3359
g1063
aasg13
(dp3360
g15
g16
(g20
S'\x00\x00\x00\x00\x00\x00\xe0?'
p3361
tp3362
Rp3363
sg26
(lp3364
(g1063
g1061
F0.5
tp3365
assg3
F0.0
sg29
(lp3366
(lp3367
g1063
aa(lp3368
g1061
aasg2
F1.0
ssI238
(dp3369
g1
F-1.0
sg7
(lp3370
(lp3371
S'sick'
p3372
aa(lp3373
S'sicker'
p3374
aasg13
(dp3375
g15
g16
(g20
S'\x00\x00\x00\x00\x00\x00\xe0?'
p3376
tp3377
Rp3378
sg26
(lp3379
(g3374
g3372
F0.5
tp3380
assg3
F0.0
sg29
(lp3381
(lp3382
g3374
aa(lp3383
g3372
aasg2
F1.0
ssI239
(dp3384
g1
F-1.0
sg7
(lp3385
(lp3386
g479
aa(lp3387
g248
aasg13
(dp3388
g15
g16
(g20
S'\x00\x00\x00\x00\x00\x00\xe0?'
p3389
tp3390
Rp3391
sg26
(lp3392
(g248
g479
F0.5
tp3393
assg3
F0.0
sg29
(lp3394
(lp3395
g248
aa(lp3396
g479
aasg2
F1.0
ssI240
(dp3397
g1
F-1.0
sg7
(lp3398
(lp3399
g393
aa(lp3400
g395
aasg13
(dp3401
g15
g16
(g20
S'\x00\x00\x00\x00\x00\x00\xe0?'
p3402
tp3403
Rp3404
sg26
(lp3405
(g395
g393
F0.5
tp3406
assg3
F0.0
sg29
(lp3407
(lp3408
g395
aa(lp3409
g393
aasg2
F1.0
ssI241
(dp3410
g1
F-1.0
sg7
(lp3411
(lp3412
g2939
aa(lp3413
g2941
aasg13
(dp3414
g15
g16
(g20
S'\x00\x00\x00\x00\x00\x00\xe0?'
p3415
tp3416
Rp3417
sg26
(lp3418
(g2941
g2939
F0.5
tp3419
assg3
F0.0
sg29
(lp3420
(lp3421
g2941
aa(lp3422
g2939
aasg2
F1.0
ssI242
(dp3423
g1
F-1.0
sg7
(lp3424
(lp3425
S'weaker'
p3426
aa(lp3427
S'weakest'
p3428
aasg13
(dp3429
g15
g16
(g20
S'\x00\x00\x00\x00\x00\x00\xe0?'
p3430
tp3431
Rp3432
sg26
(lp3433
(g3428
g3426
F0.5
tp3434
assg3
F0.0
sg29
(lp3435
(lp3436
g3428
aa(lp3437
g3426
aasg2
F1.0
ssI243
(dp3438
g1
F-1.0
sg7
(lp3439
(lp3440
g1505
aa(lp3441
g1507
aasg13
(dp3442
g15
g16
(g20
S'\x00\x00\x00\x00\x00\x00\xe0?'
p3443
tp3444
Rp3445
sg26
(lp3446
(g1507
g1505
F0.5
tp3447
assg3
F0.0
sg29
(lp3448
(lp3449
g1507
aa(lp3450
g1505
aasg2
F1.0
ssI244
(dp3451
g1
F-1.0
sg7
(lp3452
(lp3453
g582
aa(lp3454
g832
aasg13
(dp3455
g15
g16
(g20
S'\x00\x00\x00\x00\x00\x00\xe0?'
p3456
tp3457
Rp3458
sg26
(lp3459
(g832
g582
F0.5
tp3460
assg3
F0.0
sg29
(lp3461
(lp3462
g832
aa(lp3463
g582
aasg2
F1.0
ssI245
(dp3464
g1
F-1.0
sg7
(lp3465
(lp3466
g1751
aa(lp3467
g1753
aasg13
(dp3468
g15
g16
(g20
S'\x00\x00\x00\x00\x00\x00\xe0?'
p3469
tp3470
Rp3471
sg26
(lp3472
(g1753
g1751
F0.5
tp3473
assg3
F0.0
sg29
(lp3474
(lp3475
g1753
aa(lp3476
g1751
aasg2
F1.0
ssI246
(dp3477
g1
F-1.0
sg7
(lp3478
(lp3479
g2279
aa(lp3480
g2281
aasg13
(dp3481
g15
g16
(g20
S'\x00\x00\x00\x00\x00\x00\xe0?'
p3482
tp3483
Rp3484
sg26
(lp3485
(g2281
g2279
F0.5
tp3486
assg3
F0.0
sg29
(lp3487
(lp3488
g2281
aa(lp3489
g2279
aasg2
F1.0
ssI247
(dp3490
g1
F-1.0
sg7
(lp3491
(lp3492
S'darker'
p3493
aa(lp3494
S'darkest'
p3495
aasg13
(dp3496
g15
g16
(g20
S'\x00\x00\x00\x00\x00\x00\xe0?'
p3497
tp3498
Rp3499
sg26
(lp3500
(g3495
g3493
F0.5
tp3501
assg3
F0.0
sg29
(lp3502
(lp3503
g3495
aa(lp3504
g3493
aasg2
F1.0
ssI248
(dp3505
g1
F-1.0
sg7
(lp3506
(lp3507
g1162
aa(lp3508
g1164
aasg13
(dp3509
g15
g16
(g20
S'\x00\x00\x00\x00\x00\x00\xe0?'
p3510
tp3511
Rp3512
sg26
(lp3513
(g1164
g1162
F0.5
tp3514
assg3
F0.0
sg29
(lp3515
(lp3516
g1164
aa(lp3517
g1162
aasg2
F1.0
ssI249
(dp3518
g1
F-1.0
sg7
(lp3519
(lp3520
g2447
aa(lp3521
g1436
aasg13
(dp3522
g15
g16
(g20
S'\x00\x00\x00\x00\x00\x00\xe0?'
p3523
tp3524
Rp3525
sg26
(lp3526
(g1436
g2447
F0.5
tp3527
assg3
F0.0
sg29
(lp3528
(lp3529
g1436
aa(lp3530
g2447
aasg2
F1.0
ssI250
(dp3531
g1
F1.0
sg7
(lp3532
(lp3533
g231
aa(lp3534
g233
aasg13
(dp3535
g15
g16
(g20
S'\x00\x00\x00\x00\x00\x00\xe0?'
p3536
tp3537
Rp3538
sg26
(lp3539
(g231
g233
F0.5
tp3540
assg3
F1.0
sg29
(lp3541
(lp3542
g231
aa(lp3543
g233
aasg2
F1.0
ssI251
(dp3544
g1
F1.0
sg7
(lp3545
(lp3546
g685
aa(lp3547
g687
aasg13
(dp3548
g15
g16
(g20
S'\x00\x00\x00\x00\x00\x00\xe0?'
p3549
tp3550
Rp3551
sg26
(lp3552
(g685
g687
F0.5
tp3553
assg3
F1.0
sg29
(lp3554
(lp3555
g685
aa(lp3556
g687
aasg2
F1.0
ssI252
(dp3557
g1
F-1.0
sg7
(lp3558
(lp3559
g2350
aa(lp3560
g2352
aasg13
(dp3561
g15
g16
(g20
S'\x00\x00\x00\x00\x00\x00\xe0?'
p3562
tp3563
Rp3564
sg26
(lp3565
(g2352
g2350
F0.5
tp3566
assg3
F0.0
sg29
(lp3567
(lp3568
g2352
aa(lp3569
g2350
aasg2
F1.0
ssI253
(dp3570
g1
F-1.0
sg7
(lp3571
(lp3572
g3047
aa(lp3573
g3049
aasg13
(dp3574
g15
g16
(g20
S'\x00\x00\x00\x00\x00\x00\xe0?'
p3575
tp3576
Rp3577
sg26
(lp3578
(g3049
g3047
F0.5
tp3579
assg3
F0.0
sg29
(lp3580
(lp3581
g3049
aa(lp3582
g3047
aasg2
F1.0
ssI254
(dp3583
g1
F-1.0
sg7
(lp3584
(lp3585
g3372
aa(lp3586
g3374
aasg13
(dp3587
g15
g16
(g20
S'\x00\x00\x00\x00\x00\x00\xe0?'
p3588
tp3589
Rp3590
sg26
(lp3591
(g3374
g3372
F0.5
tp3592
assg3
F0.0
sg29
(lp3593
(lp3594
g3374
aa(lp3595
g3372
aasg2
F1.0
ssI255
(dp3596
g1
F-1.0
sg7
(lp3597
(lp3598
g2404
aa(lp3599
g2406
aasg13
(dp3600
g15
g16
(g20
S'\x00\x00\x00\x00\x00\x00\xe0?'
p3601
tp3602
Rp3603
sg26
(lp3604
(g2406
g2404
F0.5
tp3605
assg3
F0.0
sg29
(lp3606
(lp3607
g2406
aa(lp3608
g2404
aasg2
F1.0
ssI256
(dp3609
g1
F1.0
sg7
(lp3610
(lp3611
g3318
aa(lp3612
g3320
aasg13
(dp3613
g15
g16
(g20
S'\x00\x00\x00\x00\x00\x00\xe0?'
p3614
tp3615
Rp3616
sg26
(lp3617
(g3318
g3320
F0.5
tp3618
assg3
F1.0
sg29
(lp3619
(lp3620
g3318
aa(lp3621
g3320
aasg2
F1.0
ssI257
(dp3622
g1
F-1.0
sg7
(lp3623
(lp3624
g2474
aa(lp3625
g2476
aasg13
(dp3626
g15
g16
(g20
S'\x00\x00\x00\x00\x00\x00\xe0?'
p3627
tp3628
Rp3629
sg26
(lp3630
(g2476
g2474
F0.5
tp3631
assg3
F0.0
sg29
(lp3632
(lp3633
g2476
aa(lp3634
g2474
aasg2
F1.0
ssI258
(dp3635
g1
F1.0
sg7
(lp3636
(lp3637
g1520
aa(lp3638
g1522
aasg13
(dp3639
g15
g16
(g20
S'\x00\x00\x00\x00\x00\x00\xe0?'
p3640
tp3641
Rp3642
sg26
(lp3643
(g1520
g1522
F0.5
tp3644
assg3
F1.0
sg29
(lp3645
(lp3646
g1520
aa(lp3647
g1522
aasg2
F1.0
ssI259
(dp3648
g1
F-1.0
sg7
(lp3649
(lp3650
g888
aa(lp3651
g1880
aasg13
(dp3652
g15
g16
(g20
S'\x00\x00\x00\x00\x00\x00\xe0?'
p3653
tp3654
Rp3655
sg26
(lp3656
(g1880
g888
F0.5
tp3657
assg3
F0.0
sg29
(lp3658
(lp3659
g1880
aa(lp3660
g888
aasg2
F1.0
ssI260
(dp3661
g1
F-1.0
sg7
(lp3662
(lp3663
g3493
aa(lp3664
g3495
aasg13
(dp3665
g15
g16
(g20
S'\x00\x00\x00\x00\x00\x00\xe0?'
p3666
tp3667
Rp3668
sg26
(lp3669
(g3495
g3493
F0.5
tp3670
assg3
F0.0
sg29
(lp3671
(lp3672
g3495
aa(lp3673
g3493
aasg2
F1.0
ssI261
(dp3674
g1
F-1.0
sg7
(lp3675
(lp3676
g640
aa(lp3677
g642
aasg13
(dp3678
g15
g16
(g20
S'\x00\x00\x00\x00\x00\x00\xe0?'
p3679
tp3680
Rp3681
sg26
(lp3682
(g642
g640
F0.5
tp3683
assg3
F0.0
sg29
(lp3684
(lp3685
g642
aa(lp3686
g640
aasg2
F1.0
ssI262
(dp3687
g1
F-1.0
sg7
(lp3688
(lp3689
g156
aa(lp3690
g1679
aasg13
(dp3691
g15
g16
(g20
S'\x00\x00\x00\x00\x00\x00\xe0?'
p3692
tp3693
Rp3694
sg26
(lp3695
(g1679
g156
F0.5
tp3696
assg3
F0.0
sg29
(lp3697
(lp3698
g1679
aa(lp3699
g156
aasg2
F1.0
ssI263
(dp3700
g1
F-1.0
sg7
(lp3701
(lp3702
g1349
aa(lp3703
g1351
aasg13
(dp3704
g15
g16
(g20
S'\x00\x00\x00\x00\x00\x00\xe0?'
p3705
tp3706
Rp3707
sg26
(lp3708
(g1351
g1349
F0.5
tp3709
assg3
F0.0
sg29
(lp3710
(lp3711
g1351
aa(lp3712
g1349
aasg2
F1.0
ssI264
(dp3713
g1
F-1.0
sg7
(lp3714
(lp3715
g2688
aa(lp3716
g2690
aasg13
(dp3717
g15
g16
(g20
S'\x00\x00\x00\x00\x00\x00\xe0?'
p3718
tp3719
Rp3720
sg26
(lp3721
(g2690
g2688
F0.5
tp3722
assg3
F0.0
sg29
(lp3723
(lp3724
g2690
aa(lp3725
g2688
aasg2
F1.0
ssI265
(dp3726
g1
F-1.0
sg7
(lp3727
(lp3728
g991
aa(lp3729
g657
aasg13
(dp3730
g15
g16
(g20
S'\x00\x00\x00\x00\x00\x00\xe0?'
p3731
tp3732
Rp3733
sg26
(lp3734
(g657
g991
F0.5
tp3735
assg3
F0.0
sg29
(lp3736
(lp3737
g657
aa(lp3738
g991
aasg2
F1.0
ssI266
(dp3739
g1
F-1.0
sg7
(lp3740
(lp3741
g845
aa(lp3742
g847
aasg13
(dp3743
g15
g16
(g20
S'\x00\x00\x00\x00\x00\x00\xe0?'
p3744
tp3745
Rp3746
sg26
(lp3747
(g847
g845
F0.5
tp3748
assg3
F0.0
sg29
(lp3749
(lp3750
g847
aa(lp3751
g845
aasg2
F1.0
ssI267
(dp3752
g1
F-1.0
sg7
(lp3753
(lp3754
S'rarer'
p3755
aa(lp3756
S'rarest'
p3757
aasg13
(dp3758
g15
g16
(g20
S'\x00\x00\x00\x00\x00\x00\xe0?'
p3759
tp3760
Rp3761
sg26
(lp3762
(g3757
g3755
F0.5
tp3763
assg3
F0.0
sg29
(lp3764
(lp3765
g3757
aa(lp3766
g3755
aasg2
F1.0
ssI268
(dp3767
g1
F1.0
sg7
(lp3768
(lp3769
g715
aa(lp3770
g717
aasg13
(dp3771
g15
g16
(g20
S'\x00\x00\x00\x00\x00\x00\xe0?'
p3772
tp3773
Rp3774
sg26
(lp3775
(g715
g717
F0.5
tp3776
assg3
F1.0
sg29
(lp3777
(lp3778
g715
aa(lp3779
g717
aasg2
F1.0
ssI269
(dp3780
g1
F-1.0
sg7
(lp3781
(lp3782
g1605
aa(lp3783
g1607
aasg13
(dp3784
g15
g16
(g20
S'\x00\x00\x00\x00\x00\x00\xe0?'
p3785
tp3786
Rp3787
sg26
(lp3788
(g1607
g1605
F0.5
tp3789
assg3
F0.0
sg29
(lp3790
(lp3791
g1607
aa(lp3792
g1605
aasg2
F1.0
ssI270
(dp3793
g1
F-1.0
sg7
(lp3794
(lp3795
g1177
aa(lp3796
g1179
aasg13
(dp3797
g15
g16
(g20
S'\x00\x00\x00\x00\x00\x00\xe0?'
p3798
tp3799
Rp3800
sg26
(lp3801
(g1179
g1177
F0.5
tp3802
assg3
F0.0
sg29
(lp3803
(lp3804
g1179
aa(lp3805
g1177
aasg2
F1.0
ssI271
(dp3806
g1
F-1.0
sg7
(lp3807
(lp3808
g789
aa(lp3809
g761
aasg13
(dp3810
g15
g16
(g20
S'\x00\x00\x00\x00\x00\x00\xe0?'
p3811
tp3812
Rp3813
sg26
(lp3814
(g761
g789
F0.5
tp3815
assg3
F0.0
sg29
(lp3816
(lp3817
g761
aa(lp3818
g789
aasg2
F1.0
ssI272
(dp3819
g1
F-1.0
sg7
(lp3820
(lp3821
g3755
aa(lp3822
g3757
aasg13
(dp3823
g15
g16
(g20
S'\x00\x00\x00\x00\x00\x00\xe0?'
p3824
tp3825
Rp3826
sg26
(lp3827
(g3757
g3755
F0.5
tp3828
assg3
F0.0
sg29
(lp3829
(lp3830
g3757
aa(lp3831
g3755
aasg2
F1.0
ssI273
(dp3832
g1
F-1.0
sg7
(lp3833
(lp3834
g1880
aa(lp3835
g890
aasg13
(dp3836
g15
g16
(g20
S'\x00\x00\x00\x00\x00\x00\xe0?'
p3837
tp3838
Rp3839
sg26
(lp3840
(g890
g1880
F0.5
tp3841
assg3
F0.0
sg29
(lp3842
(lp3843
g890
aa(lp3844
g1880
aasg2
F1.0
ssI274
(dp3845
g1
F-1.0
sg7
(lp3846
(lp3847
g3062
aa(lp3848
g3064
aasg13
(dp3849
g15
g16
(g20
S'\x00\x00\x00\x00\x00\x00\xe0?'
p3850
tp3851
Rp3852
sg26
(lp3853
(g3064
g3062
F0.5
tp3854
assg3
F0.0
sg29
(lp3855
(lp3856
g3064
aa(lp3857
g3062
aasg2
F1.0
ssI275
(dp3858
g1
F-1.0
sg7
(lp3859
(lp3860
g537
aa(lp3861
g539
aasg13
(dp3862
g15
g16
(g20
S'\x00\x00\x00\x00\x00\x00\xe0?'
p3863
tp3864
Rp3865
sg26
(lp3866
(g539
g537
F0.5
tp3867
assg3
F0.0
sg29
(lp3868
(lp3869
g539
aa(lp3870
g537
aasg2
F1.0
ssI276
(dp3871
g1
F-1.0
sg7
(lp3872
(lp3873
g580
aa(lp3874
g582
aasg13
(dp3875
g15
g16
(g20
S'\x00\x00\x00\x00\x00\x00\xe0?'
p3876
tp3877
Rp3878
sg26
(lp3879
(g582
g580
F0.5
tp3880
assg3
F0.0
sg29
(lp3881
(lp3882
g582
aa(lp3883
g580
aasg2
F1.0
ssI277
(dp3884
g1
F1.0
sg7
(lp3885
(lp3886
g2768
aa(lp3887
g2770
aasg13
(dp3888
g15
g16
(g20
S'\x00\x00\x00\x00\x00\x00\xe0?'
p3889
tp3890
Rp3891
sg26
(lp3892
(g2768
g2770
F0.5
tp3893
assg3
F1.0
sg29
(lp3894
(lp3895
g2768
aa(lp3896
g2770
aasg2
F1.0
ssI278
(dp3897
g1
F-1.0
sg7
(lp3898
(lp3899
g1177
aa(lp3900
g1550
aasg13
(dp3901
g15
g16
(g20
S'\x00\x00\x00\x00\x00\x00\xe0?'
p3902
tp3903
Rp3904
sg26
(lp3905
(g1550
g1177
F0.5
tp3906
assg3
F0.0
sg29
(lp3907
(lp3908
g1550
aa(lp3909
g1177
aasg2
F1.0
ssI279
(dp3910
g1
F-1.0
sg7
(lp3911
(lp3912
g1835
aa(lp3913
g1837
aasg13
(dp3914
g15
g16
(g20
S'\x00\x00\x00\x00\x00\x00\xe0?'
p3915
tp3916
Rp3917
sg26
(lp3918
(g1837
g1835
F0.5
tp3919
assg3
F0.0
sg29
(lp3920
(lp3921
g1837
aa(lp3922
g1835
aasg2
F1.0
ssI280
(dp3923
g1
F-1.0
sg7
(lp3924
(lp3925
g3006
aa(lp3926
g3008
aasg13
(dp3927
g15
g16
(g20
S'\x00\x00\x00\x00\x00\x00\xe0?'
p3928
tp3929
Rp3930
sg26
(lp3931
(g3008
g3006
F0.5
tp3932
assg3
F0.0
sg29
(lp3933
(lp3934
g3008
aa(lp3935
g3006
aasg2
F1.0
ssI281
(dp3936
g1
F-1.0
sg7
(lp3937
(lp3938
g2086
aa(lp3939
g2088
aasg13
(dp3940
g15
g16
(g20
S'\x00\x00\x00\x00\x00\x00\xe0?'
p3941
tp3942
Rp3943
sg26
(lp3944
(g2088
g2086
F0.5
tp3945
assg3
F0.0
sg29
(lp3946
(lp3947
g2088
aa(lp3948
g2086
aasg2
F1.0
ssI282
(dp3949
g1
F-1.0
sg7
(lp3950
(lp3951
g1948
aa(lp3952
g1950
aasg13
(dp3953
g15
g16
(g20
S'\x00\x00\x00\x00\x00\x00\xe0?'
p3954
tp3955
Rp3956
sg26
(lp3957
(g1950
g1948
F0.5
tp3958
assg3
F0.0
sg29
(lp3959
(lp3960
g1950
aa(lp3961
g1948
aasg2
F1.0
ssI283
(dp3962
g1
F-1.0
sg7
(lp3963
(lp3964
g51
aa(lp3965
g53
aasg13
(dp3966
g15
g16
(g20
S'\x00\x00\x00\x00\x00\x00\xe0?'
p3967
tp3968
Rp3969
sg26
(lp3970
(g53
g51
F0.5
tp3971
assg3
F0.0
sg29
(lp3972
(lp3973
g53
aa(lp3974
g51
aasg2
F1.0
ssI284
(dp3975
g1
F-1.0
sg7
(lp3976
(lp3977
g493
aa(lp3978
g495
aasg13
(dp3979
g15
g16
(g20
S'\x00\x00\x00\x00\x00\x00\xe0?'
p3980
tp3981
Rp3982
sg26
(lp3983
(g495
g493
F0.5
tp3984
assg3
F0.0
sg29
(lp3985
(lp3986
g495
aa(lp3987
g493
aasg2
F1.0
ssI285
(dp3988
g1
F-1.0
sg7
(lp3989
(lp3990
g3426
aa(lp3991
g3428
aasg13
(dp3992
g15
g16
(g20
S'\x00\x00\x00\x00\x00\x00\xe0?'
p3993
tp3994
Rp3995
sg26
(lp3996
(g3428
g3426
F0.5
tp3997
assg3
F0.0
sg29
(lp3998
(lp3999
g3428
aa(lp4000
g3426
aasg2
F1.0
ssI286
(dp4001
g1
F-1.0
sg7
(lp4002
(lp4003
g1379
aa(lp4004
g1381
aasg13
(dp4005
g15
g16
(g20
S'\x00\x00\x00\x00\x00\x00\xe0?'
p4006
tp4007
Rp4008
sg26
(lp4009
(g1381
g1379
F0.5
tp4010
assg3
F0.0
sg29
(lp4011
(lp4012
g1381
aa(lp4013
g1379
aasg2
F1.0
ssI287
(dp4014
g1
F-1.0
sg7
(lp4015
(lp4016
g3077
aa(lp4017
g3079
aasg13
(dp4018
g15
g16
(g20
S'\x00\x00\x00\x00\x00\x00\xe0?'
p4019
tp4020
Rp4021
sg26
(lp4022
(g3079
g3077
F0.5
tp4023
assg3
F0.0
sg29
(lp4024
(lp4025
g3079
aa(lp4026
g3077
aasg2
F1.0
ssI288
(dp4027
g1
F1.0
sg7
(lp4028
(lp4029
g3304
aa(lp4030
g1607
aasg13
(dp4031
g15
g16
(g20
S'\x00\x00\x00\x00\x00\x00\xe0?'
p4032
tp4033
Rp4034
sg26
(lp4035
(g3304
g1607
F0.5
tp4036
assg3
F1.0
sg29
(lp4037
(lp4038
g3304
aa(lp4039
g1607
aasg2
F1.0
ssI289
(dp4040
g1
F-1.0
sg7
(lp4041
(lp4042
g1304
aa(lp4043
g1306
aasg13
(dp4044
g15
g16
(g20
S'\x00\x00\x00\x00\x00\x00\xe0?'
p4045
tp4046
Rp4047
sg26
(lp4048
(g1306
g1304
F0.5
tp4049
assg3
F0.0
sg29
(lp4050
(lp4051
g1306
aa(lp4052
g1304
aasg2
F1.0
sss.