(dp0
S'tau'
p1
F0.6211756775897702
sS'|tau|'
p2
F0.7355773360198945
sS'pairwise'
p3
F0.7490958408679925
sS'ranking'
p4
(dp5
I0
(dp6
g1
F1.0
sS'gold'
p7
(lp8
(lp9
S'small'
p10
aa(lp11
S'minute'
p12
aa(lp13
S'miniscule'
p14
aasS'raw'
p15
(dp16
S'prob*'
p17
cnumpy.core.multiarray
scalar
p18
(cnumpy
dtype
p19
(S'f8'
p20
I0
I1
tp21
Rp22
(I3
S'<'
p23
NNNI-1
I-1
I0
tp24
bS'a\x95\xe3\xe2+\x08\xe0?'
p25
tp26
Rp27
sS'link-probs'
p28
(lp29
(g10
g12
F0.9999999882214372
tp30
a(g10
g14
F0.9999950000249999
tp31
a(g12
g14
F0.501
tp32
assg3
F1.0
sS'algo'
p33
(lp34
(lp35
g10
aa(lp36
g12
aa(lp37
g14
aasg2
F1.0
ssI1
(dp38
g1
F1.0
sg7
(lp39
(lp40
S'upset'
p41
aa(lp42
S'angry'
p43
aa(lp44
S'enraged'
p45
aasg15
(dp46
g17
g18
(g22
S'\xcc9\xc7<\xd1a\xe4?'
p47
tp48
Rp49
sg28
(lp50
(g41
g43
F0.636950146627566
tp51
a(g41
g45
F0.9999950000249999
tp52
a(g43
g45
F0.9999900000999989
tp53
assg3
F1.0
sg33
(lp54
(lp55
g41
aa(lp56
g43
aa(lp57
g45
aasg2
F1.0
ssI2
(dp58
g1
F1.0
sg7
(lp59
(lp60
S'positive'
p61
aa(lp62
S'terrific'
p63
aasg15
(dp64
g17
g18
(g22
S'\x835X\x07\xeb\xff\xef?'
p65
tp66
Rp67
sg28
(lp68
(g61
g63
F0.9999900000999989
tp69
assg3
F1.0
sg33
(lp70
(lp71
g61
aa(lp72
g63
aasg2
F1.0
ssI3
(dp73
g1
F1.0
sg7
(lp74
(lp75
S'valuable'
p76
aa(lp77
S'immeasurable'
p78
aasg15
(dp79
g17
g18
(g22
S')\xab\xa8\x83\xf5\xff\xef?'
p80
tp81
Rp82
sg28
(lp83
(g76
g78
F0.9999950000249999
tp84
assg3
F1.0
sg33
(lp85
(lp86
g76
aa(lp87
g78
aasg2
F1.0
ssI4
(dp88
g1
F0.3333333333333333
sg7
(lp89
(lp90
S'useful'
p91
aa(lp92
S'worthwhile'
p93
aa(lp94
S'valuable'
p95
aasg15
(dp96
g17
g18
(g22
S'\xec\\y@\xb2\xce\xe5?'
p97
tp98
Rp99
sg28
(lp100
(g91
g95
F0.9583333333333334
tp101
a(g91
g93
F0.8888888888888888
tp102
a(g95
g93
F0.8
tp103
assg3
F0.6666666666666666
sg33
(lp104
(lp105
g91
aa(lp106
g95
aa(lp107
g93
aasg2
F0.3333333333333333
ssI5
(dp108
g1
F1.0
sg7
(lp109
(lp110
S'functioning'
p111
aa(lp112
S'efficient'
p113
aasg15
(dp114
g17
g18
(g22
S')\xab\xa8\x83\xf5\xff\xef?'
p115
tp116
Rp117
sg28
(lp118
(g111
g113
F0.9999950000249999
tp119
assg3
F1.0
sg33
(lp120
(lp121
g111
aa(lp122
g113
aasg2
F1.0
ssI6
(dp123
g1
F1.0
sg7
(lp124
(lp125
S'low'
p126
aa(lp127
S'limited'
p128
aa(lp129
S'scarce'
p130
aasg15
(dp131
g17
g18
(g22
S'\x9c\x05G\x8b$\x08\xe0?'
p132
tp133
Rp134
sg28
(lp135
(g126
g128
F0.501
tp136
a(g126
g130
F0.9999900000999989
tp137
a(g128
g130
F0.9999980000040001
tp138
assg3
F1.0
sg33
(lp139
(lp140
g126
aa(lp141
g128
aa(lp142
g130
aasg2
F1.0
ssI7
(dp143
g1
F0.8
sg7
(lp144
(lp145
S'cute'
p146
aa(lp147
S'pretty'
p148
aa(lp149
S'lovely'
p150
aa(lp151
S'lovelier'
p152
aa(lp153
S'breathtaking'
p154
aasg15
(dp155
g17
g18
(g22
S'\\\x86\x9a\x0fa\x88\xb4?'
p156
tp157
Rp158
sg28
(lp159
(g146
g148
F0.625
tp160
a(g146
g150
F0.7333333333333333
tp161
a(g146
g154
F0.499
tp162
a(g146
g152
F0.9999950000249999
tp163
a(g148
g150
F0.7
tp164
a(g148
g154
F0.9999950000249999
tp165
a(g148
g152
F0.9999980000040001
tp166
a(g150
g154
F0.9999966666777778
tp167
a(g150
g152
F0.9999900000999989
tp168
a(g154
g152
F0.501
tp169
assg3
F0.9
sg33
(lp170
(lp171
g146
aa(lp172
g148
aa(lp173
g150
aa(lp174
g154
aa(lp175
g152
aasg2
F0.8
ssI8
(dp176
g1
F0.3333333333333333
sg7
(lp177
(lp178
S'costly'
p179
aa(lp180
S'expensive'
p181
aa(lp182
S'exorbitant'
p183
aasg15
(dp184
g17
g18
(g22
S'h}\x84:c\xdb\xe6?'
p185
tp186
Rp187
sg28
(lp188
(g181
g179
F0.7142857142857143
tp189
a(g181
g183
F0.9999980000040001
tp190
a(g179
g183
F0.9999950000249999
tp191
assg3
F0.6666666666666666
sg33
(lp192
(lp193
g181
aa(lp194
g179
aa(lp195
g183
aasg2
F0.3333333333333333
ssI9
(dp196
g1
F0.3333333333333333
sg7
(lp197
(lp198
S'lousy'
p199
aa(lp200
S'miserable'
p201
aa(lp202
S'horrible'
p203
aasg15
(dp204
g17
g18
(g22
S'\xc63\xfa\x8f\xd2\xff\xef?'
p205
tp206
Rp207
sg28
(lp208
(g199
g203
F0.9999900000999989
tp209
a(g199
g201
F0.9999900000999989
tp210
a(g203
g201
F0.9999983333361112
tp211
assg3
F0.6666666666666666
sg33
(lp212
(lp213
g199
aa(lp214
g203
aa(lp215
g201
aasg2
F0.3333333333333333
ssI10
(dp216
g1
F0.3333333333333333
sg7
(lp217
(lp218
S'fine'
p219
aa(lp220
S'adequate'
p221
aa(lp222
S'good'
p223
aasg15
(dp224
g17
g18
(g22
S'\xcd\xd2\xf6\xa6d%\xc6?'
p225
tp226
Rp227
sg28
(lp228
(g219
g223
F0.5755693581780539
tp229
a(g219
g221
F0.501
tp230
a(g223
g221
F0.6
tp231
assg3
F0.6666666666666666
sg33
(lp232
(lp233
g219
aa(lp234
g223
aa(lp235
g221
aasg2
F0.3333333333333333
ssI11
(dp236
g1
F1.0
sg7
(lp237
(lp238
S'bad'
p239
aa(lp240
S'ludicrous'
p241
aasg15
(dp242
g17
g18
(g22
S'\x835X\x07\xeb\xff\xef?'
p243
tp244
Rp245
sg28
(lp246
(g239
g241
F0.9999900000999989
tp247
assg3
F1.0
sg33
(lp248
(lp249
g239
aa(lp250
g241
aasg2
F1.0
ssI12
(dp251
g1
F0.3333333333333333
sg7
(lp252
(lp253
S'useful'
p254
aa(lp255
S'relevant'
p256
aa(lp257
S'necessary'
p258
aasg15
(dp259
g17
g18
(g22
S'Z\x19\xe2\xe8\xcf\x93\xed?'
p260
tp261
Rp262
sg28
(lp263
(g254
g258
F0.9407987156331528
tp264
a(g254
g256
F0.9894736842105263
tp265
a(g258
g256
F0.9929078014184397
tp266
assg3
F0.6666666666666666
sg33
(lp267
(lp268
g254
aa(lp269
g258
aa(lp270
g256
aasg2
F0.3333333333333333
ssI13
(dp271
g1
F-0.3333333333333333
sg7
(lp272
(lp273
S'fine'
p274
aa(lp275
S'satisfactory'
p276
aa(lp277
S'excellent'
p278
aasg15
(dp279
g17
g18
(g22
S'y\x11\xc4\x82\xa3R\xd4?'
p280
tp281
Rp282
sg28
(lp283
(g276
g278
F0.9999950000249999
tp284
a(g276
g274
F0.499
tp285
a(g278
g274
F0.6363636363636364
tp286
assg3
F0.3333333333333333
sg33
(lp287
(lp288
g276
aa(lp289
g278
aa(lp290
g274
aasg2
F0.3333333333333333
ssI14
(dp291
g1
F-1.0
sg7
(lp292
(lp293
S'uncomfortable'
p294
aa(lp295
S'embarrassing'
p296
aasg15
(dp297
g17
g18
(g22
S'\x00\x00\x00\x00\x00\x00\xe8?'
p298
tp299
Rp300
sg28
(lp301
(g296
g294
F0.75
tp302
assg3
F0.0
sg33
(lp303
(lp304
g296
aa(lp305
g294
aasg2
F1.0
ssI15
(dp306
g1
F0.9128709291752769
sg7
(lp307
(lp308
S'big'
p309
aa(lp310
S'substantial'
p311
aa(lp312
S'tremendous'
p313
aS'staggering'
p314
aasg15
(dp315
g17
g18
(g22
S'\x9c?\xec-\x1c`\xd5?'
p316
tp317
Rp318
sg28
(lp319
(g309
g311
F0.6666666666666666
tp320
a(g309
g313
F0.9999966666777778
tp321
a(g309
g314
F0.9999900000999989
tp322
a(g311
g313
F0.9999966666777778
tp323
a(g311
g314
F0.9999900000999989
tp324
a(g313
g314
F0.501
tp325
assg3
F0.8333333333333334
sg33
(lp326
(lp327
g309
aa(lp328
g311
aa(lp329
g313
aa(lp330
g314
aasg2
F0.9128709291752769
ssI16
(dp331
g1
F0.6666666666666666
sg7
(lp332
(lp333
S'clear'
p334
aa(lp335
S'accurate'
p336
aa(lp337
S'precise'
p338
aa(lp339
S'exact'
p340
aasg15
(dp341
g17
g18
(g22
S'5ye\x18$E\xd0?'
p342
tp343
Rp344
sg28
(lp345
(g334
g338
F0.6
tp346
a(g334
g336
F0.9999900000999989
tp347
a(g334
g340
F0.9999900000999989
tp348
a(g338
g336
F0.5649461145774248
tp349
a(g338
g340
F0.75
tp350
a(g336
g340
F0.9999975000062501
tp351
assg3
F0.8333333333333334
sg33
(lp352
(lp353
g334
aa(lp354
g338
aa(lp355
g336
aa(lp356
g340
aasg2
F0.6666666666666666
ssI17
(dp357
g1
F0.6
sg7
(lp358
(lp359
S'pleased'
p360
aa(lp361
S'happy'
p362
aa(lp363
S'excited'
p364
aa(lp365
S'delighted'
p366
aa(lp367
S'overwhelmed'
p368
aasg15
(dp369
g17
g18
(g22
S'\xef6\xe9\x1c\xd0\x85\xa0?'
p370
tp371
Rp372
sg28
(lp373
(g362
g364
F0.6666666666666666
tp374
a(g362
g360
F0.7142857142857143
tp375
a(g362
g366
F0.9
tp376
a(g362
g368
F0.9999900000999989
tp377
a(g364
g360
F0.6
tp378
a(g364
g366
F0.6666666666666666
tp379
a(g364
g368
F0.9999900000999989
tp380
a(g360
g366
F0.75
tp381
a(g360
g368
F0.501
tp382
a(g366
g368
F0.501
tp383
assg3
F0.8
sg33
(lp384
(lp385
g362
aa(lp386
g364
aa(lp387
g360
aa(lp388
g366
aa(lp389
g368
aasg2
F0.6
ssI18
(dp390
g1
F1.0
sg7
(lp391
(lp392
S'bad'
p393
aa(lp394
S'horrific'
p395
aa(lp396
S'horrendous'
p397
aasg15
(dp398
g17
g18
(g22
S'2\x10\xcb\x04$\x08\xe0?'
p399
tp400
Rp401
sg28
(lp402
(g393
g395
F0.501
tp403
a(g393
g397
F0.9999975000062501
tp404
a(g395
g397
F0.9999900000999989
tp405
assg3
F1.0
sg33
(lp406
(lp407
g393
aa(lp408
g395
aa(lp409
g397
aasg2
F1.0
ssI19
(dp410
g1
F1.0
sg7
(lp411
(lp412
S'qualified'
p413
aa(lp414
S'excellent'
p415
aa(lp416
S'outstanding'
p417
aasg15
(dp418
g17
g18
(g22
S'\xa1\x8d\xa9\xeb4\x92\xe4?'
p419
tp420
Rp421
sg28
(lp422
(g413
g415
F0.9999900000999989
tp423
a(g413
g417
F0.9999950000249999
tp424
a(g415
g417
F0.6428571428571429
tp425
assg3
F1.0
sg33
(lp426
(lp427
g413
aa(lp428
g415
aa(lp429
g417
aasg2
F1.0
ssI20
(dp430
g1
F1.0
sg7
(lp431
(lp432
S'high'
p433
aa(lp434
S'higher'
p435
aasg15
(dp436
g17
g18
(g22
S'\x98I-\x08\x05\xc8\xee?'
p437
tp438
Rp439
sg28
(lp440
(g433
g435
F0.961916461916462
tp441
assg3
F1.0
sg33
(lp442
(lp443
g433
aa(lp444
g435
aasg2
F1.0
ssI21
(dp445
g1
F0.3333333333333333
sg7
(lp446
(lp447
S'fine'
p448
aa(lp449
S'remarkable'
p450
aa(lp451
S'spectacular'
p452
aasg15
(dp453
g17
g18
(g22
S'\xd6?\xf6\xe2+\x08\xe0?'
p454
tp455
Rp456
sg28
(lp457
(g448
g452
F0.9999999884925203
tp458
a(g448
g450
F0.9999950000249999
tp459
a(g452
g450
F0.501
tp460
assg3
F0.6666666666666666
sg33
(lp461
(lp462
g448
aa(lp463
g452
aa(lp464
g450
aasg2
F0.3333333333333333
ssI22
(dp465
g1
F0.0
sg7
(lp466
(lp467
S'a-okay'
p468
aS'okay'
p469
aS'fine'
p470
aa(lp471
S'appropriate'
p472
aa(lp473
S'faultless'
p474
aa(lp475
S'perfect'
p476
aasg15
(dp477
g17
g18
(g22
S'\xf1L\x18<4\xd8y?'
p478
tp479
Rp480
sg28
(lp481
(g472
g470
F0.9999900000999989
tp482
a(g472
g469
F0.9999900000999989
tp483
a(g472
g476
F0.9999950000249999
tp484
a(g472
g474
F0.501
tp485
a(g472
g468
F0.501
tp486
a(g470
g469
F0.625
tp487
a(g470
g476
F0.4
tp488
a(g470
g474
F0.9999900000999989
tp489
a(g470
g468
F0.501
tp490
a(g469
g476
F0.999562363238512
tp491
a(g469
g474
F0.501
tp492
a(g469
g468
F0.9999950000249999
tp493
a(g476
g474
F0.8
tp494
a(g476
g468
F0.9999950000249999
tp495
a(g474
g468
F0.501
tp496
assg3
F0.4
sg33
(lp497
(lp498
g472
aa(lp499
g470
aa(lp500
g469
aa(lp501
g476
aa(lp502
g474
aa(lp503
g468
aasg2
F0.0
ssI23
(dp504
g1
F-0.3333333333333333
sg7
(lp505
(lp506
S'graver'
p507
aa(lp508
S'critical'
p509
aa(lp510
S'life-threatening'
p511
aasg15
(dp512
g17
g18
(g22
S'\xa4\xd0\x8b#\x1c\x08\xe0?'
p513
tp514
Rp515
sg28
(lp516
(g509
g511
F0.9999900000999989
tp517
a(g509
g507
F0.9999900000999989
tp518
a(g511
g507
F0.501
tp519
assg3
F0.3333333333333333
sg33
(lp520
(lp521
g509
aa(lp522
g511
aa(lp523
g507
aasg2
F0.3333333333333333
ssI24
(dp524
g1
F1.0
sg7
(lp525
(lp526
S'odd'
p527
aa(lp528
S'bizarre'
p529
aasg15
(dp530
g17
g18
(g22
S'f4@\xf1\xff\xff\xef?'
p531
tp532
Rp533
sg28
(lp534
(g527
g529
F0.9999999725274733
tp535
assg3
F1.0
sg33
(lp536
(lp537
g527
aa(lp538
g529
aasg2
F1.0
ssI25
(dp539
g1
F1.0
sg7
(lp540
(lp541
S'unfortunate'
p542
aa(lp543
S'reprehensible'
p544
aasg15
(dp545
g17
g18
(g22
S')\xab\xa8\x83\xf5\xff\xef?'
p546
tp547
Rp548
sg28
(lp549
(g542
g544
F0.9999950000249999
tp550
assg3
F1.0
sg33
(lp551
(lp552
g542
aa(lp553
g544
aasg2
F1.0
ssI26
(dp554
g1
F0.3333333333333333
sg7
(lp555
(lp556
S'plenty'
p557
aa(lp558
S'vast'
p559
aa(lp560
S'abundant'
p561
aasg15
(dp562
g17
g18
(g22
S'\x84\xe4\x1b\x0c\xa0\x18\xc0?'
p563
tp564
Rp565
sg28
(lp566
(g559
g557
F0.501
tp567
a(g559
g561
F0.501
tp568
a(g557
g561
F0.501
tp569
assg3
F0.6666666666666666
sg33
(lp570
(lp571
g559
aa(lp572
g557
aa(lp573
g561
aasg2
F0.3333333333333333
ssI27
(dp574
g1
F1.0
sg7
(lp575
(lp576
S'pleased'
p577
aa(lp578
S'delighted'
p579
aasg15
(dp580
g17
g18
(g22
S'\x00\x00\x00\x00\x00\x00\xe8?'
p581
tp582
Rp583
sg28
(lp584
(g577
g579
F0.75
tp585
assg3
F1.0
sg33
(lp586
(lp587
g577
aa(lp588
g579
aasg2
F1.0
ssI28
(dp589
g1
F1.0
sg7
(lp590
(lp591
S'uncomfortable'
p592
aa(lp593
S'embarrassed'
p594
aasg15
(dp595
g17
g18
(g22
S'\xd5x\xe9&1\x08\xe0?'
p596
tp597
Rp598
sg28
(lp599
(g592
g594
F0.501
tp600
assg3
F1.0
sg33
(lp601
(lp602
g592
aa(lp603
g594
aasg2
F1.0
ssI29
(dp604
g1
F1.0
sg7
(lp605
(lp606
S'efficient'
p607
aa(lp608
S'optimum'
p609
aasg15
(dp610
g17
g18
(g22
S'\x835X\x07\xeb\xff\xef?'
p611
tp612
Rp613
sg28
(lp614
(g607
g609
F0.9999900000999989
tp615
assg3
F1.0
sg33
(lp616
(lp617
g607
aa(lp618
g609
aasg2
F1.0
ssI30
(dp619
g1
F0.23570226039551587
sg7
(lp620
(lp621
S'satisfactory'
p622
aS'fine'
p623
aS'appropriate'
p624
aa(lp625
S'excellent'
p626
aasg15
(dp627
g17
g18
(g22
S's\xa2*\x8e{R\xd4?'
p628
tp629
Rp630
sg28
(lp631
(g624
g622
F0.9999900000999989
tp632
a(g624
g626
F0.9999900000999989
tp633
a(g624
g623
F0.9999900000999989
tp634
a(g622
g626
F0.9999950000249999
tp635
a(g622
g623
F0.499
tp636
a(g626
g623
F0.6363636363636364
tp637
assg3
F0.3333333333333333
sg33
(lp638
(lp639
g624
aa(lp640
g622
aa(lp641
g626
aa(lp642
g623
aasg2
F0.23570226039551587
ssI31
(dp643
g1
F1.0
sg7
(lp644
(lp645
S'clear'
p646
aa(lp647
S'prominent'
p648
aasg15
(dp649
g17
g18
(g22
S'\x835X\x07\xeb\xff\xef?'
p650
tp651
Rp652
sg28
(lp653
(g646
g648
F0.9999900000999989
tp654
assg3
F1.0
sg33
(lp655
(lp656
g646
aa(lp657
g648
aasg2
F1.0
ssI32
(dp658
g1
F-0.3333333333333333
sg7
(lp659
(lp660
S'tough'
p661
aa(lp662
S'formidable'
p663
aa(lp664
S'daunting'
p665
aasg15
(dp666
g17
g18
(g22
S'\x84\xe4\x1b\x0c\xa0\x18\xc0?'
p667
tp668
Rp669
sg28
(lp670
(g665
g661
F0.501
tp671
a(g665
g663
F0.501
tp672
a(g661
g663
F0.501
tp673
assg3
F0.3333333333333333
sg33
(lp674
(lp675
g665
aa(lp676
g661
aa(lp677
g663
aasg2
F0.3333333333333333
ssI33
(dp678
g1
F0.8164965809277261
sg7
(lp679
(lp680
S'capable'
p681
aS'qualified'
p682
aa(lp683
S'skilled'
p684
aS'proficient'
p685
aasg15
(dp686
g17
g18
(g22
S'S\xe8\xe4S\x8d\xdf\x98?'
p687
tp688
Rp689
sg28
(lp690
(g682
g681
F0.9999900000999989
tp691
a(g682
g684
F0.024291497975708502
tp692
a(g682
g685
F0.9999900000999989
tp693
a(g681
g684
F0.9999900000999989
tp694
a(g681
g685
F0.9999900000999989
tp695
a(g684
g685
F0.9999900000999989
tp696
assg3
F0.6666666666666666
sg33
(lp697
(lp698
g682
aa(lp699
g681
aa(lp700
g684
aa(lp701
g685
aasg2
F0.8164965809277261
ssI34
(dp702
g1
F0.6324555320336759
sg7
(lp703
(lp704
S'okay'
p705
aa(lp706
S'incredible'
p707
aS'awesome'
p708
aS'terrific'
p709
aS'marvelous'
p710
aasg15
(dp711
g17
g18
(g22
S'\x90\x07\xe64\x80\xb7\xbc?'
p712
tp713
Rp714
sg28
(lp715
(g705
g708
F0.9999950000249999
tp716
a(g705
g710
F0.9999900000999989
tp717
a(g705
g707
F0.9999900000999989
tp718
a(g705
g709
F0.9999950000249999
tp719
a(g708
g710
F0.6666666666666666
tp720
a(g708
g707
F0.38461538461538464
tp721
a(g708
g709
F0.75
tp722
a(g710
g707
F0.9999900000999989
tp723
a(g710
g709
F0.75
tp724
a(g707
g709
F0.7777777777777778
tp725
assg3
F0.4
sg33
(lp726
(lp727
g705
aa(lp728
g708
aa(lp729
g710
aa(lp730
g707
aa(lp731
g709
aasg2
F0.6324555320336759
ssI35
(dp732
g1
F1.0
sg7
(lp733
(lp734
S'awful'
p735
aa(lp736
S'shitty'
p737
aasg15
(dp738
g17
g18
(g22
S'\xd5x\xe9&1\x08\xe0?'
p739
tp740
Rp741
sg28
(lp742
(g735
g737
F0.501
tp743
assg3
F1.0
sg33
(lp744
(lp745
g735
aa(lp746
g737
aasg2
F1.0
ssI36
(dp747
g1
F-0.8164965809277261
sg7
(lp748
(lp749
S'content'
p750
aS'satisfied'
p751
aa(lp752
S'pleased'
p753
aasg15
(dp754
g17
g18
(g22
S'1dBI\x8f\xb3\xef?'
p755
tp756
Rp757
sg28
(lp758
(g753
g750
F0.9938271604938271
tp759
a(g753
g751
F0.996832101372756
tp760
a(g750
g751
F0.9999900000999989
tp761
assg3
F0.0
sg33
(lp762
(lp763
g753
aa(lp764
g750
aa(lp765
g751
aasg2
F0.8164965809277261
ssI37
(dp766
g1
F-0.23570226039551587
sg7
(lp767
(lp768
S'adequate'
p769
aS'fine'
p770
aS'fitting'
p771
aa(lp772
S'good'
p773
aasg15
(dp774
g17
g18
(g22
S'Z0X\x91\xa50\xb6?'
p775
tp776
Rp777
sg28
(lp778
(g770
g773
F0.5755693581780539
tp779
a(g770
g769
F0.501
tp780
a(g770
g771
F0.9999950000249999
tp781
a(g773
g769
F0.6
tp782
a(g773
g771
F0.9999900000999989
tp783
a(g769
g771
F0.501
tp784
assg3
F0.16666666666666666
sg33
(lp785
(lp786
g770
aa(lp787
g773
aa(lp788
g769
aa(lp789
g771
aasg2
F0.23570226039551587
ssI38
(dp790
g1
F1.0
sg7
(lp791
(lp792
S'poor'
p793
aa(lp794
S'indigent'
p795
aa(lp796
S'bankrupt'
p797
aasg15
(dp798
g17
g18
(g22
S'\x80\xb1d\xd6s\xef\xdf?'
p799
tp800
Rp801
sg28
(lp802
(g793
g795
F0.9999900000999989
tp803
a(g793
g797
F0.9999900000999989
tp804
a(g795
g797
F0.499
tp805
assg3
F1.0
sg33
(lp806
(lp807
g793
aa(lp808
g795
aa(lp809
g797
aasg2
F1.0
ssI39
(dp810
g1
F0.7071067811865476
sg7
(lp811
(lp812
S'pretty'
p813
aa(lp814
S'marvellous'
p815
aS'breathtaking'
p816
aS'spectacular'
p817
aasg15
(dp818
g17
g18
(g22
S'\x1dU\xdfa"\x08\xc0?'
p819
tp820
Rp821
sg28
(lp822
(g813
g816
F0.9999950000249999
tp823
a(g813
g815
F0.9999950000249999
tp824
a(g813
g817
F0.9999999425287389
tp825
a(g816
g815
F0.501
tp826
a(g816
g817
F0.501
tp827
a(g815
g817
F0.499
tp828
assg3
F0.5
sg33
(lp829
(lp830
g813
aa(lp831
g816
aa(lp832
g815
aa(lp833
g817
aasg2
F0.7071067811865476
ssI40
(dp834
g1
F1.0
sg7
(lp835
(lp836
S'considerable'
p837
aa(lp838
S'abundant'
p839
aasg15
(dp840
g17
g18
(g22
S'\x835X\x07\xeb\xff\xef?'
p841
tp842
Rp843
sg28
(lp844
(g837
g839
F0.9999900000999989
tp845
assg3
F1.0
sg33
(lp846
(lp847
g837
aa(lp848
g839
aasg2
F1.0
ssI41
(dp849
g1
F1.0
sg7
(lp850
(lp851
S'fine'
p852
aa(lp853
S'remarkable'
p854
aa(lp855
S'impressive'
p856
aasg15
(dp857
g17
g18
(g22
S'\xf2\xf0T\xb8Wf\xe6?'
p858
tp859
Rp860
sg28
(lp861
(g852
g854
F0.9999950000249999
tp862
a(g852
g856
F0.9999950000249999
tp863
a(g854
g856
F0.7
tp864
assg3
F1.0
sg33
(lp865
(lp866
g852
aa(lp867
g854
aa(lp868
g856
aasg2
F1.0
ssI42
(dp869
g1
F0.0
sg7
(lp870
(lp871
S'fine'
p872
aa(lp873
S'admirable'
p874
aS'upstanding'
p875
aasg15
(dp876
g17
g18
(g22
S'\r\xedOM~\xef\xdf?'
p877
tp878
Rp879
sg28
(lp880
(g875
g872
F0.9999900000999989
tp881
a(g875
g874
F0.499
tp882
a(g872
g874
F0.9999950000249999
tp883
assg3
F0.3333333333333333
sg33
(lp884
(lp885
g875
aa(lp886
g872
aa(lp887
g874
aasg2
F0.0
ssI43
(dp888
g1
F1.0
sg7
(lp889
(lp890
S'bad'
p891
aa(lp892
S'distressing'
p893
aasg15
(dp894
g17
g18
(g22
S')\xab\xa8\x83\xf5\xff\xef?'
p895
tp896
Rp897
sg28
(lp898
(g891
g893
F0.9999950000249999
tp899
assg3
F1.0
sg33
(lp900
(lp901
g891
aa(lp902
g893
aasg2
F1.0
ssI44
(dp903
g1
F0.8164965809277261
sg7
(lp904
(lp905
S'much'
p906
aa(lp907
S'excessive'
p908
aS'huge'
p909
aasg15
(dp910
g17
g18
(g22
S'\xa4\xd0\x8b#\x1c\x08\xe0?'
p911
tp912
Rp913
sg28
(lp914
(g906
g909
F0.9999900000999989
tp915
a(g906
g908
F0.9999900000999989
tp916
a(g909
g908
F0.501
tp917
assg3
F0.6666666666666666
sg33
(lp918
(lp919
g906
aa(lp920
g909
aa(lp921
g908
aasg2
F0.8164965809277261
ssI45
(dp922
g1
F0.8164965809277261
sg7
(lp923
(lp924
S'scary'
p925
aS'frightening'
p926
aa(lp927
S'terrifying'
p928
aasg15
(dp929
g17
g18
(g22
S'J\xcf/\x05\xc4\xdc\xe4?'
p930
tp931
Rp932
sg28
(lp933
(g925
g926
F0.9894736842105263
tp934
a(g925
g928
F0.6666666666666666
tp935
a(g926
g928
F0.9883268482490273
tp936
assg3
F0.6666666666666666
sg33
(lp937
(lp938
g925
aa(lp939
g926
aa(lp940
g928
aasg2
F0.8164965809277261
ssI46
(dp941
g1
F-0.8
sg7
(lp942
(lp943
S'tough'
p944
aa(lp945
S'tougher'
p946
aa(lp947
S'rigorous'
p948
aa(lp949
S'stringent'
p950
aa(lp951
S'severe'
p952
aasg15
(dp953
g17
g18
(g22
S'Dd\x7f\xf8`\xa6\xd9?'
p954
tp955
Rp956
sg28
(lp957
(g952
g950
F0.501
tp958
a(g952
g948
F0.9999900000999989
tp959
a(g952
g944
F0.9999900000999989
tp960
a(g952
g946
F0.9999950000249999
tp961
a(g950
g948
F0.8
tp962
a(g950
g944
F0.9999950000249999
tp963
a(g950
g946
F0.9999950000249999
tp964
a(g948
g944
F0.9999950000249999
tp965
a(g948
g946
F0.9999900000999989
tp966
a(g944
g946
F0.9999999874529487
tp967
assg3
F0.1
sg33
(lp968
(lp969
g952
aa(lp970
g950
aa(lp971
g948
aa(lp972
g944
aa(lp973
g946
aasg2
F0.8
ssI47
(dp974
g1
F1.0
sg7
(lp975
(lp976
S'low'
p977
aa(lp978
S'limited'
p979
aa(lp980
S'scarce'
p981
aasg15
(dp982
g17
g18
(g22
S'\x9c\x05G\x8b$\x08\xe0?'
p983
tp984
Rp985
sg28
(lp986
(g977
g979
F0.501
tp987
a(g977
g981
F0.9999900000999989
tp988
a(g979
g981
F0.9999980000040001
tp989
assg3
F1.0
sg33
(lp990
(lp991
g977
aa(lp992
g979
aa(lp993
g981
aasg2
F1.0
ssI48
(dp994
g1
F1.0
sg7
(lp995
(lp996
S'good'
p997
aa(lp998
S'better'
p999
aa(lp1000
S'remarkable'
p1001
aa(lp1002
S'exceptional'
p1003
aa(lp1004
S'perfect'
p1005
aasg15
(dp1006
g17
g18
(g22
S'\xe2\xc3<\xbd-W\xa9?'
p1007
tp1008
Rp1009
sg28
(lp1010
(g997
g999
F0.8870207416719045
tp1011
a(g997
g1001
F0.9999999808795416
tp1012
a(g997
g1003
F0.999999998977296
tp1013
a(g997
g1005
F0.9806916426512968
tp1014
a(g999
g1001
F0.501
tp1015
a(g999
g1003
F0.501
tp1016
a(g999
g1005
F0.9067071798334458
tp1017
a(g1001
g1003
F0.9999975000062501
tp1018
a(g1001
g1005
F0.499
tp1019
a(g1003
g1005
F0.501
tp1020
assg3
F1.0
sg33
(lp1021
(lp1022
g997
aa(lp1023
g999
aa(lp1024
g1001
aa(lp1025
g1003
aa(lp1026
g1005
aasg2
F1.0
ssI49
(dp1027
g1
F0.8164965809277261
sg7
(lp1028
(lp1029
S'few'
p1030
aS'little'
p1031
aa(lp1032
S'least'
p1033
aasg15
(dp1034
g17
g18
(g22
S'\x84D\xf4\x863`\xd5?'
p1035
tp1036
Rp1037
sg28
(lp1038
(g1030
g1031
F0.501
tp1039
a(g1030
g1033
F0.9999900000999989
tp1040
a(g1031
g1033
F0.6666666666666666
tp1041
assg3
F0.6666666666666666
sg33
(lp1042
(lp1043
g1030
aa(lp1044
g1031
aa(lp1045
g1033
aasg2
F0.8164965809277261
ssI50
(dp1046
g1
F0.8164965809277261
sg7
(lp1047
(lp1048
S'unhappy'
p1049
aS'sad'
p1050
aa(lp1051
S'miserable'
p1052
aasg15
(dp1053
g17
g18
(g22
S'%\x08\xa2\x88\x8f\x99\xe9?'
p1054
tp1055
Rp1056
sg28
(lp1057
(g1050
g1049
F0.8
tp1058
a(g1050
g1052
F0.9999990000010001
tp1059
a(g1049
g1052
F0.9999950000249999
tp1060
assg3
F0.6666666666666666
sg33
(lp1061
(lp1062
g1050
aa(lp1063
g1049
aa(lp1064
g1052
aasg2
F0.8164965809277261
ssI51
(dp1065
g1
F1.0
sg7
(lp1066
(lp1067
S'competent'
p1068
aa(lp1069
S'impressive'
p1070
aasg15
(dp1071
g17
g18
(g22
S'\x835X\x07\xeb\xff\xef?'
p1072
tp1073
Rp1074
sg28
(lp1075
(g1068
g1070
F0.9999900000999989
tp1076
assg3
F1.0
sg33
(lp1077
(lp1078
g1068
aa(lp1079
g1070
aasg2
F1.0
ssI52
(dp1080
g1
F1.0
sg7
(lp1081
(lp1082
S'relevant'
p1083
aa(lp1084
S'crucial'
p1085
aasg15
(dp1086
g17
g18
(g22
S')\xab\xa8\x83\xf5\xff\xef?'
p1087
tp1088
Rp1089
sg28
(lp1090
(g1083
g1085
F0.9999950000249999
tp1091
assg3
F1.0
sg33
(lp1092
(lp1093
g1083
aa(lp1094
g1085
aasg2
F1.0
ssI53
(dp1095
g1
F1.0
sg7
(lp1096
(lp1097
S'effective'
p1098
aa(lp1099
S'potent'
p1100
aasg15
(dp1101
g17
g18
(g22
S')\xab\xa8\x83\xf5\xff\xef?'
p1102
tp1103
Rp1104
sg28
(lp1105
(g1098
g1100
F0.9999950000249999
tp1106
assg3
F1.0
sg33
(lp1107
(lp1108
g1098
aa(lp1109
g1100
aasg2
F1.0
ssI54
(dp1110
g1
F0.6
sg7
(lp1111
(lp1112
S'general'
p1113
aa(lp1114
S'broad'
p1115
aa(lp1116
S'broader'
p1117
aa(lp1118
S'wide-ranging'
p1119
aa(lp1120
S'diverse'
p1121
aasg15
(dp1122
g17
g18
(g22
S'\xbeq\x12K\r1\xa8?'
p1123
tp1124
Rp1125
sg28
(lp1126
(g1113
g1115
F0.501
tp1127
a(g1113
g1121
F0.501
tp1128
a(g1113
g1117
F0.9999900000999989
tp1129
a(g1113
g1119
F0.501
tp1130
a(g1115
g1121
F0.501
tp1131
a(g1115
g1117
F0.9999900000999989
tp1132
a(g1115
g1119
F0.75
tp1133
a(g1121
g1117
F0.9999950000249999
tp1134
a(g1121
g1119
F0.9999950000249999
tp1135
a(g1117
g1119
F0.9999900000999989
tp1136
assg3
F0.8
sg33
(lp1137
(lp1138
g1113
aa(lp1139
g1115
aa(lp1140
g1121
aa(lp1141
g1117
aa(lp1142
g1119
aasg2
F0.6
ssI55
(dp1143
g1
F0.5477225575051661
sg7
(lp1144
(lp1145
S'costly'
p1146
aa(lp1147
S'expensive'
p1148
aa(lp1149
S'excessive'
p1150
aS'exorbitant'
p1151
aasg15
(dp1152
g17
g18
(g22
S'*\x19\x7f\x00\xc2\xf2\xc6?'
p1153
tp1154
Rp1155
sg28
(lp1156
(g1148
g1146
F0.7142857142857143
tp1157
a(g1148
g1150
F0.9999900000999989
tp1158
a(g1148
g1151
F0.9999980000040001
tp1159
a(g1146
g1150
F0.501
tp1160
a(g1146
g1151
F0.9999950000249999
tp1161
a(g1150
g1151
F0.501
tp1162
assg3
F0.6666666666666666
sg33
(lp1163
(lp1164
g1148
aa(lp1165
g1146
aa(lp1166
g1150
aa(lp1167
g1151
aasg2
F0.5477225575051661
ssI56
(dp1168
g1
F0.8944271909999159
sg7
(lp1169
(lp1170
S'big'
p1171
aa(lp1172
S'substantial'
p1173
aS'major'
p1174
aa(lp1175
S'tremendous'
p1176
aS'staggering'
p1177
aasg15
(dp1178
g17
g18
(g22
S'#\x9deJf"\xb1?'
p1179
tp1180
Rp1181
sg28
(lp1182
(g1171
g1173
F0.6666666666666666
tp1183
a(g1171
g1174
F0.6
tp1184
a(g1171
g1176
F0.9999966666777778
tp1185
a(g1171
g1177
F0.9999900000999989
tp1186
a(g1173
g1174
F0.6666666666666666
tp1187
a(g1173
g1176
F0.9999966666777778
tp1188
a(g1173
g1177
F0.9999900000999989
tp1189
a(g1174
g1176
F0.9999900000999989
tp1190
a(g1174
g1177
F0.501
tp1191
a(g1176
g1177
F0.501
tp1192
assg3
F0.8
sg33
(lp1193
(lp1194
g1171
aa(lp1195
g1173
aa(lp1196
g1174
aa(lp1197
g1176
aa(lp1198
g1177
aasg2
F0.8944271909999159
ssI57
(dp1199
g1
F0.5400617248673216
sg7
(lp1200
(lp1201
S'sizeable'
p1202
aa(lp1203
S'huge'
p1204
aa(lp1205
S'major'
p1206
aa(lp1207
S'immense'
p1208
aS'formidable'
p1209
aa(lp1210
S'colossal'
p1211
aS'overwhelming'
p1212
aS'tremendous'
p1213
aasg15
(dp1214
g17
g18
(g22
S'q\x80z\x9evA0?'
p1215
tp1216
Rp1217
sg28
(lp1218
(g1206
g1202
F0.9999900000999989
tp1219
a(g1206
g1204
F0.9999900000999989
tp1220
a(g1206
g1212
F0.9999900000999989
tp1221
a(g1206
g1209
F0.9999900000999989
tp1222
a(g1206
g1213
F0.9999900000999989
tp1223
a(g1206
g1208
F0.9999900000999989
tp1224
a(g1206
g1211
F0.9999900000999989
tp1225
a(g1202
g1204
F0.9999999418604685
tp1226
a(g1202
g1212
F0.501
tp1227
a(g1202
g1209
F0.501
tp1228
a(g1202
g1213
F0.9999900000999989
tp1229
a(g1202
g1208
F0.501
tp1230
a(g1202
g1211
F0.501
tp1231
a(g1204
g1212
F0.9999999872935199
tp1232
a(g1204
g1209
F0.9999900000999989
tp1233
a(g1204
g1213
F0.9999950000249999
tp1234
a(g1204
g1208
F0.9999950000249999
tp1235
a(g1204
g1211
F0.9999999418604685
tp1236
a(g1212
g1209
F0.501
tp1237
a(g1212
g1213
F0.9999900000999989
tp1238
a(g1212
g1208
F0.499
tp1239
a(g1212
g1211
F0.501
tp1240
a(g1209
g1213
F0.9999900000999989
tp1241
a(g1209
g1208
F0.499
tp1242
a(g1209
g1211
F0.501
tp1243
a(g1213
g1208
F0.501
tp1244
a(g1213
g1211
F0.501
tp1245
a(g1208
g1211
F0.501
tp1246
assg3
F0.6785714285714286
sg33
(lp1247
(lp1248
g1206
aa(lp1249
g1202
aa(lp1250
g1204
aa(lp1251
g1212
aa(lp1252
g1209
aa(lp1253
g1213
aa(lp1254
g1208
aa(lp1255
g1211
aasg2
F0.5400617248673216
ssI58
(dp1256
g1
F0.6708203932499369
sg7
(lp1257
(lp1258
S'fine'
p1259
aS'well'
p1260
aa(lp1261
S'terrific'
p1262
aS'awesome'
p1263
aa(lp1264
S'perfect'
p1265
aasg15
(dp1266
g17
g18
(g22
S'x\x0f`;\n)\xc3?'
p1267
tp1268
Rp1269
sg28
(lp1270
(g1259
g1260
F0.5714285714285714
tp1271
a(g1259
g1263
F0.9999900000999989
tp1272
a(g1259
g1265
F0.4
tp1273
a(g1259
g1262
F0.9999987500015626
tp1274
a(g1260
g1263
F0.9999966666777778
tp1275
a(g1260
g1265
F0.9999999963490325
tp1276
a(g1260
g1262
F0.9999966666777778
tp1277
a(g1263
g1265
F0.9979508196721312
tp1278
a(g1263
g1262
F0.75
tp1279
a(g1265
g1262
F0.875
tp1280
assg3
F0.7
sg33
(lp1281
(lp1282
g1259
aa(lp1283
g1260
aa(lp1284
g1263
aa(lp1285
g1265
aa(lp1286
g1262
aasg2
F0.6708203932499369
ssI59
(dp1287
g1
F1.0
sg7
(lp1288
(lp1289
S'little'
p1290
aa(lp1291
S'feeble'
p1292
aasg15
(dp1293
g17
g18
(g22
S'\x835X\x07\xeb\xff\xef?'
p1294
tp1295
Rp1296
sg28
(lp1297
(g1290
g1292
F0.9999900000999989
tp1298
assg3
F1.0
sg33
(lp1299
(lp1300
g1290
aa(lp1301
g1292
aasg2
F1.0
ssI60
(dp1302
g1
F0.0
sg7
(lp1303
(lp1304
S'improper'
p1305
aS'poor'
p1306
aa(lp1307
S'incorrect'
p1308
aS'unsatisfactory'
p1309
aasg15
(dp1310
g17
g18
(g22
S'\xe1\xce\xcaf\x80\x18\xc0?'
p1311
tp1312
Rp1313
sg28
(lp1314
(g1306
g1308
F0.9999900000999989
tp1315
a(g1306
g1309
F0.9999900000999989
tp1316
a(g1306
g1305
F0.9999900000999989
tp1317
a(g1308
g1309
F0.501
tp1318
a(g1308
g1305
F0.501
tp1319
a(g1309
g1305
F0.501
tp1320
assg3
F0.3333333333333333
sg33
(lp1321
(lp1322
g1306
aa(lp1323
g1308
aa(lp1324
g1309
aa(lp1325
g1305
aasg2
F0.0
ssI61
(dp1326
g1
F1.0
sg7
(lp1327
(lp1328
S'unusual'
p1329
aa(lp1330
S'rare'
p1331
aasg15
(dp1332
g17
g18
(g22
S'\xde\xa7\xb8d\x08\xd6\xe3?'
p1333
tp1334
Rp1335
sg28
(lp1336
(g1329
g1331
F0.6198770491803278
tp1337
assg3
F1.0
sg33
(lp1338
(lp1339
g1329
aa(lp1340
g1331
aasg2
F1.0
ssI62
(dp1341
g1
F0.5962847939999439
sg7
(lp1342
(lp1343
S'sizeable'
p1344
aa(lp1345
S'big'
p1346
aa(lp1347
S'huge'
p1348
aa(lp1349
S'immense'
p1350
aS'enormous'
p1351
aS'tremendous'
p1352
aasg15
(dp1353
g17
g18
(g22
S'\x02&\xa7\x1b\xd4\xc1\xba?'
p1354
tp1355
Rp1356
sg28
(lp1357
(g1346
g1344
F0.9999900000999989
tp1358
a(g1346
g1351
F0.625
tp1359
a(g1346
g1348
F0.9994416527079844
tp1360
a(g1346
g1352
F0.9999966666777778
tp1361
a(g1346
g1350
F0.9999980000040001
tp1362
a(g1344
g1351
F0.9999900000999989
tp1363
a(g1344
g1348
F0.9999999418604685
tp1364
a(g1344
g1352
F0.9999900000999989
tp1365
a(g1344
g1350
F0.501
tp1366
a(g1351
g1348
F0.6666666666666666
tp1367
a(g1351
g1352
F0.9999975000062501
tp1368
a(g1351
g1350
F0.9999975000062501
tp1369
a(g1348
g1352
F0.9999950000249999
tp1370
a(g1348
g1350
F0.9999950000249999
tp1371
a(g1352
g1350
F0.501
tp1372
assg3
F0.6666666666666666
sg33
(lp1373
(lp1374
g1346
aa(lp1375
g1344
aa(lp1376
g1351
aa(lp1377
g1348
aa(lp1378
g1352
aa(lp1379
g1350
aasg2
F0.5962847939999439
ssI63
(dp1380
g1
F-0.3333333333333333
sg7
(lp1381
(lp1382
S'weak'
p1383
aa(lp1384
S'shaky'
p1385
aa(lp1386
S'vulnerable'
p1387
aasg15
(dp1388
g17
g18
(g22
S'\xe6\xcfEh\xe8\xff\xe7?'
p1389
tp1390
Rp1391
sg28
(lp1392
(g1387
g1383
F0.75
tp1393
a(g1387
g1385
F0.9999950000249999
tp1394
a(g1383
g1385
F0.9999900000999989
tp1395
assg3
F0.3333333333333333
sg33
(lp1396
(lp1397
g1387
aa(lp1398
g1383
aa(lp1399
g1385
aasg2
F0.3333333333333333
ssI64
(dp1400
g1
F0.5477225575051661
sg7
(lp1401
(lp1402
S'few'
p1403
aa(lp1404
S'limited'
p1405
aa(lp1406
S'scant'
p1407
aS'meagre'
p1408
aasg15
(dp1409
g17
g18
(g22
S'!\xd82\xcf\xf0\x9c\xba?'
p1410
tp1411
Rp1412
sg28
(lp1413
(g1405
g1403
F0.8333333333333334
tp1414
a(g1405
g1408
F0.499
tp1415
a(g1405
g1407
F0.499
tp1416
a(g1403
g1408
F0.9999966666777778
tp1417
a(g1403
g1407
F0.9999966666777778
tp1418
a(g1408
g1407
F0.501
tp1419
assg3
F0.6666666666666666
sg33
(lp1420
(lp1421
g1405
aa(lp1422
g1403
aa(lp1423
g1408
aa(lp1424
g1407
aasg2
F0.5477225575051661
ssI65
(dp1425
g1
F1.0
sg7
(lp1426
(lp1427
S'small'
p1428
aa(lp1429
S'minute'
p1430
aa(lp1431
S'miniscule'
p1432
aasg15
(dp1433
g17
g18
(g22
S'a\x95\xe3\xe2+\x08\xe0?'
p1434
tp1435
Rp1436
sg28
(lp1437
(g1428
g1430
F0.9999999882214372
tp1438
a(g1428
g1432
F0.9999950000249999
tp1439
a(g1430
g1432
F0.501
tp1440
assg3
F1.0
sg33
(lp1441
(lp1442
g1428
aa(lp1443
g1430
aa(lp1444
g1432
aasg2
F1.0
ssI66
(dp1445
g1
F0.7745966692414834
sg7
(lp1446
(lp1447
S'general'
p1448
aS'commonplace'
p1449
aa(lp1450
S'comprehensive'
p1451
aS'universal'
p1452
aS'global'
p1453
aasg15
(dp1454
g17
g18
(g22
S'\xe2\n9\x8f\xfc\xe4~?'
p1455
tp1456
Rp1457
sg28
(lp1458
(g1448
g1449
F0.9999900000999989
tp1459
a(g1448
g1451
F0.501
tp1460
a(g1448
g1452
F0.9520578923563998
tp1461
a(g1448
g1453
F0.9999950000249999
tp1462
a(g1449
g1451
F0.501
tp1463
a(g1449
g1452
F0.501
tp1464
a(g1449
g1453
F0.501
tp1465
a(g1451
g1452
F0.501
tp1466
a(g1451
g1453
F0.501
tp1467
a(g1452
g1453
F0.501
tp1468
assg3
F0.6
sg33
(lp1469
(lp1470
g1448
aa(lp1471
g1449
aa(lp1472
g1451
aa(lp1473
g1452
aa(lp1474
g1453
aasg2
F0.7745966692414834
ssI67
(dp1475
g1
F1.0
sg7
(lp1476
(lp1477
S'awful'
p1478
aa(lp1479
S'dreadful'
p1480
aasg15
(dp1481
g17
g18
(g22
S'\xde\x85\xe9`\xfd\xff\xef?'
p1482
tp1483
Rp1484
sg28
(lp1485
(g1478
g1480
F0.9999987500015626
tp1486
assg3
F1.0
sg33
(lp1487
(lp1488
g1478
aa(lp1489
g1480
aasg2
F1.0
ssI68
(dp1490
g1
F0.0
sg7
(lp1491
(lp1492
S'low'
p1493
aa(lp1494
S'scarce'
p1495
aa(lp1496
S'inadequate'
p1497
aa(lp1498
S'unacceptable'
p1499
aasg15
(dp1500
g17
g18
(g22
S'B>u\x89V\xef\xbf?'
p1501
tp1502
Rp1503
sg28
(lp1504
(g1497
g1493
F0.9999900000999989
tp1505
a(g1497
g1499
F0.499
tp1506
a(g1497
g1495
F0.499
tp1507
a(g1493
g1499
F0.9999900000999989
tp1508
a(g1493
g1495
F0.9999900000999989
tp1509
a(g1499
g1495
F0.501
tp1510
assg3
F0.5
sg33
(lp1511
(lp1512
g1497
aa(lp1513
g1493
aa(lp1514
g1499
aa(lp1515
g1495
aasg2
F0.0
ssI69
(dp1516
g1
F1.0
sg7
(lp1517
(lp1518
S'little'
p1519
aa(lp1520
S'tiny'
p1521
aasg15
(dp1522
g17
g18
(g22
S'\xa4\xaeo\x02\xf9\xff\xef?'
p1523
tp1524
Rp1525
sg28
(lp1526
(g1519
g1521
F0.9999966666777778
tp1527
assg3
F1.0
sg33
(lp1528
(lp1529
g1519
aa(lp1530
g1521
aasg2
F1.0
ssI70
(dp1531
g1
F-0.3333333333333333
sg7
(lp1532
(lp1533
S'hardworking'
p1534
aa(lp1535
S'tenacious'
p1536
aa(lp1537
S'tough'
p1538
aasg15
(dp1539
g17
g18
(g22
S'\x9b\x05G\x8b$\x08\xe0?'
p1540
tp1541
Rp1542
sg28
(lp1543
(g1538
g1534
F0.9999980000040001
tp1544
a(g1538
g1536
F0.9999900000999989
tp1545
a(g1534
g1536
F0.501
tp1546
assg3
F0.3333333333333333
sg33
(lp1547
(lp1548
g1538
aa(lp1549
g1534
aa(lp1550
g1536
aasg2
F0.3333333333333333
ssI71
(dp1551
g1
F1.0
sg7
(lp1552
(lp1553
S'cute'
p1554
aa(lp1555
S'gorgeous'
p1556
aasg15
(dp1557
g17
g18
(g22
S'\xab\xaa\xaa\xaa\xaa\xaa\xea?'
p1558
tp1559
Rp1560
sg28
(lp1561
(g1554
g1556
F0.8333333333333334
tp1562
assg3
F1.0
sg33
(lp1563
(lp1564
g1554
aa(lp1565
g1556
aasg2
F1.0
ssI72
(dp1566
g1
F0.8164965809277261
sg7
(lp1567
(lp1568
S'known'
p1569
aa(lp1570
S'noteworthy'
p1571
aS'celebrated'
p1572
aasg15
(dp1573
g17
g18
(g22
S'\xa4\xd0\x8b#\x1c\x08\xe0?'
p1574
tp1575
Rp1576
sg28
(lp1577
(g1569
g1572
F0.9999900000999989
tp1578
a(g1569
g1571
F0.9999900000999989
tp1579
a(g1572
g1571
F0.501
tp1580
assg3
F0.6666666666666666
sg33
(lp1581
(lp1582
g1569
aa(lp1583
g1572
aa(lp1584
g1571
aasg2
F0.8164965809277261
ssI73
(dp1585
g1
F1.0
sg7
(lp1586
(lp1587
S'intact'
p1588
aa(lp1589
S'sturdy'
p1590
aasg15
(dp1591
g17
g18
(g22
S'\xd5x\xe9&1\x08\xe0?'
p1592
tp1593
Rp1594
sg28
(lp1595
(g1588
g1590
F0.501
tp1596
assg3
F1.0
sg33
(lp1597
(lp1598
g1588
aa(lp1599
g1590
aasg2
F1.0
ssI74
(dp1600
g1
F0.8164965809277261
sg7
(lp1601
(lp1602
S'big'
p1603
aa(lp1604
S'vast'
p1605
aS'extensive'
p1606
aasg15
(dp1607
g17
g18
(g22
S'+\x11i\x8eDU\xe5?'
p1608
tp1609
Rp1610
sg28
(lp1611
(g1603
g1606
F0.6666666666666666
tp1612
a(g1603
g1605
F0.9999980000040001
tp1613
a(g1606
g1605
F0.9999900000999989
tp1614
assg3
F0.6666666666666666
sg33
(lp1615
(lp1616
g1603
aa(lp1617
g1606
aa(lp1618
g1605
aasg2
F0.8164965809277261
ssI75
(dp1619
g1
F1.0
sg7
(lp1620
(lp1621
S'hard'
p1622
aa(lp1623
S'problematic'
p1624
aasg15
(dp1625
g17
g18
(g22
S'\xafy\xd3\xc1\xfa\xff\xef?'
p1626
tp1627
Rp1628
sg28
(lp1629
(g1622
g1624
F0.9999975000062501
tp1630
assg3
F1.0
sg33
(lp1631
(lp1632
g1622
aa(lp1633
g1624
aasg2
F1.0
ssI76
(dp1634
g1
F1.0
sg7
(lp1635
(lp1636
S'annoying'
p1637
aa(lp1638
S'obnoxious'
p1639
aasg15
(dp1640
g17
g18
(g22
S'\x835X\x07\xeb\xff\xef?'
p1641
tp1642
Rp1643
sg28
(lp1644
(g1637
g1639
F0.9999900000999989
tp1645
assg3
F1.0
sg33
(lp1646
(lp1647
g1637
aa(lp1648
g1639
aasg2
F1.0
ssI77
(dp1649
g1
F0.8164965809277261
sg7
(lp1650
(lp1651
S'sad'
p1652
aa(lp1653
S'miserable'
p1654
aS'terrible'
p1655
aasg15
(dp1656
g17
g18
(g22
S'J\xae\xc9j\xf3\xff\xef?'
p1657
tp1658
Rp1659
sg28
(lp1660
(g1652
g1655
F0.9999975000062501
tp1661
a(g1652
g1654
F0.9999990000010001
tp1662
a(g1655
g1654
F0.9999975000062501
tp1663
assg3
F0.6666666666666666
sg33
(lp1664
(lp1665
g1652
aa(lp1666
g1655
aa(lp1667
g1654
aasg2
F0.8164965809277261
ssI78
(dp1668
g1
F0.0
sg7
(lp1669
(lp1670
S'fair'
p1671
aa(lp1672
S'fairer'
p1673
aa(lp1674
S'fairest'
p1675
aa(lp1676
S'beautiful'
p1677
aasg15
(dp1678
g17
g18
(g22
S'\xdd\xb5\xea-L\x10\xd0?'
p1679
tp1680
Rp1681
sg28
(lp1682
(g1677
g1671
F0.9999950000249999
tp1683
a(g1677
g1673
F0.9999950000249999
tp1684
a(g1677
g1675
F0.501
tp1685
a(g1671
g1673
F0.9999950000249999
tp1686
a(g1671
g1675
F0.9999900000999989
tp1687
a(g1673
g1675
F0.501
tp1688
assg3
F0.5
sg33
(lp1689
(lp1690
g1677
aa(lp1691
g1671
aa(lp1692
g1673
aa(lp1693
g1675
aasg2
F0.0
sss.