(dp0
S'tau'
p1
F0.8081871345029243
sS'|tau|'
p2
F0.9719298245614033
sS'pairwise'
p3
F0.9040935672514616
sS'ranking'
p4
(dp5
I0
(dp6
g1
F1.0
sS'gold'
p7
(lp8
(lp9
S'large'
p10
aa(lp11
S'larger'
p12
aasS'raw'
p13
(dp14
S'prob*'
p15
cnumpy.core.multiarray
scalar
p16
(cnumpy
dtype
p17
(S'f8'
p18
I0
I1
tp19
Rp20
(I3
S'<'
p21
NNNI-1
I-1
I0
tp22
bS'\x10\xf6\xb7u\x95\xfb\xef?'
p23
tp24
Rp25
sS'link-probs'
p26
(lp27
(g10
g12
F0.9994609164420485
tp28
assg3
F1.0
sS'algo'
p29
(lp30
(lp31
g10
aa(lp32
g12
aasg2
F1.0
ssI1
(dp33
g1
F1.0
sg7
(lp34
(lp35
S'mean'
p36
aa(lp37
S'meaner'
p38
aasg13
(dp39
g15
g16
(g20
S'\xd5x\xe9&1\x08\xe0?'
p40
tp41
Rp42
sg26
(lp43
(g36
g38
F0.501
tp44
assg3
F1.0
sg29
(lp45
(lp46
g36
aa(lp47
g38
aasg2
F1.0
ssI2
(dp48
g1
F1.0
sg7
(lp49
(lp50
S'easy'
p51
aa(lp52
S'easier'
p53
aasg13
(dp54
g15
g16
(g20
S'\xce\x85\xc6b\x13m\xef?'
p55
tp56
Rp57
sg26
(lp58
(g51
g53
F0.982064907952173
tp59
assg3
F1.0
sg29
(lp60
(lp61
g51
aa(lp62
g53
aasg2
F1.0
ssI3
(dp63
g1
F1.0
sg7
(lp64
(lp65
S'pure'
p66
aa(lp67
S'purer'
p68
aasg13
(dp69
g15
g16
(g20
S'\x835X\x07\xeb\xff\xef?'
p70
tp71
Rp72
sg26
(lp73
(g66
g68
F0.9999900000999989
tp74
assg3
F1.0
sg29
(lp75
(lp76
g66
aa(lp77
g68
aasg2
F1.0
ssI4
(dp78
g1
F-1.0
sg7
(lp79
(lp80
S'bold'
p81
aa(lp82
S'bolder'
p83
aasg13
(dp84
g15
g16
(g20
S'V\x0e-\xb2\x9d\xef\xdf?'
p85
tp86
Rp87
sg26
(lp88
(g83
g81
F0.499
tp89
assg3
F0.0
sg29
(lp90
(lp91
g83
aa(lp92
g81
aasg2
F1.0
ssI5
(dp93
g1
F-1.0
sg7
(lp94
(lp95
S'stark'
p96
aa(lp97
S'starker'
p98
aasg13
(dp99
g15
g16
(g20
S'V\x0e-\xb2\x9d\xef\xdf?'
p100
tp101
Rp102
sg26
(lp103
(g98
g96
F0.499
tp104
assg3
F0.0
sg29
(lp105
(lp106
g98
aa(lp107
g96
aasg2
F1.0
ssI6
(dp108
g1
F1.0
sg7
(lp109
(lp110
S'close'
p111
aa(lp112
S'closer'
p113
aasg13
(dp114
g15
g16
(g20
S'DDDDDD\xe4?'
p115
tp116
Rp117
sg26
(lp118
(g111
g113
F0.6333333333333333
tp119
assg3
F1.0
sg29
(lp120
(lp121
g111
aa(lp122
g113
aasg2
F1.0
ssI7
(dp123
g1
F1.0
sg7
(lp124
(lp125
S'bright'
p126
aa(lp127
S'brighter'
p128
aasg13
(dp129
g15
g16
(g20
S'\xd4\xf6\xad\xdc\xff\xff\xef?'
p130
tp131
Rp132
sg26
(lp133
(g126
g128
F0.9999999342105306
tp134
assg3
F1.0
sg29
(lp135
(lp136
g126
aa(lp137
g128
aasg2
F1.0
ssI8
(dp138
g1
F1.0
sg7
(lp139
(lp140
S'smooth'
p141
aa(lp142
S'smoother'
p143
aasg13
(dp144
g15
g16
(g20
S'\xd5x\xe9&1\x08\xe0?'
p145
tp146
Rp147
sg26
(lp148
(g141
g143
F0.501
tp149
assg3
F1.0
sg29
(lp150
(lp151
g141
aa(lp152
g143
aasg2
F1.0
ssI9
(dp153
g1
F-1.0
sg7
(lp154
(lp155
S'many'
p156
aa(lp157
S'more'
p158
aasg13
(dp159
g15
g16
(g20
S')\xab\xa8\x83\xf5\xff\xef?'
p160
tp161
Rp162
sg26
(lp163
(g158
g156
F0.9999950000249999
tp164
assg3
F0.0
sg29
(lp165
(lp166
g158
aa(lp167
g156
aasg2
F1.0
ssI10
(dp168
g1
F1.0
sg7
(lp169
(lp170
S'cool'
p171
aa(lp172
S'cooler'
p173
aasg13
(dp174
g15
g16
(g20
S'\xda\xf9s\xe8\xff\xff\xef?'
p175
tp176
Rp177
sg26
(lp178
(g171
g173
F0.9999999561403528
tp179
assg3
F1.0
sg29
(lp180
(lp181
g171
aa(lp182
g173
aasg2
F1.0
ssI11
(dp183
g1
F1.0
sg7
(lp184
(lp185
S'slow'
p186
aa(lp187
S'slower'
p188
aasg13
(dp189
g15
g16
(g20
S'\xa6\xd9\xa7\xf8\xff\xff\xef?'
p190
tp191
Rp192
sg26
(lp193
(g186
g188
F0.9999999863201097
tp194
assg3
F1.0
sg29
(lp195
(lp196
g186
aa(lp197
g188
aasg2
F1.0
ssI12
(dp198
g1
F1.0
sg7
(lp199
(lp200
S'good'
p201
aa(lp202
S'great'
p203
aasg13
(dp204
g15
g16
(g20
S'"m\xa2=\xd0@\xef?'
p205
tp206
Rp207
sg26
(lp208
(g201
g203
F0.9766617969320672
tp209
assg3
F1.0
sg29
(lp210
(lp211
g201
aa(lp212
g203
aasg2
F1.0
ssI13
(dp213
g1
F1.0
sg7
(lp214
(lp215
S'long'
p216
aa(lp217
S'longer'
p218
aasg13
(dp219
g15
g16
(g20
S'"\xc9L8\xb5\xfd\xef?'
p220
tp221
Rp222
sg26
(lp223
(g216
g218
F0.9997202014549524
tp224
assg3
F1.0
sg29
(lp225
(lp226
g216
aa(lp227
g218
aasg2
F1.0
ssI14
(dp228
g1
F1.0
sg7
(lp229
(lp230
S'light'
p231
aa(lp232
S'lighter'
p233
aasg13
(dp234
g15
g16
(g20
S'\xafy\xd3\xc1\xfa\xff\xef?'
p235
tp236
Rp237
sg26
(lp238
(g231
g233
F0.9999975000062501
tp239
assg3
F1.0
sg29
(lp240
(lp241
g231
aa(lp242
g233
aasg2
F1.0
ssI15
(dp243
g1
F1.0
sg7
(lp244
(lp245
S'hot'
p246
aa(lp247
S'hotter'
p248
aasg13
(dp249
g15
g16
(g20
S'\xb9\x06\x94\xf2\xff\xff\xef?'
p250
tp251
Rp252
sg26
(lp253
(g246
g248
F0.9999999750000007
tp254
assg3
F1.0
sg29
(lp255
(lp256
g246
aa(lp257
g248
aasg2
F1.0
ssI16
(dp258
g1
F1.0
sg7
(lp259
(lp260
S'dre'
p261
aa(lp262
S'drier'
p263
aasg13
(dp264
g15
g16
(g20
S'\xd5x\xe9&1\x08\xe0?'
p265
tp266
Rp267
sg26
(lp268
(g261
g263
F0.501
tp269
assg3
F1.0
sg29
(lp270
(lp271
g261
aa(lp272
g263
aasg2
F1.0
ssI17
(dp273
g1
F-1.0
sg7
(lp274
(lp275
S'some'
p276
aa(lp277
S'more'
p278
aasg13
(dp279
g15
g16
(g20
S'\x835X\x07\xeb\xff\xef?'
p280
tp281
Rp282
sg26
(lp283
(g278
g276
F0.9999900000999989
tp284
assg3
F0.0
sg29
(lp285
(lp286
g278
aa(lp287
g276
aasg2
F1.0
ssI18
(dp288
g1
F1.0
sg7
(lp289
(lp290
S'less'
p291
aa(lp292
S'lesser'
p293
aasg13
(dp294
g15
g16
(g20
S'I\x92$I\x92$\xe9?'
p295
tp296
Rp297
sg26
(lp298
(g291
g293
F0.7857142857142857
tp299
assg3
F1.0
sg29
(lp300
(lp301
g291
aa(lp302
g293
aasg2
F1.0
ssI19
(dp303
g1
F1.0
sg7
(lp304
(lp305
S'holy'
p306
aa(lp307
S'holier'
p308
aasg13
(dp309
g15
g16
(g20
S'\xd5x\xe9&1\x08\xe0?'
p310
tp311
Rp312
sg26
(lp313
(g306
g308
F0.501
tp314
assg3
F1.0
sg29
(lp315
(lp316
g306
aa(lp317
g308
aasg2
F1.0
ssI20
(dp318
g1
F1.0
sg7
(lp319
(lp320
S'stupid'
p321
aa(lp322
S'stupider'
p323
aasg13
(dp324
g15
g16
(g20
S'\x835X\x07\xeb\xff\xef?'
p325
tp326
Rp327
sg26
(lp328
(g321
g323
F0.9999900000999989
tp329
assg3
F1.0
sg29
(lp330
(lp331
g321
aa(lp332
g323
aasg2
F1.0
ssI21
(dp333
g1
F1.0
sg7
(lp334
(lp335
S'pretty'
p336
aa(lp337
S'prettier'
p338
aasg13
(dp339
g15
g16
(g20
S'\xfd\x0f\xe9\xdc\xff\xff\xef?'
p340
tp341
Rp342
sg26
(lp343
(g336
g338
F0.9999999346405272
tp344
assg3
F1.0
sg29
(lp345
(lp346
g336
aa(lp347
g338
aasg2
F1.0
ssI22
(dp348
g1
F1.0
sg7
(lp349
(lp350
S'rich'
p351
aa(lp352
S'richer'
p353
aasg13
(dp354
g15
g16
(g20
S'\xc0\xfdo\xf7\xff\xff\xef?'
p355
tp356
Rp357
sg26
(lp358
(g351
g353
F0.999999984051037
tp359
assg3
F1.0
sg29
(lp360
(lp361
g351
aa(lp362
g353
aasg2
F1.0
ssI23
(dp363
g1
F1.0
sg7
(lp364
(lp365
S'happy'
p366
aa(lp367
S'happier'
p368
aasg13
(dp369
g15
g16
(g20
S'r\x0e\xd1\xe7\xff\xff\xef?'
p370
tp371
Rp372
sg26
(lp373
(g366
g368
F0.999999954954957
tp374
assg3
F1.0
sg29
(lp375
(lp376
g366
aa(lp377
g368
aasg2
F1.0
ssI24
(dp378
g1
F-1.0
sg7
(lp379
(lp380
S'stupide'
p381
aa(lp382
S'stupider'
p383
aasg13
(dp384
g15
g16
(g20
S'V\x0e-\xb2\x9d\xef\xdf?'
p385
tp386
Rp387
sg26
(lp388
(g383
g381
F0.499
tp389
assg3
F0.0
sg29
(lp390
(lp391
g383
aa(lp392
g381
aasg2
F1.0
ssI25
(dp393
g1
F1.0
sg7
(lp394
(lp395
S'narrow'
p396
aa(lp397
S'narrower'
p398
aasg13
(dp399
g15
g16
(g20
S')\xab\xa8\x83\xf5\xff\xef?'
p400
tp401
Rp402
sg26
(lp403
(g396
g398
F0.9999950000249999
tp404
assg3
F1.0
sg29
(lp405
(lp406
g396
aa(lp407
g398
aasg2
F1.0
ssI26
(dp408
g1
F1.0
sg7
(lp409
(lp410
S'safe'
p411
aa(lp412
S'safer'
p413
aasg13
(dp414
g15
g16
(g20
S'\xb2\x8b\xd7?o\x10\xe6?'
p415
tp416
Rp417
sg26
(lp418
(g411
g413
F0.6895061728395062
tp419
assg3
F1.0
sg29
(lp420
(lp421
g411
aa(lp422
g413
aasg2
F1.0
ssI27
(dp423
g1
F1.0
sg7
(lp424
(lp425
S'sick'
p426
aa(lp427
S'sicker'
p428
aasg13
(dp429
g15
g16
(g20
S'\xd5x\xe9&1\x08\xe0?'
p430
tp431
Rp432
sg26
(lp433
(g426
g428
F0.501
tp434
assg3
F1.0
sg29
(lp435
(lp436
g426
aa(lp437
g428
aasg2
F1.0
ssI28
(dp438
g1
F1.0
sg7
(lp439
(lp440
S'grave'
p441
aa(lp442
S'graver'
p443
aasg13
(dp444
g15
g16
(g20
S'\xd5x\xe9&1\x08\xe0?'
p445
tp446
Rp447
sg26
(lp448
(g441
g443
F0.501
tp449
assg3
F1.0
sg29
(lp450
(lp451
g441
aa(lp452
g443
aasg2
F1.0
ssI29
(dp453
g1
F1.0
sg7
(lp454
(lp455
S'lovely'
p456
aa(lp457
S'lovelier'
p458
aasg13
(dp459
g15
g16
(g20
S'\x835X\x07\xeb\xff\xef?'
p460
tp461
Rp462
sg26
(lp463
(g456
g458
F0.9999900000999989
tp464
assg3
F1.0
sg29
(lp465
(lp466
g456
aa(lp467
g458
aasg2
F1.0
ssI30
(dp468
g1
F1.0
sg7
(lp469
(lp470
S'subtle'
p471
aa(lp472
S'subtler'
p473
aasg13
(dp474
g15
g16
(g20
S'\x835X\x07\xeb\xff\xef?'
p475
tp476
Rp477
sg26
(lp478
(g471
g473
F0.9999900000999989
tp479
assg3
F1.0
sg29
(lp480
(lp481
g471
aa(lp482
g473
aasg2
F1.0
ssI31
(dp483
g1
F1.0
sg7
(lp484
(lp485
S'east'
p486
aa(lp487
S'easier'
p488
aasg13
(dp489
g15
g16
(g20
S'\xd5x\xe9&1\x08\xe0?'
p490
tp491
Rp492
sg26
(lp493
(g486
g488
F0.501
tp494
assg3
F1.0
sg29
(lp495
(lp496
g486
aa(lp497
g488
aasg2
F1.0
ssI32
(dp498
g1
F1.0
sg7
(lp499
(lp500
S'heavy'
p501
aa(lp502
S'heavier'
p503
aasg13
(dp504
g15
g16
(g20
S'\xbc\xd0\xb7\xd1\xff\xff\xef?'
p505
tp506
Rp507
sg26
(lp508
(g501
g503
F0.9999999137931108
tp509
assg3
F1.0
sg29
(lp510
(lp511
g501
aa(lp512
g503
aasg2
F1.0
ssI33
(dp513
g1
F1.0
sg7
(lp514
(lp515
S'sweet'
p516
aa(lp517
S'sweeter'
p518
aasg13
(dp519
g15
g16
(g20
S'\xd5x\xe9&1\x08\xe0?'
p520
tp521
Rp522
sg26
(lp523
(g516
g518
F0.501
tp524
assg3
F1.0
sg29
(lp525
(lp526
g516
aa(lp527
g518
aasg2
F1.0
ssI34
(dp528
g1
F1.0
sg7
(lp529
(lp530
S'weak'
p531
aa(lp532
S'weaker'
p533
aasg13
(dp534
g15
g16
(g20
S'\x9a\xa3\xe2\xe4\xff\xff\xef?'
p535
tp536
Rp537
sg26
(lp538
(g531
g533
F0.9999999494949521
tp539
assg3
F1.0
sg29
(lp540
(lp541
g531
aa(lp542
g533
aasg2
F1.0
ssI35
(dp543
g1
F1.0
sg7
(lp544
(lp545
S'far'
p546
aa(lp547
S'further'
p548
aasg13
(dp549
g15
g16
(g20
S',q\x86\xea\xff\xff\xef?'
p550
tp551
Rp552
sg26
(lp553
(g546
g548
F0.9999999600000016
tp554
assg3
F1.0
sg29
(lp555
(lp556
g546
aa(lp557
g548
aasg2
F1.0
ssI36
(dp558
g1
F1.0
sg7
(lp559
(lp560
S'strange'
p561
aa(lp562
S'stranger'
p563
aasg13
(dp564
g15
g16
(g20
S'\x00\x0e\x9f\xfd\xff\xff\xef?'
p565
tp566
Rp567
sg26
(lp568
(g561
g563
F0.9999999955693397
tp569
assg3
F1.0
sg29
(lp570
(lp571
g561
aa(lp572
g563
aasg2
F1.0
ssI37
(dp573
g1
F1.0
sg7
(lp574
(lp575
S'far'
p576
aa(lp577
S'farther'
p578
aasg13
(dp579
g15
g16
(g20
S'\xbbkY\xe8\xff\xff\xef?'
p580
tp581
Rp582
sg26
(lp583
(g576
g578
F0.9999999559471385
tp584
assg3
F1.0
sg29
(lp585
(lp586
g576
aa(lp587
g578
aasg2
F1.0
ssI38
(dp588
g1
F1.0
sg7
(lp589
(lp590
S'lucky'
p591
aa(lp592
S'luckier'
p593
aasg13
(dp594
g15
g16
(g20
S'\xafy\xd3\xc1\xfa\xff\xef?'
p595
tp596
Rp597
sg26
(lp598
(g591
g593
F0.9999975000062501
tp599
assg3
F1.0
sg29
(lp600
(lp601
g591
aa(lp602
g593
aasg2
F1.0
ssI39
(dp603
g1
F1.0
sg7
(lp604
(lp605
S'new'
p606
aa(lp607
S'newer'
p608
aasg13
(dp609
g15
g16
(g20
S'\xd5x\xe9&1\x08\xe0?'
p610
tp611
Rp612
sg26
(lp613
(g606
g608
F0.501
tp614
assg3
F1.0
sg29
(lp615
(lp616
g606
aa(lp617
g608
aasg2
F1.0
ssI40
(dp618
g1
F1.0
sg7
(lp619
(lp620
S'old'
p621
aa(lp622
S'older'
p623
aasg13
(dp624
g15
g16
(g20
S'\x00\xa4\xe4v\xae\x83\xeb?'
p625
tp626
Rp627
sg26
(lp628
(g621
g623
F0.8598244020587344
tp629
assg3
F1.0
sg29
(lp630
(lp631
g621
aa(lp632
g623
aasg2
F1.0
ssI41
(dp633
g1
F1.0
sg7
(lp634
(lp635
S'simple'
p636
aa(lp637
S'simpler'
p638
aasg13
(dp639
g15
g16
(g20
S'\xc8~\xec\xc7~\xec\xef?'
p640
tp641
Rp642
sg26
(lp643
(g636
g638
F0.9976190476190476
tp644
assg3
F1.0
sg29
(lp645
(lp646
g636
aa(lp647
g638
aasg2
F1.0
ssI42
(dp648
g1
F1.0
sg7
(lp649
(lp650
S'costly'
p651
aa(lp652
S'costlier'
p653
aasg13
(dp654
g15
g16
(g20
S'\xd5x\xe9&1\x08\xe0?'
p655
tp656
Rp657
sg26
(lp658
(g651
g653
F0.501
tp659
assg3
F1.0
sg29
(lp660
(lp661
g651
aa(lp662
g653
aasg2
F1.0
ssI43
(dp663
g1
F1.0
sg7
(lp664
(lp665
S'scarce'
p666
aa(lp667
S'scarcer'
p668
aasg13
(dp669
g15
g16
(g20
S'\xd5x\xe9&1\x08\xe0?'
p670
tp671
Rp672
sg26
(lp673
(g666
g668
F0.501
tp674
assg3
F1.0
sg29
(lp675
(lp676
g666
aa(lp677
g668
aasg2
F1.0
ssI44
(dp678
g1
F1.0
sg7
(lp679
(lp680
S'few'
p681
aa(lp682
S'fewer'
p683
aasg13
(dp684
g15
g16
(g20
S'\x10\xfc\xc0\x0f\xfc\xc0\xef?'
p685
tp686
Rp687
sg26
(lp688
(g681
g683
F0.9923076923076923
tp689
assg3
F1.0
sg29
(lp690
(lp691
g681
aa(lp692
g683
aasg2
F1.0
ssI45
(dp693
g1
F1.0
sg7
(lp694
(lp695
S'up'
p696
aa(lp697
S'upper'
p698
aasg13
(dp699
g15
g16
(g20
S'\xd5x\xe9&1\x08\xe0?'
p700
tp701
Rp702
sg26
(lp703
(g696
g698
F0.501
tp704
assg3
F1.0
sg29
(lp705
(lp706
g696
aa(lp707
g698
aasg2
F1.0
ssI46
(dp708
g1
F1.0
sg7
(lp709
(lp710
S'dirty'
p711
aa(lp712
S'dirtier'
p713
aasg13
(dp714
g15
g16
(g20
S'\xd5x\xe9&1\x08\xe0?'
p715
tp716
Rp717
sg26
(lp718
(g711
g713
F0.501
tp719
assg3
F1.0
sg29
(lp720
(lp721
g711
aa(lp722
g713
aasg2
F1.0
ssI47
(dp723
g1
F1.0
sg7
(lp724
(lp725
S'low'
p726
aa(lp727
S'lower'
p728
aasg13
(dp729
g15
g16
(g20
S'p\x94\xddo\x94\xdd\xef?'
p730
tp731
Rp732
sg26
(lp733
(g726
g728
F0.9957983193277311
tp734
assg3
F1.0
sg29
(lp735
(lp736
g726
aa(lp737
g728
aasg2
F1.0
ssI48
(dp738
g1
F1.0
sg7
(lp739
(lp740
S'nice'
p741
aa(lp742
S'nicer'
p743
aasg13
(dp744
g15
g16
(g20
S'\xf8\xce\x85\xf8\xff\xff\xef?'
p745
tp746
Rp747
sg26
(lp748
(g741
g743
F0.9999999860724236
tp749
assg3
F1.0
sg29
(lp750
(lp751
g741
aa(lp752
g743
aasg2
F1.0
ssI49
(dp753
g1
F1.0
sg7
(lp754
(lp755
S'sure'
p756
aa(lp757
S'surer'
p758
aasg13
(dp759
g15
g16
(g20
S'\x835X\x07\xeb\xff\xef?'
p760
tp761
Rp762
sg26
(lp763
(g756
g758
F0.9999900000999989
tp764
assg3
F1.0
sg29
(lp765
(lp766
g756
aa(lp767
g758
aasg2
F1.0
ssI50
(dp768
g1
F1.0
sg7
(lp769
(lp770
S'cold'
p771
aa(lp772
S'colder'
p773
aasg13
(dp774
g15
g16
(g20
S'\x97\x9eE\xc6\xff\xff\xef?'
p775
tp776
Rp777
sg26
(lp778
(g771
g773
F0.9999998924731298
tp779
assg3
F1.0
sg29
(lp780
(lp781
g771
aa(lp782
g773
aasg2
F1.0
ssI51
(dp783
g1
F1.0
sg7
(lp784
(lp785
S'rare'
p786
aa(lp787
S'rarer'
p788
aasg13
(dp789
g15
g16
(g20
S'\xd8\xdb\xf4\xee\xff\xff\xef?'
p790
tp791
Rp792
sg26
(lp793
(g786
g788
F0.9999999682539693
tp794
assg3
F1.0
sg29
(lp795
(lp796
g786
aa(lp797
g788
aasg2
F1.0
ssI52
(dp798
g1
F1.0
sg7
(lp799
(lp800
S'brave'
p801
aa(lp802
S'braver'
p803
aasg13
(dp804
g15
g16
(g20
S'\xd5x\xe9&1\x08\xe0?'
p805
tp806
Rp807
sg26
(lp808
(g801
g803
F0.501
tp809
assg3
F1.0
sg29
(lp810
(lp811
g801
aa(lp812
g803
aasg2
F1.0
ssI53
(dp813
g1
F1.0
sg7
(lp814
(lp815
S'proud'
p816
aa(lp817
S'prouder'
p818
aasg13
(dp819
g15
g16
(g20
S'\x835X\x07\xeb\xff\xef?'
p820
tp821
Rp822
sg26
(lp823
(g816
g818
F0.9999900000999989
tp824
assg3
F1.0
sg29
(lp825
(lp826
g816
aa(lp827
g818
aasg2
F1.0
ssI54
(dp828
g1
F1.0
sg7
(lp829
(lp830
S'clean'
p831
aa(lp832
S'cleaner'
p833
aasg13
(dp834
g15
g16
(g20
S'\xd5x\xe9&1\x08\xe0?'
p835
tp836
Rp837
sg26
(lp838
(g831
g833
F0.501
tp839
assg3
F1.0
sg29
(lp840
(lp841
g831
aa(lp842
g833
aasg2
F1.0
ssI55
(dp843
g1
F1.0
sg7
(lp844
(lp845
S'much'
p846
aa(lp847
S'more'
p848
aasg13
(dp849
g15
g16
(g20
S'-\xcf\x14\x84b\xb5\xee?'
p850
tp851
Rp852
sg26
(lp853
(g846
g848
F0.959641702624571
tp854
assg3
F1.0
sg29
(lp855
(lp856
g846
aa(lp857
g848
aasg2
F1.0
ssI56
(dp858
g1
F1.0
sg7
(lp859
(lp860
S'noble'
p861
aa(lp862
S'nobler'
p863
aasg13
(dp864
g15
g16
(g20
S')\xab\xa8\x83\xf5\xff\xef?'
p865
tp866
Rp867
sg26
(lp868
(g861
g863
F0.9999950000249999
tp869
assg3
F1.0
sg29
(lp870
(lp871
g861
aa(lp872
g863
aasg2
F1.0
ssI57
(dp873
g1
F1.0
sg7
(lp874
(lp875
S'fast'
p876
aa(lp877
S'faster'
p878
aasg13
(dp879
g15
g16
(g20
S'\xcb\x04\x968T\x00\xef?'
p880
tp881
Rp882
sg26
(lp883
(g876
g878
F0.9687901597209473
tp884
assg3
F1.0
sg29
(lp885
(lp886
g876
aa(lp887
g878
aasg2
F1.0
ssI58
(dp888
g1
F1.0
sg7
(lp889
(lp890
S'deep'
p891
aa(lp892
S'deeper'
p893
aasg13
(dp894
g15
g16
(g20
S'O\x83\xfe\xd3\xff\xff\xef?'
p895
tp896
Rp897
sg26
(lp898
(g891
g893
F0.9999999180327935
tp899
assg3
F1.0
sg29
(lp900
(lp901
g891
aa(lp902
g893
aasg2
F1.0
ssI59
(dp903
g1
F-1.0
sg7
(lp904
(lp905
S'moist'
p906
aa(lp907
S'moister'
p908
aasg13
(dp909
g15
g16
(g20
S'V\x0e-\xb2\x9d\xef\xdf?'
p910
tp911
Rp912
sg26
(lp913
(g908
g906
F0.499
tp914
assg3
F0.0
sg29
(lp915
(lp916
g908
aa(lp917
g906
aasg2
F1.0
ssI60
(dp918
g1
F1.0
sg7
(lp919
(lp920
S'weird'
p921
aa(lp922
S'weirder'
p923
aasg13
(dp924
g15
g16
(g20
S'7\xcf\x05c\xfe\xff\xef?'
p925
tp926
Rp927
sg26
(lp928
(g921
g923
F0.9999992307698226
tp929
assg3
F1.0
sg29
(lp930
(lp931
g921
aa(lp932
g923
aasg2
F1.0
ssI61
(dp933
g1
F1.0
sg7
(lp934
(lp935
S'wise'
p936
aa(lp937
S'wiser'
p938
aasg13
(dp939
g15
g16
(g20
S')\xab\xa8\x83\xf5\xff\xef?'
p940
tp941
Rp942
sg26
(lp943
(g936
g938
F0.9999950000249999
tp944
assg3
F1.0
sg29
(lp945
(lp946
g936
aa(lp947
g938
aasg2
F1.0
ssI62
(dp948
g1
F1.0
sg7
(lp949
(lp950
S'sound'
p951
aa(lp952
S'sounder'
p953
aasg13
(dp954
g15
g16
(g20
S'\x835X\x07\xeb\xff\xef?'
p955
tp956
Rp957
sg26
(lp958
(g951
g953
F0.9999900000999989
tp959
assg3
F1.0
sg29
(lp960
(lp961
g951
aa(lp962
g953
aasg2
F1.0
ssI63
(dp963
g1
F1.0
sg7
(lp964
(lp965
S'soft'
p966
aa(lp967
S'softer'
p968
aasg13
(dp969
g15
g16
(g20
S'\xd5x\xe9&1\x08\xe0?'
p970
tp971
Rp972
sg26
(lp973
(g966
g968
F0.501
tp974
assg3
F1.0
sg29
(lp975
(lp976
g966
aa(lp977
g968
aasg2
F1.0
ssI64
(dp978
g1
F1.0
sg7
(lp979
(lp980
S'mighty'
p981
aa(lp982
S'mightier'
p983
aasg13
(dp984
g15
g16
(g20
S'V\x0e-\xb2\x9d\xef\xdf?'
p985
tp986
Rp987
sg26
(lp988
(g981
g983
F0.499
tp989
assg3
F1.0
sg29
(lp990
(lp991
g981
aa(lp992
g983
aasg2
F1.0
ssI65
(dp993
g1
F1.0
sg7
(lp994
(lp995
S'little'
p996
aa(lp997
S'less'
p998
aasg13
(dp999
g15
g16
(g20
S'\x8f\xe6\x0f6\x1e\xcd\xef?'
p1000
tp1001
Rp1002
sg26
(lp1003
(g996
g998
F0.9937888198757764
tp1004
assg3
F1.0
sg29
(lp1005
(lp1006
g996
aa(lp1007
g998
aasg2
F1.0
ssI66
(dp1008
g1
F1.0
sg7
(lp1009
(lp1010
S'tough'
p1011
aa(lp1012
S'tougher'
p1013
aasg13
(dp1014
g15
g16
(g20
S'\xe1\x8bC\xf9\xff\xff\xef?'
p1015
tp1016
Rp1017
sg26
(lp1018
(g1011
g1013
F0.9999999874529487
tp1019
assg3
F1.0
sg29
(lp1020
(lp1021
g1011
aa(lp1022
g1013
aasg2
F1.0
ssI67
(dp1023
g1
F1.0
sg7
(lp1024
(lp1025
S'quiet'
p1026
aa(lp1027
S'quieter'
p1028
aasg13
(dp1029
g15
g16
(g20
S'\xde6\xb4\xd4\xff\xff\xef?'
p1030
tp1031
Rp1032
sg26
(lp1033
(g1026
g1028
F0.9999999193548452
tp1034
assg3
F1.0
sg29
(lp1035
(lp1036
g1026
aa(lp1037
g1028
aasg2
F1.0
ssI68
(dp1038
g1
F1.0
sg7
(lp1039
(lp1040
S'broad'
p1041
aa(lp1042
S'broader'
p1043
aasg13
(dp1044
g15
g16
(g20
S'\x835X\x07\xeb\xff\xef?'
p1045
tp1046
Rp1047
sg26
(lp1048
(g1041
g1043
F0.9999900000999989
tp1049
assg3
F1.0
sg29
(lp1050
(lp1051
g1041
aa(lp1052
g1043
aasg2
F1.0
ssI69
(dp1053
g1
F1.0
sg7
(lp1054
(lp1055
S'healthy'
p1056
aa(lp1057
S'healthier'
p1058
aasg13
(dp1059
g15
g16
(g20
S'Zg5\xdc\xff\xff\xef?'
p1060
tp1061
Rp1062
sg26
(lp1063
(g1056
g1058
F0.9999999333333378
tp1064
assg3
F1.0
sg29
(lp1065
(lp1066
g1056
aa(lp1067
g1058
aasg2
F1.0
ssI70
(dp1068
g1
F1.0
sg7
(lp1069
(lp1070
S'wide'
p1071
aa(lp1072
S'wider'
p1073
aasg13
(dp1074
g15
g16
(g20
S'pY"\xc1B\xeb\xef?'
p1075
tp1076
Rp1077
sg26
(lp1078
(g1071
g1073
F0.9974683544303797
tp1079
assg3
F1.0
sg29
(lp1080
(lp1081
g1071
aa(lp1082
g1073
aasg2
F1.0
ssI71
(dp1083
g1
F1.0
sg7
(lp1084
(lp1085
S'timely'
p1086
aa(lp1087
S'timelier'
p1088
aasg13
(dp1089
g15
g16
(g20
S'\xd5x\xe9&1\x08\xe0?'
p1090
tp1091
Rp1092
sg26
(lp1093
(g1086
g1088
F0.501
tp1094
assg3
F1.0
sg29
(lp1095
(lp1096
g1086
aa(lp1097
g1088
aasg2
F1.0
ssI72
(dp1098
g1
F1.0
sg7
(lp1099
(lp1100
S'soon'
p1101
aa(lp1102
S'sooner'
p1103
aasg13
(dp1104
g15
g16
(g20
S'\xd5x\xe9&1\x08\xe0?'
p1105
tp1106
Rp1107
sg26
(lp1108
(g1101
g1103
F0.501
tp1109
assg3
F1.0
sg29
(lp1110
(lp1111
g1101
aa(lp1112
g1103
aasg2
F1.0
ssI73
(dp1113
g1
F1.0
sg7
(lp1114
(lp1115
S'busy'
p1116
aa(lp1117
S'busier'
p1118
aasg13
(dp1119
g15
g16
(g20
S'o\xc6\x98\xe7\xff\xff\xef?'
p1120
tp1121
Rp1122
sg26
(lp1123
(g1116
g1118
F0.9999999545454566
tp1124
assg3
F1.0
sg29
(lp1125
(lp1126
g1116
aa(lp1127
g1118
aasg2
F1.0
ssI74
(dp1128
g1
F1.0
sg7
(lp1129
(lp1130
S'sunny'
p1131
aa(lp1132
S'sunnier'
p1133
aasg13
(dp1134
g15
g16
(g20
S'V\x0e-\xb2\x9d\xef\xdf?'
p1135
tp1136
Rp1137
sg26
(lp1138
(g1131
g1133
F0.499
tp1139
assg3
F1.0
sg29
(lp1140
(lp1141
g1131
aa(lp1142
g1133
aasg2
F1.0
ssI75
(dp1143
g1
F1.0
sg7
(lp1144
(lp1145
S'dumb'
p1146
aa(lp1147
S'dumber'
p1148
aasg13
(dp1149
g15
g16
(g20
S'\xd5x\xe9&1\x08\xe0?'
p1150
tp1151
Rp1152
sg26
(lp1153
(g1146
g1148
F0.501
tp1154
assg3
F1.0
sg29
(lp1155
(lp1156
g1146
aa(lp1157
g1148
aasg2
F1.0
ssI76
(dp1158
g1
F1.0
sg7
(lp1159
(lp1160
S'fine'
p1161
aa(lp1162
S'finer'
p1163
aasg13
(dp1164
g15
g16
(g20
S'\xd5x\xe9&1\x08\xe0?'
p1165
tp1166
Rp1167
sg26
(lp1168
(g1161
g1163
F0.501
tp1169
assg3
F1.0
sg29
(lp1170
(lp1171
g1161
aa(lp1172
g1163
aasg2
F1.0
ssI77
(dp1173
g1
F1.0
sg7
(lp1174
(lp1175
S'short'
p1176
aa(lp1177
S'shorter'
p1178
aasg13
(dp1179
g15
g16
(g20
S'\xa9d#\xdd\xff\xff\xef?'
p1180
tp1181
Rp1182
sg26
(lp1183
(g1176
g1178
F0.9999999350649392
tp1184
assg3
F1.0
sg29
(lp1185
(lp1186
g1176
aa(lp1187
g1178
aasg2
F1.0
ssI78
(dp1188
g1
F1.0
sg7
(lp1189
(lp1190
S'hard'
p1191
aa(lp1192
S'harder'
p1193
aasg13
(dp1194
g15
g16
(g20
S'\x9b\xd6\xd7,\x16\xfa\xef?'
p1195
tp1196
Rp1197
sg26
(lp1198
(g1191
g1193
F0.9992781520692974
tp1199
assg3
F1.0
sg29
(lp1200
(lp1201
g1191
aa(lp1202
g1193
aasg2
F1.0
ssI79
(dp1203
g1
F1.0
sg7
(lp1204
(lp1205
S'grim'
p1206
aa(lp1207
S'grimmer'
p1208
aasg13
(dp1209
g15
g16
(g20
S'\x835X\x07\xeb\xff\xef?'
p1210
tp1211
Rp1212
sg26
(lp1213
(g1206
g1208
F0.9999900000999989
tp1214
assg3
F1.0
sg29
(lp1215
(lp1216
g1206
aa(lp1217
g1208
aasg2
F1.0
ssI80
(dp1218
g1
F1.0
sg7
(lp1219
(lp1220
S'sad'
p1221
aa(lp1222
S'sadder'
p1223
aasg13
(dp1224
g15
g16
(g20
S'\xd5x\xe9&1\x08\xe0?'
p1225
tp1226
Rp1227
sg26
(lp1228
(g1221
g1223
F0.501
tp1229
assg3
F1.0
sg29
(lp1230
(lp1231
g1221
aa(lp1232
g1223
aasg2
F1.0
ssI81
(dp1233
g1
F1.0
sg7
(lp1234
(lp1235
S'late'
p1236
aa(lp1237
S'later'
p1238
aasg13
(dp1239
g15
g16
(g20
S'\xde\x85\xe9`\xfd\xff\xef?'
p1240
tp1241
Rp1242
sg26
(lp1243
(g1236
g1238
F0.9999987500015626
tp1244
assg3
F1.0
sg29
(lp1245
(lp1246
g1236
aa(lp1247
g1238
aasg2
F1.0
ssI82
(dp1248
g1
F1.0
sg7
(lp1249
(lp1250
S'high'
p1251
aa(lp1252
S'higher'
p1253
aasg13
(dp1254
g15
g16
(g20
S'\x98I-\x08\x05\xc8\xee?'
p1255
tp1256
Rp1257
sg26
(lp1258
(g1251
g1253
F0.961916461916462
tp1259
assg3
F1.0
sg29
(lp1260
(lp1261
g1251
aa(lp1262
g1253
aasg2
F1.0
ssI83
(dp1263
g1
F1.0
sg7
(lp1264
(lp1265
S'bad'
p1266
aa(lp1267
S'worse'
p1268
aasg13
(dp1269
g15
g16
(g20
S'@u\xd9XC\xf6\xef?'
p1270
tp1271
Rp1272
sg26
(lp1273
(g1266
g1268
F0.998811410459588
tp1274
assg3
F1.0
sg29
(lp1275
(lp1276
g1266
aa(lp1277
g1268
aasg2
F1.0
ssI84
(dp1278
g1
F1.0
sg7
(lp1279
(lp1280
S'tight'
p1281
aa(lp1282
S'tighter'
p1283
aasg13
(dp1284
g15
g16
(g20
S'\xd5x\xe9&1\x08\xe0?'
p1285
tp1286
Rp1287
sg26
(lp1288
(g1281
g1283
F0.501
tp1289
assg3
F1.0
sg29
(lp1290
(lp1291
g1281
aa(lp1292
g1283
aasg2
F1.0
ssI85
(dp1293
g1
F1.0
sg7
(lp1294
(lp1295
S'thin'
p1296
aa(lp1297
S'thinner'
p1298
aasg13
(dp1299
g15
g16
(g20
S'\t\x1d\xa2\xcf\xff\xff\xef?'
p1300
tp1301
Rp1302
sg26
(lp1303
(g1296
g1298
F0.999999909909918
tp1304
assg3
F1.0
sg29
(lp1305
(lp1306
g1296
aa(lp1307
g1298
aasg2
F1.0
ssI86
(dp1308
g1
F1.0
sg7
(lp1309
(lp1310
S'wealthy'
p1311
aa(lp1312
S'wealthier'
p1313
aasg13
(dp1314
g15
g16
(g20
S'V\x0e-\xb2\x9d\xef\xdf?'
p1315
tp1316
Rp1317
sg26
(lp1318
(g1311
g1313
F0.499
tp1319
assg3
F1.0
sg29
(lp1320
(lp1321
g1311
aa(lp1322
g1313
aasg2
F1.0
ssI87
(dp1323
g1
F1.0
sg7
(lp1324
(lp1325
S'quick'
p1326
aa(lp1327
S'quicker'
p1328
aasg13
(dp1329
g15
g16
(g20
S']s\x7f\xack\xee\xef?'
p1330
tp1331
Rp1332
sg26
(lp1333
(g1326
g1328
F0.9978540772532188
tp1334
assg3
F1.0
sg29
(lp1335
(lp1336
g1326
aa(lp1337
g1328
aasg2
F1.0
ssI88
(dp1338
g1
F1.0
sg7
(lp1339
(lp1340
S'tall'
p1341
aa(lp1342
S'taller'
p1343
aasg13
(dp1344
g15
g16
(g20
S'\xc7o^\xf5\xff\xff\xef?'
p1345
tp1346
Rp1347
sg26
(lp1348
(g1341
g1343
F0.9999999801980203
tp1349
assg3
F1.0
sg29
(lp1350
(lp1351
g1341
aa(lp1352
g1343
aasg2
F1.0
ssI89
(dp1353
g1
F1.0
sg7
(lp1354
(lp1355
S'dead'
p1356
aa(lp1357
S'deader'
p1358
aasg13
(dp1359
g15
g16
(g20
S'\x835X\x07\xeb\xff\xef?'
p1360
tp1361
Rp1362
sg26
(lp1363
(g1356
g1358
F0.9999900000999989
tp1364
assg3
F1.0
sg29
(lp1365
(lp1366
g1356
aa(lp1367
g1358
aasg2
F1.0
ssI90
(dp1368
g1
F1.0
sg7
(lp1369
(lp1370
S'true'
p1371
aa(lp1372
S'truer'
p1373
aasg13
(dp1374
g15
g16
(g20
S'\x88U!\xa0\xff\xff\xef?'
p1375
tp1376
Rp1377
sg26
(lp1378
(g1371
g1373
F0.9999998214286032
tp1379
assg3
F1.0
sg29
(lp1380
(lp1381
g1371
aa(lp1382
g1373
aasg2
F1.0
ssI91
(dp1383
g1
F1.0
sg7
(lp1384
(lp1385
S'steep'
p1386
aa(lp1387
S'steeper'
p1388
aasg13
(dp1389
g15
g16
(g20
S'\xd5x\xe9&1\x08\xe0?'
p1390
tp1391
Rp1392
sg26
(lp1393
(g1386
g1388
F0.501
tp1394
assg3
F1.0
sg29
(lp1395
(lp1396
g1386
aa(lp1397
g1388
aasg2
F1.0
ssI92
(dp1398
g1
F1.0
sg7
(lp1399
(lp1400
S'big'
p1401
aa(lp1402
S'bigger'
p1403
aasg13
(dp1404
g15
g16
(g20
S'o\xe2\x00\xfe\xff\xff\xef?'
p1405
tp1406
Rp1407
sg26
(lp1408
(g1401
g1403
F0.9999999962811453
tp1409
assg3
F1.0
sg29
(lp1410
(lp1411
g1401
aa(lp1412
g1403
aasg2
F1.0
ssI93
(dp1413
g1
F1.0
sg7
(lp1414
(lp1415
S'strict'
p1416
aa(lp1417
S'stricter'
p1418
aasg13
(dp1419
g15
g16
(g20
S')\xab\xa8\x83\xf5\xff\xef?'
p1420
tp1421
Rp1422
sg26
(lp1423
(g1416
g1418
F0.9999950000249999
tp1424
assg3
F1.0
sg29
(lp1425
(lp1426
g1416
aa(lp1427
g1418
aasg2
F1.0
ssI94
(dp1428
g1
F1.0
sg7
(lp1429
(lp1430
S'clear'
p1431
aa(lp1432
S'clearer'
p1433
aasg13
(dp1434
g15
g16
(g20
S'&>\xee\xbb\xa5\xd0\xef?'
p1435
tp1436
Rp1437
sg26
(lp1438
(g1431
g1433
F0.9942196531791907
tp1439
assg3
F1.0
sg29
(lp1440
(lp1441
g1431
aa(lp1442
g1433
aasg2
F1.0
ssI95
(dp1443
g1
F1.0
sg7
(lp1444
(lp1445
S'ill'
p1446
aa(lp1447
S'worse'
p1448
aasg13
(dp1449
g15
g16
(g20
S'\xd5x\xe9&1\x08\xe0?'
p1450
tp1451
Rp1452
sg26
(lp1453
(g1446
g1448
F0.501
tp1454
assg3
F1.0
sg29
(lp1455
(lp1456
g1446
aa(lp1457
g1448
aasg2
F1.0
ssI96
(dp1458
g1
F1.0
sg7
(lp1459
(lp1460
S'young'
p1461
aa(lp1462
S'younger'
p1463
aasg13
(dp1464
g15
g16
(g20
S'\xbd\x93\xde\xcc\xff\xff\xef?'
p1465
tp1466
Rp1467
sg26
(lp1468
(g1461
g1463
F0.9999999047619138
tp1469
assg3
F1.0
sg29
(lp1470
(lp1471
g1461
aa(lp1472
g1463
aasg2
F1.0
ssI97
(dp1473
g1
F1.0
sg7
(lp1474
(lp1475
S'loose'
p1476
aa(lp1477
S'looser'
p1478
aasg13
(dp1479
g15
g16
(g20
S'\xd5x\xe9&1\x08\xe0?'
p1480
tp1481
Rp1482
sg26
(lp1483
(g1476
g1478
F0.501
tp1484
assg3
F1.0
sg29
(lp1485
(lp1486
g1476
aa(lp1487
g1478
aasg2
F1.0
ssI98
(dp1488
g1
F1.0
sg7
(lp1489
(lp1490
S'smart'
p1491
aa(lp1492
S'smarter'
p1493
aasg13
(dp1494
g15
g16
(g20
S'\x93\xc2\x82\xf2\xff\xff\xef?'
p1495
tp1496
Rp1497
sg26
(lp1498
(g1491
g1493
F0.9999999748743725
tp1499
assg3
F1.0
sg29
(lp1500
(lp1501
g1491
aa(lp1502
g1493
aasg2
F1.0
ssI99
(dp1503
g1
F1.0
sg7
(lp1504
(lp1505
S'green'
p1506
aa(lp1507
S'greener'
p1508
aasg13
(dp1509
g15
g16
(g20
S'\x835X\x07\xeb\xff\xef?'
p1510
tp1511
Rp1512
sg26
(lp1513
(g1506
g1508
F0.9999900000999989
tp1514
assg3
F1.0
sg29
(lp1515
(lp1516
g1506
aa(lp1517
g1508
aasg2
F1.0
ssI100
(dp1518
g1
F-1.0
sg7
(lp1519
(lp1520
S'wet'
p1521
aa(lp1522
S'wetter'
p1523
aasg13
(dp1524
g15
g16
(g20
S'V\x0e-\xb2\x9d\xef\xdf?'
p1525
tp1526
Rp1527
sg26
(lp1528
(g1523
g1521
F0.499
tp1529
assg3
F0.0
sg29
(lp1530
(lp1531
g1523
aa(lp1532
g1521
aasg2
F1.0
ssI101
(dp1533
g1
F1.0
sg7
(lp1534
(lp1535
S'dense'
p1536
aa(lp1537
S'denser'
p1538
aasg13
(dp1539
g15
g16
(g20
S'\x835X\x07\xeb\xff\xef?'
p1540
tp1541
Rp1542
sg26
(lp1543
(g1536
g1538
F0.9999900000999989
tp1544
assg3
F1.0
sg29
(lp1545
(lp1546
g1536
aa(lp1547
g1538
aasg2
F1.0
ssI102
(dp1548
g1
F1.0
sg7
(lp1549
(lp1550
S'fair'
p1551
aa(lp1552
S'fairer'
p1553
aasg13
(dp1554
g15
g16
(g20
S')\xab\xa8\x83\xf5\xff\xef?'
p1555
tp1556
Rp1557
sg26
(lp1558
(g1551
g1553
F0.9999950000249999
tp1559
assg3
F1.0
sg29
(lp1560
(lp1561
g1551
aa(lp1562
g1553
aasg2
F1.0
ssI103
(dp1563
g1
F1.0
sg7
(lp1564
(lp1565
S'warm'
p1566
aa(lp1567
S'warmer'
p1568
aasg13
(dp1569
g15
g16
(g20
S'\xebK\xc8\xaa\xff\xff\xef?'
p1570
tp1571
Rp1572
sg26
(lp1573
(g1566
g1568
F0.9999998412698664
tp1574
assg3
F1.0
sg29
(lp1575
(lp1576
g1566
aa(lp1577
g1568
aasg2
F1.0
ssI104
(dp1578
g1
F1.0
sg7
(lp1579
(lp1580
S'friendly'
p1581
aa(lp1582
S'friendlier'
p1583
aasg13
(dp1584
g15
g16
(g20
S'\xd5x\xe9&1\x08\xe0?'
p1585
tp1586
Rp1587
sg26
(lp1588
(g1581
g1583
F0.501
tp1589
assg3
F1.0
sg29
(lp1590
(lp1591
g1581
aa(lp1592
g1583
aasg2
F1.0
ssI105
(dp1593
g1
F-1.0
sg7
(lp1594
(lp1595
S'swift'
p1596
aa(lp1597
S'swifter'
p1598
aasg13
(dp1599
g15
g16
(g20
S'V\x0e-\xb2\x9d\xef\xdf?'
p1600
tp1601
Rp1602
sg26
(lp1603
(g1598
g1596
F0.499
tp1604
assg3
F0.0
sg29
(lp1605
(lp1606
g1598
aa(lp1607
g1596
aasg2
F1.0
ssI106
(dp1608
g1
F1.0
sg7
(lp1609
(lp1610
S'dark'
p1611
aa(lp1612
S'darker'
p1613
aasg13
(dp1614
g15
g16
(g20
S'\xa4\xaeo\x02\xf9\xff\xef?'
p1615
tp1616
Rp1617
sg26
(lp1618
(g1611
g1613
F0.9999966666777778
tp1619
assg3
F1.0
sg29
(lp1620
(lp1621
g1611
aa(lp1622
g1613
aasg2
F1.0
ssI107
(dp1623
g1
F1.0
sg7
(lp1624
(lp1625
S'poor'
p1626
aa(lp1627
S'poorer'
p1628
aasg13
(dp1629
g15
g16
(g20
S'D\x82n\xf5\xff\xff\xef?'
p1630
tp1631
Rp1632
sg26
(lp1633
(g1626
g1628
F0.9999999803149611
tp1634
assg3
F1.0
sg29
(lp1635
(lp1636
g1626
aa(lp1637
g1628
aasg2
F1.0
ssI108
(dp1638
g1
F1.0
sg7
(lp1639
(lp1640
S'full'
p1641
aa(lp1642
S'fuller'
p1643
aasg13
(dp1644
g15
g16
(g20
S'\xd5x\xe9&1\x08\xe0?'
p1645
tp1646
Rp1647
sg26
(lp1648
(g1641
g1643
F0.501
tp1649
assg3
F1.0
sg29
(lp1650
(lp1651
g1641
aa(lp1652
g1643
aasg2
F1.0
ssI109
(dp1653
g1
F1.0
sg7
(lp1654
(lp1655
S'thick'
p1656
aa(lp1657
S'thicker'
p1658
aasg13
(dp1659
g15
g16
(g20
S'\xd5x\xe9&1\x08\xe0?'
p1660
tp1661
Rp1662
sg26
(lp1663
(g1656
g1658
F0.501
tp1664
assg3
F1.0
sg29
(lp1665
(lp1666
g1656
aa(lp1667
g1658
aasg2
F1.0
ssI110
(dp1668
g1
F1.0
sg7
(lp1669
(lp1670
S'fierce'
p1671
aa(lp1672
S'fiercer'
p1673
aasg13
(dp1674
g15
g16
(g20
S'\xd5x\xe9&1\x08\xe0?'
p1675
tp1676
Rp1677
sg26
(lp1678
(g1671
g1673
F0.501
tp1679
assg3
F1.0
sg29
(lp1680
(lp1681
g1671
aa(lp1682
g1673
aasg2
F1.0
ssI111
(dp1683
g1
F1.0
sg7
(lp1684
(lp1685
S'great'
p1686
aa(lp1687
S'greater'
p1688
aasg13
(dp1689
g15
g16
(g20
S'\x92\xdc%\xf3\xc4\xe9\xef?'
p1690
tp1691
Rp1692
sg26
(lp1693
(g1686
g1688
F0.9972862957937585
tp1694
assg3
F1.0
sg29
(lp1695
(lp1696
g1686
aa(lp1697
g1688
aasg2
F1.0
ssI112
(dp1698
g1
F1.0
sg7
(lp1699
(lp1700
S'speedy'
p1701
aa(lp1702
S'speedier'
p1703
aasg13
(dp1704
g15
g16
(g20
S'\xd5x\xe9&1\x08\xe0?'
p1705
tp1706
Rp1707
sg26
(lp1708
(g1701
g1703
F0.501
tp1709
assg3
F1.0
sg29
(lp1710
(lp1711
g1701
aa(lp1712
g1703
aasg2
F1.0
ssI113
(dp1713
g1
F1.0
sg7
(lp1714
(lp1715
S'early'
p1716
aa(lp1717
S'earlier'
p1718
aasg13
(dp1719
g15
g16
(g20
S'\x835X\x07\xeb\xff\xef?'
p1720
tp1721
Rp1722
sg26
(lp1723
(g1716
g1718
F0.9999900000999989
tp1724
assg3
F1.0
sg29
(lp1725
(lp1726
g1716
aa(lp1727
g1718
aasg2
F1.0
ssI114
(dp1728
g1
F1.0
sg7
(lp1729
(lp1730
S'dear'
p1731
aa(lp1732
S'dearer'
p1733
aasg13
(dp1734
g15
g16
(g20
S'\xd5x\xe9&1\x08\xe0?'
p1735
tp1736
Rp1737
sg26
(lp1738
(g1731
g1733
F0.501
tp1739
assg3
F1.0
sg29
(lp1740
(lp1741
g1731
aa(lp1742
g1733
aasg2
F1.0
ssI115
(dp1743
g1
F1.0
sg7
(lp1744
(lp1745
S'strong'
p1746
aa(lp1747
S'stronger'
p1748
aasg13
(dp1749
g15
g16
(g20
S'4\x7f\xb0\xf1h\xfe\xef?'
p1750
tp1751
Rp1752
sg26
(lp1753
(g1746
g1748
F0.999805900621118
tp1754
assg3
F1.0
sg29
(lp1755
(lp1756
g1746
aa(lp1757
g1748
aasg2
F1.0
ssI116
(dp1758
g1
F1.0
sg7
(lp1759
(lp1760
S'lengthy'
p1761
aa(lp1762
S'lengthier'
p1763
aasg13
(dp1764
g15
g16
(g20
S'\xd5x\xe9&1\x08\xe0?'
p1765
tp1766
Rp1767
sg26
(lp1768
(g1761
g1763
F0.501
tp1769
assg3
F1.0
sg29
(lp1770
(lp1771
g1761
aa(lp1772
g1763
aasg2
F1.0
ssI117
(dp1773
g1
F1.0
sg7
(lp1774
(lp1775
S'sharp'
p1776
aa(lp1777
S'sharper'
p1778
aasg13
(dp1779
g15
g16
(g20
S'\xd5x\xe9&1\x08\xe0?'
p1780
tp1781
Rp1782
sg26
(lp1783
(g1776
g1778
F0.501
tp1784
assg3
F1.0
sg29
(lp1785
(lp1786
g1776
aa(lp1787
g1778
aasg2
F1.0
ssI118
(dp1788
g1
F1.0
sg7
(lp1789
(lp1790
S'cheap'
p1791
aa(lp1792
S'cheaper'
p1793
aasg13
(dp1794
g15
g16
(g20
S'\xb8\x15\x13G\x84\x8b\xec?'
p1795
tp1796
Rp1797
sg26
(lp1798
(g1791
g1793
F0.8920308483290489
tp1799
assg3
F1.0
sg29
(lp1800
(lp1801
g1791
aa(lp1802
g1793
aasg2
F1.0
ssI119
(dp1803
g1
F-1.0
sg7
(lp1804
(lp1805
S'well'
p1806
aa(lp1807
S'better'
p1808
aasg13
(dp1809
g15
g16
(g20
S'\x835X\x07\xeb\xff\xef?'
p1810
tp1811
Rp1812
sg26
(lp1813
(g1808
g1806
F0.9999900000999989
tp1814
assg3
F0.0
sg29
(lp1815
(lp1816
g1808
aa(lp1817
g1806
aasg2
F1.0
ssI120
(dp1818
g1
F1.0
sg7
(lp1819
(lp1820
S'good'
p1821
aa(lp1822
S'better'
p1823
aasg13
(dp1824
g15
g16
(g20
S'\x04X\x8bRyb\xec?'
p1825
tp1826
Rp1827
sg26
(lp1828
(g1821
g1823
F0.8870207416719045
tp1829
assg3
F1.0
sg29
(lp1830
(lp1831
g1821
aa(lp1832
g1823
aasg2
F1.0
ssI121
(dp1833
g1
F1.0
sg7
(lp1834
(lp1835
S'funny'
p1836
aa(lp1837
S'funnier'
p1838
aasg13
(dp1839
g15
g16
(g20
S'\xd5x\xe9&1\x08\xe0?'
p1840
tp1841
Rp1842
sg26
(lp1843
(g1836
g1838
F0.501
tp1844
assg3
F1.0
sg29
(lp1845
(lp1846
g1836
aa(lp1847
g1838
aasg2
F1.0
ssI122
(dp1848
g1
F1.0
sg7
(lp1849
(lp1850
S'mild'
p1851
aa(lp1852
S'milder'
p1853
aasg13
(dp1854
g15
g16
(g20
S'\xd5x\xe9&1\x08\xe0?'
p1855
tp1856
Rp1857
sg26
(lp1858
(g1851
g1853
F0.501
tp1859
assg3
F1.0
sg29
(lp1860
(lp1861
g1851
aa(lp1862
g1853
aasg2
F1.0
ssI123
(dp1863
g1
F1.0
sg7
(lp1864
(lp1865
S'firm'
p1866
aa(lp1867
S'firmer'
p1868
aasg13
(dp1869
g15
g16
(g20
S')\xab\xa8\x83\xf5\xff\xef?'
p1870
tp1871
Rp1872
sg26
(lp1873
(g1866
g1868
F0.9999950000249999
tp1874
assg3
F1.0
sg29
(lp1875
(lp1876
g1866
aa(lp1877
g1868
aasg2
F1.0
ssI124
(dp1878
g1
F1.0
sg7
(lp1879
(lp1880
S'slim'
p1881
aa(lp1882
S'slimmer'
p1883
aasg13
(dp1884
g15
g16
(g20
S'\xd5x\xe9&1\x08\xe0?'
p1885
tp1886
Rp1887
sg26
(lp1888
(g1881
g1883
F0.501
tp1889
assg3
F1.0
sg29
(lp1890
(lp1891
g1881
aa(lp1892
g1883
aasg2
F1.0
ssI125
(dp1893
g1
F1.0
sg7
(lp1894
(lp1895
S'small'
p1896
aa(lp1897
S'smaller'
p1898
aasg13
(dp1899
g15
g16
(g20
S'\xec,\nr\x07\xfc\xef?'
p1900
tp1901
Rp1902
sg26
(lp1903
(g1896
g1898
F0.9995152690256908
tp1904
assg3
F1.0
sg29
(lp1905
(lp1906
g1896
aa(lp1907
g1898
aasg2
F1.0
ssI126
(dp1908
g1
F1.0
sg7
(lp1909
(lp1910
S'fat'
p1911
aa(lp1912
S'fatter'
p1913
aasg13
(dp1914
g15
g16
(g20
S'\xafy\xd3\xc1\xfa\xff\xef?'
p1915
tp1916
Rp1917
sg26
(lp1918
(g1911
g1913
F0.9999975000062501
tp1919
assg3
F1.0
sg29
(lp1920
(lp1921
g1911
aa(lp1922
g1913
aasg2
F1.0
ssI127
(dp1923
g1
F1.0
sg7
(lp1924
(lp1925
S'free'
p1926
aa(lp1927
S'freer'
p1928
aasg13
(dp1929
g15
g16
(g20
S')\xab\xa8\x83\xf5\xff\xef?'
p1930
tp1931
Rp1932
sg26
(lp1933
(g1926
g1928
F0.9999950000249999
tp1934
assg3
F1.0
sg29
(lp1935
(lp1936
g1926
aa(lp1937
g1928
aasg2
F1.0
ssI128
(dp1938
g1
F1.0
sg7
(lp1939
(lp1940
S'dry'
p1941
aa(lp1942
S'drier'
p1943
aasg13
(dp1944
g15
g16
(g20
S'\xa4\xaeo\x02\xf9\xff\xef?'
p1945
tp1946
Rp1947
sg26
(lp1948
(g1941
g1943
F0.9999966666777778
tp1949
assg3
F1.0
sg29
(lp1950
(lp1951
g1941
aa(lp1952
g1943
aasg2
F1.0
ssI129
(dp1953
g1
F1.0
sg7
(lp1954
(lp1955
S'cute'
p1956
aa(lp1957
S'cuter'
p1958
aasg13
(dp1959
g15
g16
(g20
S'\x97u7\x81\xfc\xff\xef?'
p1960
tp1961
Rp1962
sg26
(lp1963
(g1956
g1958
F0.9999983333361112
tp1964
assg3
F1.0
sg29
(lp1965
(lp1966
g1956
aa(lp1967
g1958
aasg2
F1.0
ssI130
(dp1968
g1
F1.0
sg7
(lp1969
(lp1970
S'clever'
p1971
aa(lp1972
S'cleverer'
p1973
aasg13
(dp1974
g15
g16
(g20
S'\xd5x\xe9&1\x08\xe0?'
p1975
tp1976
Rp1977
sg26
(lp1978
(g1971
g1973
F0.501
tp1979
assg3
F1.0
sg29
(lp1980
(lp1981
g1971
aa(lp1982
g1973
aasg2
F1.0
ssI131
(dp1983
g1
F1.0
sg7
(lp1984
(lp1985
S'loud'
p1986
aa(lp1987
S'louder'
p1988
aasg13
(dp1989
g15
g16
(g20
S'\xfa\xe2Y\xeb\xff\xff\xef?'
p1990
tp1991
Rp1992
sg26
(lp1993
(g1986
g1988
F0.9999999615384632
tp1994
assg3
F1.0
sg29
(lp1995
(lp1996
g1986
aa(lp1997
g1988
aasg2
F1.0
ssI132
(dp1998
g1
F1.0
sg7
(lp1999
(lp2000
S'longer'
p2001
aa(lp2002
S'longest'
p2003
aasg13
(dp2004
g15
g16
(g20
S'\x835X\x07\xeb\xff\xef?'
p2005
tp2006
Rp2007
sg26
(lp2008
(g2001
g2003
F0.9999900000999989
tp2009
assg3
F1.0
sg29
(lp2010
(lp2011
g2001
aa(lp2012
g2003
aasg2
F1.0
ssI133
(dp2013
g1
F1.0
sg7
(lp2014
(lp2015
S'harder'
p2016
aa(lp2017
S'hardest'
p2018
aasg13
(dp2019
g15
g16
(g20
S')\xab\xa8\x83\xf5\xff\xef?'
p2020
tp2021
Rp2022
sg26
(lp2023
(g2016
g2018
F0.9999950000249999
tp2024
assg3
F1.0
sg29
(lp2025
(lp2026
g2016
aa(lp2027
g2018
aasg2
F1.0
ssI134
(dp2028
g1
F1.0
sg7
(lp2029
(lp2030
S'broader'
p2031
aa(lp2032
S'broadest'
p2033
aasg13
(dp2034
g15
g16
(g20
S'\x835X\x07\xeb\xff\xef?'
p2035
tp2036
Rp2037
sg26
(lp2038
(g2031
g2033
F0.9999900000999989
tp2039
assg3
F1.0
sg29
(lp2040
(lp2041
g2031
aa(lp2042
g2033
aasg2
F1.0
ssI135
(dp2043
g1
F1.0
sg7
(lp2044
(lp2045
S'deeper'
p2046
aa(lp2047
S'deepest'
p2048
aasg13
(dp2049
g15
g16
(g20
S')\xab\xa8\x83\xf5\xff\xef?'
p2050
tp2051
Rp2052
sg26
(lp2053
(g2046
g2048
F0.9999950000249999
tp2054
assg3
F1.0
sg29
(lp2055
(lp2056
g2046
aa(lp2057
g2048
aasg2
F1.0
ssI136
(dp2058
g1
F1.0
sg7
(lp2059
(lp2060
S'older'
p2061
aa(lp2062
S'oldest'
p2063
aasg13
(dp2064
g15
g16
(g20
S'\xd5x\xe9&1\x08\xe0?'
p2065
tp2066
Rp2067
sg26
(lp2068
(g2061
g2063
F0.501
tp2069
assg3
F1.0
sg29
(lp2070
(lp2071
g2061
aa(lp2072
g2063
aasg2
F1.0
ssI137
(dp2073
g1
F1.0
sg7
(lp2074
(lp2075
S'lower'
p2076
aa(lp2077
S'lowest'
p2078
aasg13
(dp2079
g15
g16
(g20
S'UUUUUU\xe5?'
p2080
tp2081
Rp2082
sg26
(lp2083
(g2076
g2078
F0.6666666666666666
tp2084
assg3
F1.0
sg29
(lp2085
(lp2086
g2076
aa(lp2087
g2078
aasg2
F1.0
ssI138
(dp2088
g1
F1.0
sg7
(lp2089
(lp2090
S'weaker'
p2091
aa(lp2092
S'weakest'
p2093
aasg13
(dp2094
g15
g16
(g20
S'\xd5x\xe9&1\x08\xe0?'
p2095
tp2096
Rp2097
sg26
(lp2098
(g2091
g2093
F0.501
tp2099
assg3
F1.0
sg29
(lp2100
(lp2101
g2091
aa(lp2102
g2093
aasg2
F1.0
ssI139
(dp2103
g1
F1.0
sg7
(lp2104
(lp2105
S'smaller'
p2106
aa(lp2107
S'smallest'
p2108
aasg13
(dp2109
g15
g16
(g20
S')\xab\xa8\x83\xf5\xff\xef?'
p2110
tp2111
Rp2112
sg26
(lp2113
(g2106
g2108
F0.9999950000249999
tp2114
assg3
F1.0
sg29
(lp2115
(lp2116
g2106
aa(lp2117
g2108
aasg2
F1.0
ssI140
(dp2118
g1
F1.0
sg7
(lp2119
(lp2120
S'further'
p2121
aa(lp2122
S'furthest'
p2123
aasg13
(dp2124
g15
g16
(g20
S'\xd5x\xe9&1\x08\xe0?'
p2125
tp2126
Rp2127
sg26
(lp2128
(g2121
g2123
F0.501
tp2129
assg3
F1.0
sg29
(lp2130
(lp2131
g2121
aa(lp2132
g2123
aasg2
F1.0
ssI141
(dp2133
g1
F1.0
sg7
(lp2134
(lp2135
S'larger'
p2136
aa(lp2137
S'largest'
p2138
aasg13
(dp2139
g15
g16
(g20
S'\xd5x\xe9&1\x08\xe0?'
p2140
tp2141
Rp2142
sg26
(lp2143
(g2136
g2138
F0.501
tp2144
assg3
F1.0
sg29
(lp2145
(lp2146
g2136
aa(lp2147
g2138
aasg2
F1.0
ssI142
(dp2148
g1
F1.0
sg7
(lp2149
(lp2150
S'fairer'
p2151
aa(lp2152
S'fairest'
p2153
aasg13
(dp2154
g15
g16
(g20
S'\xd5x\xe9&1\x08\xe0?'
p2155
tp2156
Rp2157
sg26
(lp2158
(g2151
g2153
F0.501
tp2159
assg3
F1.0
sg29
(lp2160
(lp2161
g2151
aa(lp2162
g2153
aasg2
F1.0
ssI143
(dp2163
g1
F1.0
sg7
(lp2164
(lp2165
S'greater'
p2166
aa(lp2167
S'greatest'
p2168
aasg13
(dp2169
g15
g16
(g20
S'\xb7m\xdb\xb6m\xdb\xe6?'
p2170
tp2171
Rp2172
sg26
(lp2173
(g2166
g2168
F0.7142857142857143
tp2174
assg3
F1.0
sg29
(lp2175
(lp2176
g2166
aa(lp2177
g2168
aasg2
F1.0
ssI144
(dp2178
g1
F1.0
sg7
(lp2179
(lp2180
S'closer'
p2181
aa(lp2182
S'closest'
p2183
aasg13
(dp2184
g15
g16
(g20
S'\x835X\x07\xeb\xff\xef?'
p2185
tp2186
Rp2187
sg26
(lp2188
(g2181
g2183
F0.9999900000999989
tp2189
assg3
F1.0
sg29
(lp2190
(lp2191
g2181
aa(lp2192
g2183
aasg2
F1.0
ssI145
(dp2193
g1
F1.0
sg7
(lp2194
(lp2195
S'rarer'
p2196
aa(lp2197
S'rarest'
p2198
aasg13
(dp2199
g15
g16
(g20
S'\xd5x\xe9&1\x08\xe0?'
p2200
tp2201
Rp2202
sg26
(lp2203
(g2196
g2198
F0.501
tp2204
assg3
F1.0
sg29
(lp2205
(lp2206
g2196
aa(lp2207
g2198
aasg2
F1.0
ssI146
(dp2208
g1
F-1.0
sg7
(lp2209
(lp2210
S'richer'
p2211
aa(lp2212
S'richest'
p2213
aasg13
(dp2214
g15
g16
(g20
S'V\x0e-\xb2\x9d\xef\xdf?'
p2215
tp2216
Rp2217
sg26
(lp2218
(g2213
g2211
F0.499
tp2219
assg3
F0.0
sg29
(lp2220
(lp2221
g2213
aa(lp2222
g2211
aasg2
F1.0
ssI147
(dp2223
g1
F1.0
sg7
(lp2224
(lp2225
S'brighter'
p2226
aa(lp2227
S'brightest'
p2228
aasg13
(dp2229
g15
g16
(g20
S'\xd5x\xe9&1\x08\xe0?'
p2230
tp2231
Rp2232
sg26
(lp2233
(g2226
g2228
F0.501
tp2234
assg3
F1.0
sg29
(lp2235
(lp2236
g2226
aa(lp2237
g2228
aasg2
F1.0
ssI148
(dp2238
g1
F1.0
sg7
(lp2239
(lp2240
S'wider'
p2241
aa(lp2242
S'widest'
p2243
aasg13
(dp2244
g15
g16
(g20
S'\x835X\x07\xeb\xff\xef?'
p2245
tp2246
Rp2247
sg26
(lp2248
(g2241
g2243
F0.9999900000999989
tp2249
assg3
F1.0
sg29
(lp2250
(lp2251
g2241
aa(lp2252
g2243
aasg2
F1.0
ssI149
(dp2253
g1
F1.0
sg7
(lp2254
(lp2255
S'shorter'
p2256
aa(lp2257
S'shortest'
p2258
aasg13
(dp2259
g15
g16
(g20
S'\xd5x\xe9&1\x08\xe0?'
p2260
tp2261
Rp2262
sg26
(lp2263
(g2256
g2258
F0.501
tp2264
assg3
F1.0
sg29
(lp2265
(lp2266
g2256
aa(lp2267
g2258
aasg2
F1.0
ssI150
(dp2268
g1
F1.0
sg7
(lp2269
(lp2270
S'cleaner'
p2271
aa(lp2272
S'cleanest'
p2273
aasg13
(dp2274
g15
g16
(g20
S'\xd5x\xe9&1\x08\xe0?'
p2275
tp2276
Rp2277
sg26
(lp2278
(g2271
g2273
F0.501
tp2279
assg3
F1.0
sg29
(lp2280
(lp2281
g2271
aa(lp2282
g2273
aasg2
F1.0
ssI151
(dp2283
g1
F-1.0
sg7
(lp2284
(lp2285
S'braver'
p2286
aa(lp2287
S'bravest'
p2288
aasg13
(dp2289
g15
g16
(g20
S'V\x0e-\xb2\x9d\xef\xdf?'
p2290
tp2291
Rp2292
sg26
(lp2293
(g2288
g2286
F0.499
tp2294
assg3
F0.0
sg29
(lp2295
(lp2296
g2288
aa(lp2297
g2286
aasg2
F1.0
ssI152
(dp2298
g1
F1.0
sg7
(lp2299
(lp2300
S'stronger'
p2301
aa(lp2302
S'strongest'
p2303
aasg13
(dp2304
g15
g16
(g20
S'\x835X\x07\xeb\xff\xef?'
p2305
tp2306
Rp2307
sg26
(lp2308
(g2301
g2303
F0.9999900000999989
tp2309
assg3
F1.0
sg29
(lp2310
(lp2311
g2301
aa(lp2312
g2303
aasg2
F1.0
ssI153
(dp2313
g1
F-1.0
sg7
(lp2314
(lp2315
S'heavier'
p2316
aa(lp2317
S'heaviest'
p2318
aasg13
(dp2319
g15
g16
(g20
S'\xd5x\xe9&1\x08\xe0?'
p2320
tp2321
Rp2322
sg26
(lp2323
(g2318
g2316
F0.501
tp2324
assg3
F0.0
sg29
(lp2325
(lp2326
g2318
aa(lp2327
g2316
aasg2
F1.0
ssI154
(dp2328
g1
F1.0
sg7
(lp2329
(lp2330
S'cheaper'
p2331
aa(lp2332
S'cheapest'
p2333
aasg13
(dp2334
g15
g16
(g20
S'\xd5x\xe9&1\x08\xe0?'
p2335
tp2336
Rp2337
sg26
(lp2338
(g2331
g2333
F0.501
tp2339
assg3
F1.0
sg29
(lp2340
(lp2341
g2331
aa(lp2342
g2333
aasg2
F1.0
ssI155
(dp2343
g1
F1.0
sg7
(lp2344
(lp2345
S'happier'
p2346
aa(lp2347
S'happiest'
p2348
aasg13
(dp2349
g15
g16
(g20
S'\xd5x\xe9&1\x08\xe0?'
p2350
tp2351
Rp2352
sg26
(lp2353
(g2346
g2348
F0.501
tp2354
assg3
F1.0
sg29
(lp2355
(lp2356
g2346
aa(lp2357
g2348
aasg2
F1.0
ssI156
(dp2358
g1
F-1.0
sg7
(lp2359
(lp2360
S'later'
p2361
aa(lp2362
S'latest'
p2363
aasg13
(dp2364
g15
g16
(g20
S'\x835X\x07\xeb\xff\xef?'
p2365
tp2366
Rp2367
sg26
(lp2368
(g2363
g2361
F0.9999900000999989
tp2369
assg3
F0.0
sg29
(lp2370
(lp2371
g2363
aa(lp2372
g2361
aasg2
F1.0
ssI157
(dp2373
g1
F1.0
sg7
(lp2374
(lp2375
S'smarter'
p2376
aa(lp2377
S'smartest'
p2378
aasg13
(dp2379
g15
g16
(g20
S'\xd5x\xe9&1\x08\xe0?'
p2380
tp2381
Rp2382
sg26
(lp2383
(g2376
g2378
F0.501
tp2384
assg3
F1.0
sg29
(lp2385
(lp2386
g2376
aa(lp2387
g2378
aasg2
F1.0
ssI158
(dp2388
g1
F1.0
sg7
(lp2389
(lp2390
S'simpler'
p2391
aa(lp2392
S'simplest'
p2393
aasg13
(dp2394
g15
g16
(g20
S')\xab\xa8\x83\xf5\xff\xef?'
p2395
tp2396
Rp2397
sg26
(lp2398
(g2391
g2393
F0.9999950000249999
tp2399
assg3
F1.0
sg29
(lp2400
(lp2401
g2391
aa(lp2402
g2393
aasg2
F1.0
ssI159
(dp2403
g1
F1.0
sg7
(lp2404
(lp2405
S'easier'
p2406
aa(lp2407
S'easiest'
p2408
aasg13
(dp2409
g15
g16
(g20
S'\x90\xa4B\xce\xfb\xff\xef?'
p2410
tp2411
Rp2412
sg26
(lp2413
(g2406
g2408
F0.9999980000040001
tp2414
assg3
F1.0
sg29
(lp2415
(lp2416
g2406
aa(lp2417
g2408
aasg2
F1.0
ssI160
(dp2418
g1
F1.0
sg7
(lp2419
(lp2420
S'less'
p2421
aa(lp2422
S'least'
p2423
aasg13
(dp2424
g15
g16
(g20
S'UUUUUU\xed?'
p2425
tp2426
Rp2427
sg26
(lp2428
(g2421
g2423
F0.9166666666666666
tp2429
assg3
F1.0
sg29
(lp2430
(lp2431
g2421
aa(lp2432
g2423
aasg2
F1.0
ssI161
(dp2433
g1
F1.0
sg7
(lp2434
(lp2435
S'higher'
p2436
aa(lp2437
S'highest'
p2438
aasg13
(dp2439
g15
g16
(g20
S'UUUUUU\xe5?'
p2440
tp2441
Rp2442
sg26
(lp2443
(g2436
g2438
F0.6666666666666666
tp2444
assg3
F1.0
sg29
(lp2445
(lp2446
g2436
aa(lp2447
g2438
aasg2
F1.0
ssI162
(dp2448
g1
F1.0
sg7
(lp2449
(lp2450
S'clearer'
p2451
aa(lp2452
S'clearest'
p2453
aasg13
(dp2454
g15
g16
(g20
S'\xa4\xaeo\x02\xf9\xff\xef?'
p2455
tp2456
Rp2457
sg26
(lp2458
(g2451
g2453
F0.9999966666777778
tp2459
assg3
F1.0
sg29
(lp2460
(lp2461
g2451
aa(lp2462
g2453
aasg2
F1.0
ssI163
(dp2463
g1
F-1.0
sg7
(lp2464
(lp2465
S'darker'
p2466
aa(lp2467
S'darkest'
p2468
aasg13
(dp2469
g15
g16
(g20
S'V\x0e-\xb2\x9d\xef\xdf?'
p2470
tp2471
Rp2472
sg26
(lp2473
(g2468
g2466
F0.499
tp2474
assg3
F0.0
sg29
(lp2475
(lp2476
g2468
aa(lp2477
g2466
aasg2
F1.0
ssI164
(dp2478
g1
F1.0
sg7
(lp2479
(lp2480
S'quicker'
p2481
aa(lp2482
S'quickest'
p2483
aasg13
(dp2484
g15
g16
(g20
S'\x835X\x07\xeb\xff\xef?'
p2485
tp2486
Rp2487
sg26
(lp2488
(g2481
g2483
F0.9999900000999989
tp2489
assg3
F1.0
sg29
(lp2490
(lp2491
g2481
aa(lp2492
g2483
aasg2
F1.0
ssI165
(dp2493
g1
F-1.0
sg7
(lp2494
(lp2495
S'poorer'
p2496
aa(lp2497
S'poorest'
p2498
aasg13
(dp2499
g15
g16
(g20
S')\xab\xa8\x83\xf5\xff\xef?'
p2500
tp2501
Rp2502
sg26
(lp2503
(g2498
g2496
F0.9999950000249999
tp2504
assg3
F0.0
sg29
(lp2505
(lp2506
g2498
aa(lp2507
g2496
aasg2
F1.0
ssI166
(dp2508
g1
F-1.0
sg7
(lp2509
(lp2510
S'graver'
p2511
aa(lp2512
S'gravest'
p2513
aasg13
(dp2514
g15
g16
(g20
S'\xd5x\xe9&1\x08\xe0?'
p2515
tp2516
Rp2517
sg26
(lp2518
(g2513
g2511
F0.501
tp2519
assg3
F0.0
sg29
(lp2520
(lp2521
g2513
aa(lp2522
g2511
aasg2
F1.0
ssI167
(dp2523
g1
F1.0
sg7
(lp2524
(lp2525
S'bigger'
p2526
aa(lp2527
S'biggest'
p2528
aasg13
(dp2529
g15
g16
(g20
S'UUUUUU\xe5?'
p2530
tp2531
Rp2532
sg26
(lp2533
(g2526
g2528
F0.6666666666666666
tp2534
assg3
F1.0
sg29
(lp2535
(lp2536
g2526
aa(lp2537
g2528
aasg2
F1.0
ssI168
(dp2538
g1
F1.0
sg7
(lp2539
(lp2540
S'safer'
p2541
aa(lp2542
S'safest'
p2543
aasg13
(dp2544
g15
g16
(g20
S'\x835X\x07\xeb\xff\xef?'
p2545
tp2546
Rp2547
sg26
(lp2548
(g2541
g2543
F0.9999900000999989
tp2549
assg3
F1.0
sg29
(lp2550
(lp2551
g2541
aa(lp2552
g2543
aasg2
F1.0
ssI169
(dp2553
g1
F1.0
sg7
(lp2554
(lp2555
S'younger'
p2556
aa(lp2557
S'youngest'
p2558
aasg13
(dp2559
g15
g16
(g20
S'\xf4<\xcf\xf3<\xcf\xef?'
p2560
tp2561
Rp2562
sg26
(lp2563
(g2556
g2558
F0.9940476190476191
tp2564
assg3
F1.0
sg29
(lp2565
(lp2566
g2556
aa(lp2567
g2558
aasg2
F1.0
ssI170
(dp2568
g1
F1.0
sg7
(lp2569
(lp2570
S'earlier'
p2571
aa(lp2572
S'earliest'
p2573
aasg13
(dp2574
g15
g16
(g20
S'\xd5x\xe9&1\x08\xe0?'
p2575
tp2576
Rp2577
sg26
(lp2578
(g2571
g2573
F0.501
tp2579
assg3
F1.0
sg29
(lp2580
(lp2581
g2571
aa(lp2582
g2573
aasg2
F1.0
ssI171
(dp2583
g1
F-1.0
sg7
(lp2584
(lp2585
S'fuller'
p2586
aa(lp2587
S'fullest'
p2588
aasg13
(dp2589
g15
g16
(g20
S'V\x0e-\xb2\x9d\xef\xdf?'
p2590
tp2591
Rp2592
sg26
(lp2593
(g2588
g2586
F0.499
tp2594
assg3
F0.0
sg29
(lp2595
(lp2596
g2588
aa(lp2597
g2586
aasg2
F1.0
ssI172
(dp2598
g1
F1.0
sg7
(lp2599
(lp2600
S'warmer'
p2601
aa(lp2602
S'warmest'
p2603
aasg13
(dp2604
g15
g16
(g20
S'\xd5x\xe9&1\x08\xe0?'
p2605
tp2606
Rp2607
sg26
(lp2608
(g2601
g2603
F0.501
tp2609
assg3
F1.0
sg29
(lp2610
(lp2611
g2601
aa(lp2612
g2603
aasg2
F1.0
ssI173
(dp2613
g1
F-1.0
sg7
(lp2614
(lp2615
S'wealthier'
p2616
aa(lp2617
S'wealthiest'
p2618
aasg13
(dp2619
g15
g16
(g20
S'V\x0e-\xb2\x9d\xef\xdf?'
p2620
tp2621
Rp2622
sg26
(lp2623
(g2618
g2616
F0.499
tp2624
assg3
F0.0
sg29
(lp2625
(lp2626
g2618
aa(lp2627
g2616
aasg2
F1.0
ssI174
(dp2628
g1
F1.0
sg7
(lp2629
(lp2630
S'faster'
p2631
aa(lp2632
S'fastest'
p2633
aasg13
(dp2634
g15
g16
(g20
S'\x835X\x07\xeb\xff\xef?'
p2635
tp2636
Rp2637
sg26
(lp2638
(g2631
g2633
F0.9999900000999989
tp2639
assg3
F1.0
sg29
(lp2640
(lp2641
g2631
aa(lp2642
g2633
aasg2
F1.0
ssI175
(dp2643
g1
F-1.0
sg7
(lp2644
(lp2645
S'freer'
p2646
aa(lp2647
S'freest'
p2648
aasg13
(dp2649
g15
g16
(g20
S'V\x0e-\xb2\x9d\xef\xdf?'
p2650
tp2651
Rp2652
sg26
(lp2653
(g2648
g2646
F0.499
tp2654
assg3
F0.0
sg29
(lp2655
(lp2656
g2648
aa(lp2657
g2646
aasg2
F1.0
ssI176
(dp2658
g1
F-1.0
sg7
(lp2659
(lp2660
S'newer'
p2661
aa(lp2662
S'newest'
p2663
aasg13
(dp2664
g15
g16
(g20
S'V\x0e-\xb2\x9d\xef\xdf?'
p2665
tp2666
Rp2667
sg26
(lp2668
(g2663
g2661
F0.499
tp2669
assg3
F0.0
sg29
(lp2670
(lp2671
g2663
aa(lp2672
g2661
aasg2
F1.0
ssI177
(dp2673
g1
F-1.0
sg7
(lp2674
(lp2675
S'finer'
p2676
aa(lp2677
S'finest'
p2678
aasg13
(dp2679
g15
g16
(g20
S'\xd5x\xe9&1\x08\xe0?'
p2680
tp2681
Rp2682
sg26
(lp2683
(g2678
g2676
F0.501
tp2684
assg3
F0.0
sg29
(lp2685
(lp2686
g2678
aa(lp2687
g2676
aasg2
F1.0
ssI178
(dp2688
g1
F1.0
sg7
(lp2689
(lp2690
S'stricter'
p2691
aa(lp2692
S'strictest'
p2693
aasg13
(dp2694
g15
g16
(g20
S'\xd5x\xe9&1\x08\xe0?'
p2695
tp2696
Rp2697
sg26
(lp2698
(g2691
g2693
F0.501
tp2699
assg3
F1.0
sg29
(lp2700
(lp2701
g2691
aa(lp2702
g2693
aasg2
F1.0
ssI179
(dp2703
g1
F1.0
sg7
(lp2704
(lp2705
S'clear'
p2706
aa(lp2707
S'clearest'
p2708
aasg13
(dp2709
g15
g16
(g20
S'\x90\xa4B\xce\xfb\xff\xef?'
p2710
tp2711
Rp2712
sg26
(lp2713
(g2706
g2708
F0.9999980000040001
tp2714
assg3
F1.0
sg29
(lp2715
(lp2716
g2706
aa(lp2717
g2708
aasg2
F1.0
ssI180
(dp2718
g1
F1.0
sg7
(lp2719
(lp2720
S'long'
p2721
aa(lp2722
S'longest'
p2723
aasg13
(dp2724
g15
g16
(g20
S'\x835X\x07\xeb\xff\xef?'
p2725
tp2726
Rp2727
sg26
(lp2728
(g2721
g2723
F0.9999900000999989
tp2729
assg3
F1.0
sg29
(lp2730
(lp2731
g2721
aa(lp2732
g2723
aasg2
F1.0
ssI181
(dp2733
g1
F1.0
sg7
(lp2734
(lp2735
S'fair'
p2736
aa(lp2737
S'fairest'
p2738
aasg13
(dp2739
g15
g16
(g20
S'\x835X\x07\xeb\xff\xef?'
p2740
tp2741
Rp2742
sg26
(lp2743
(g2736
g2738
F0.9999900000999989
tp2744
assg3
F1.0
sg29
(lp2745
(lp2746
g2736
aa(lp2747
g2738
aasg2
F1.0
ssI182
(dp2748
g1
F1.0
sg7
(lp2749
(lp2750
S'great'
p2751
aa(lp2752
S'greatest'
p2753
aasg13
(dp2754
g15
g16
(g20
S'\xd7\xf3\xe7\xd0\xff\xff\xef?'
p2755
tp2756
Rp2757
sg26
(lp2758
(g2751
g2753
F0.9999999122807094
tp2759
assg3
F1.0
sg29
(lp2760
(lp2761
g2751
aa(lp2762
g2753
aasg2
F1.0
ssI183
(dp2763
g1
F1.0
sg7
(lp2764
(lp2765
S'safe'
p2766
aa(lp2767
S'safest'
p2768
aasg13
(dp2769
g15
g16
(g20
S'\xd5x\xe9&1\x08\xe0?'
p2770
tp2771
Rp2772
sg26
(lp2773
(g2766
g2768
F0.501
tp2774
assg3
F1.0
sg29
(lp2775
(lp2776
g2766
aa(lp2777
g2768
aasg2
F1.0
ssI184
(dp2778
g1
F1.0
sg7
(lp2779
(lp2780
S'small'
p2781
aa(lp2782
S'smallest'
p2783
aasg13
(dp2784
g15
g16
(g20
S'\xa4\xaeo\x02\xf9\xff\xef?'
p2785
tp2786
Rp2787
sg26
(lp2788
(g2781
g2783
F0.9999966666777778
tp2789
assg3
F1.0
sg29
(lp2790
(lp2791
g2781
aa(lp2792
g2783
aasg2
F1.0
ssI185
(dp2793
g1
F1.0
sg7
(lp2794
(lp2795
S'old'
p2796
aa(lp2797
S'oldest'
p2798
aasg13
(dp2799
g15
g16
(g20
S'\xd5x\xe9&1\x08\xe0?'
p2800
tp2801
Rp2802
sg26
(lp2803
(g2796
g2798
F0.501
tp2804
assg3
F1.0
sg29
(lp2805
(lp2806
g2796
aa(lp2807
g2798
aasg2
F1.0
ssI186
(dp2808
g1
F1.0
sg7
(lp2809
(lp2810
S'fine'
p2811
aa(lp2812
S'finest'
p2813
aasg13
(dp2814
g15
g16
(g20
S'\xd5x\xe9&1\x08\xe0?'
p2815
tp2816
Rp2817
sg26
(lp2818
(g2811
g2813
F0.501
tp2819
assg3
F1.0
sg29
(lp2820
(lp2821
g2811
aa(lp2822
g2813
aasg2
F1.0
ssI187
(dp2823
g1
F1.0
sg7
(lp2824
(lp2825
S'wide'
p2826
aa(lp2827
S'widest'
p2828
aasg13
(dp2829
g15
g16
(g20
S'\x835X\x07\xeb\xff\xef?'
p2830
tp2831
Rp2832
sg26
(lp2833
(g2826
g2828
F0.9999900000999989
tp2834
assg3
F1.0
sg29
(lp2835
(lp2836
g2826
aa(lp2837
g2828
aasg2
F1.0
ssI188
(dp2838
g1
F1.0
sg7
(lp2839
(lp2840
S'ill'
p2841
aa(lp2842
S'worst'
p2843
aasg13
(dp2844
g15
g16
(g20
S'\xd5x\xe9&1\x08\xe0?'
p2845
tp2846
Rp2847
sg26
(lp2848
(g2841
g2843
F0.501
tp2849
assg3
F1.0
sg29
(lp2850
(lp2851
g2841
aa(lp2852
g2843
aasg2
F1.0
ssI189
(dp2853
g1
F1.0
sg7
(lp2854
(lp2855
S'free'
p2856
aa(lp2857
S'freest'
p2858
aasg13
(dp2859
g15
g16
(g20
S'\x835X\x07\xeb\xff\xef?'
p2860
tp2861
Rp2862
sg26
(lp2863
(g2856
g2858
F0.9999900000999989
tp2864
assg3
F1.0
sg29
(lp2865
(lp2866
g2856
aa(lp2867
g2858
aasg2
F1.0
ssI190
(dp2868
g1
F1.0
sg7
(lp2869
(lp2870
S'bright'
p2871
aa(lp2872
S'brightest'
p2873
aasg13
(dp2874
g15
g16
(g20
S'\xd5x\xe9&1\x08\xe0?'
p2875
tp2876
Rp2877
sg26
(lp2878
(g2871
g2873
F0.501
tp2879
assg3
F1.0
sg29
(lp2880
(lp2881
g2871
aa(lp2882
g2873
aasg2
F1.0
ssI191
(dp2883
g1
F1.0
sg7
(lp2884
(lp2885
S'little'
p2886
aa(lp2887
S'least'
p2888
aasg13
(dp2889
g15
g16
(g20
S'UUUUUU\xe5?'
p2890
tp2891
Rp2892
sg26
(lp2893
(g2886
g2888
F0.6666666666666666
tp2894
assg3
F1.0
sg29
(lp2895
(lp2896
g2886
aa(lp2897
g2888
aasg2
F1.0
ssI192
(dp2898
g1
F1.0
sg7
(lp2899
(lp2900
S'short'
p2901
aa(lp2902
S'shortest'
p2903
aasg13
(dp2904
g15
g16
(g20
S'\x835X\x07\xeb\xff\xef?'
p2905
tp2906
Rp2907
sg26
(lp2908
(g2901
g2903
F0.9999900000999989
tp2909
assg3
F1.0
sg29
(lp2910
(lp2911
g2901
aa(lp2912
g2903
aasg2
F1.0
ssI193
(dp2913
g1
F1.0
sg7
(lp2914
(lp2915
S'grave'
p2916
aa(lp2917
S'gravest'
p2918
aasg13
(dp2919
g15
g16
(g20
S')\xab\xa8\x83\xf5\xff\xef?'
p2920
tp2921
Rp2922
sg26
(lp2923
(g2916
g2918
F0.9999950000249999
tp2924
assg3
F1.0
sg29
(lp2925
(lp2926
g2916
aa(lp2927
g2918
aasg2
F1.0
ssI194
(dp2928
g1
F-1.0
sg7
(lp2929
(lp2930
S'heavy'
p2931
aa(lp2932
S'heaviest'
p2933
aasg13
(dp2934
g15
g16
(g20
S'\xd5x\xe9&1\x08\xe0?'
p2935
tp2936
Rp2937
sg26
(lp2938
(g2933
g2931
F0.501
tp2939
assg3
F0.0
sg29
(lp2940
(lp2941
g2933
aa(lp2942
g2931
aasg2
F1.0
ssI195
(dp2943
g1
F1.0
sg7
(lp2944
(lp2945
S'cheap'
p2946
aa(lp2947
S'cheapest'
p2948
aasg13
(dp2949
g15
g16
(g20
S'\xd5x\xe9&1\x08\xe0?'
p2950
tp2951
Rp2952
sg26
(lp2953
(g2946
g2948
F0.501
tp2954
assg3
F1.0
sg29
(lp2955
(lp2956
g2946
aa(lp2957
g2948
aasg2
F1.0
ssI196
(dp2958
g1
F1.0
sg7
(lp2959
(lp2960
S'much'
p2961
aa(lp2962
S'most'
p2963
aasg13
(dp2964
g15
g16
(g20
S'}@r\xff\xff\xff\xef?'
p2965
tp2966
Rp2967
sg26
(lp2968
(g2961
g2963
F0.9999999989686469
tp2969
assg3
F1.0
sg29
(lp2970
(lp2971
g2961
aa(lp2972
g2963
aasg2
F1.0
ssI197
(dp2973
g1
F1.0
sg7
(lp2974
(lp2975
S'close'
p2976
aa(lp2977
S'closest'
p2978
aasg13
(dp2979
g15
g16
(g20
S'\xde\x85\xe9`\xfd\xff\xef?'
p2980
tp2981
Rp2982
sg26
(lp2983
(g2976
g2978
F0.9999987500015626
tp2984
assg3
F1.0
sg29
(lp2985
(lp2986
g2976
aa(lp2987
g2978
aasg2
F1.0
ssI198
(dp2988
g1
F1.0
sg7
(lp2989
(lp2990
S'dark'
p2991
aa(lp2992
S'darkest'
p2993
aasg13
(dp2994
g15
g16
(g20
S'\x835X\x07\xeb\xff\xef?'
p2995
tp2996
Rp2997
sg26
(lp2998
(g2991
g2993
F0.9999900000999989
tp2999
assg3
F1.0
sg29
(lp3000
(lp3001
g2991
aa(lp3002
g2993
aasg2
F1.0
ssI199
(dp3003
g1
F1.0
sg7
(lp3004
(lp3005
S'weak'
p3006
aa(lp3007
S'weakest'
p3008
aasg13
(dp3009
g15
g16
(g20
S'\x835X\x07\xeb\xff\xef?'
p3010
tp3011
Rp3012
sg26
(lp3013
(g3006
g3008
F0.9999900000999989
tp3014
assg3
F1.0
sg29
(lp3015
(lp3016
g3006
aa(lp3017
g3008
aasg2
F1.0
ssI200
(dp3018
g1
F1.0
sg7
(lp3019
(lp3020
S'broad'
p3021
aa(lp3022
S'broadest'
p3023
aasg13
(dp3024
g15
g16
(g20
S')\xab\xa8\x83\xf5\xff\xef?'
p3025
tp3026
Rp3027
sg26
(lp3028
(g3021
g3023
F0.9999950000249999
tp3029
assg3
F1.0
sg29
(lp3030
(lp3031
g3021
aa(lp3032
g3023
aasg2
F1.0
ssI201
(dp3033
g1
F1.0
sg7
(lp3034
(lp3035
S'easy'
p3036
aa(lp3037
S'easiest'
p3038
aasg13
(dp3039
g15
g16
(g20
S'\\\xa2\x9b@\xfe\xff\xef?'
p3040
tp3041
Rp3042
sg26
(lp3043
(g3036
g3038
F0.9999991666673611
tp3044
assg3
F1.0
sg29
(lp3045
(lp3046
g3036
aa(lp3047
g3038
aasg2
F1.0
ssI202
(dp3048
g1
F1.0
sg7
(lp3049
(lp3050
S'brave'
p3051
aa(lp3052
S'bravest'
p3053
aasg13
(dp3054
g15
g16
(g20
S'\xd5x\xe9&1\x08\xe0?'
p3055
tp3056
Rp3057
sg26
(lp3058
(g3051
g3053
F0.501
tp3059
assg3
F1.0
sg29
(lp3060
(lp3061
g3051
aa(lp3062
g3053
aasg2
F1.0
ssI203
(dp3063
g1
F1.0
sg7
(lp3064
(lp3065
S'late'
p3066
aa(lp3067
S'latest'
p3068
aasg13
(dp3069
g15
g16
(g20
S'\xd5x\xe9&1\x08\xe0?'
p3070
tp3071
Rp3072
sg26
(lp3073
(g3066
g3068
F0.501
tp3074
assg3
F1.0
sg29
(lp3075
(lp3076
g3066
aa(lp3077
g3068
aasg2
F1.0
ssI204
(dp3078
g1
F1.0
sg7
(lp3079
(lp3080
S'quick'
p3081
aa(lp3082
S'quickest'
p3083
aasg13
(dp3084
g15
g16
(g20
S'\xd5x\xe9&1\x08\xe0?'
p3085
tp3086
Rp3087
sg26
(lp3088
(g3081
g3083
F0.501
tp3089
assg3
F1.0
sg29
(lp3090
(lp3091
g3081
aa(lp3092
g3083
aasg2
F1.0
ssI205
(dp3093
g1
F1.0
sg7
(lp3094
(lp3095
S'big'
p3096
aa(lp3097
S'biggest'
p3098
aasg13
(dp3099
g15
g16
(g20
S'\xa4\xaeo\x02\xf9\xff\xef?'
p3100
tp3101
Rp3102
sg26
(lp3103
(g3096
g3098
F0.9999966666777778
tp3104
assg3
F1.0
sg29
(lp3105
(lp3106
g3096
aa(lp3107
g3098
aasg2
F1.0
ssI206
(dp3108
g1
F1.0
sg7
(lp3109
(lp3110
S'new'
p3111
aa(lp3112
S'newest'
p3113
aasg13
(dp3114
g15
g16
(g20
S'\x835X\x07\xeb\xff\xef?'
p3115
tp3116
Rp3117
sg26
(lp3118
(g3111
g3113
F0.9999900000999989
tp3119
assg3
F1.0
sg29
(lp3120
(lp3121
g3111
aa(lp3122
g3113
aasg2
F1.0
ssI207
(dp3123
g1
F1.0
sg7
(lp3124
(lp3125
S'far'
p3126
aa(lp3127
S'furthest'
p3128
aasg13
(dp3129
g15
g16
(g20
S'\xd5x\xe9&1\x08\xe0?'
p3130
tp3131
Rp3132
sg26
(lp3133
(g3126
g3128
F0.501
tp3134
assg3
F1.0
sg29
(lp3135
(lp3136
g3126
aa(lp3137
g3128
aasg2
F1.0
ssI208
(dp3138
g1
F1.0
sg7
(lp3139
(lp3140
S'good'
p3141
aa(lp3142
S'excellent'
p3143
aasg13
(dp3144
g15
g16
(g20
S'T:\xd0\xbat\xec\xef?'
p3145
tp3146
Rp3147
sg26
(lp3148
(g3141
g3143
F0.9976142548274063
tp3149
assg3
F1.0
sg29
(lp3150
(lp3151
g3141
aa(lp3152
g3143
aasg2
F1.0
ssI209
(dp3153
g1
F1.0
sg7
(lp3154
(lp3155
S'large'
p3156
aa(lp3157
S'largest'
p3158
aasg13
(dp3159
g15
g16
(g20
S'\xd5x\xe9&1\x08\xe0?'
p3160
tp3161
Rp3162
sg26
(lp3163
(g3156
g3158
F0.501
tp3164
assg3
F1.0
sg29
(lp3165
(lp3166
g3156
aa(lp3167
g3158
aasg2
F1.0
ssI210
(dp3168
g1
F1.0
sg7
(lp3169
(lp3170
S'poor'
p3171
aa(lp3172
S'poorest'
p3173
aasg13
(dp3174
g15
g16
(g20
S'\x00\x00\x00\x00\x00\x00\xe8?'
p3175
tp3176
Rp3177
sg26
(lp3178
(g3171
g3173
F0.75
tp3179
assg3
F1.0
sg29
(lp3180
(lp3181
g3171
aa(lp3182
g3173
aasg2
F1.0
ssI211
(dp3183
g1
F1.0
sg7
(lp3184
(lp3185
S'cruel'
p3186
aa(lp3187
S'cruellest'
p3188
aasg13
(dp3189
g15
g16
(g20
S'\x835X\x07\xeb\xff\xef?'
p3190
tp3191
Rp3192
sg26
(lp3193
(g3186
g3188
F0.9999900000999989
tp3194
assg3
F1.0
sg29
(lp3195
(lp3196
g3186
aa(lp3197
g3188
aasg2
F1.0
ssI212
(dp3198
g1
F1.0
sg7
(lp3199
(lp3200
S'many'
p3201
aa(lp3202
S'most'
p3203
aasg13
(dp3204
g15
g16
(g20
S'\xed(\x03\x9b\x81\xc7\xef?'
p3205
tp3206
Rp3207
sg26
(lp3208
(g3201
g3203
F0.9931037929138974
tp3209
assg3
F1.0
sg29
(lp3210
(lp3211
g3201
aa(lp3212
g3203
aasg2
F1.0
ssI213
(dp3213
g1
F1.0
sg7
(lp3214
(lp3215
S'deep'
p3216
aa(lp3217
S'deepest'
p3218
aasg13
(dp3219
g15
g16
(g20
S'\xd5x\xe9&1\x08\xe0?'
p3220
tp3221
Rp3222
sg26
(lp3223
(g3216
g3218
F0.501
tp3224
assg3
F1.0
sg29
(lp3225
(lp3226
g3216
aa(lp3227
g3218
aasg2
F1.0
ssI214
(dp3228
g1
F1.0
sg7
(lp3229
(lp3230
S'full'
p3231
aa(lp3232
S'fullest'
p3233
aasg13
(dp3234
g15
g16
(g20
S'\xd5x\xe9&1\x08\xe0?'
p3235
tp3236
Rp3237
sg26
(lp3238
(g3231
g3233
F0.501
tp3239
assg3
F1.0
sg29
(lp3240
(lp3241
g3231
aa(lp3242
g3233
aasg2
F1.0
ssI215
(dp3243
g1
F1.0
sg7
(lp3244
(lp3245
S'smart'
p3246
aa(lp3247
S'smartest'
p3248
aasg13
(dp3249
g15
g16
(g20
S'\xd5x\xe9&1\x08\xe0?'
p3250
tp3251
Rp3252
sg26
(lp3253
(g3246
g3248
F0.501
tp3254
assg3
F1.0
sg29
(lp3255
(lp3256
g3246
aa(lp3257
g3248
aasg2
F1.0
ssI216
(dp3258
g1
F1.0
sg7
(lp3259
(lp3260
S'bad'
p3261
aa(lp3262
S'worst'
p3263
aasg13
(dp3264
g15
g16
(g20
S'\t\x1d\xa2\xcf\xff\xff\xef?'
p3265
tp3266
Rp3267
sg26
(lp3268
(g3261
g3263
F0.999999909909918
tp3269
assg3
F1.0
sg29
(lp3270
(lp3271
g3261
aa(lp3272
g3263
aasg2
F1.0
ssI217
(dp3273
g1
F1.0
sg7
(lp3274
(lp3275
S'strict'
p3276
aa(lp3277
S'strictest'
p3278
aasg13
(dp3279
g15
g16
(g20
S'\x835X\x07\xeb\xff\xef?'
p3280
tp3281
Rp3282
sg26
(lp3283
(g3276
g3278
F0.9999900000999989
tp3284
assg3
F1.0
sg29
(lp3285
(lp3286
g3276
aa(lp3287
g3278
aasg2
F1.0
ssI218
(dp3288
g1
F1.0
sg7
(lp3289
(lp3290
S'good'
p3291
aa(lp3292
S'best'
p3293
aasg13
(dp3294
g15
g16
(g20
S'\x1be=>o\x89\xec?'
p3295
tp3296
Rp3297
sg26
(lp3298
(g3291
g3293
F0.8917766776677668
tp3299
assg3
F1.0
sg29
(lp3300
(lp3301
g3291
aa(lp3302
g3293
aasg2
F1.0
ssI219
(dp3303
g1
F1.0
sg7
(lp3304
(lp3305
S'wealthy'
p3306
aa(lp3307
S'wealthiest'
p3308
aasg13
(dp3309
g15
g16
(g20
S'V\x0e-\xb2\x9d\xef\xdf?'
p3310
tp3311
Rp3312
sg26
(lp3313
(g3306
g3308
F0.499
tp3314
assg3
F1.0
sg29
(lp3315
(lp3316
g3306
aa(lp3317
g3308
aasg2
F1.0
ssI220
(dp3318
g1
F1.0
sg7
(lp3319
(lp3320
S'rich'
p3321
aa(lp3322
S'richest'
p3323
aasg13
(dp3324
g15
g16
(g20
S'\xa4\xaeo\x02\xf9\xff\xef?'
p3325
tp3326
Rp3327
sg26
(lp3328
(g3321
g3323
F0.9999966666777778
tp3329
assg3
F1.0
sg29
(lp3330
(lp3331
g3321
aa(lp3332
g3323
aasg2
F1.0
ssI221
(dp3333
g1
F1.0
sg7
(lp3334
(lp3335
S'rare'
p3336
aa(lp3337
S'rarest'
p3338
aasg13
(dp3339
g15
g16
(g20
S'\x835X\x07\xeb\xff\xef?'
p3340
tp3341
Rp3342
sg26
(lp3343
(g3336
g3338
F0.9999900000999989
tp3344
assg3
F1.0
sg29
(lp3345
(lp3346
g3336
aa(lp3347
g3338
aasg2
F1.0
ssI222
(dp3348
g1
F1.0
sg7
(lp3349
(lp3350
S'fast'
p3351
aa(lp3352
S'fastest'
p3353
aasg13
(dp3354
g15
g16
(g20
S'\xc4\xc9\xa1\xef\xff\xff\xef?'
p3355
tp3356
Rp3357
sg26
(lp3358
(g3351
g3353
F0.9999999695121962
tp3359
assg3
F1.0
sg29
(lp3360
(lp3361
g3351
aa(lp3362
g3353
aasg2
F1.0
ssI223
(dp3363
g1
F1.0
sg7
(lp3364
(lp3365
S'low'
p3366
aa(lp3367
S'lowest'
p3368
aasg13
(dp3369
g15
g16
(g20
S'\xafy\xd3\xc1\xfa\xff\xef?'
p3370
tp3371
Rp3372
sg26
(lp3373
(g3366
g3368
F0.9999975000062501
tp3374
assg3
F1.0
sg29
(lp3375
(lp3376
g3366
aa(lp3377
g3368
aasg2
F1.0
ssI224
(dp3378
g1
F1.0
sg7
(lp3379
(lp3380
S'simple'
p3381
aa(lp3382
S'simplest'
p3383
aasg13
(dp3384
g15
g16
(g20
S'\\\xa2\x9b@\xfe\xff\xef?'
p3385
tp3386
Rp3387
sg26
(lp3388
(g3381
g3383
F0.9999991666673611
tp3389
assg3
F1.0
sg29
(lp3390
(lp3391
g3381
aa(lp3392
g3383
aasg2
F1.0
ssI225
(dp3393
g1
F1.0
sg7
(lp3394
(lp3395
S'clean'
p3396
aa(lp3397
S'cleanest'
p3398
aasg13
(dp3399
g15
g16
(g20
S'\xd5x\xe9&1\x08\xe0?'
p3400
tp3401
Rp3402
sg26
(lp3403
(g3396
g3398
F0.501
tp3404
assg3
F1.0
sg29
(lp3405
(lp3406
g3396
aa(lp3407
g3398
aasg2
F1.0
ssI226
(dp3408
g1
F1.0
sg7
(lp3409
(lp3410
S'happy'
p3411
aa(lp3412
S'happiest'
p3413
aasg13
(dp3414
g15
g16
(g20
S'\xafy\xd3\xc1\xfa\xff\xef?'
p3415
tp3416
Rp3417
sg26
(lp3418
(g3411
g3413
F0.9999975000062501
tp3419
assg3
F1.0
sg29
(lp3420
(lp3421
g3411
aa(lp3422
g3413
aasg2
F1.0
ssI227
(dp3423
g1
F1.0
sg7
(lp3424
(lp3425
S'hard'
p3426
aa(lp3427
S'hardest'
p3428
aasg13
(dp3429
g15
g16
(g20
S'\xd5x\xe9&1\x08\xe0?'
p3430
tp3431
Rp3432
sg26
(lp3433
(g3426
g3428
F0.501
tp3434
assg3
F1.0
sg29
(lp3435
(lp3436
g3426
aa(lp3437
g3428
aasg2
F1.0
ssI228
(dp3438
g1
F1.0
sg7
(lp3439
(lp3440
S'well'
p3441
aa(lp3442
S'best'
p3443
aasg13
(dp3444
g15
g16
(g20
S'\xd5x\xe9&1\x08\xe0?'
p3445
tp3446
Rp3447
sg26
(lp3448
(g3441
g3443
F0.501
tp3449
assg3
F1.0
sg29
(lp3450
(lp3451
g3441
aa(lp3452
g3443
aasg2
F1.0
ssI229
(dp3453
g1
F1.0
sg7
(lp3454
(lp3455
S'early'
p3456
aa(lp3457
S'earliest'
p3458
aasg13
(dp3459
g15
g16
(g20
S'\x835X\x07\xeb\xff\xef?'
p3460
tp3461
Rp3462
sg26
(lp3463
(g3456
g3458
F0.9999900000999989
tp3464
assg3
F1.0
sg29
(lp3465
(lp3466
g3456
aa(lp3467
g3458
aasg2
F1.0
ssI230
(dp3468
g1
F1.0
sg7
(lp3469
(lp3470
S'high'
p3471
aa(lp3472
S'highest'
p3473
aasg13
(dp3474
g15
g16
(g20
S'\xbd%d\xd5\xff\xff\xef?'
p3475
tp3476
Rp3477
sg26
(lp3478
(g3471
g3473
F0.9999999206349269
tp3479
assg3
F1.0
sg29
(lp3480
(lp3481
g3471
aa(lp3482
g3473
aasg2
F1.0
ssI231
(dp3483
g1
F1.0
sg7
(lp3484
(lp3485
S'some'
p3486
aa(lp3487
S'most'
p3488
aasg13
(dp3489
g15
g16
(g20
S'\xd5x\xe9&1\x08\xe0?'
p3490
tp3491
Rp3492
sg26
(lp3493
(g3486
g3488
F0.501
tp3494
assg3
F1.0
sg29
(lp3495
(lp3496
g3486
aa(lp3497
g3488
aasg2
F1.0
ssI232
(dp3498
g1
F-1.0
sg7
(lp3499
(lp3500
S'hon'
p3501
aa(lp3502
S'honest'
p3503
aasg13
(dp3504
g15
g16
(g20
S'\xd5x\xe9&1\x08\xe0?'
p3505
tp3506
Rp3507
sg26
(lp3508
(g3503
g3501
F0.501
tp3509
assg3
F0.0
sg29
(lp3510
(lp3511
g3503
aa(lp3512
g3501
aasg2
F1.0
ssI233
(dp3513
g1
F1.0
sg7
(lp3514
(lp3515
S'warm'
p3516
aa(lp3517
S'warmest'
p3518
aasg13
(dp3519
g15
g16
(g20
S'\x835X\x07\xeb\xff\xef?'
p3520
tp3521
Rp3522
sg26
(lp3523
(g3516
g3518
F0.9999900000999989
tp3524
assg3
F1.0
sg29
(lp3525
(lp3526
g3516
aa(lp3527
g3518
aasg2
F1.0
ssI234
(dp3528
g1
F1.0
sg7
(lp3529
(lp3530
S'young'
p3531
aa(lp3532
S'youngest'
p3533
aasg13
(dp3534
g15
g16
(g20
S'\xa4\xaeo\x02\xf9\xff\xef?'
p3535
tp3536
Rp3537
sg26
(lp3538
(g3531
g3533
F0.9999966666777778
tp3539
assg3
F1.0
sg29
(lp3540
(lp3541
g3531
aa(lp3542
g3533
aasg2
F1.0
ssI235
(dp3543
g1
F1.0
sg7
(lp3544
(lp3545
S'strong'
p3546
aa(lp3547
S'strongest'
p3548
aasg13
(dp3549
g15
g16
(g20
S'\t\x1d\xa2\xcf\xff\xff\xef?'
p3550
tp3551
Rp3552
sg26
(lp3553
(g3546
g3548
F0.999999909909918
tp3554
assg3
F1.0
sg29
(lp3555
(lp3556
g3546
aa(lp3557
g3548
aasg2
F1.0
ssI236
(dp3558
g1
F1.0
sg7
(lp3559
(lp3560
S'near'
p3561
aa(lp3562
S'nearest'
p3563
aasg13
(dp3564
g15
g16
(g20
S'\xd5x\xe9&1\x08\xe0?'
p3565
tp3566
Rp3567
sg26
(lp3568
(g3561
g3563
F0.501
tp3569
assg3
F1.0
sg29
(lp3570
(lp3571
g3561
aa(lp3572
g3563
aasg2
F1.0
ssI237
(dp3573
g1
F1.0
sg7
(lp3574
(lp3575
S'east'
p3576
aa(lp3577
S'easiest'
p3578
aasg13
(dp3579
g15
g16
(g20
S'\xd5x\xe9&1\x08\xe0?'
p3580
tp3581
Rp3582
sg26
(lp3583
(g3576
g3578
F0.501
tp3584
assg3
F1.0
sg29
(lp3585
(lp3586
g3576
aa(lp3587
g3578
aasg2
F1.0
ssI238
(dp3588
g1
F1.0
sg7
(lp3589
(lp3590
S'little'
p3591
aa(lp3592
S'less'
p3593
aa(lp3594
S'least'
p3595
aasg13
(dp3596
g15
g16
(g20
S'\x1e\x9bB\xaf o\xe3?'
p3597
tp3598
Rp3599
sg26
(lp3600
(g3591
g3593
F0.9937888198757764
tp3601
a(g3591
g3595
F0.6666666666666666
tp3602
a(g3593
g3595
F0.9166666666666666
tp3603
assg3
F1.0
sg29
(lp3604
(lp3605
g3591
aa(lp3606
g3593
aa(lp3607
g3595
aasg2
F1.0
ssI239
(dp3608
g1
F1.0
sg7
(lp3609
(lp3610
S'broad'
p3611
aa(lp3612
S'broader'
p3613
aa(lp3614
S'broadest'
p3615
aasg13
(dp3616
g15
g16
(g20
S'\xeb\x92t\x92\xcb\xff\xef?'
p3617
tp3618
Rp3619
sg26
(lp3620
(g3611
g3613
F0.9999900000999989
tp3621
a(g3611
g3615
F0.9999950000249999
tp3622
a(g3613
g3615
F0.9999900000999989
tp3623
assg3
F1.0
sg29
(lp3624
(lp3625
g3611
aa(lp3626
g3613
aa(lp3627
g3615
aasg2
F1.0
ssI240
(dp3628
g1
F0.3333333333333333
sg7
(lp3629
(lp3630
S'grave'
p3631
aa(lp3632
S'graver'
p3633
aa(lp3634
S'gravest'
p3635
aasg13
(dp3636
g15
g16
(g20
S'\x9em\x05<a\x10\xd0?'
p3637
tp3638
Rp3639
sg26
(lp3640
(g3631
g3635
F0.9999950000249999
tp3641
a(g3631
g3633
F0.501
tp3642
a(g3635
g3633
F0.501
tp3643
assg3
F0.6666666666666666
sg29
(lp3644
(lp3645
g3631
aa(lp3646
g3635
aa(lp3647
g3633
aasg2
F0.3333333333333333
ssI241
(dp3648
g1
F1.0
sg7
(lp3649
(lp3650
S'bright'
p3651
aa(lp3652
S'brighter'
p3653
aa(lp3654
S'brightest'
p3655
aasg13
(dp3656
g15
g16
(g20
S'\x1a\xbb\xd5mf\x10\xd0?'
p3657
tp3658
Rp3659
sg26
(lp3660
(g3651
g3653
F0.9999999342105306
tp3661
a(g3651
g3655
F0.501
tp3662
a(g3653
g3655
F0.501
tp3663
assg3
F1.0
sg29
(lp3664
(lp3665
g3651
aa(lp3666
g3653
aa(lp3667
g3655
aasg2
F1.0
ssI242
(dp3668
g1
F-0.3333333333333333
sg7
(lp3669
(lp3670
S'heavy'
p3671
aa(lp3672
S'heavier'
p3673
aa(lp3674
S'heaviest'
p3675
aasg13
(dp3676
g15
g16
(g20
S'\xdf\tUhf\x10\xd0?'
p3677
tp3678
Rp3679
sg26
(lp3680
(g3675
g3671
F0.501
tp3681
a(g3675
g3673
F0.501
tp3682
a(g3671
g3673
F0.9999999137931108
tp3683
assg3
F0.3333333333333333
sg29
(lp3684
(lp3685
g3675
aa(lp3686
g3671
aa(lp3687
g3673
aasg2
F0.3333333333333333
ssI243
(dp3688
g1
F1.0
sg7
(lp3689
(lp3690
S'east'
p3691
aa(lp3692
S'easier'
p3693
aa(lp3694
S'easiest'
p3695
aasg13
(dp3696
g15
g16
(g20
S'-\xde\x8bdd\x10\xd0?'
p3697
tp3698
Rp3699
sg26
(lp3700
(g3691
g3693
F0.501
tp3701
a(g3691
g3695
F0.501
tp3702
a(g3693
g3695
F0.9999980000040001
tp3703
assg3
F1.0
sg29
(lp3704
(lp3705
g3691
aa(lp3706
g3693
aa(lp3707
g3695
aasg2
F1.0
ssI244
(dp3708
g1
F1.0
sg7
(lp3709
(lp3710
S'small'
p3711
aa(lp3712
S'smaller'
p3713
aa(lp3714
S'smallest'
p3715
aasg13
(dp3716
g15
g16
(g20
S'\xd9\xfcO\xfa\xf5\xfb\xef?'
p3717
tp3718
Rp3719
sg26
(lp3720
(g3711
g3713
F0.9995152690256908
tp3721
a(g3711
g3715
F0.9999966666777778
tp3722
a(g3713
g3715
F0.9999950000249999
tp3723
assg3
F1.0
sg29
(lp3724
(lp3725
g3711
aa(lp3726
g3713
aa(lp3727
g3715
aasg2
F1.0
ssI245
(dp3728
g1
F0.3333333333333333
sg7
(lp3729
(lp3730
S'fine'
p3731
aa(lp3732
S'finer'
p3733
aa(lp3734
S'finest'
p3735
aasg13
(dp3736
g15
g16
(g20
S'\x84\xe4\x1b\x0c\xa0\x18\xc0?'
p3737
tp3738
Rp3739
sg26
(lp3740
(g3731
g3735
F0.501
tp3741
a(g3731
g3733
F0.501
tp3742
a(g3735
g3733
F0.501
tp3743
assg3
F0.6666666666666666
sg29
(lp3744
(lp3745
g3731
aa(lp3746
g3735
aa(lp3747
g3733
aasg2
F0.3333333333333333
ssI246
(dp3748
g1
F1.0
sg7
(lp3749
(lp3750
S'smart'
p3751
aa(lp3752
S'smarter'
p3753
aa(lp3754
S'smartest'
p3755
aasg13
(dp3756
g15
g16
(g20
S'MQ\xcbxf\x10\xd0?'
p3757
tp3758
Rp3759
sg26
(lp3760
(g3751
g3753
F0.9999999748743725
tp3761
a(g3751
g3755
F0.501
tp3762
a(g3753
g3755
F0.501
tp3763
assg3
F1.0
sg29
(lp3764
(lp3765
g3751
aa(lp3766
g3753
aa(lp3767
g3755
aasg2
F1.0
ssI247
(dp3768
g1
F1.0
sg7
(lp3769
(lp3770
S'cheap'
p3771
aa(lp3772
S'cheaper'
p3773
aa(lp3774
S'cheapest'
p3775
aasg13
(dp3776
g15
g16
(g20
S"'D[\xa8\xc6\xa8\xcc?"
p3777
tp3778
Rp3779
sg26
(lp3780
(g3771
g3773
F0.8920308483290489
tp3781
a(g3771
g3775
F0.501
tp3782
a(g3773
g3775
F0.501
tp3783
assg3
F1.0
sg29
(lp3784
(lp3785
g3771
aa(lp3786
g3773
aa(lp3787
g3775
aasg2
F1.0
ssI248
(dp3788
g1
F1.0
sg7
(lp3789
(lp3790
S'big'
p3791
aa(lp3792
S'bigger'
p3793
aa(lp3794
S'biggest'
p3795
aasg13
(dp3796
g15
g16
(g20
S'W\xb6\xf5\xaaPU\xe5?'
p3797
tp3798
Rp3799
sg26
(lp3800
(g3791
g3793
F0.9999999962811453
tp3801
a(g3791
g3795
F0.9999966666777778
tp3802
a(g3793
g3795
F0.6666666666666666
tp3803
assg3
F1.0
sg29
(lp3804
(lp3805
g3791
aa(lp3806
g3793
aa(lp3807
g3795
aasg2
F1.0
ssI249
(dp3808
g1
F1.0
sg7
(lp3809
(lp3810
S'warm'
p3811
aa(lp3812
S'warmer'
p3813
aa(lp3814
S'warmest'
p3815
aasg13
(dp3816
g15
g16
(g20
S'\x81\xa4\x85z&\x08\xe0?'
p3817
tp3818
Rp3819
sg26
(lp3820
(g3811
g3813
F0.9999998412698664
tp3821
a(g3811
g3815
F0.9999900000999989
tp3822
a(g3813
g3815
F0.501
tp3823
assg3
F1.0
sg29
(lp3824
(lp3825
g3811
aa(lp3826
g3813
aa(lp3827
g3815
aasg2
F1.0
ssI250
(dp3828
g1
F1.0
sg7
(lp3829
(lp3830
S'far'
p3831
aa(lp3832
S'further'
p3833
aa(lp3834
S'furthest'
p3835
aasg13
(dp3836
g15
g16
(g20
S'\xdd\x10\xc9tf\x10\xd0?'
p3837
tp3838
Rp3839
sg26
(lp3840
(g3831
g3833
F0.9999999600000016
tp3841
a(g3831
g3835
F0.501
tp3842
a(g3833
g3835
F0.501
tp3843
assg3
F1.0
sg29
(lp3844
(lp3845
g3831
aa(lp3846
g3833
aa(lp3847
g3835
aasg2
F1.0
ssI251
(dp3848
g1
F1.0
sg7
(lp3849
(lp3850
S'close'
p3851
aa(lp3852
S'closer'
p3853
aa(lp3854
S'closest'
p3855
aasg13
(dp3856
g15
g16
(g20
S'\xd0\xa6\x19S5D\xe4?'
p3857
tp3858
Rp3859
sg26
(lp3860
(g3851
g3853
F0.6333333333333333
tp3861
a(g3851
g3855
F0.9999987500015626
tp3862
a(g3853
g3855
F0.9999900000999989
tp3863
assg3
F1.0
sg29
(lp3864
(lp3865
g3851
aa(lp3866
g3853
aa(lp3867
g3855
aasg2
F1.0
ssI252
(dp3868
g1
F0.3333333333333333
sg7
(lp3869
(lp3870
S'free'
p3871
aa(lp3872
S'freer'
p3873
aa(lp3874
S'freest'
p3875
aasg13
(dp3876
g15
g16
(g20
S'\x0c\xedOM~\xef\xdf?'
p3877
tp3878
Rp3879
sg26
(lp3880
(g3871
g3875
F0.9999900000999989
tp3881
a(g3871
g3873
F0.9999950000249999
tp3882
a(g3875
g3873
F0.499
tp3883
assg3
F0.6666666666666666
sg29
(lp3884
(lp3885
g3871
aa(lp3886
g3875
aa(lp3887
g3873
aasg2
F0.3333333333333333
ssI253
(dp3888
g1
F0.3333333333333333
sg7
(lp3889
(lp3890
S'poor'
p3891
aa(lp3892
S'poorer'
p3893
aa(lp3894
S'poorest'
p3895
aasg13
(dp3896
g15
g16
(g20
S'\xabd\xd1\x1a\xf8\xff\xe7?'
p3897
tp3898
Rp3899
sg26
(lp3900
(g3891
g3895
F0.75
tp3901
a(g3891
g3893
F0.9999999803149611
tp3902
a(g3895
g3893
F0.9999950000249999
tp3903
assg3
F0.6666666666666666
sg29
(lp3904
(lp3905
g3891
aa(lp3906
g3895
aa(lp3907
g3893
aasg2
F0.3333333333333333
ssI254
(dp3908
g1
F1.0
sg7
(lp3909
(lp3910
S'rare'
p3911
aa(lp3912
S'rarer'
p3913
aa(lp3914
S'rarest'
p3915
aasg13
(dp3916
g15
g16
(g20
S'\xf0I\xad\x9c&\x08\xe0?'
p3917
tp3918
Rp3919
sg26
(lp3920
(g3911
g3913
F0.9999999682539693
tp3921
a(g3911
g3915
F0.9999900000999989
tp3922
a(g3913
g3915
F0.501
tp3923
assg3
F1.0
sg29
(lp3924
(lp3925
g3911
aa(lp3926
g3913
aa(lp3927
g3915
aasg2
F1.0
ssI255
(dp3928
g1
F1.0
sg7
(lp3929
(lp3930
S'safe'
p3931
aa(lp3932
S'safer'
p3933
aa(lp3934
S'safest'
p3935
aasg13
(dp3936
g15
g16
(g20
S'\xb5IU\xc2\xac\x1b\xd6?'
p3937
tp3938
Rp3939
sg26
(lp3940
(g3931
g3933
F0.6895061728395062
tp3941
a(g3931
g3935
F0.501
tp3942
a(g3933
g3935
F0.9999900000999989
tp3943
assg3
F1.0
sg29
(lp3944
(lp3945
g3931
aa(lp3946
g3933
aa(lp3947
g3935
aasg2
F1.0
ssI256
(dp3948
g1
F1.0
sg7
(lp3949
(lp3950
S'simple'
p3951
aa(lp3952
S'simpler'
p3953
aa(lp3954
S'simplest'
p3955
aasg13
(dp3956
g15
g16
(g20
S'<<\xa6\x93r\xec\xef?'
p3957
tp3958
Rp3959
sg26
(lp3960
(g3951
g3953
F0.9976190476190476
tp3961
a(g3951
g3955
F0.9999991666673611
tp3962
a(g3953
g3955
F0.9999950000249999
tp3963
assg3
F1.0
sg29
(lp3964
(lp3965
g3951
aa(lp3966
g3953
aa(lp3967
g3955
aasg2
F1.0
ssI257
(dp3968
g1
F1.0
sg7
(lp3969
(lp3970
S'large'
p3971
aa(lp3972
S'larger'
p3973
aa(lp3974
S'largest'
p3975
aasg13
(dp3976
g15
g16
(g20
S'C}\x02\xf7.\x0e\xd0?'
p3977
tp3978
Rp3979
sg26
(lp3980
(g3971
g3973
F0.9994609164420485
tp3981
a(g3971
g3975
F0.501
tp3982
a(g3973
g3975
F0.501
tp3983
assg3
F1.0
sg29
(lp3984
(lp3985
g3971
aa(lp3986
g3973
aa(lp3987
g3975
aasg2
F1.0
ssI258
(dp3988
g1
F1.0
sg7
(lp3989
(lp3990
S'great'
p3991
aa(lp3992
S'greater'
p3993
aa(lp3994
S'greatest'
p3995
aasg13
(dp3996
g15
g16
(g20
S'w<!\x8c\x8c\xcb\xe6?'
p3997
tp3998
Rp3999
sg26
(lp4000
(g3991
g3993
F0.9972862957937585
tp4001
a(g3991
g3995
F0.9999999122807094
tp4002
a(g3993
g3995
F0.7142857142857143
tp4003
assg3
F1.0
sg29
(lp4004
(lp4005
g3991
aa(lp4006
g3993
aa(lp4007
g3995
aasg2
F1.0
ssI259
(dp4008
g1
F0.3333333333333333
sg7
(lp4009
(lp4010
S'late'
p4011
aa(lp4012
S'later'
p4013
aa(lp4014
S'latest'
p4015
aasg13
(dp4016
g15
g16
(g20
S'@\x06\x01U%\x08\xe0?'
p4017
tp4018
Rp4019
sg26
(lp4020
(g4011
g4015
F0.501
tp4021
a(g4011
g4013
F0.9999987500015626
tp4022
a(g4015
g4013
F0.9999900000999989
tp4023
assg3
F0.6666666666666666
sg29
(lp4024
(lp4025
g4011
aa(lp4026
g4015
aa(lp4027
g4013
aasg2
F0.3333333333333333
ssI260
(dp4028
g1
F0.3333333333333333
sg7
(lp4029
(lp4030
S'dark'
p4031
aa(lp4032
S'darker'
p4033
aa(lp4034
S'darkest'
p4035
aasg13
(dp4036
g15
g16
(g20
S'\x0b\x87J\xca\x81\xef\xdf?'
p4037
tp4038
Rp4039
sg26
(lp4040
(g4031
g4035
F0.9999900000999989
tp4041
a(g4031
g4033
F0.9999966666777778
tp4042
a(g4035
g4033
F0.499
tp4043
assg3
F0.6666666666666666
sg29
(lp4044
(lp4045
g4031
aa(lp4046
g4035
aa(lp4047
g4033
aasg2
F0.3333333333333333
ssI261
(dp4048
g1
F1.0
sg7
(lp4049
(lp4050
S'quick'
p4051
aa(lp4052
S'quicker'
p4053
aa(lp4054
S'quickest'
p4055
aasg13
(dp4056
g15
g16
(g20
S'GMN\x02\xb0\xfe\xdf?'
p4057
tp4058
Rp4059
sg26
(lp4060
(g4051
g4053
F0.9978540772532188
tp4061
a(g4051
g4055
F0.501
tp4062
a(g4053
g4055
F0.9999900000999989
tp4063
assg3
F1.0
sg29
(lp4064
(lp4065
g4051
aa(lp4066
g4053
aa(lp4067
g4055
aasg2
F1.0
ssI262
(dp4068
g1
F1.0
sg7
(lp4069
(lp4070
S'wide'
p4071
aa(lp4072
S'wider'
p4073
aa(lp4074
S'widest'
p4075
aasg13
(dp4076
g15
g16
(g20
S'MW\x0f\xeb\x18\xeb\xef?'
p4077
tp4078
Rp4079
sg26
(lp4080
(g4071
g4073
F0.9974683544303797
tp4081
a(g4071
g4075
F0.9999900000999989
tp4082
a(g4073
g4075
F0.9999900000999989
tp4083
assg3
F1.0
sg29
(lp4084
(lp4085
g4071
aa(lp4086
g4073
aa(lp4087
g4075
aasg2
F1.0
ssI263
(dp4088
g1
F0.3333333333333333
sg7
(lp4089
(lp4090
S'full'
p4091
aa(lp4092
S'fuller'
p4093
aa(lp4094
S'fullest'
p4095
aasg13
(dp4096
g15
g16
(g20
S'*\xcf\x05\xf3,\x08\xc0?'
p4097
tp4098
Rp4099
sg26
(lp4100
(g4091
g4095
F0.501
tp4101
a(g4091
g4093
F0.501
tp4102
a(g4095
g4093
F0.499
tp4103
assg3
F0.6666666666666666
sg29
(lp4104
(lp4105
g4091
aa(lp4106
g4095
aa(lp4107
g4093
aasg2
F0.3333333333333333
ssI264
(dp4108
g1
F1.0
sg7
(lp4109
(lp4110
S'deep'
p4111
aa(lp4112
S'deeper'
p4113
aa(lp4114
S'deepest'
p4115
aasg13
(dp4116
g15
g16
(g20
S'Y\xa2\x02\xd0+\x08\xe0?'
p4117
tp4118
Rp4119
sg26
(lp4120
(g4111
g4113
F0.9999999180327935
tp4121
a(g4111
g4115
F0.501
tp4122
a(g4113
g4115
F0.9999950000249999
tp4123
assg3
F1.0
sg29
(lp4124
(lp4125
g4111
aa(lp4126
g4113
aa(lp4127
g4115
aasg2
F1.0
ssI265
(dp4128
g1
F1.0
sg7
(lp4129
(lp4130
S'young'
p4131
aa(lp4132
S'younger'
p4133
aa(lp4134
S'youngest'
p4135
aasg13
(dp4136
g15
g16
(g20
S'\x84h\x12\xce5\xcf\xef?'
p4137
tp4138
Rp4139
sg26
(lp4140
(g4131
g4133
F0.9999999047619138
tp4141
a(g4131
g4135
F0.9999966666777778
tp4142
a(g4133
g4135
F0.9940476190476191
tp4143
assg3
F1.0
sg29
(lp4144
(lp4145
g4131
aa(lp4146
g4133
aa(lp4147
g4135
aasg2
F1.0
ssI266
(dp4148
g1
F0.3333333333333333
sg7
(lp4149
(lp4150
S'wealthy'
p4151
aa(lp4152
S'wealthier'
p4153
aa(lp4154
S'wealthiest'
p4155
aasg13
(dp4156
g15
g16
(g20
S'\x19\x19\xaf<\xf2\xce\xbf?'
p4157
tp4158
Rp4159
sg26
(lp4160
(g4151
g4155
F0.499
tp4161
a(g4151
g4153
F0.499
tp4162
a(g4155
g4153
F0.499
tp4163
assg3
F0.6666666666666666
sg29
(lp4164
(lp4165
g4151
aa(lp4166
g4155
aa(lp4167
g4153
aasg2
F0.3333333333333333
ssI267
(dp4168
g1
F0.3333333333333333
sg7
(lp4169
(lp4170
S'new'
p4171
aa(lp4172
S'newer'
p4173
aa(lp4174
S'newest'
p4175
aasg13
(dp4176
g15
g16
(g20
S'\x85\xe4\xe1\xa3\xe2\xff\xcf?'
p4177
tp4178
Rp4179
sg26
(lp4180
(g4171
g4175
F0.9999900000999989
tp4181
a(g4171
g4173
F0.501
tp4182
a(g4175
g4173
F0.499
tp4183
assg3
F0.6666666666666666
sg29
(lp4184
(lp4185
g4171
aa(lp4186
g4175
aa(lp4187
g4173
aasg2
F0.3333333333333333
ssI268
(dp4188
g1
F1.0
sg7
(lp4189
(lp4190
S'long'
p4191
aa(lp4192
S'longer'
p4193
aa(lp4194
S'longest'
p4195
aasg13
(dp4196
g15
g16
(g20
S'J\n\x0cJ\x8b\xfd\xef?'
p4197
tp4198
Rp4199
sg26
(lp4200
(g4191
g4193
F0.9997202014549524
tp4201
a(g4191
g4195
F0.9999900000999989
tp4202
a(g4193
g4195
F0.9999900000999989
tp4203
assg3
F1.0
sg29
(lp4204
(lp4205
g4191
aa(lp4206
g4193
aa(lp4207
g4195
aasg2
F1.0
ssI269
(dp4208
g1
F0.3333333333333333
sg7
(lp4209
(lp4210
S'brave'
p4211
aa(lp4212
S'braver'
p4213
aa(lp4214
S'bravest'
p4215
aasg13
(dp4216
g15
g16
(g20
S'*\xcf\x05\xf3,\x08\xc0?'
p4217
tp4218
Rp4219
sg26
(lp4220
(g4211
g4215
F0.501
tp4221
a(g4211
g4213
F0.501
tp4222
a(g4215
g4213
F0.499
tp4223
assg3
F0.6666666666666666
sg29
(lp4224
(lp4225
g4211
aa(lp4226
g4215
aa(lp4227
g4213
aasg2
F0.3333333333333333
ssI270
(dp4228
g1
F1.0
sg7
(lp4229
(lp4230
S'hard'
p4231
aa(lp4232
S'harder'
p4233
aa(lp4234
S'hardest'
p4235
aasg13
(dp4236
g15
g16
(g20
S'\xa2\x07\xe9y5\x05\xe0?'
p4237
tp4238
Rp4239
sg26
(lp4240
(g4231
g4233
F0.9992781520692974
tp4241
a(g4231
g4235
F0.501
tp4242
a(g4233
g4235
F0.9999950000249999
tp4243
assg3
F1.0
sg29
(lp4244
(lp4245
g4231
aa(lp4246
g4233
aa(lp4247
g4235
aasg2
F1.0
ssI271
(dp4248
g1
F0.3333333333333333
sg7
(lp4249
(lp4250
S'rich'
p4251
aa(lp4252
S'richer'
p4253
aa(lp4254
S'richest'
p4255
aasg13
(dp4256
g15
g16
(g20
S'\x9a`\xa5\xaf\x96\xef\xdf?'
p4257
tp4258
Rp4259
sg26
(lp4260
(g4251
g4255
F0.9999966666777778
tp4261
a(g4251
g4253
F0.999999984051037
tp4262
a(g4255
g4253
F0.499
tp4263
assg3
F0.6666666666666666
sg29
(lp4264
(lp4265
g4251
aa(lp4266
g4255
aa(lp4267
g4253
aasg2
F0.3333333333333333
ssI272
(dp4268
g1
F1.0
sg7
(lp4269
(lp4270
S'strict'
p4271
aa(lp4272
S'stricter'
p4273
aa(lp4274
S'strictest'
p4275
aasg13
(dp4276
g15
g16
(g20
S'W\xc9_d!\x08\xe0?'
p4277
tp4278
Rp4279
sg26
(lp4280
(g4271
g4273
F0.9999950000249999
tp4281
a(g4271
g4275
F0.9999900000999989
tp4282
a(g4273
g4275
F0.501
tp4283
assg3
F1.0
sg29
(lp4284
(lp4285
g4271
aa(lp4286
g4273
aa(lp4287
g4275
aasg2
F1.0
ssI273
(dp4288
g1
F1.0
sg7
(lp4289
(lp4290
S'clean'
p4291
aa(lp4292
S'cleaner'
p4293
aa(lp4294
S'cleanest'
p4295
aasg13
(dp4296
g15
g16
(g20
S'\x84\xe4\x1b\x0c\xa0\x18\xc0?'
p4297
tp4298
Rp4299
sg26
(lp4300
(g4291
g4293
F0.501
tp4301
a(g4291
g4295
F0.501
tp4302
a(g4293
g4295
F0.501
tp4303
assg3
F1.0
sg29
(lp4304
(lp4305
g4291
aa(lp4306
g4293
aa(lp4307
g4295
aasg2
F1.0
ssI274
(dp4308
g1
F1.0
sg7
(lp4309
(lp4310
S'weak'
p4311
aa(lp4312
S'weaker'
p4313
aa(lp4314
S'weakest'
p4315
aasg13
(dp4316
g15
g16
(g20
S'\x1a\x9d\xa1\x97&\x08\xe0?'
p4317
tp4318
Rp4319
sg26
(lp4320
(g4311
g4313
F0.9999999494949521
tp4321
a(g4311
g4315
F0.9999900000999989
tp4322
a(g4313
g4315
F0.501
tp4323
assg3
F1.0
sg29
(lp4324
(lp4325
g4311
aa(lp4326
g4313
aa(lp4327
g4315
aasg2
F1.0
ssI275
(dp4328
g1
F1.0
sg7
(lp4329
(lp4330
S'fair'
p4331
aa(lp4332
S'fairer'
p4333
aa(lp4334
S'fairest'
p4335
aasg13
(dp4336
g15
g16
(g20
S'W\xc9_d!\x08\xe0?'
p4337
tp4338
Rp4339
sg26
(lp4340
(g4331
g4333
F0.9999950000249999
tp4341
a(g4331
g4335
F0.9999900000999989
tp4342
a(g4333
g4335
F0.501
tp4343
assg3
F1.0
sg29
(lp4344
(lp4345
g4331
aa(lp4346
g4333
aa(lp4347
g4335
aasg2
F1.0
ssI276
(dp4348
g1
F1.0
sg7
(lp4349
(lp4350
S'short'
p4351
aa(lp4352
S'shorter'
p4353
aa(lp4354
S'shortest'
p4355
aasg13
(dp4356
g15
g16
(g20
S'v\x04\xc0\x93&\x08\xe0?'
p4357
tp4358
Rp4359
sg26
(lp4360
(g4351
g4353
F0.9999999350649392
tp4361
a(g4351
g4355
F0.9999900000999989
tp4362
a(g4353
g4355
F0.501
tp4363
assg3
F1.0
sg29
(lp4364
(lp4365
g4351
aa(lp4366
g4353
aa(lp4367
g4355
aasg2
F1.0
ssI277
(dp4368
g1
F1.0
sg7
(lp4369
(lp4370
S'high'
p4371
aa(lp4372
S'higher'
p4373
aa(lp4374
S'highest'
p4375
aasg13
(dp4376
g15
g16
(g20
S'\xcc:\xcb\x94X\x85\xe4?'
p4377
tp4378
Rp4379
sg26
(lp4380
(g4371
g4373
F0.961916461916462
tp4381
a(g4371
g4375
F0.9999999206349269
tp4382
a(g4373
g4375
F0.6666666666666666
tp4383
assg3
F1.0
sg29
(lp4384
(lp4385
g4371
aa(lp4386
g4373
aa(lp4387
g4375
aasg2
F1.0
ssI278
(dp4388
g1
F1.0
sg7
(lp4389
(lp4390
S'early'
p4391
aa(lp4392
S'earlier'
p4393
aa(lp4394
S'earliest'
p4395
aasg13
(dp4396
g15
g16
(g20
S'\xa4\xd0\x8b#\x1c\x08\xe0?'
p4397
tp4398
Rp4399
sg26
(lp4400
(g4391
g4393
F0.9999900000999989
tp4401
a(g4391
g4395
F0.9999900000999989
tp4402
a(g4393
g4395
F0.501
tp4403
assg3
F1.0
sg29
(lp4404
(lp4405
g4391
aa(lp4406
g4393
aa(lp4407
g4395
aasg2
F1.0
ssI279
(dp4408
g1
F1.0
sg7
(lp4409
(lp4410
S'clear'
p4411
aa(lp4412
S'clearer'
p4413
aa(lp4414
S'clearest'
p4415
aasg13
(dp4416
g15
g16
(g20
S'z\x81.\x9d\x9a\xd0\xef?'
p4417
tp4418
Rp4419
sg26
(lp4420
(g4411
g4413
F0.9942196531791907
tp4421
a(g4411
g4415
F0.9999980000040001
tp4422
a(g4413
g4415
F0.9999966666777778
tp4423
assg3
F1.0
sg29
(lp4424
(lp4425
g4411
aa(lp4426
g4413
aa(lp4427
g4415
aasg2
F1.0
ssI280
(dp4428
g1
F1.0
sg7
(lp4429
(lp4430
S'low'
p4431
aa(lp4432
S'lower'
p4433
aa(lp4434
S'lowest'
p4435
aasg13
(dp4436
g15
g16
(g20
S'\xf5}8z_>\xe5?'
p4437
tp4438
Rp4439
sg26
(lp4440
(g4431
g4433
F0.9957983193277311
tp4441
a(g4431
g4435
F0.9999975000062501
tp4442
a(g4433
g4435
F0.6666666666666666
tp4443
assg3
F1.0
sg29
(lp4444
(lp4445
g4431
aa(lp4446
g4433
aa(lp4447
g4435
aasg2
F1.0
ssI281
(dp4448
g1
F1.0
sg7
(lp4449
(lp4450
S'happy'
p4451
aa(lp4452
S'happier'
p4453
aa(lp4454
S'happiest'
p4455
aasg13
(dp4456
g15
g16
(g20
S'J\xf5]z.\x08\xe0?'
p4457
tp4458
Rp4459
sg26
(lp4460
(g4451
g4453
F0.999999954954957
tp4461
a(g4451
g4455
F0.9999975000062501
tp4462
a(g4453
g4455
F0.501
tp4463
assg3
F1.0
sg29
(lp4464
(lp4465
g4451
aa(lp4466
g4453
aa(lp4467
g4455
aasg2
F1.0
ssI282
(dp4468
g1
F1.0
sg7
(lp4469
(lp4470
S'fast'
p4471
aa(lp4472
S'faster'
p4473
aa(lp4474
S'fastest'
p4475
aasg13
(dp4476
g15
g16
(g20
S'\x9a\xe1\xa0\xd7?\x00\xef?'
p4477
tp4478
Rp4479
sg26
(lp4480
(g4471
g4473
F0.9687901597209473
tp4481
a(g4471
g4475
F0.9999999695121962
tp4482
a(g4473
g4475
F0.9999900000999989
tp4483
assg3
F1.0
sg29
(lp4484
(lp4485
g4471
aa(lp4486
g4473
aa(lp4487
g4475
aasg2
F1.0
ssI283
(dp4488
g1
F1.0
sg7
(lp4489
(lp4490
S'old'
p4491
aa(lp4492
S'older'
p4493
aa(lp4494
S'oldest'
p4495
aasg13
(dp4496
g15
g16
(g20
S'$\x0f2h\xe2\x9f\xcb?'
p4497
tp4498
Rp4499
sg26
(lp4500
(g4491
g4493
F0.8598244020587344
tp4501
a(g4491
g4495
F0.501
tp4502
a(g4493
g4495
F0.501
tp4503
assg3
F1.0
sg29
(lp4504
(lp4505
g4491
aa(lp4506
g4493
aa(lp4507
g4495
aasg2
F1.0
ssI284
(dp4508
g1
F1.0
sg7
(lp4509
(lp4510
S'strong'
p4511
aa(lp4512
S'stronger'
p4513
aa(lp4514
S'strongest'
p4515
aasg13
(dp4516
g15
g16
(g20
S'\xa8\x1c\xb8\xc9S\xfe\xef?'
p4517
tp4518
Rp4519
sg26
(lp4520
(g4511
g4513
F0.999805900621118
tp4521
a(g4511
g4515
F0.999999909909918
tp4522
a(g4513
g4515
F0.9999900000999989
tp4523
assg3
F1.0
sg29
(lp4524
(lp4525
g4511
aa(lp4526
g4513
aa(lp4527
g4515
aasg2
F1.0
sss.