(dp0
I0
S'<is weaker than>'
p1
sI1
S'<very>'
p2
sI2
S'<so>'
p3
sI3
S'<most>'
p4
sI4
S'<really>'
p5
sI5
S'<quite>'
p6
sI6
S'<more>'
p7
sI7
S'<pretty>'
p8
sI8
S'<just>'
p9
sI9
S'<absolutely>'
p10
sI10
S'<all>'
p11
sI11
S'<extremely>'
p12
sI12
S'<as>'
p13
sI13
S'<well>'
p14
sI14
S'<rather>'
p15
sI15
S'<totally>'
p16
sI16
S'<completely>'
p17
sI17
S'<highly>'
p18
sI18
S'<relatively>'
p19
sI19
S'<perfectly>'
p20
sI20
S'<only>'
p21
sI21
S'<that>'
p22
sI22
S'<too>'
p23
sI23
S'<less>'
p24
sI24
S'<particularly>'
p25
sI25
S'<much>'
p26
sI26
S'<real>'
p27
sI27
S'<clearly>'
p28
sI28
S'<a little>'
p29
sI29
S'<therefore>'
p30
sI30
S'<fully>'
p31
sI31
S'<even>'
p32
sI32
S'<somewhat>'
p33
sI33
S'<truly>'
p34
sI34
S'<kind of>'
p35
sI35
S'<mutually>'
p36
sI36
S'<almost>'
p37
sI37
S'<any>'
p38
sI38
S'<widely>'
p39
sI39
S'<environmentally>'
p40
sI40
S'<just so>'
p41
sI41
S'<entirely>'
p42
sI42
S'<economically>'
p43
sI43
S'<generally>'
p44
sI44
S'<fairly>'
p45
sI45
S'<currently>'
p46
sI46
S'<readily>'
p47
sI47
S'<far>'
p48
sI48
S'<newly>'
p49
sI49
S'<otherwise>'
p50
sI50
S'<legally>'
p51
sI51
S'<commonly>'
p52
sI52
S'<publicly>'
p53
sI53
S'<ever>'
p54
sI54
S'<reasonably>'
p55
sI55
S'<increasingly>'
p56
sI56
S'<still>'
p57
sI57
S'<ready to>'
p58
sI58
S'<potentially>'
p59
sI59
S'<little>'
p60
sI60
S'<previously>'
p61
sI61
S'<already>'
p62
sI62
S'<beautiful ,>'
p63
sI63
S'<a bit>'
p64
sI64
S'<worried about>'
p65
sI65
S'<sufficiently>'
p66
sI66
S'<deeply>'
p67
sI67
S'<easily>'
p68
sI68
S'<fucking>'
p69
sI69
S'<broadly>'
p70
sI70
S'<incredibly>'
p71
sI71
S'<sorry ,>'
p72
sI72
S'<exceptionally>'
p73
sI73
S'<this>'
p74
sI74
S'<long>'
p75
sI75
S'<about>'
p76
sI76
S'<closely>'
p77
sI77
S'<least>'
p78
sI78
S'<no>'
p79
sI79
S'<properly>'
p80
sI80
S'<vitally>'
p81
sI81
S'<especially>'
p82
sI82
S'<honest with>'
p83
sI83
S'<patently>'
p84
sI84
S'<open to>'
p85
sI85
S'<how>'
p86
sI86
S'<kinda>'
p87
sI87
S'<financially>'
p88
sI88
S'<great ,>'
p89
sI89
S'<above>'
p90
sI90
S'<enormously>'
p91
sI91
S'<equally>'
p92
sI92
S'<where>'
p93
sI93
S'<the>'
p94
sI94
S'<extraordinarily>'
p95
sI95
S'<a lot>'
p96
sI96
S'<abundantly>'
p97
sI97
S'<terribly>'
p98
sI98
S'<cost>'
p99
sI99
S'<fair>'
p100
sI100
S'<awfully>'
p101
sI101
S'<either>'
p102
sI102
S'<physically>'
p103
sI103
S'<right>'
p104
sI104
S'<something>'
p105
sI105
S'<right ,>'
p106
sI106
S'<urgently>'
p107
sI107
S'<frequently>'
p108
sI108
S'<yet>'
p109
sI109
S'<afraid of>'
p110
sI110
S'<crazy>'
p111
sI111
S'<single>'
p112
sI112
S'<unacceptably>'
p113
sI113
S'<so very>'
p114
sI114
S'<simply>'
p115
sI115
S'<best>'
p116
sI116
S'<alarmingly>'
p117
sI117
S'<exactly>'
p118
sI118
S'<significantly>'
p119
sI119
S'<mentally>'
p120
sI120
S'<here>'
p121
sI121
S'<hardly>'
p122
sI122
S'<rarely>'
p123
sI123
S'<slightly>'
p124
sI124
S'<recently>'
p125
sI125
S'<commercially>'
p126
sI126
S'<utterly>'
p127
sI127
S'<practically>'
p128
sI128
S'<critically>'
p129
sI129
S'<good>'
p130
sI130
S'<ecologically>'
p131
sI131
S'<close>'
p132
sI132
S'<virtually>'
p133
sI133
S'<greatest>'
p134
sI134
S'<self>'
p135
sI135
S'<nice>'
p136
sI136
S'<available for>'
p137
sI137
S'<now>'
p138
sI138
S'<easy>'
p139
sI139
S'<internationally>'
p140
sI140
S'<much more>'
p141
sI141
S'<bloody>'
p142
sI142
S'<strictly>'
p143
sI143
S'<socially>'
p144
sI144
S'<nice to>'
p145
sI145
S'<fine ,>'
p146
sI146
S'<directly>'
p147
sI147
S'<better>'
p148
sI148
S'<specially>'
p149
sI149
S'<further>'
p150
sI150
S'<greater>'
p151
sI151
S'<such>'
p152
sI152
S'<crucially>'
p153
sI153
S'<overly>'
p154
sI154
S'<immediately>'
p155
sI155
S'<hereby>'
p156
sI156
S'<simple>'
p157
sI157
S'<even more>'
p158
sI158
S'<often>'
p159
sI159
S'<lot>'
p160
sI160
S'<nearly>'
p161
sI161
S'<other>'
p162
sI162
S'<dead>'
p163
sI163
S'<many>'
p164
sI164
S'<possible>'
p165
sI165
S'<naturally>'
p166
sI166
S'<hard>'
p167
sI167
S'<half>'
p168
sI168
S'<mighty>'
p169
sI169
S'<all that>'
p170
sI170
S'<constantly>'
p171
sI171
S'<high>'
p172
sI172
S'<one>'
p173
sI173
S'<second>'
p174
sI174
S'<higher>'
p175
sI175
S'<actively>'
p176
sI176
S'<crystal>'
p177
sI177
S'<strongly>'
p178
sI178
S'<duly>'
p179
sI179
S'<geographically>'
p180
sI180
S'<wonderful ,>'
p181
sI181
S'<nothing>'
p182
sI182
S'<and>'
p183
sI183
S'<gonna>'
p184
sI184
S'<somewhere>'
p185
sI185
S'<fundamentally>'
p186
sI186
S'<quick>'
p187
sI187
S'<broadest>'
p188
sI188
S'<so fucking>'
p189
sI189
S'<regularly>'
p190
sI190
S'<remarkably>'
p191
sI191
S'<excessively>'
p192
sI192
S'<strong>'
p193
sI193
S'<officially>'
p194
sI194
S'<scared>'
p195
sI195
S'<specifically>'
p196
sI196
S'<widest>'
p197
sI197
S'<all the more>'
p198
sI198
S'<wholly>'
p199
sI199
S'<culturally>'
p200
sI200
S'<large>'
p201
sI201
S'<politically>'
p202
sI202
S'<close to being>'
p203
sI203
S'<fast>'
p204
sI204
S'<seriously>'
p205
sI205
S'<internally>'
p206
sI206
S'<north>'
p207
sI207
S'<highest>'
p208
sI208
S'<medically>'
p209
sI209
S'<technically>'
p210
sI210
S'<great>'
p211
sI211
S'<responsible>'
p212
sI212
S'<comparatively>'
p213
sI213
S'<wide>'
p214
sI214
S'<very well>'
p215
sI215
S'<manifestly>'
p216
sI216
S'<considerably>'
p217
sI217
S'<damn>'
p218
sI218
S'<carefully>'
p219
sI219
S'<plain>'
p220
sI220
S'<several>'
p221
sI221
S'<longer>'
p222
sI222
S'<poorly>'
p223
sI223
S'<a great>'
p224
sI224
S'<less than>'
p225
sI225
S'<east>'
p226
sI226
S'<universally>'
p227
sI227
S'<excellent ,>'
p228
sI228
S'<as beautiful as>'
p229
sI229
S'<at all>'
p230
sI230
S'<disproportionately>'
p231
sI231
S'<anywhere>'
p232
sI232
S'<adversely>'
p233
sI233
S'<south>'
p234
sI234
S'<surely>'
p235
sI235
S'<appropriately>'
p236
sI236
S'<sounds>'
p237
sI237
S'<ready to go>'
p238
sI238
S'<important>'
p239
sI239
S'<disgusting ,>'
p240
sI240
S'<heavily>'
p241
sI241
S'<firmly>'
p242
sI242
S'<first>'
p243
sI243
S'<goddamn>'
p244
sI244
S'<also>'
p245
sI245
S'<so much>'
p246
sI246
S'<freely>'
p247
sI247
S'<intensely>'
p248
sI248
S'<as simple as>'
p249
sI249
S'<operationally>'
p250
sI250
S'<largely>'
p251
sI251
S'<emotionally>'
p252
sI252
S'<worst>'
p253
sI253
S'<tremendously>'
p254
sI254
S'<surprisingly>'
p255
sI255
S'<user>'
p256
sI256
S'<substantially>'
p257
sI257
S'<bad>'
p258
sI258
S'<tough>'
p259
sI259
S'<open to the>'
p260
sI260
S'<two>'
p261
sI261
S'<guys>'
p262
sI262
S'<nevertheless>'
p263
sI263
S'<glaringly>'
p264
sI264
S'<friendly>'
p265
sI265
S'<jointly>'
p266
sI266
S'<insanely>'
p267
sI267
S'<bad ,>'
p268
sI268
S'<prohibitively>'
p269
sI269
S"<fuckin '>"
p270
sI270
S'<some>'
p271
sI271
S'<bit>'
p272
sI272
S'<clean ,>'
p273
sI273
S'<precisely>'
p274
sI274
S'<lowest>'
p275
sI275
S'<allegedly>'
p276
sI276
S'<definitely>'
p277
sI277
S'<effective ,>'
p278
sI278
S'<morally>'
p279
sI279
S'<formally>'
p280
sI280
S'<suitably>'
p281
sI281
S'<severely>'
p282
sI282
S'<just as>'
p283
sI283
S'<good ,>'
p284
sI284
S'<then>'
p285
sI285
S'<nonetheless>'
p286
sI286
S'<wicked>'
p287
sI287
S'<purely>'
p288
sI288
S'<personally>'
p289
sI289
S'<usually>'
p290
sI290
S'<big ,>'
p291
sI291
S'<openly>'
p292
sI292
S'<merely>'
p293
sI293
S'<perfect ,>'
p294
sI294
S'<desperately>'
p295
sI295
S'<two feet>'
p296
sI296
S'<gonna be all>'
p297
sI297
S'<strongest>'
p298
sI298
S'<visually>'
p299
sI299
S'<fantastic ,>'
p300
s.