(dp0
I0
S'<is weaker than>'
p1
sI1
S'<very>'
p2
sI2
S'<so>'
p3
sI3
S'<most>'
p4
sI4
S'<really>'
p5
sI5
S'<quite>'
p6
sI6
S'<more>'
p7
sI7
S'<pretty>'
p8
sI8
S'<just>'
p9
sI9
S'<absolutely>'
p10
sI10
S'<all>'
p11
sI11
S'<extremely>'
p12
sI12
S'<as>'
p13
sI13
S'<well>'
p14
sI14
S'<rather>'
p15
sI15
S'<totally>'
p16
sI16
S'<completely>'
p17
sI17
S'<highly>'
p18
sI18
S'<relatively>'
p19
sI19
S'<perfectly>'
p20
s.