(dp0
I0
(S'<is weaker than>'
p1
(cnumpy.core.multiarray
scalar
p2
(cnumpy
dtype
p3
(S'f8'
p4
I0
I1
tp5
Rp6
(I3
S'<'
p7
NNNI-1
I-1
I0
tp8
bS'\xb6h0\xe6^\x1a:?'
p9
tp10
Rp11
g2
(g6
S'.92\x88\xb5\x17:?'
p12
tp13
Rp14
tp15
tp16
sI1
(S'<very>'
p17
(g2
(g6
S'\xb6h0\xe6^\x1a:?'
p18
tp19
Rp20
g2
(g6
S'.92\x88\xb5\x17:?'
p21
tp22
Rp23
tp24
tp25
sI2
(S'<so>'
p26
(g2
(g6
S'\xb6h0\xe6^\x1a:?'
p27
tp28
Rp29
g2
(g6
S'.92\x88\xb5\x17:?'
p30
tp31
Rp32
tp33
tp34
sI3
(S'<most>'
p35
(g2
(g6
S'\xb6h0\xe6^\x1a:?'
p36
tp37
Rp38
g2
(g6
S'.92\x88\xb5\x17:?'
p39
tp40
Rp41
tp42
tp43
sI4
(S'<really>'
p44
(g2
(g6
S'\xb6h0\xe6^\x1a:?'
p45
tp46
Rp47
g2
(g6
S'.92\x88\xb5\x17:?'
p48
tp49
Rp50
tp51
tp52
sI5
(S'<quite>'
p53
(g2
(g6
S'\xb6h0\xe6^\x1a:?'
p54
tp55
Rp56
g2
(g6
S'.92\x88\xb5\x17:?'
p57
tp58
Rp59
tp60
tp61
sI6
(S'<more>'
p62
(g2
(g6
S'\xb6h0\xe6^\x1a:?'
p63
tp64
Rp65
g2
(g6
S'.92\x88\xb5\x17:?'
p66
tp67
Rp68
tp69
tp70
sI7
(S'<pretty>'
p71
(g2
(g6
S'\xb6h0\xe6^\x1a:?'
p72
tp73
Rp74
g2
(g6
S'.92\x88\xb5\x17:?'
p75
tp76
Rp77
tp78
tp79
sI8
(S'<just>'
p80
(g2
(g6
S'\xb6h0\xe6^\x1a:?'
p81
tp82
Rp83
g2
(g6
S'.92\x88\xb5\x17:?'
p84
tp85
Rp86
tp87
tp88
sI9
(S'<absolutely>'
p89
(g2
(g6
S'\xb6h0\xe6^\x1a:?'
p90
tp91
Rp92
g2
(g6
S'.92\x88\xb5\x17:?'
p93
tp94
Rp95
tp96
tp97
sI10
(S'<all>'
p98
(g2
(g6
S'\xb6h0\xe6^\x1a:?'
p99
tp100
Rp101
g2
(g6
S'.92\x88\xb5\x17:?'
p102
tp103
Rp104
tp105
tp106
sI11
(S'<extremely>'
p107
(g2
(g6
S'\xb6h0\xe6^\x1a:?'
p108
tp109
Rp110
g2
(g6
S'.92\x88\xb5\x17:?'
p111
tp112
Rp113
tp114
tp115
sI12
(S'<as>'
p116
(g2
(g6
S'\xb6h0\xe6^\x1a:?'
p117
tp118
Rp119
g2
(g6
S'.92\x88\xb5\x17:?'
p120
tp121
Rp122
tp123
tp124
sI13
(S'<rather>'
p125
(g2
(g6
S'\xb6h0\xe6^\x1a:?'
p126
tp127
Rp128
g2
(g6
S'.92\x88\xb5\x17:?'
p129
tp130
Rp131
tp132
tp133
sI14
(S'<totally>'
p134
(g2
(g6
S'\xb6h0\xe6^\x1a:?'
p135
tp136
Rp137
g2
(g6
S'.92\x88\xb5\x17:?'
p138
tp139
Rp140
tp141
tp142
sI15
(S'<completely>'
p143
(g2
(g6
S'\xb6h0\xe6^\x1a:?'
p144
tp145
Rp146
g2
(g6
S'.92\x88\xb5\x17:?'
p147
tp148
Rp149
tp150
tp151
sI16
(S'<highly>'
p152
(g2
(g6
S'\xb6h0\xe6^\x1a:?'
p153
tp154
Rp155
g2
(g6
S'.92\x88\xb5\x17:?'
p156
tp157
Rp158
tp159
tp160
sI17
(S'<well>'
p161
(g2
(g6
S'\xb6h0\xe6^\x1a:?'
p162
tp163
Rp164
g2
(g6
S'.92\x88\xb5\x17:?'
p165
tp166
Rp167
tp168
tp169
sI18
(S'<relatively>'
p170
(g2
(g6
S'\xb6h0\xe6^\x1a:?'
p171
tp172
Rp173
g2
(g6
S'.92\x88\xb5\x17:?'
p174
tp175
Rp176
tp177
tp178
sI19
(S'<too>'
p179
(g2
(g6
S'\xb6h0\xe6^\x1a:?'
p180
tp181
Rp182
g2
(g6
S'.92\x88\xb5\x17:?'
p183
tp184
Rp185
tp186
tp187
sI20
(S'<perfectly>'
p188
(g2
(g6
S'\xb6h0\xe6^\x1a:?'
p189
tp190
Rp191
g2
(g6
S'.92\x88\xb5\x17:?'
p192
tp193
Rp194
tp195
tp196
sI21
(S'<that>'
p197
(g2
(g6
S'\xb6h0\xe6^\x1a:?'
p198
tp199
Rp200
g2
(g6
S'.92\x88\xb5\x17:?'
p201
tp202
Rp203
tp204
tp205
sI22
(S'<only>'
p206
(g2
(g6
S'\xb6h0\xe6^\x1a:?'
p207
tp208
Rp209
g2
(g6
S'.92\x88\xb5\x17:?'
p210
tp211
Rp212
tp213
tp214
sI23
(S'<particularly>'
p215
(g2
(g6
S'\xb6h0\xe6^\x1a:?'
p216
tp217
Rp218
g2
(g6
S'.92\x88\xb5\x17:?'
p219
tp220
Rp221
tp222
tp223
sI24
(S'<real>'
p224
(g2
(g6
S'\xb6h0\xe6^\x1a:?'
p225
tp226
Rp227
g2
(g6
S'.92\x88\xb5\x17:?'
p228
tp229
Rp230
tp231
tp232
sI25
(S'<a little>'
p233
(g2
(g6
S'\xb6h0\xe6^\x1a:?'
p234
tp235
Rp236
g2
(g6
S'.92\x88\xb5\x17:?'
p237
tp238
Rp239
tp240
tp241
sI26
(S'<much>'
p242
(g2
(g6
S'\xb6h0\xe6^\x1a:?'
p243
tp244
Rp245
g2
(g6
S'.92\x88\xb5\x17:?'
p246
tp247
Rp248
tp249
tp250
sI27
(S'<less>'
p251
(g2
(g6
S'\xb6h0\xe6^\x1a:?'
p252
tp253
Rp254
g2
(g6
S'.92\x88\xb5\x17:?'
p255
tp256
Rp257
tp258
tp259
sI28
(S'<therefore>'
p260
(g2
(g6
S'\xb6h0\xe6^\x1a:?'
p261
tp262
Rp263
g2
(g6
S'.92\x88\xb5\x17:?'
p264
tp265
Rp266
tp267
tp268
sI29
(S'<even>'
p269
(g2
(g6
S'\xb6h0\xe6^\x1a:?'
p270
tp271
Rp272
g2
(g6
S'.92\x88\xb5\x17:?'
p273
tp274
Rp275
tp276
tp277
sI30
(S'<clearly>'
p278
(g2
(g6
S'\xb6h0\xe6^\x1a:?'
p279
tp280
Rp281
g2
(g6
S'.92\x88\xb5\x17:?'
p282
tp283
Rp284
tp285
tp286
sI31
(S'<fully>'
p287
(g2
(g6
S'\xb6h0\xe6^\x1a:?'
p288
tp289
Rp290
g2
(g6
S'.92\x88\xb5\x17:?'
p291
tp292
Rp293
tp294
tp295
sI32
(S'<kind of>'
p296
(g2
(g6
S'\xb6h0\xe6^\x1a:?'
p297
tp298
Rp299
g2
(g6
S'.92\x88\xb5\x17:?'
p300
tp301
Rp302
tp303
tp304
sI33
(S'<somewhat>'
p305
(g2
(g6
S'\xb6h0\xe6^\x1a:?'
p306
tp307
Rp308
g2
(g6
S'.92\x88\xb5\x17:?'
p309
tp310
Rp311
tp312
tp313
sI34
(S'<truly>'
p314
(g2
(g6
S'\xb6h0\xe6^\x1a:?'
p315
tp316
Rp317
g2
(g6
S'.92\x88\xb5\x17:?'
p318
tp319
Rp320
tp321
tp322
sI35
(S'<just so>'
p323
(g2
(g6
S'\xb6h0\xe6^\x1a:?'
p324
tp325
Rp326
g2
(g6
S'.92\x88\xb5\x17:?'
p327
tp328
Rp329
tp330
tp331
sI36
(S'<any>'
p332
(g2
(g6
S'\xb6h0\xe6^\x1a:?'
p333
tp334
Rp335
g2
(g6
S'.92\x88\xb5\x17:?'
p336
tp337
Rp338
tp339
tp340
sI37
(S'<mutually>'
p341
(g2
(g6
S'\xb6h0\xe6^\x1a:?'
p342
tp343
Rp344
g2
(g6
S'.92\x88\xb5\x17:?'
p345
tp346
Rp347
tp348
tp349
sI38
(S'<almost>'
p350
(g2
(g6
S'\xb6h0\xe6^\x1a:?'
p351
tp352
Rp353
g2
(g6
S'.92\x88\xb5\x17:?'
p354
tp355
Rp356
tp357
tp358
sI39
(S'<entirely>'
p359
(g2
(g6
S'\xb6h0\xe6^\x1a:?'
p360
tp361
Rp362
g2
(g6
S'.92\x88\xb5\x17:?'
p363
tp364
Rp365
tp366
tp367
sI40
(S'<fairly>'
p368
(g2
(g6
S'\xb6h0\xe6^\x1a:?'
p369
tp370
Rp371
g2
(g6
S'.92\x88\xb5\x17:?'
p372
tp373
Rp374
tp375
tp376
sI41
(S'<widely>'
p377
(g2
(g6
S'\xb6h0\xe6^\x1a:?'
p378
tp379
Rp380
g2
(g6
S'.92\x88\xb5\x17:?'
p381
tp382
Rp383
tp384
tp385
sI42
(S'<environmentally>'
p386
(g2
(g6
S'\xb6h0\xe6^\x1a:?'
p387
tp388
Rp389
g2
(g6
S'.92\x88\xb5\x17:?'
p390
tp391
Rp392
tp393
tp394
sI43
(S'<economically>'
p395
(g2
(g6
S'\xb6h0\xe6^\x1a:?'
p396
tp397
Rp398
g2
(g6
S'.92\x88\xb5\x17:?'
p399
tp400
Rp401
tp402
tp403
sI44
(S'<generally>'
p404
(g2
(g6
S'\xb6h0\xe6^\x1a:?'
p405
tp406
Rp407
g2
(g6
S'.92\x88\xb5\x17:?'
p408
tp409
Rp410
tp411
tp412
sI45
(S'<far>'
p413
(g2
(g6
S'\xb6h0\xe6^\x1a:?'
p414
tp415
Rp416
g2
(g6
S'.92\x88\xb5\x17:?'
p417
tp418
Rp419
tp420
tp421
sI46
(S'<currently>'
p422
(g2
(g6
S'\xb6h0\xe6^\x1a:?'
p423
tp424
Rp425
g2
(g6
S'.92\x88\xb5\x17:?'
p426
tp427
Rp428
tp429
tp430
sI47
(S'<readily>'
p431
(g2
(g6
S'\xb6h0\xe6^\x1a:?'
p432
tp433
Rp434
g2
(g6
S'.92\x88\xb5\x17:?'
p435
tp436
Rp437
tp438
tp439
sI48
(S'<a bit>'
p440
(g2
(g6
S'\xb6h0\xe6^\x1a:?'
p441
tp442
Rp443
g2
(g6
S'.92\x88\xb5\x17:?'
p444
tp445
Rp446
tp447
tp448
sI49
(S'<otherwise>'
p449
(g2
(g6
S'\xb6h0\xe6^\x1a:?'
p450
tp451
Rp452
g2
(g6
S'.92\x88\xb5\x17:?'
p453
tp454
Rp455
tp456
tp457
sI50
(S'<ever>'
p458
(g2
(g6
S'\xb6h0\xe6^\x1a:?'
p459
tp460
Rp461
g2
(g6
S'.92\x88\xb5\x17:?'
p462
tp463
Rp464
tp465
tp466
sI51
(S'<still>'
p467
(g2
(g6
S'\xb6h0\xe6^\x1a:?'
p468
tp469
Rp470
g2
(g6
S'.92\x88\xb5\x17:?'
p471
tp472
Rp473
tp474
tp475
sI52
(S'<reasonably>'
p476
(g2
(g6
S'\xb6h0\xe6^\x1a:?'
p477
tp478
Rp479
g2
(g6
S'.92\x88\xb5\x17:?'
p480
tp481
Rp482
tp483
tp484
sI53
(S'<potentially>'
p485
(g2
(g6
S'\xb6h0\xe6^\x1a:?'
p486
tp487
Rp488
g2
(g6
S'.92\x88\xb5\x17:?'
p489
tp490
Rp491
tp492
tp493
sI54
(S'<beautiful ,>'
p494
(g2
(g6
S'\xb6h0\xe6^\x1a:?'
p495
tp496
Rp497
g2
(g6
S'.92\x88\xb5\x17:?'
p498
tp499
Rp500
tp501
tp502
sI55
(S'<already>'
p503
(g2
(g6
S'\xb6h0\xe6^\x1a:?'
p504
tp505
Rp506
g2
(g6
S'.92\x88\xb5\x17:?'
p507
tp508
Rp509
tp510
tp511
sI56
(S'<newly>'
p512
(g2
(g6
S'\xb6h0\xe6^\x1a:?'
p513
tp514
Rp515
g2
(g6
S'.92\x88\xb5\x17:?'
p516
tp517
Rp518
tp519
tp520
sI57
(S'<increasingly>'
p521
(g2
(g6
S'\xb6h0\xe6^\x1a:?'
p522
tp523
Rp524
g2
(g6
S'.92\x88\xb5\x17:?'
p525
tp526
Rp527
tp528
tp529
sI58
(S'<legally>'
p530
(g2
(g6
S'\xb6h0\xe6^\x1a:?'
p531
tp532
Rp533
g2
(g6
S'.92\x88\xb5\x17:?'
p534
tp535
Rp536
tp537
tp538
sI59
(S'<publicly>'
p539
(g2
(g6
S'\xb6h0\xe6^\x1a:?'
p540
tp541
Rp542
g2
(g6
S'.92\x88\xb5\x17:?'
p543
tp544
Rp545
tp546
tp547
sI60
(S'<little>'
p548
(g2
(g6
S'\xb6h0\xe6^\x1a:?'
p549
tp550
Rp551
g2
(g6
S'.92\x88\xb5\x17:?'
p552
tp553
Rp554
tp555
tp556
sI61
(S'<commonly>'
p557
(g2
(g6
S'\xb6h0\xe6^\x1a:?'
p558
tp559
Rp560
g2
(g6
S'.92\x88\xb5\x17:?'
p561
tp562
Rp563
tp564
tp565
sI62
(S'<previously>'
p566
(g2
(g6
S'\xb6h0\xe6^\x1a:?'
p567
tp568
Rp569
g2
(g6
S'.92\x88\xb5\x17:?'
p570
tp571
Rp572
tp573
tp574
sI63
(S'<ready to>'
p575
(g2
(g6
S'\xb6h0\xe6^\x1a:?'
p576
tp577
Rp578
g2
(g6
S'.92\x88\xb5\x17:?'
p579
tp580
Rp581
tp582
tp583
sI64
(S'<how>'
p584
(g2
(g6
S'\xb6h0\xe6^\x1a:?'
p585
tp586
Rp587
g2
(g6
S'.92\x88\xb5\x17:?'
p588
tp589
Rp590
tp591
tp592
sI65
(S'<this>'
p593
(g2
(g6
S'\xb6h0\xe6^\x1a:?'
p594
tp595
Rp596
g2
(g6
S'.92\x88\xb5\x17:?'
p597
tp598
Rp599
tp600
tp601
sI66
(S'<deeply>'
p602
(g2
(g6
S'\xb6h0\xe6^\x1a:?'
p603
tp604
Rp605
g2
(g6
S'.92\x88\xb5\x17:?'
p606
tp607
Rp608
tp609
tp610
sI67
(S'<sufficiently>'
p611
(g2
(g6
S'\xb6h0\xe6^\x1a:?'
p612
tp613
Rp614
g2
(g6
S'.92\x88\xb5\x17:?'
p615
tp616
Rp617
tp618
tp619
sI68
(S'<fucking>'
p620
(g2
(g6
S'\xb6h0\xe6^\x1a:?'
p621
tp622
Rp623
g2
(g6
S'.92\x88\xb5\x17:?'
p624
tp625
Rp626
tp627
tp628
sI69
(S'<worried about>'
p629
(g2
(g6
S'\xb6h0\xe6^\x1a:?'
p630
tp631
Rp632
g2
(g6
S'.92\x88\xb5\x17:?'
p633
tp634
Rp635
tp636
tp637
sI70
(S'<kinda>'
p638
(g2
(g6
S'\xb6h0\xe6^\x1a:?'
p639
tp640
Rp641
g2
(g6
S'.92\x88\xb5\x17:?'
p642
tp643
Rp644
tp645
tp646
sI71
(S'<especially>'
p647
(g2
(g6
S'\xb6h0\xe6^\x1a:?'
p648
tp649
Rp650
g2
(g6
S'.92\x88\xb5\x17:?'
p651
tp652
Rp653
tp654
tp655
sI72
(S'<incredibly>'
p656
(g2
(g6
S'\xb6h0\xe6^\x1a:?'
p657
tp658
Rp659
g2
(g6
S'.92\x88\xb5\x17:?'
p660
tp661
Rp662
tp663
tp664
sI73
(S'<easily>'
p665
(g2
(g6
S'\xb6h0\xe6^\x1a:?'
p666
tp667
Rp668
g2
(g6
S'.92\x88\xb5\x17:?'
p669
tp670
Rp671
tp672
tp673
sI74
(S'<a lot>'
p674
(g2
(g6
S'\xb6h0\xe6^\x1a:?'
p675
tp676
Rp677
g2
(g6
S'.92\x88\xb5\x17:?'
p678
tp679
Rp680
tp681
tp682
sI75
(S'<patently>'
p683
(g2
(g6
S'\xb6h0\xe6^\x1a:?'
p684
tp685
Rp686
g2
(g6
S'.92\x88\xb5\x17:?'
p687
tp688
Rp689
tp690
tp691
sI76
(S'<broadly>'
p692
(g2
(g6
S'\xb6h0\xe6^\x1a:?'
p693
tp694
Rp695
g2
(g6
S'.92\x88\xb5\x17:?'
p696
tp697
Rp698
tp699
tp700
sI77
(S'<long>'
p701
(g2
(g6
S'\xb6h0\xe6^\x1a:?'
p702
tp703
Rp704
g2
(g6
S'.92\x88\xb5\x17:?'
p705
tp706
Rp707
tp708
tp709
sI78
(S'<about>'
p710
(g2
(g6
S'\xb6h0\xe6^\x1a:?'
p711
tp712
Rp713
g2
(g6
S'.92\x88\xb5\x17:?'
p714
tp715
Rp716
tp717
tp718
sI79
(S'<awfully>'
p719
(g2
(g6
S'\xb6h0\xe6^\x1a:?'
p720
tp721
Rp722
g2
(g6
S'.92\x88\xb5\x17:?'
p723
tp724
Rp725
tp726
tp727
sI80
(S'<properly>'
p728
(g2
(g6
S'\xb6h0\xe6^\x1a:?'
p729
tp730
Rp731
g2
(g6
S'.92\x88\xb5\x17:?'
p732
tp733
Rp734
tp735
tp736
sI81
(S'<exceptionally>'
p737
(g2
(g6
S'\xb6h0\xe6^\x1a:?'
p738
tp739
Rp740
g2
(g6
S'.92\x88\xb5\x17:?'
p741
tp742
Rp743
tp744
tp745
sI82
(S'<where>'
p746
(g2
(g6
S'\xb6h0\xe6^\x1a:?'
p747
tp748
Rp749
g2
(g6
S'.92\x88\xb5\x17:?'
p750
tp751
Rp752
tp753
tp754
sI83
(S'<great ,>'
p755
(g2
(g6
S'\xb6h0\xe6^\x1a:?'
p756
tp757
Rp758
g2
(g6
S'.92\x88\xb5\x17:?'
p759
tp760
Rp761
tp762
tp763
sI84
(S'<terribly>'
p764
(g2
(g6
S'\xb6h0\xe6^\x1a:?'
p765
tp766
Rp767
g2
(g6
S'.92\x88\xb5\x17:?'
p768
tp769
Rp770
tp771
tp772
sI85
(S'<the>'
p773
(g2
(g6
S'\xb6h0\xe6^\x1a:?'
p774
tp775
Rp776
g2
(g6
S'.92\x88\xb5\x17:?'
p777
tp778
Rp779
tp780
tp781
sI86
(S'<closely>'
p782
(g2
(g6
S'\xb6h0\xe6^\x1a:?'
p783
tp784
Rp785
g2
(g6
S'.92\x88\xb5\x17:?'
p786
tp787
Rp788
tp789
tp790
sI87
(S'<no>'
p791
(g2
(g6
S'\xb6h0\xe6^\x1a:?'
p792
tp793
Rp794
g2
(g6
S'.92\x88\xb5\x17:?'
p795
tp796
Rp797
tp798
tp799
sI88
(S'<sorry ,>'
p800
(g2
(g6
S'\xb6h0\xe6^\x1a:?'
p801
tp802
Rp803
g2
(g6
S'.92\x88\xb5\x17:?'
p804
tp805
Rp806
tp807
tp808
sI89
(S'<either>'
p809
(g2
(g6
S'\xb6h0\xe6^\x1a:?'
p810
tp811
Rp812
g2
(g6
S'.92\x88\xb5\x17:?'
p813
tp814
Rp815
tp816
tp817
sI90
(S'<simply>'
p818
(g2
(g6
S'\xb6h0\xe6^\x1a:?'
p819
tp820
Rp821
g2
(g6
S'.92\x88\xb5\x17:?'
p822
tp823
Rp824
tp825
tp826
sI91
(S'<equally>'
p827
(g2
(g6
S'\xb6h0\xe6^\x1a:?'
p828
tp829
Rp830
g2
(g6
S'.92\x88\xb5\x17:?'
p831
tp832
Rp833
tp834
tp835
sI92
(S'<vitally>'
p836
(g2
(g6
S'\xb6h0\xe6^\x1a:?'
p837
tp838
Rp839
g2
(g6
S'.92\x88\xb5\x17:?'
p840
tp841
Rp842
tp843
tp844
sI93
(S'<abundantly>'
p845
(g2
(g6
S'\xb6h0\xe6^\x1a:?'
p846
tp847
Rp848
g2
(g6
S'.92\x88\xb5\x17:?'
p849
tp850
Rp851
tp852
tp853
sI94
(S'<physically>'
p854
(g2
(g6
S'\xb6h0\xe6^\x1a:?'
p855
tp856
Rp857
g2
(g6
S'.92\x88\xb5\x17:?'
p858
tp859
Rp860
tp861
tp862
sI95
(S'<financially>'
p863
(g2
(g6
S'\xb6h0\xe6^\x1a:?'
p864
tp865
Rp866
g2
(g6
S'.92\x88\xb5\x17:?'
p867
tp868
Rp869
tp870
tp871
sI96
(S'<least>'
p872
(g2
(g6
S'\xb6h0\xe6^\x1a:?'
p873
tp874
Rp875
g2
(g6
S'.92\x88\xb5\x17:?'
p876
tp877
Rp878
tp879
tp880
sI97
(S'<extraordinarily>'
p881
(g2
(g6
S'\xb6h0\xe6^\x1a:?'
p882
tp883
Rp884
g2
(g6
S'.92\x88\xb5\x17:?'
p885
tp886
Rp887
tp888
tp889
sI98
(S'<single>'
p890
(g2
(g6
S'\xb6h0\xe6^\x1a:?'
p891
tp892
Rp893
g2
(g6
S'.92\x88\xb5\x17:?'
p894
tp895
Rp896
tp897
tp898
sI99
(S'<cost>'
p899
(g2
(g6
S'\xb6h0\xe6^\x1a:?'
p900
tp901
Rp902
g2
(g6
S'.92\x88\xb5\x17:?'
p903
tp904
Rp905
tp906
tp907
s.