(dp0
S'<all>'
p1
I10
sS'<that>'
p2
I21
sS'<much>'
p3
I25
sS'<just>'
p4
I8
sS'<real>'
p5
I26
sS'<well>'
p6
I13
sS'<a little>'
p7
I28
sS'<extremely>'
p8
I11
sS'<therefore>'
p9
I29
sS'<really>'
p10
I4
sS'<only>'
p11
I20
sS'<rather>'
p12
I14
sS'<relatively>'
p13
I18
sS'<completely>'
p14
I16
sS'<clearly>'
p15
I27
sS'<very>'
p16
I1
sS'<most>'
p17
I3
sS'<more>'
p18
I6
sS'<is weaker than>'
p19
I0
sS'<highly>'
p20
I17
sS'<pretty>'
p21
I7
sS'<so>'
p22
I2
sS'<particularly>'
p23
I24
sS'<too>'
p24
I22
sS'<as>'
p25
I12
sS'<absolutely>'
p26
I9
sS'<quite>'
p27
I5
sS'<perfectly>'
p28
I19
sS'<totally>'
p29
I15
sS'<less>'
p30
I23
s.