(dp0
S'<widely>'
p1
I38
sS'<all>'
p2
I10
sS'<that>'
p3
I21
sS'<almost>'
p4
I36
sS'<much>'
p5
I25
sS'<just>'
p6
I8
sS'<real>'
p7
I26
sS'<well>'
p8
I13
sS'<truly>'
p9
I33
sS'<a little>'
p10
I28
sS'<extremely>'
p11
I11
sS'<therefore>'
p12
I29
sS'<really>'
p13
I4
sS'<only>'
p14
I20
sS'<rather>'
p15
I14
sS'<relatively>'
p16
I18
sS'<kind of>'
p17
I34
sS'<completely>'
p18
I16
sS'<clearly>'
p19
I27
sS'<very>'
p20
I1
sS'<most>'
p21
I3
sS'<even>'
p22
I31
sS'<more>'
p23
I6
sS'<is weaker than>'
p24
I0
sS'<highly>'
p25
I17
sS'<pretty>'
p26
I7
sS'<mutually>'
p27
I35
sS'<somewhat>'
p28
I32
sS'<so>'
p29
I2
sS'<particularly>'
p30
I24
sS'<too>'
p31
I22
sS'<as>'
p32
I12
sS'<any>'
p33
I37
sS'<absolutely>'
p34
I9
sS'<fully>'
p35
I30
sS'<quite>'
p36
I5
sS'<perfectly>'
p37
I19
sS'<totally>'
p38
I15
sS'<less>'
p39
I23
sS'<environmentally>'
p40
I39
s.