(dp0
S'<all that>'
p1
I169
sS'<otherwise>'
p2
I49
sS'<wonderful ,>'
p3
I180
sS'<now>'
p4
I137
sS'<crucially>'
p5
I152
sS'<just so>'
p6
I40
sS'<about>'
p7
I75
sS'<nothing>'
p8
I181
sS'<hardly>'
p9
I121
sS'<still>'
p10
I56
sS'<closely>'
p11
I76
sS'<well>'
p12
I13
sS'<ready to>'
p13
I57
sS'<a little>'
p14
I28
sS'<generally>'
p15
I43
sS'<half>'
p16
I167
sS'<strongly>'
p17
I177
sS'<a bit>'
p18
I63
sS'<many>'
p19
I163
sS'<critically>'
p20
I128
sS'<remarkably>'
p21
I190
sS'<afraid of>'
p22
I109
sS'<so fucking>'
p23
I188
sS'<financially>'
p24
I87
sS'<mentally>'
p25
I119
sS'<regularly>'
p26
I189
sS'<a lot>'
p27
I95
sS'<officially>'
p28
I193
sS'<often>'
p29
I158
sS'<scared>'
p30
I194
sS'<very>'
p31
I1
sS'<mighty>'
p32
I168
sS'<therefore>'
p33
I29
sS'<strictly>'
p34
I142
sS'<already>'
p35
I61
sS'<hereby>'
p36
I155
sS'<somewhat>'
p37
I32
sS'<specifically>'
p38
I195
sS'<readily>'
p39
I46
sS'<fucking>'
p40
I68
sS'<greater>'
p41
I150
sS'<fully>'
p42
I30
sS'<quite>'
p43
I5
sS'<potentially>'
p44
I58
sS'<totally>'
p45
I15
sS'<one>'
p46
I172
sS'<clearly>'
p47
I27
sS'<and>'
p48
I182
sS'<newly>'
p49
I48
sS'<dead>'
p50
I162
sS'<physically>'
p51
I102
sS'<patently>'
p52
I83
sS'<best>'
p53
I115
sS'<utterly>'
p54
I126
sS'<much>'
p55
I25
sS'<unacceptably>'
p56
I112
sS'<something>'
p57
I104
sS'<properly>'
p58
I79
sS'<fair>'
p59
I99
sS'<truly>'
p60
I33
sS'<extremely>'
p61
I11
sS'<close>'
p62
I131
sS'<fine ,>'
p63
I145
sS'<only>'
p64
I20
sS'<crazy>'
p65
I110
sS'<the>'
p66
I93
sS'<yet>'
p67
I108
sS'<more>'
p68
I6
sS'<exactly>'
p69
I117
sS'<relatively>'
p70
I18
sS'<honest with>'
p71
I82
sS'<immediately>'
p72
I154
sS'<simply>'
p73
I114
sS'<fundamentally>'
p74
I185
sS'<most>'
p75
I3
sS'<available for>'
p76
I136
sS'<is weaker than>'
p77
I0
sS'<bloody>'
p78
I141
sS'<mutually>'
p79
I35
sS'<possible>'
p80
I164
sS'<broadly>'
p81
I69
sS'<open to>'
p82
I84
sS'<overly>'
p83
I153
sS'<so>'
p84
I2
sS'<significantly>'
p85
I118
sS'<reasonably>'
p86
I54
sS'<greatest>'
p87
I133
sS'<long>'
p88
I74
sS'<ever>'
p89
I53
sS'<other>'
p90
I161
sS'<any>'
p91
I37
sS'<where>'
p92
I92
sS'<absolutely>'
p93
I9
sS'<how>'
p94
I85
sS'<nearly>'
p95
I160
sS'<vitally>'
p96
I80
sS'<especially>'
p97
I81
sS'<recently>'
p98
I124
sS'<right ,>'
p99
I105
sS'<sorry ,>'
p100
I71
sS'<enormously>'
p101
I90
sS'<constantly>'
p102
I170
sS'<internationally>'
p103
I139
sS'<widely>'
p104
I38
sS'<all>'
p105
I10
sS'<incredibly>'
p106
I70
sS'<entirely>'
p107
I41
sS'<deeply>'
p108
I66
sS'<almost>'
p109
I36
sS'<nice>'
p110
I135
sS'<specially>'
p111
I148
sS'<just>'
p112
I8
sS'<environmentally>'
p113
I39
sS'<abundantly>'
p114
I96
sS'<kinda>'
p115
I86
sS'<nice to>'
p116
I144
sS'<such>'
p117
I151
sS'<gonna>'
p118
I183
sS'<right>'
p119
I103
sS'<strong>'
p120
I192
sS'<geographically>'
p121
I179
sS'<further>'
p122
I149
sS'<widest>'
p123
I196
sS'<kind of>'
p124
I34
sS'<this>'
p125
I73
sS'<alarmingly>'
p126
I116
sS'<much more>'
p127
I140
sS'<equally>'
p128
I91
sS'<little>'
p129
I59
sS'<economically>'
p130
I42
sS'<all the more>'
p131
I197
sS'<cost>'
p132
I98
sS'<pretty>'
p133
I7
sS'<rarely>'
p134
I122
sS'<fairly>'
p135
I44
sS'<previously>'
p136
I60
sS'<hard>'
p137
I166
sS'<excessively>'
p138
I191
sS'<duly>'
p139
I178
sS'<so very>'
p140
I113
sS'<no>'
p141
I78
sS'<naturally>'
p142
I165
sS'<virtually>'
p143
I132
sS'<as>'
p144
I12
sS'<better>'
p145
I147
sS'<culturally>'
p146
I199
sS'<socially>'
p147
I143
sS'<perfectly>'
p148
I19
sS'<extraordinarily>'
p149
I94
sS'<even more>'
p150
I157
sS'<less>'
p151
I23
sS'<crystal>'
p152
I176
sS'<lot>'
p153
I159
sS'<single>'
p154
I111
sS'<actively>'
p155
I175
sS'<above>'
p156
I89
sS'<that>'
p157
I21
sS'<somewhere>'
p158
I184
sS'<worried about>'
p159
I64
sS'<increasingly>'
p160
I55
sS'<real>'
p161
I26
sS'<directly>'
p162
I146
sS'<least>'
p163
I77
sS'<easy>'
p164
I138
sS'<easily>'
p165
I67
sS'<simple>'
p166
I156
sS'<really>'
p167
I4
sS'<quick>'
p168
I186
sS'<broadest>'
p169
I187
sS'<rather>'
p170
I14
sS'<here>'
p171
I120
sS'<wholly>'
p172
I198
sS'<far>'
p173
I47
sS'<completely>'
p174
I16
sS'<frequently>'
p175
I107
sS'<publicly>'
p176
I52
sS'<sufficiently>'
p177
I65
sS'<exceptionally>'
p178
I72
sS'<second>'
p179
I173
sS'<even>'
p180
I31
sS'<highly>'
p181
I17
sS'<commercially>'
p182
I125
sS'<self>'
p183
I134
sS'<good>'
p184
I129
sS'<terribly>'
p185
I97
sS'<ecologically>'
p186
I130
sS'<particularly>'
p187
I24
sS'<too>'
p188
I22
sS'<currently>'
p189
I45
sS'<great ,>'
p190
I88
sS'<higher>'
p191
I174
sS'<awfully>'
p192
I100
sS'<high>'
p193
I171
sS'<commonly>'
p194
I51
sS'<either>'
p195
I101
sS'<slightly>'
p196
I123
sS'<beautiful ,>'
p197
I62
sS'<legally>'
p198
I50
sS'<practically>'
p199
I127
sS'<urgently>'
p200
I106
s.