(dp0
S'<very>'
p1
I1
sS'<really>'
p2
I4
sS'<rather>'
p3
I14
sS'<most>'
p4
I3
sS'<all>'
p5
I10
sS'<more>'
p6
I6
sS'<relatively>'
p7
I18
sS'<is weaker than>'
p8
I0
sS'<highly>'
p9
I17
sS'<pretty>'
p10
I7
sS'<quite>'
p11
I5
sS'<totally>'
p12
I15
sS'<perfectly>'
p13
I19
sS'<absolutely>'
p14
I9
sS'<just>'
p15
I8
sS'<so>'
p16
I2
sS'<as>'
p17
I12
sS'<completely>'
p18
I16
sS'<well>'
p19
I13
sS'<extremely>'
p20
I11
s.