(dp0
S'<a little bit>'
p1
I477
sS'<bled>'
p2
I421
sS'<wonderful ,>'
p3
I180
sS'<large>'
p4
I200
sS'<friendly>'
p5
I264
sS'<personally>'
p6
I288
sS'<hardly>'
p7
I121
sS'<closely>'
p8
I76
sS'<very good at>'
p9
I543
sS'<immensely>'
p10
I375
sS'<culturally>'
p11
I199
sS'<critically>'
p12
I128
sS'<clean ,>'
p13
I272
sS'<afraid of>'
p14
I109
sS'<second most>'
p15
I453
sS'<e.>'
p16
I420
sS'<fourth>'
p17
I542
sS'<most environmentally>'
p18
I541
sS'<else>'
p19
I452
sS'<precious>'
p20
I540
sS'<unusually>'
p21
I539
sS'<often>'
p22
I158
sS'<scared>'
p23
I194
sS'<nationally>'
p24
I438
sS'<plumb>'
p25
I604
sS'<many ,>'
p26
I603
sS'<scientifically>'
p27
I316
sS'<satisfactory>'
p28
I398
sS'<glaringly>'
p29
I263
sS'<twice as>'
p30
I355
sS'<surprisingly>'
p31
I254
sS'<a great deal>'
p32
I602
sS'<most frequently>'
p33
I522
sS'<brutally>'
p34
I304
sS'<humanly>'
p35
I419
sS'<extra>'
p36
I451
sS'<south>'
p37
I233
sS'<presently>'
p38
I303
sS'<so goddamn>'
p39
I538
sS'<evenly>'
p40
I537
sS'<physically or mentally>'
p41
I581
sS'<powerful>'
p42
I536
sS'<most highly>'
p43
I535
sS'<undoubtedly>'
p44
I354
sS'<fuel>'
p45
I534
sS'<professionally>'
p46
I315
sS'<adversely>'
p47
I232
sS'<all too>'
p48
I339
sS'<thirteen years>'
p49
I533
sS'<ice>'
p50
I599
sS'<something>'
p51
I104
sS'<regularly>'
p52
I189
sS'<perfectly>'
p53
I19
sS'<okay ,>'
p54
I532
sS'<acutely>'
p55
I493
sS'<firmly>'
p56
I241
sS'<only>'
p57
I20
sS'<grossly>'
p58
I363
sS'<kids>'
p59
I492
sS'<luke>'
p60
I598
sS'<the>'
p61
I93
sS'<specially>'
p62
I148
sS'<unnecessarily>'
p63
I491
sS'<exactly>'
p64
I117
sS'<honest with>'
p65
I82
sS'<common>'
p66
I490
sS'<safe ,>'
p67
I418
sS'<hugely>'
p68
I319
sS'<most>'
p69
I3
sS'<once>'
p70
I353
sS'<always>'
p71
I417
sS'<top>'
p72
I597
sS'<constantly>'
p73
I170
sS'<nothing>'
p74
I181
sS'<surely>'
p75
I234
sS'<long>'
p76
I74
sS'<ever>'
p77
I53
sS'<o for>'
p78
I596
sS'<so perfectly>'
p79
I530
sS'<any>'
p80
I37
sS'<so far as>'
p81
I595
sS'<also>'
p82
I244
sS'<smaller>'
p83
I302
sS'<especially>'
p84
I81
sS'<okay with>'
p85
I301
sS'<rock>'
p86
I374
sS'<darn>'
p87
I416
sS'<continuously>'
p88
I338
sS'<thus>'
p89
I396
sS'<incredibly>'
p90
I70
sS'<entirely>'
p91
I41
sS'<or>'
p92
I415
sS'<above>'
p93
I89
sS'<occupationally>'
p94
I414
sS'<kinda>'
p95
I86
sS'<maximum>'
p96
I373
sS'<squeaky>'
p97
I594
sS'<lower>'
p98
I372
sS'<universally>'
p99
I226
sS'<two months>'
p100
I593
sS'<tremendously>'
p101
I253
sS'<guys more>'
p102
I592
sS'<this case>'
p103
I413
sS'<alarmingly>'
p104
I116
sS'<c.>'
p105
I450
sS'<economically>'
p106
I42
sS'<gravely>'
p107
I591
sS'<arguably>'
p108
I489
sS'<fairly>'
p109
I44
sS'<previously>'
p110
I60
sS'<indeed>'
p111
I361
sS'<persistently>'
p112
I488
sS'<reasonably>'
p113
I54
sS'<available to the>'
p114
I529
sS'<structurally>'
p115
I352
sS'<manifestly>'
p116
I215
sS'<even more>'
p117
I157
sS'<less>'
p118
I23
sS'<primarily>'
p119
I351
sS'<deep>'
p120
I487
sS'<fifty years>'
p121
I528
sS'<orally>'
p122
I527
sS'<worried about>'
p123
I64
sS'<goddamn>'
p124
I243
sS'<consistently>'
p125
I486
sS'<somehow>'
p126
I412
sS'<increasingly>'
p127
I55
sS'<painfully>'
p128
I370
sS'<fastest>'
p129
I395
sS'<quick>'
p130
I186
sS'<bit>'
p131
I271
sS'<happily>'
p132
I485
sS'<rather>'
p133
I14
sS'<where>'
p134
I92
sS'<that much>'
p135
I484
sS'<vastly>'
p136
I590
sS'<some>'
p137
I270
sS'<a little more>'
p138
I589
sS'<nevertheless>'
p139
I262
sS'<reasonable>'
p140
I300
sS'<sufficiently>'
p141
I65
sS'<exceptionally>'
p142
I72
sS'<even>'
p143
I31
sS'<east>'
p144
I225
sS'<less than>'
p145
I224
sS'<western>'
p146
I449
sS'<be>'
p147
I314
sS'<altogether>'
p148
I369
sS'<purely>'
p149
I287
sS'<a few>'
p150
I394
sS'<currently>'
p151
I45
sS'<sadly>'
p152
I368
sS'<only rather>'
p153
I588
sS'<profoundly>'
p154
I411
sS'<a little too>'
p155
I483
sS'<just not>'
p156
I587
sS'<everything>'
p157
I448
sS'<practically>'
p158
I127
sS'<all that>'
p159
I169
sS'<otherwise>'
p160
I49
sS'<now>'
p161
I137
sS'<crucially>'
p162
I152
sS'<most commonly>'
p163
I526
sS'<months>'
p164
I469
sS'<a great>'
p165
I223
sS'<guys>'
p166
I261
sS"<fuckin '>"
p167
I269
sS'<major>'
p168
I586
sS'<all>'
p169
I10
sS'<a little>'
p170
I28
sS'<available for>'
p171
I136
sS'<naturally>'
p172
I165
sS'<just about>'
p173
I446
sS'<current>'
p174
I334
sS'<historically>'
p175
I393
sS'<international>'
p176
I444
sS'<adequately>'
p177
I367
sS'<so fucking>'
p178
I188
sS'<financially>'
p179
I87
sS'<wicked>'
p180
I286
sS'<sometimes>'
p181
I470
sS'<member>'
p182
I350
sS'<half as>'
p183
I585
sS'<more>'
p184
I6
sS'<still more>'
p185
I482
sS'<distinctly>'
p186
I337
sS'<somewhat>'
p187
I32
sS'<absolute>'
p188
I563
sS'<poorly>'
p189
I222
sS'<notably>'
p190
I584
sS'<just>'
p191
I8
sS'<badly>'
p192
I366
sS'<totally>'
p193
I15
sS'<clearly>'
p194
I27
sS'<any more>'
p195
I313
sS'<so freaking>'
p196
I524
sS'<newly>'
p197
I48
sS'<violently>'
p198
I583
sS'<plenty>'
p199
I481
sS'<sweet ,>'
p200
I392
sS'<unduly>'
p201
I403
sS'<patently>'
p202
I83
sS'<inherently>'
p203
I312
sS'<utterly>'
p204
I126
sS'<considerably more>'
p205
I582
sS'<permanently>'
p206
I349
sS'<sure this is>'
p207
I336
sS'<fair>'
p208
I99
sS'<truly>'
p209
I33
sS'<sufficient>'
p210
I365
sS'<better than>'
p211
I410
sS'<yet>'
p212
I108
sS'<individually>'
p213
I443
sS'<more easily>'
p214
I480
sS'<awful>'
p215
I391
sS'<conspicuously>'
p216
I409
sS'<technologically>'
p217
I523
sS'<wicked ,>'
p218
I600
sS'<dear>'
p219
I479
sS'<immediately>'
p220
I154
sS'<mutually>'
p221
I35
sS'<fine>'
p222
I478
sS'<almost>'
p223
I36
sS'<possible>'
p224
I164
sS'<broadly>'
p225
I69
sS'<fantastic ,>'
p226
I299
sS'<tall ,>'
p227
I580
sS'<strangely>'
p228
I579
sS'<prohibitively>'
p229
I268
sS'<crystal>'
p230
I176
sS'<radically>'
p231
I578
sS'<vitally>'
p232
I80
sS'<nonetheless>'
p233
I285
sS'<right ,>'
p234
I105
sS'<cool with>'
p235
I390
sS'<worst>'
p236
I252
sS'<enduringly>'
p237
I577
sS'<longer>'
p238
I221
sS'<deeply>'
p239
I66
sS'<long ,>'
p240
I335
sS'<comfortably>'
p241
I576
sS'<third>'
p242
I442
sS'<then>'
p243
I284
sS'<backward>'
p244
I575
sS'<so nice to>'
p245
I323
sS'<visually>'
p246
I298
sS'<explicitly>'
p247
I441
sS'<duty>'
p248
I408
sS'<overly>'
p249
I153
sS'<home>'
p250
I440
sS'<geographically>'
p251
I179
sS'<so->'
p252
I521
sS'<kind of>'
p253
I34
sS'<as brief as>'
p254
I439
sS'<equally>'
p255
I91
sS'<cost>'
p256
I98
sS'<north>'
p257
I206
sS'<this>'
p258
I73
sS'<several>'
p259
I220
sS'<clinically>'
p260
I520
sS'<virtually>'
p261
I132
sS'<glad to see>'
p262
I322
sS'<warm>'
p263
I348
sS'<more environmentally>'
p264
I447
sS'<socially>'
p265
I143
sS'<more than>'
p266
I407
sS'<extraordinarily>'
p267
I94
sS'<two feet>'
p268
I295
sS'<person>'
p269
I321
sS'<actively>'
p270
I175
sS'<plain>'
p271
I219
sS'<as good as>'
p272
I573
sS'<first>'
p273
I242
sS'<as easy as>'
p274
I519
sS'<easily>'
p275
I67
sS'<two>'
p276
I260
sS'<wholly>'
p277
I198
sS'<open to the>'
p278
I259
sS'<cold in>'
p279
I347
sS'<internally>'
p280
I205
sS'<engaged to be>'
p281
I476
sS'<brand>'
p282
I572
sS'<fine ,>'
p283
I145
sS'<duly>'
p284
I178
sS'<exceedingly>'
p285
I346
sS'<commercially>'
p286
I125
sS'<strongest>'
p287
I297
sS'<terribly>'
p288
I97
sS'<good for>'
p289
I518
sS'<ecologically>'
p290
I130
sS'<too>'
p291
I22
sS'<heavily>'
p292
I240
sS'<disgusting ,>'
p293
I239
sS'<higher>'
p294
I174
sS'<roughly>'
p295
I571
sS'<fast ,>'
p296
I531
sS'<very well>'
p297
I214
sS'<tough on>'
p298
I517
sS'<downright>'
p299
I356
sS'<so terribly>'
p300
I562
sS'<wide>'
p301
I213
sS'<so much>'
p302
I245
sS'<still>'
p303
I56
sS'<damned>'
p304
I362
sS'<rarely>'
p305
I122
sS'<generally>'
p306
I43
sS'<strongly>'
p307
I177
sS'<a bit>'
p308
I63
sS'<many>'
p309
I163
sS'<densely>'
p310
I570
sS'<deadly>'
p311
I465
sS'<kind>'
p312
I389
sS'<stiii>'
p313
I475
sS'<kind to>'
p314
I516
sS'<fine with>'
p315
I437
sS'<mentally>'
p316
I119
sS'<predominantly>'
p317
I569
sS'<too fucking>'
p318
I345
sS'<way>'
p319
I320
sS'<goddam>'
p320
I474
sS'<officially>'
p321
I193
sS'<over>'
p322
I388
sS'<mighty>'
p323
I168
sS'<therefore>'
p324
I29
sS'<already>'
p325
I61
sS'<readily>'
p326
I46
sS'<fucking>'
p327
I68
sS'<emotionally>'
p328
I251
sS'<fully>'
p329
I30
sS'<quite>'
p330
I5
sS'<gonna be all>'
p331
I296
sS'<unsustainably>'
p332
I364
sS'<essentially>'
p333
I344
sS'<gonna be>'
p334
I310
sS'<wherever>'
p335
I309
sS'<dead>'
p336
I162
sS'<above->'
p337
I436
sS'<physically>'
p338
I102
sS'<best>'
p339
I115
sS'<mildly>'
p340
I473
sS'<mostly>'
p341
I397
sS'<criminally>'
p342
I515
sS'<extremely>'
p343
I11
sS'<so damn>'
p344
I472
sS'<as high as>'
p345
I498
sS'<relatively>'
p346
I18
sS'<ordre>'
p347
I568
sS'<simply>'
p348
I114
sS'<as far as>'
p349
I574
sS'<is weaker than>'
p350
I0
sS'<lot>'
p351
I159
sS'<bad ,>'
p352
I267
sS'<good ,>'
p353
I283
sS'<all the more>'
p354
I197
sS'<single>'
p355
I111
sS'<greatest>'
p356
I133
sS'<largely>'
p357
I250
sS'<just as>'
p358
I282
sS'<better ,>'
p359
I343
sS'<other>'
p360
I161
sS'<blindingly>'
p361
I567
sS'<third most>'
p362
I445
sS'<completely>'
p363
I16
sS'<absolutely>'
p364
I9
sS'<how>'
p365
I85
sS'<anywhere>'
p366
I231
sS'<recently>'
p367
I124
sS'<marginally>'
p368
I333
sS'<all quite>'
p369
I435
sS'<severely>'
p370
I281
sS'<half>'
p371
I167
sS'<eleven years>'
p372
I514
sS'<nice>'
p373
I135
sS'<disproportionately>'
p374
I230
sS'<environmentally>'
p375
I39
sS'<suitably>'
p376
I280
sS'<about to get>'
p377
I601
sS'<damn>'
p378
I217
sS'<right>'
p379
I103
sS'<strong>'
p380
I192
sS'<hot in>'
p381
I513
sS'<widest>'
p382
I196
sS'<deliberately>'
p383
I387
sS'<tough>'
p384
I258
sS'<little>'
p385
I59
sS'<old>'
p386
I386
sS'<fullest>'
p387
I308
sS'<more highly>'
p388
I525
sS'<whole>'
p389
I318
sS'<excessively>'
p390
I191
sS'<hard>'
p391
I166
sS'<formally>'
p392
I279
sS'<so very>'
p393
I113
sS'<as>'
p394
I12
sS'<better>'
p395
I147
sS'<hlv>'
p396
I406
sS'<boys>'
p397
I566
sS'<insanely>'
p398
I266
sS'<morally>'
p399
I278
sS'<jointly>'
p400
I265
sS'<considerably>'
p401
I216
sS'<fundamentally>'
p402
I185
sS'<nineteen years>'
p403
I434
sS'<earliest>'
p404
I385
sS'<effective ,>'
p405
I277
sS'<abundantly>'
p406
I96
sS'<that>'
p407
I21
sS'<somewhere>'
p408
I184
sS'<years>'
p409
I317
sS'<nice ,>'
p410
I325
sS'<similarly>'
p411
I565
sS'<operationally>'
p412
I249
sS'<ready to go>'
p413
I237
sS'<simple>'
p414
I156
sS'<broadest>'
p415
I187
sS'<twelve years>'
p416
I512
sS'<self>'
p417
I134
sS"<sure you 're>"
p418
I405
sS'<statistically>'
p419
I324
sS'<safer and more>'
p420
I384
sS'<year>'
p421
I428
sS'<second>'
p422
I173
sS'<frequently>'
p423
I107
sS'<different from each>'
p424
I360
sS'<a whole lot>'
p425
I564
sS'<publicly>'
p426
I52
sS'<basically>'
p427
I332
sS'<responsible>'
p428
I211
sS'<highly>'
p429
I17
sS'<progressively>'
p430
I433
sS'<good>'
p431
I129
sS'<nearly>'
p432
I160
sS'<misguided ,>'
p433
I468
sS'<twenty years>'
p434
I511
sS'<seriously>'
p435
I204
sS'<desperately>'
p436
I294
sS'<shortest>'
p437
I331
sS'<such>'
p438
I151
sS'<scared of>'
p439
I342
sS'<temporarily>'
p440
I330
sS'<great>'
p441
I210
sS'<great ,>'
p442
I88
sS'<industrially>'
p443
I467
sS'<mad at>'
p444
I432
sS'<awfully>'
p445
I100
sS"<gettin '>"
p446
I466
sS'<either>'
p447
I101
sS'<slightly>'
p448
I123
sS'<perfect ,>'
p449
I293
sS'<too late for>'
p450
I510
sS'<fast>'
p451
I203
sS'<globally>'
p452
I404
sS'<carefully>'
p453
I218
sS'<important>'
p454
I238
sS'<no longer>'
p455
I431
sS'<away>'
p456
I383
sS'<just so>'
p457
I40
sS'<about>'
p458
I75
sS'<technically>'
p459
I209
sS'<medically>'
p460
I208
sS'<ready to>'
p461
I57
sS'<stay with>'
p462
I507
sS'<sounds>'
p463
I236
sS'<comparatively>'
p464
I212
sS'<as simple as>'
p465
I248
sS'<far more>'
p466
I561
sS'<plainly>'
p467
I307
sS"<doin ' just>"
p468
I560
sS'<a lot>'
p469
I95
sS'<aii>'
p470
I359
sS'<very>'
p471
I1
sS'<solid>'
p472
I341
sS'<massively>'
p473
I464
sS'<strictly>'
p474
I142
sS'<middle>'
p475
I509
sS'<anything>'
p476
I306
sS'<west>'
p477
I382
sS'<more widely>'
p478
I381
sS'<close to being>'
p479
I202
sS'<french-speaking>'
p480
I508
sS'<specifically>'
p481
I195
sS'<resoundingly>'
p482
I559
sS'<greater>'
p483
I150
sS'<if>'
p484
I506
sS'<someplace>'
p485
I558
sS'<much too>'
p486
I463
sS'<suddenly>'
p487
I430
sS'<appropriately>'
p488
I235
sS'<one>'
p489
I172
sS'<definitely>'
p490
I276
sS'<sort of>'
p491
I358
sS'<democratically>'
p492
I462
sS'<very much>'
p493
I402
sS'<so many>'
p494
I505
sS'<farther>'
p495
I557
sS'<and>'
p496
I182
sS'<six years>'
p497
I504
sS'<also very>'
p498
I461
sS'<allegedly>'
p499
I275
sS'<more readily>'
p500
I460
sS'<jolly>'
p501
I503
sS'<someone>'
p502
I556
sS'<much>'
p503
I25
sS'<fourteen years>'
p504
I502
sS'<accessible to the>'
p505
I459
sS'<lowest>'
p506
I274
sS'<properly>'
p507
I79
sS'<easy>'
p508
I138
sS'<far>'
p509
I47
sS'<close>'
p510
I131
sS'<openly>'
p511
I291
sS'<reaily>'
p512
I555
sS'<crazy>'
p513
I110
sS'<eastern>'
p514
I380
sS'<unacceptably>'
p515
I112
sS'<perhaps>'
p516
I305
sS'<bloody>'
p517
I141
sS'<unreasonably>'
p518
I429
sS'<shot>'
p519
I554
sS'<all rather>'
p520
I553
sS'<open to>'
p521
I84
sS'<so>'
p522
I2
sS'<significantly>'
p523
I118
sS'<gonna>'
p524
I183
sS'<frightfully>'
p525
I401
sS'<bad>'
p526
I257
sS'<super>'
p527
I552
sS'<at all>'
p528
I229
sS'<far too>'
p529
I458
sS'<a well>'
p530
I400
sS'<merely>'
p531
I292
sS'<good at>'
p532
I551
sS'<sorry ,>'
p533
I71
sS'<enormously>'
p534
I90
sS'<the least bit>'
p535
I379
sS'<ever more>'
p536
I457
sS'<widely>'
p537
I38
sS'<well>'
p538
I13
sS'<politically>'
p539
I201
sS'<as beautiful as>'
p540
I228
sS'<hereby>'
p541
I155
sS'<perry ,>'
p542
I371
sS'<whenever>'
p543
I427
sS'<potentially>'
p544
I58
sS'<toll>'
p545
I550
sS"<sure that 's>"
p546
I549
sS'<therefore very>'
p547
I548
sS'<nice to>'
p548
I144
sS'<just too>'
p549
I426
sS'<further>'
p550
I149
sS'<largest>'
p551
I357
sS'<hiv>'
p552
I311
sS'<much more>'
p553
I140
sS'<fiercely>'
p554
I547
sS'<obviously>'
p555
I399
sS'<pretty>'
p556
I7
sS'<moderately>'
p557
I329
sS'<straight with>'
p558
I501
sS'<ten years>'
p559
I500
sS'<no>'
p560
I78
sS'<directly>'
p561
I146
sS'<a lot more>'
p562
I546
sS'<finely>'
p563
I499
sS'<excellent ,>'
p564
I227
sS'<basic ,>'
p565
I425
sS'<nathan ,>'
p566
I328
sS'<beingso>'
p567
I471
sS'<stronger ,>'
p568
I456
sS'<glamorous>'
p569
I340
sS'<intensely>'
p570
I247
sS'<precisely>'
p571
I273
sS'<internationally>'
p572
I139
sS'<fifteen years>'
p573
I424
sS'<big>'
p574
I327
sS'<happy to see>'
p575
I378
sS'<highest>'
p576
I207
sS'<genuinely>'
p577
I455
sS'<real>'
p578
I26
sS'<least>'
p579
I77
sS'<really>'
p580
I4
sS'<here>'
p581
I120
sS'<just simply>'
p582
I497
sS'<so sure about>'
p583
I377
sS'<a bit more>'
p584
I545
sS'<remarkably>'
p585
I190
sS'<warm in>'
p586
I376
sS'<come with>'
p587
I496
sS'<trusted ,>'
p588
I495
sS'<hot ,>'
p589
I423
sS'<particularly>'
p590
I24
sS'<re>'
p591
I454
sS'<freely>'
p592
I246
sS'<too late>'
p593
I422
sS'<sixteen years>'
p594
I494
sS'<high>'
p595
I171
sS'<commonly>'
p596
I51
sS'<urgently>'
p597
I106
sS'<last but not>'
p598
I544
sS'<big ,>'
p599
I290
sS'<beautiful ,>'
p600
I62
sS'<legally>'
p601
I50
sS'<substantially>'
p602
I256
sS'<materially>'
p603
I326
sS'<usually>'
p604
I289
sS'<user>'
p605
I255
s.