(dp0
S'<a little bit>'
p1
I477
sS'<bled>'
p2
I421
sS'<wonderful ,>'
p3
I180
sS'<large>'
p4
I200
sS'<friendly>'
p5
I264
sS'<personally>'
p6
I288
sS'<hardly>'
p7
I121
sS'<closely>'
p8
I76
sS'<immensely>'
p9
I375
sS'<culturally>'
p10
I199
sS'<critically>'
p11
I128
sS'<clean ,>'
p12
I272
sS'<afraid of>'
p13
I109
sS'<second most>'
p14
I453
sS'<e.>'
p15
I420
sS'<else>'
p16
I452
sS'<often>'
p17
I158
sS'<scared>'
p18
I194
sS'<nationally>'
p19
I438
sS'<scientifically>'
p20
I316
sS'<satisfactory>'
p21
I398
sS'<glaringly>'
p22
I263
sS'<twice as>'
p23
I355
sS'<surprisingly>'
p24
I254
sS'<brutally>'
p25
I304
sS'<humanly>'
p26
I419
sS'<extra>'
p27
I451
sS'<south>'
p28
I233
sS'<presently>'
p29
I303
sS'<undoubtedly>'
p30
I354
sS'<professionally>'
p31
I315
sS'<adversely>'
p32
I232
sS'<all too>'
p33
I339
sS'<something>'
p34
I104
sS'<regularly>'
p35
I189
sS'<perfectly>'
p36
I19
sS'<acutely>'
p37
I493
sS'<firmly>'
p38
I241
sS'<only>'
p39
I20
sS'<grossly>'
p40
I363
sS'<kids>'
p41
I492
sS'<the>'
p42
I93
sS'<specially>'
p43
I148
sS'<unnecessarily>'
p44
I491
sS'<exactly>'
p45
I117
sS'<honest with>'
p46
I82
sS'<common>'
p47
I490
sS'<safe ,>'
p48
I418
sS'<hugely>'
p49
I319
sS'<most>'
p50
I3
sS'<once>'
p51
I353
sS'<always>'
p52
I417
sS'<constantly>'
p53
I170
sS'<nothing>'
p54
I181
sS'<surely>'
p55
I234
sS'<long>'
p56
I74
sS'<ever>'
p57
I53
sS'<any>'
p58
I37
sS'<also>'
p59
I244
sS'<smaller>'
p60
I302
sS'<especially>'
p61
I81
sS'<okay with>'
p62
I301
sS'<rock>'
p63
I374
sS'<darn>'
p64
I416
sS'<continuously>'
p65
I338
sS'<thus>'
p66
I396
sS'<incredibly>'
p67
I70
sS'<entirely>'
p68
I41
sS'<or>'
p69
I415
sS'<above>'
p70
I89
sS'<occupationally>'
p71
I414
sS'<kinda>'
p72
I86
sS'<maximum>'
p73
I373
sS'<lower>'
p74
I372
sS'<universally>'
p75
I226
sS'<tremendously>'
p76
I253
sS'<this case>'
p77
I413
sS'<alarmingly>'
p78
I116
sS'<c.>'
p79
I450
sS'<economically>'
p80
I42
sS'<arguably>'
p81
I489
sS'<fairly>'
p82
I44
sS'<previously>'
p83
I60
sS'<indeed>'
p84
I361
sS'<persistently>'
p85
I488
sS'<reasonably>'
p86
I54
sS'<structurally>'
p87
I352
sS'<manifestly>'
p88
I215
sS'<even more>'
p89
I157
sS'<less>'
p90
I23
sS'<primarily>'
p91
I351
sS'<deep>'
p92
I487
sS'<worried about>'
p93
I64
sS'<goddamn>'
p94
I243
sS'<consistently>'
p95
I486
sS'<somehow>'
p96
I412
sS'<increasingly>'
p97
I55
sS'<painfully>'
p98
I370
sS'<fastest>'
p99
I395
sS'<quick>'
p100
I186
sS'<bit>'
p101
I271
sS'<happily>'
p102
I485
sS'<rather>'
p103
I14
sS'<where>'
p104
I92
sS'<that much>'
p105
I484
sS'<some>'
p106
I270
sS'<nevertheless>'
p107
I262
sS'<reasonable>'
p108
I300
sS'<sufficiently>'
p109
I65
sS'<exceptionally>'
p110
I72
sS'<even>'
p111
I31
sS'<east>'
p112
I225
sS'<less than>'
p113
I224
sS'<western>'
p114
I449
sS'<be>'
p115
I314
sS'<altogether>'
p116
I369
sS'<purely>'
p117
I287
sS'<a few>'
p118
I394
sS'<currently>'
p119
I45
sS'<sadly>'
p120
I368
sS'<profoundly>'
p121
I411
sS'<a little too>'
p122
I483
sS'<everything>'
p123
I448
sS'<practically>'
p124
I127
sS'<all that>'
p125
I169
sS'<otherwise>'
p126
I49
sS'<now>'
p127
I137
sS'<crucially>'
p128
I152
sS'<months>'
p129
I469
sS'<a great>'
p130
I223
sS'<guys>'
p131
I261
sS"<fuckin '>"
p132
I269
sS'<all>'
p133
I10
sS'<a little>'
p134
I28
sS'<available for>'
p135
I136
sS'<naturally>'
p136
I165
sS'<just about>'
p137
I446
sS'<current>'
p138
I334
sS'<historically>'
p139
I393
sS'<international>'
p140
I444
sS'<adequately>'
p141
I367
sS'<so fucking>'
p142
I188
sS'<financially>'
p143
I87
sS'<wicked>'
p144
I286
sS'<sometimes>'
p145
I470
sS'<member>'
p146
I350
sS'<more>'
p147
I6
sS'<still more>'
p148
I482
sS'<distinctly>'
p149
I337
sS'<somewhat>'
p150
I32
sS'<poorly>'
p151
I222
sS'<just>'
p152
I8
sS'<badly>'
p153
I366
sS'<totally>'
p154
I15
sS'<clearly>'
p155
I27
sS'<any more>'
p156
I313
sS'<newly>'
p157
I48
sS'<plenty>'
p158
I481
sS'<sweet ,>'
p159
I392
sS'<unduly>'
p160
I403
sS'<patently>'
p161
I83
sS'<inherently>'
p162
I312
sS'<utterly>'
p163
I126
sS'<permanently>'
p164
I349
sS'<sure this is>'
p165
I336
sS'<fair>'
p166
I99
sS'<truly>'
p167
I33
sS'<sufficient>'
p168
I365
sS'<better than>'
p169
I410
sS'<yet>'
p170
I108
sS'<individually>'
p171
I443
sS'<more easily>'
p172
I480
sS'<awful>'
p173
I391
sS'<conspicuously>'
p174
I409
sS'<dear>'
p175
I479
sS'<immediately>'
p176
I154
sS'<mutually>'
p177
I35
sS'<fine>'
p178
I478
sS'<almost>'
p179
I36
sS'<possible>'
p180
I164
sS'<broadly>'
p181
I69
sS'<fantastic ,>'
p182
I299
sS'<prohibitively>'
p183
I268
sS'<crystal>'
p184
I176
sS'<vitally>'
p185
I80
sS'<nonetheless>'
p186
I285
sS'<right ,>'
p187
I105
sS'<cool with>'
p188
I390
sS'<worst>'
p189
I252
sS'<longer>'
p190
I221
sS'<deeply>'
p191
I66
sS'<long ,>'
p192
I335
sS'<third>'
p193
I442
sS'<then>'
p194
I284
sS'<so nice to>'
p195
I323
sS'<visually>'
p196
I298
sS'<explicitly>'
p197
I441
sS'<duty>'
p198
I408
sS'<overly>'
p199
I153
sS'<home>'
p200
I440
sS'<geographically>'
p201
I179
sS'<kind of>'
p202
I34
sS'<as brief as>'
p203
I439
sS'<equally>'
p204
I91
sS'<cost>'
p205
I98
sS'<north>'
p206
I206
sS'<this>'
p207
I73
sS'<several>'
p208
I220
sS'<virtually>'
p209
I132
sS'<glad to see>'
p210
I322
sS'<warm>'
p211
I348
sS'<more environmentally>'
p212
I447
sS'<socially>'
p213
I143
sS'<more than>'
p214
I407
sS'<extraordinarily>'
p215
I94
sS'<two feet>'
p216
I295
sS'<person>'
p217
I321
sS'<actively>'
p218
I175
sS'<plain>'
p219
I219
sS'<first>'
p220
I242
sS'<easily>'
p221
I67
sS'<two>'
p222
I260
sS'<wholly>'
p223
I198
sS'<open to the>'
p224
I259
sS'<cold in>'
p225
I347
sS'<internally>'
p226
I205
sS'<engaged to be>'
p227
I476
sS'<fine ,>'
p228
I145
sS'<duly>'
p229
I178
sS'<exceedingly>'
p230
I346
sS'<commercially>'
p231
I125
sS'<strongest>'
p232
I297
sS'<terribly>'
p233
I97
sS'<ecologically>'
p234
I130
sS'<too>'
p235
I22
sS'<heavily>'
p236
I240
sS'<disgusting ,>'
p237
I239
sS'<higher>'
p238
I174
sS'<very well>'
p239
I214
sS'<downright>'
p240
I356
sS'<wide>'
p241
I213
sS'<so much>'
p242
I245
sS'<still>'
p243
I56
sS'<damned>'
p244
I362
sS'<rarely>'
p245
I122
sS'<generally>'
p246
I43
sS'<strongly>'
p247
I177
sS'<a bit>'
p248
I63
sS'<many>'
p249
I163
sS'<deadly>'
p250
I465
sS'<kind>'
p251
I389
sS'<stiii>'
p252
I475
sS'<fine with>'
p253
I437
sS'<mentally>'
p254
I119
sS'<too fucking>'
p255
I345
sS'<way>'
p256
I320
sS'<goddam>'
p257
I474
sS'<officially>'
p258
I193
sS'<over>'
p259
I388
sS'<mighty>'
p260
I168
sS'<therefore>'
p261
I29
sS'<already>'
p262
I61
sS'<readily>'
p263
I46
sS'<fucking>'
p264
I68
sS'<emotionally>'
p265
I251
sS'<fully>'
p266
I30
sS'<quite>'
p267
I5
sS'<gonna be all>'
p268
I296
sS'<unsustainably>'
p269
I364
sS'<essentially>'
p270
I344
sS'<gonna be>'
p271
I310
sS'<wherever>'
p272
I309
sS'<dead>'
p273
I162
sS'<above->'
p274
I436
sS'<physically>'
p275
I102
sS'<best>'
p276
I115
sS'<mildly>'
p277
I473
sS'<mostly>'
p278
I397
sS'<extremely>'
p279
I11
sS'<so damn>'
p280
I472
sS'<as high as>'
p281
I498
sS'<relatively>'
p282
I18
sS'<simply>'
p283
I114
sS'<is weaker than>'
p284
I0
sS'<lot>'
p285
I159
sS'<bad ,>'
p286
I267
sS'<good ,>'
p287
I283
sS'<all the more>'
p288
I197
sS'<single>'
p289
I111
sS'<greatest>'
p290
I133
sS'<largely>'
p291
I250
sS'<just as>'
p292
I282
sS'<better ,>'
p293
I343
sS'<other>'
p294
I161
sS'<third most>'
p295
I445
sS'<completely>'
p296
I16
sS'<absolutely>'
p297
I9
sS'<how>'
p298
I85
sS'<anywhere>'
p299
I231
sS'<recently>'
p300
I124
sS'<marginally>'
p301
I333
sS'<all quite>'
p302
I435
sS'<severely>'
p303
I281
sS'<half>'
p304
I167
sS'<nice>'
p305
I135
sS'<disproportionately>'
p306
I230
sS'<environmentally>'
p307
I39
sS'<suitably>'
p308
I280
sS'<damn>'
p309
I217
sS'<right>'
p310
I103
sS'<strong>'
p311
I192
sS'<widest>'
p312
I196
sS'<deliberately>'
p313
I387
sS'<tough>'
p314
I258
sS'<little>'
p315
I59
sS'<old>'
p316
I386
sS'<fullest>'
p317
I308
sS'<whole>'
p318
I318
sS'<excessively>'
p319
I191
sS'<hard>'
p320
I166
sS'<formally>'
p321
I279
sS'<so very>'
p322
I113
sS'<as>'
p323
I12
sS'<better>'
p324
I147
sS'<hlv>'
p325
I406
sS'<insanely>'
p326
I266
sS'<morally>'
p327
I278
sS'<jointly>'
p328
I265
sS'<considerably>'
p329
I216
sS'<fundamentally>'
p330
I185
sS'<nineteen years>'
p331
I434
sS'<earliest>'
p332
I385
sS'<effective ,>'
p333
I277
sS'<abundantly>'
p334
I96
sS'<that>'
p335
I21
sS'<somewhere>'
p336
I184
sS'<years>'
p337
I317
sS'<nice ,>'
p338
I325
sS'<operationally>'
p339
I249
sS'<ready to go>'
p340
I237
sS'<simple>'
p341
I156
sS'<broadest>'
p342
I187
sS'<self>'
p343
I134
sS"<sure you 're>"
p344
I405
sS'<statistically>'
p345
I324
sS'<safer and more>'
p346
I384
sS'<year>'
p347
I428
sS'<second>'
p348
I173
sS'<frequently>'
p349
I107
sS'<different from each>'
p350
I360
sS'<publicly>'
p351
I52
sS'<basically>'
p352
I332
sS'<responsible>'
p353
I211
sS'<highly>'
p354
I17
sS'<progressively>'
p355
I433
sS'<good>'
p356
I129
sS'<nearly>'
p357
I160
sS'<misguided ,>'
p358
I468
sS'<seriously>'
p359
I204
sS'<desperately>'
p360
I294
sS'<shortest>'
p361
I331
sS'<such>'
p362
I151
sS'<scared of>'
p363
I342
sS'<temporarily>'
p364
I330
sS'<great>'
p365
I210
sS'<great ,>'
p366
I88
sS'<industrially>'
p367
I467
sS'<mad at>'
p368
I432
sS'<awfully>'
p369
I100
sS"<gettin '>"
p370
I466
sS'<either>'
p371
I101
sS'<slightly>'
p372
I123
sS'<perfect ,>'
p373
I293
sS'<fast>'
p374
I203
sS'<globally>'
p375
I404
sS'<carefully>'
p376
I218
sS'<important>'
p377
I238
sS'<no longer>'
p378
I431
sS'<away>'
p379
I383
sS'<just so>'
p380
I40
sS'<about>'
p381
I75
sS'<technically>'
p382
I209
sS'<medically>'
p383
I208
sS'<ready to>'
p384
I57
sS'<sounds>'
p385
I236
sS'<comparatively>'
p386
I212
sS'<as simple as>'
p387
I248
sS'<plainly>'
p388
I307
sS'<a lot>'
p389
I95
sS'<aii>'
p390
I359
sS'<very>'
p391
I1
sS'<solid>'
p392
I341
sS'<massively>'
p393
I464
sS'<strictly>'
p394
I142
sS'<anything>'
p395
I306
sS'<west>'
p396
I382
sS'<more widely>'
p397
I381
sS'<close to being>'
p398
I202
sS'<specifically>'
p399
I195
sS'<greater>'
p400
I150
sS'<much too>'
p401
I463
sS'<suddenly>'
p402
I430
sS'<appropriately>'
p403
I235
sS'<one>'
p404
I172
sS'<definitely>'
p405
I276
sS'<sort of>'
p406
I358
sS'<democratically>'
p407
I462
sS'<very much>'
p408
I402
sS'<and>'
p409
I182
sS'<also very>'
p410
I461
sS'<allegedly>'
p411
I275
sS'<more readily>'
p412
I460
sS'<much>'
p413
I25
sS'<accessible to the>'
p414
I459
sS'<lowest>'
p415
I274
sS'<properly>'
p416
I79
sS'<easy>'
p417
I138
sS'<far>'
p418
I47
sS'<close>'
p419
I131
sS'<openly>'
p420
I291
sS'<crazy>'
p421
I110
sS'<eastern>'
p422
I380
sS'<unacceptably>'
p423
I112
sS'<perhaps>'
p424
I305
sS'<bloody>'
p425
I141
sS'<unreasonably>'
p426
I429
sS'<open to>'
p427
I84
sS'<so>'
p428
I2
sS'<significantly>'
p429
I118
sS'<gonna>'
p430
I183
sS'<frightfully>'
p431
I401
sS'<bad>'
p432
I257
sS'<at all>'
p433
I229
sS'<far too>'
p434
I458
sS'<a well>'
p435
I400
sS'<merely>'
p436
I292
sS'<sorry ,>'
p437
I71
sS'<enormously>'
p438
I90
sS'<the least bit>'
p439
I379
sS'<ever more>'
p440
I457
sS'<widely>'
p441
I38
sS'<well>'
p442
I13
sS'<politically>'
p443
I201
sS'<as beautiful as>'
p444
I228
sS'<hereby>'
p445
I155
sS'<perry ,>'
p446
I371
sS'<whenever>'
p447
I427
sS'<potentially>'
p448
I58
sS'<nice to>'
p449
I144
sS'<just too>'
p450
I426
sS'<further>'
p451
I149
sS'<largest>'
p452
I357
sS'<hiv>'
p453
I311
sS'<much more>'
p454
I140
sS'<obviously>'
p455
I399
sS'<pretty>'
p456
I7
sS'<moderately>'
p457
I329
sS'<no>'
p458
I78
sS'<directly>'
p459
I146
sS'<finely>'
p460
I499
sS'<excellent ,>'
p461
I227
sS'<basic ,>'
p462
I425
sS'<nathan ,>'
p463
I328
sS'<beingso>'
p464
I471
sS'<stronger ,>'
p465
I456
sS'<glamorous>'
p466
I340
sS'<intensely>'
p467
I247
sS'<precisely>'
p468
I273
sS'<internationally>'
p469
I139
sS'<fifteen years>'
p470
I424
sS'<big>'
p471
I327
sS'<happy to see>'
p472
I378
sS'<highest>'
p473
I207
sS'<genuinely>'
p474
I455
sS'<real>'
p475
I26
sS'<least>'
p476
I77
sS'<really>'
p477
I4
sS'<here>'
p478
I120
sS'<just simply>'
p479
I497
sS'<so sure about>'
p480
I377
sS'<remarkably>'
p481
I190
sS'<warm in>'
p482
I376
sS'<come with>'
p483
I496
sS'<trusted ,>'
p484
I495
sS'<hot ,>'
p485
I423
sS'<particularly>'
p486
I24
sS'<re>'
p487
I454
sS'<freely>'
p488
I246
sS'<too late>'
p489
I422
sS'<sixteen years>'
p490
I494
sS'<high>'
p491
I171
sS'<commonly>'
p492
I51
sS'<urgently>'
p493
I106
sS'<big ,>'
p494
I290
sS'<beautiful ,>'
p495
I62
sS'<legally>'
p496
I50
sS'<substantially>'
p497
I256
sS'<materially>'
p498
I326
sS'<usually>'
p499
I289
sS'<user>'
p500
I255
s.