(dp0
S'<all that>'
p1
I169
sS'<carefully>'
p2
I218
sS'<otherwise>'
p3
I49
sS'<wonderful ,>'
p4
I180
sS'<now>'
p5
I137
sS'<friendly>'
p6
I264
sS'<large>'
p7
I200
sS'<crucially>'
p8
I152
sS'<just so>'
p9
I40
sS'<about>'
p10
I75
sS'<a great>'
p11
I223
sS'<nothing>'
p12
I181
sS'<hardly>'
p13
I121
sS"<fuckin '>"
p14
I269
sS'<still>'
p15
I56
sS'<closely>'
p16
I76
sS'<well>'
p17
I13
sS'<ready to>'
p18
I57
sS'<a little>'
p19
I28
sS'<generally>'
p20
I43
sS'<half>'
p21
I167
sS'<strongly>'
p22
I177
sS'<a bit>'
p23
I63
sS'<many>'
p24
I163
sS'<critically>'
p25
I128
sS'<clean ,>'
p26
I272
sS'<remarkably>'
p27
I190
sS'<afraid of>'
p28
I109
sS'<politically>'
p29
I201
sS'<so fucking>'
p30
I188
sS'<financially>'
p31
I87
sS'<wicked>'
p32
I286
sS'<mentally>'
p33
I119
sS'<morally>'
p34
I278
sS'<regularly>'
p35
I189
sS'<fantastic ,>'
p36
I299
sS'<a lot>'
p37
I95
sS'<officially>'
p38
I193
sS'<often>'
p39
I158
sS'<scared>'
p40
I194
sS'<very>'
p41
I1
sS'<mighty>'
p42
I168
sS'<therefore>'
p43
I29
sS'<strictly>'
p44
I142
sS'<already>'
p45
I61
sS'<formally>'
p46
I279
sS'<hereby>'
p47
I155
sS'<close to being>'
p48
I202
sS'<somewhat>'
p49
I32
sS'<surprisingly>'
p50
I254
sS'<specifically>'
p51
I195
sS'<readily>'
p52
I46
sS'<usually>'
p53
I289
sS'<fucking>'
p54
I68
sS'<poorly>'
p55
I222
sS'<desperately>'
p56
I294
sS'<greater>'
p57
I150
sS'<goddamn>'
p58
I243
sS'<fully>'
p59
I30
sS'<quite>'
p60
I5
sS'<south>'
p61
I233
sS'<potentially>'
p62
I58
sS'<guys>'
p63
I261
sS'<definitely>'
p64
I276
sS'<appropriately>'
p65
I235
sS'<totally>'
p66
I15
sS'<one>'
p67
I172
sS'<clearly>'
p68
I27
sS'<insanely>'
p69
I266
sS'<so much>'
p70
I245
sS'<and>'
p71
I182
sS'<newly>'
p72
I48
sS'<dead>'
p73
I162
sS'<allegedly>'
p74
I275
sS'<physically>'
p75
I102
sS'<patently>'
p76
I83
sS'<best>'
p77
I115
sS'<east>'
p78
I225
sS'<tremendously>'
p79
I253
sS'<utterly>'
p80
I126
sS'<much>'
p81
I25
sS'<unacceptably>'
p82
I112
sS'<something>'
p83
I104
sS'<medically>'
p84
I208
sS'<lowest>'
p85
I274
sS'<properly>'
p86
I79
sS'<fair>'
p87
I99
sS'<truly>'
p88
I33
sS'<extremely>'
p89
I11
sS'<close>'
p90
I131
sS'<visually>'
p91
I298
sS'<fine ,>'
p92
I145
sS'<only>'
p93
I20
sS'<gonna be all>'
p94
I296
sS'<crazy>'
p95
I110
sS'<firmly>'
p96
I241
sS'<responsible>'
p97
I211
sS'<the>'
p98
I93
sS'<yet>'
p99
I108
sS'<more>'
p100
I6
sS'<exactly>'
p101
I117
sS'<relatively>'
p102
I18
sS'<honest with>'
p103
I82
sS'<sounds>'
p104
I236
sS'<immediately>'
p105
I154
sS'<comparatively>'
p106
I212
sS'<simply>'
p107
I114
sS'<fundamentally>'
p108
I185
sS'<most>'
p109
I3
sS'<personally>'
p110
I288
sS'<perfect ,>'
p111
I293
sS'<available for>'
p112
I136
sS'<is weaker than>'
p113
I0
sS'<bloody>'
p114
I141
sS'<mutually>'
p115
I35
sS'<possible>'
p116
I164
sS'<broadly>'
p117
I69
sS'<open to>'
p118
I84
sS'<overly>'
p119
I153
sS'<so>'
p120
I2
sS'<significantly>'
p121
I118
sS'<reasonably>'
p122
I54
sS'<greatest>'
p123
I133
sS'<damn>'
p124
I217
sS'<long>'
p125
I74
sS'<largely>'
p126
I250
sS'<ever>'
p127
I53
sS'<just as>'
p128
I282
sS'<other>'
p129
I161
sS'<at all>'
p130
I229
sS'<any>'
p131
I37
sS'<good ,>'
p132
I283
sS'<where>'
p133
I92
sS'<absolutely>'
p134
I9
sS'<how>'
p135
I85
sS'<also>'
p136
I244
sS'<bad ,>'
p137
I267
sS'<nearly>'
p138
I160
sS'<wide>'
p139
I213
sS'<anywhere>'
p140
I231
sS'<vitally>'
p141
I80
sS'<especially>'
p142
I81
sS'<recently>'
p143
I124
sS'<right ,>'
p144
I105
sS'<sorry ,>'
p145
I71
sS'<enormously>'
p146
I90
sS'<worst>'
p147
I252
sS'<constantly>'
p148
I170
sS'<internationally>'
p149
I139
sS'<widely>'
p150
I38
sS'<longer>'
p151
I221
sS'<all>'
p152
I10
sS'<incredibly>'
p153
I70
sS'<entirely>'
p154
I41
sS'<deeply>'
p155
I66
sS'<almost>'
p156
I36
sS'<as beautiful as>'
p157
I228
sS'<nice>'
p158
I135
sS'<universally>'
p159
I226
sS'<specially>'
p160
I148
sS'<just>'
p161
I8
sS'<then>'
p162
I284
sS'<disproportionately>'
p163
I230
sS'<environmentally>'
p164
I39
sS'<abundantly>'
p165
I96
sS'<some>'
p166
I270
sS'<kinda>'
p167
I86
sS'<nice to>'
p168
I144
sS'<such>'
p169
I151
sS'<gonna>'
p170
I183
sS'<right>'
p171
I103
sS'<bad>'
p172
I257
sS'<user>'
p173
I255
sS'<strong>'
p174
I192
sS'<geographically>'
p175
I179
sS'<further>'
p176
I149
sS'<widest>'
p177
I196
sS'<kind of>'
p178
I34
sS'<tough>'
p179
I258
sS'<this>'
p180
I73
sS'<alarmingly>'
p181
I116
sS'<much more>'
p182
I140
sS'<equally>'
p183
I91
sS'<little>'
p184
I59
sS'<economically>'
p185
I42
sS'<all the more>'
p186
I197
sS'<cost>'
p187
I98
sS'<pretty>'
p188
I7
sS'<rarely>'
p189
I122
sS'<north>'
p190
I206
sS'<fairly>'
p191
I44
sS'<previously>'
p192
I60
sS'<hard>'
p193
I166
sS'<excessively>'
p194
I191
sS'<duly>'
p195
I178
sS'<openly>'
p196
I291
sS'<so very>'
p197
I113
sS'<no>'
p198
I78
sS'<naturally>'
p199
I165
sS'<jointly>'
p200
I265
sS'<virtually>'
p201
I132
sS'<as>'
p202
I12
sS'<prohibitively>'
p203
I268
sS'<better>'
p204
I147
sS'<culturally>'
p205
I199
sS'<excellent ,>'
p206
I227
sS'<manifestly>'
p207
I215
sS'<socially>'
p208
I143
sS'<perfectly>'
p209
I19
sS'<extraordinarily>'
p210
I94
sS'<first>'
p211
I242
sS'<even more>'
p212
I157
sS'<less>'
p213
I23
sS'<two feet>'
p214
I295
sS'<crystal>'
p215
I176
sS'<lot>'
p216
I159
sS'<intensely>'
p217
I247
sS'<effective ,>'
p218
I277
sS'<precisely>'
p219
I273
sS'<single>'
p220
I111
sS'<actively>'
p221
I175
sS'<above>'
p222
I89
sS'<that>'
p223
I21
sS'<important>'
p224
I238
sS'<plain>'
p225
I219
sS'<somewhere>'
p226
I184
sS'<highest>'
p227
I207
sS'<worried about>'
p228
I64
sS'<increasingly>'
p229
I55
sS'<considerably>'
p230
I216
sS'<emotionally>'
p231
I251
sS'<real>'
p232
I26
sS'<nonetheless>'
p233
I285
sS'<directly>'
p234
I146
sS'<least>'
p235
I77
sS'<easy>'
p236
I138
sS'<operationally>'
p237
I249
sS'<easily>'
p238
I67
sS'<simple>'
p239
I156
sS'<really>'
p240
I4
sS'<quick>'
p241
I186
sS'<suitably>'
p242
I280
sS'<broadest>'
p243
I187
sS'<two>'
p244
I260
sS'<rather>'
p245
I14
sS'<here>'
p246
I120
sS'<adversely>'
p247
I232
sS'<wholly>'
p248
I198
sS'<technically>'
p249
I209
sS'<as simple as>'
p250
I248
sS'<strongest>'
p251
I297
sS'<ready to go>'
p252
I237
sS'<far>'
p253
I47
sS'<completely>'
p254
I16
sS'<frequently>'
p255
I107
sS'<open to the>'
p256
I259
sS'<internally>'
p257
I205
sS'<nevertheless>'
p258
I262
sS'<publicly>'
p259
I52
sS'<sufficiently>'
p260
I65
sS'<exceptionally>'
p261
I72
sS'<second>'
p262
I173
sS'<even>'
p263
I31
sS'<highly>'
p264
I17
sS'<less than>'
p265
I224
sS'<commercially>'
p266
I125
sS'<self>'
p267
I134
sS'<good>'
p268
I129
sS'<several>'
p269
I220
sS'<terribly>'
p270
I97
sS'<purely>'
p271
I287
sS'<seriously>'
p272
I204
sS'<bit>'
p273
I271
sS'<substantially>'
p274
I256
sS'<ecologically>'
p275
I130
sS'<particularly>'
p276
I24
sS'<too>'
p277
I22
sS'<currently>'
p278
I45
sS'<great>'
p279
I210
sS'<great ,>'
p280
I88
sS'<heavily>'
p281
I240
sS'<disgusting ,>'
p282
I239
sS'<freely>'
p283
I246
sS'<higher>'
p284
I174
sS'<awfully>'
p285
I100
sS'<glaringly>'
p286
I263
sS'<severely>'
p287
I281
sS'<high>'
p288
I171
sS'<commonly>'
p289
I51
sS'<either>'
p290
I101
sS'<slightly>'
p291
I123
sS'<very well>'
p292
I214
sS'<big ,>'
p293
I290
sS'<beautiful ,>'
p294
I62
sS'<legally>'
p295
I50
sS'<fast>'
p296
I203
sS'<practically>'
p297
I127
sS'<merely>'
p298
I292
sS'<urgently>'
p299
I106
sS'<surely>'
p300
I234
s.