(dp0
S'<otherwise>'
p1
(I49
cnumpy.core.multiarray
scalar
p2
(cnumpy
dtype
p3
(S'f8'
p4
I0
I1
tp5
Rp6
(I3
S'<'
p7
NNNI-1
I-1
I0
tp8
bS'\xb6h0\xe6^\x1a:?'
p9
tp10
Rp11
g2
(g6
S'.92\x88\xb5\x17:?'
p12
tp13
Rp14
tp15
sS'<just so>'
p16
(I35
g2
(g6
S'\xb6h0\xe6^\x1a:?'
p17
tp18
Rp19
g2
(g6
S'.92\x88\xb5\x17:?'
p20
tp21
Rp22
tp23
sS'<about>'
p24
(I78
g2
(g6
S'\xb6h0\xe6^\x1a:?'
p25
tp26
Rp27
g2
(g6
S'.92\x88\xb5\x17:?'
p28
tp29
Rp30
tp31
sS'<still>'
p32
(I51
g2
(g6
S'\xb6h0\xe6^\x1a:?'
p33
tp34
Rp35
g2
(g6
S'.92\x88\xb5\x17:?'
p36
tp37
Rp38
tp39
sS'<closely>'
p40
(I86
g2
(g6
S'\xb6h0\xe6^\x1a:?'
p41
tp42
Rp43
g2
(g6
S'.92\x88\xb5\x17:?'
p44
tp45
Rp46
tp47
sS'<well>'
p48
(I17
g2
(g6
S'\xb6h0\xe6^\x1a:?'
p49
tp50
Rp51
g2
(g6
S'.92\x88\xb5\x17:?'
p52
tp53
Rp54
tp55
sS'<ready to>'
p56
(I63
g2
(g6
S'\xb6h0\xe6^\x1a:?'
p57
tp58
Rp59
g2
(g6
S'.92\x88\xb5\x17:?'
p60
tp61
Rp62
tp63
sS'<a little>'
p64
(I25
g2
(g6
S'\xb6h0\xe6^\x1a:?'
p65
tp66
Rp67
g2
(g6
S'.92\x88\xb5\x17:?'
p68
tp69
Rp70
tp71
sS'<generally>'
p72
(I44
g2
(g6
S'\xb6h0\xe6^\x1a:?'
p73
tp74
Rp75
g2
(g6
S'.92\x88\xb5\x17:?'
p76
tp77
Rp78
tp79
sS'<a bit>'
p80
(I48
g2
(g6
S'\xb6h0\xe6^\x1a:?'
p81
tp82
Rp83
g2
(g6
S'.92\x88\xb5\x17:?'
p84
tp85
Rp86
tp87
sS'<financially>'
p88
(I95
g2
(g6
S'\xb6h0\xe6^\x1a:?'
p89
tp90
Rp91
g2
(g6
S'.92\x88\xb5\x17:?'
p92
tp93
Rp94
tp95
sS'<a lot>'
p96
(I74
g2
(g6
S'\xb6h0\xe6^\x1a:?'
p97
tp98
Rp99
g2
(g6
S'.92\x88\xb5\x17:?'
p100
tp101
Rp102
tp103
sS'<very>'
p104
(I1
g2
(g6
S'\xb6h0\xe6^\x1a:?'
p105
tp106
Rp107
g2
(g6
S'.92\x88\xb5\x17:?'
p108
tp109
Rp110
tp111
sS'<therefore>'
p112
(I28
g2
(g6
S'\xb6h0\xe6^\x1a:?'
p113
tp114
Rp115
g2
(g6
S'.92\x88\xb5\x17:?'
p116
tp117
Rp118
tp119
sS'<already>'
p120
(I55
g2
(g6
S'\xb6h0\xe6^\x1a:?'
p121
tp122
Rp123
g2
(g6
S'.92\x88\xb5\x17:?'
p124
tp125
Rp126
tp127
sS'<somewhat>'
p128
(I33
g2
(g6
S'\xb6h0\xe6^\x1a:?'
p129
tp130
Rp131
g2
(g6
S'.92\x88\xb5\x17:?'
p132
tp133
Rp134
tp135
sS'<readily>'
p136
(I47
g2
(g6
S'\xb6h0\xe6^\x1a:?'
p137
tp138
Rp139
g2
(g6
S'.92\x88\xb5\x17:?'
p140
tp141
Rp142
tp143
sS'<fucking>'
p144
(I68
g2
(g6
S'\xb6h0\xe6^\x1a:?'
p145
tp146
Rp147
g2
(g6
S'.92\x88\xb5\x17:?'
p148
tp149
Rp150
tp151
sS'<fully>'
p152
(I31
g2
(g6
S'\xb6h0\xe6^\x1a:?'
p153
tp154
Rp155
g2
(g6
S'.92\x88\xb5\x17:?'
p156
tp157
Rp158
tp159
sS'<quite>'
p160
(I5
g2
(g6
S'\xb6h0\xe6^\x1a:?'
p161
tp162
Rp163
g2
(g6
S'.92\x88\xb5\x17:?'
p164
tp165
Rp166
tp167
sS'<potentially>'
p168
(I53
g2
(g6
S'\xb6h0\xe6^\x1a:?'
p169
tp170
Rp171
g2
(g6
S'.92\x88\xb5\x17:?'
p172
tp173
Rp174
tp175
sS'<totally>'
p176
(I14
g2
(g6
S'\xb6h0\xe6^\x1a:?'
p177
tp178
Rp179
g2
(g6
S'.92\x88\xb5\x17:?'
p180
tp181
Rp182
tp183
sS'<clearly>'
p184
(I30
g2
(g6
S'\xb6h0\xe6^\x1a:?'
p185
tp186
Rp187
g2
(g6
S'.92\x88\xb5\x17:?'
p188
tp189
Rp190
tp191
sS'<newly>'
p192
(I56
g2
(g6
S'\xb6h0\xe6^\x1a:?'
p193
tp194
Rp195
g2
(g6
S'.92\x88\xb5\x17:?'
p196
tp197
Rp198
tp199
sS'<physically>'
p200
(I94
g2
(g6
S'\xb6h0\xe6^\x1a:?'
p201
tp202
Rp203
g2
(g6
S'.92\x88\xb5\x17:?'
p204
tp205
Rp206
tp207
sS'<patently>'
p208
(I75
g2
(g6
S'\xb6h0\xe6^\x1a:?'
p209
tp210
Rp211
g2
(g6
S'.92\x88\xb5\x17:?'
p212
tp213
Rp214
tp215
sS'<much>'
p216
(I26
g2
(g6
S'\xb6h0\xe6^\x1a:?'
p217
tp218
Rp219
g2
(g6
S'.92\x88\xb5\x17:?'
p220
tp221
Rp222
tp223
sS'<properly>'
p224
(I80
g2
(g6
S'\xb6h0\xe6^\x1a:?'
p225
tp226
Rp227
g2
(g6
S'.92\x88\xb5\x17:?'
p228
tp229
Rp230
tp231
sS'<truly>'
p232
(I34
g2
(g6
S'\xb6h0\xe6^\x1a:?'
p233
tp234
Rp235
g2
(g6
S'.92\x88\xb5\x17:?'
p236
tp237
Rp238
tp239
sS'<extremely>'
p240
(I11
g2
(g6
S'\xb6h0\xe6^\x1a:?'
p241
tp242
Rp243
g2
(g6
S'.92\x88\xb5\x17:?'
p244
tp245
Rp246
tp247
sS'<only>'
p248
(I22
g2
(g6
S'\xb6h0\xe6^\x1a:?'
p249
tp250
Rp251
g2
(g6
S'.92\x88\xb5\x17:?'
p252
tp253
Rp254
tp255
sS'<the>'
p256
(I85
g2
(g6
S'\xb6h0\xe6^\x1a:?'
p257
tp258
Rp259
g2
(g6
S'.92\x88\xb5\x17:?'
p260
tp261
Rp262
tp263
sS'<more>'
p264
(I6
g2
(g6
S'\xb6h0\xe6^\x1a:?'
p265
tp266
Rp267
g2
(g6
S'.92\x88\xb5\x17:?'
p268
tp269
Rp270
tp271
sS'<relatively>'
p272
(I18
g2
(g6
S'\xb6h0\xe6^\x1a:?'
p273
tp274
Rp275
g2
(g6
S'.92\x88\xb5\x17:?'
p276
tp277
Rp278
tp279
sS'<simply>'
p280
(I90
g2
(g6
S'\xb6h0\xe6^\x1a:?'
p281
tp282
Rp283
g2
(g6
S'.92\x88\xb5\x17:?'
p284
tp285
Rp286
tp287
sS'<most>'
p288
(I3
g2
(g6
S'\xb6h0\xe6^\x1a:?'
p289
tp290
Rp291
g2
(g6
S'.92\x88\xb5\x17:?'
p292
tp293
Rp294
tp295
sS'<is weaker than>'
p296
(I0
g2
(g6
S'\xb6h0\xe6^\x1a:?'
p297
tp298
Rp299
g2
(g6
S'.92\x88\xb5\x17:?'
p300
tp301
Rp302
tp303
sS'<mutually>'
p304
(I37
g2
(g6
S'\xb6h0\xe6^\x1a:?'
p305
tp306
Rp307
g2
(g6
S'.92\x88\xb5\x17:?'
p308
tp309
Rp310
tp311
sS'<broadly>'
p312
(I76
g2
(g6
S'\xb6h0\xe6^\x1a:?'
p313
tp314
Rp315
g2
(g6
S'.92\x88\xb5\x17:?'
p316
tp317
Rp318
tp319
sS'<so>'
p320
(I2
g2
(g6
S'\xb6h0\xe6^\x1a:?'
p321
tp322
Rp323
g2
(g6
S'.92\x88\xb5\x17:?'
p324
tp325
Rp326
tp327
sS'<reasonably>'
p328
(I52
g2
(g6
S'\xb6h0\xe6^\x1a:?'
p329
tp330
Rp331
g2
(g6
S'.92\x88\xb5\x17:?'
p332
tp333
Rp334
tp335
sS'<long>'
p336
(I77
g2
(g6
S'\xb6h0\xe6^\x1a:?'
p337
tp338
Rp339
g2
(g6
S'.92\x88\xb5\x17:?'
p340
tp341
Rp342
tp343
sS'<ever>'
p344
(I50
g2
(g6
S'\xb6h0\xe6^\x1a:?'
p345
tp346
Rp347
g2
(g6
S'.92\x88\xb5\x17:?'
p348
tp349
Rp350
tp351
sS'<any>'
p352
(I36
g2
(g6
S'\xb6h0\xe6^\x1a:?'
p353
tp354
Rp355
g2
(g6
S'.92\x88\xb5\x17:?'
p356
tp357
Rp358
tp359
sS'<where>'
p360
(I82
g2
(g6
S'\xb6h0\xe6^\x1a:?'
p361
tp362
Rp363
g2
(g6
S'.92\x88\xb5\x17:?'
p364
tp365
Rp366
tp367
sS'<absolutely>'
p368
(I9
g2
(g6
S'\xb6h0\xe6^\x1a:?'
p369
tp370
Rp371
g2
(g6
S'.92\x88\xb5\x17:?'
p372
tp373
Rp374
tp375
sS'<how>'
p376
(I64
g2
(g6
S'\xb6h0\xe6^\x1a:?'
p377
tp378
Rp379
g2
(g6
S'.92\x88\xb5\x17:?'
p380
tp381
Rp382
tp383
sS'<vitally>'
p384
(I92
g2
(g6
S'\xb6h0\xe6^\x1a:?'
p385
tp386
Rp387
g2
(g6
S'.92\x88\xb5\x17:?'
p388
tp389
Rp390
tp391
sS'<especially>'
p392
(I71
g2
(g6
S'\xb6h0\xe6^\x1a:?'
p393
tp394
Rp395
g2
(g6
S'.92\x88\xb5\x17:?'
p396
tp397
Rp398
tp399
sS'<sorry ,>'
p400
(I88
g2
(g6
S'\xb6h0\xe6^\x1a:?'
p401
tp402
Rp403
g2
(g6
S'.92\x88\xb5\x17:?'
p404
tp405
Rp406
tp407
sS'<widely>'
p408
(I41
g2
(g6
S'\xb6h0\xe6^\x1a:?'
p409
tp410
Rp411
g2
(g6
S'.92\x88\xb5\x17:?'
p412
tp413
Rp414
tp415
sS'<all>'
p416
(I10
g2
(g6
S'\xb6h0\xe6^\x1a:?'
p417
tp418
Rp419
g2
(g6
S'.92\x88\xb5\x17:?'
p420
tp421
Rp422
tp423
sS'<incredibly>'
p424
(I72
g2
(g6
S'\xb6h0\xe6^\x1a:?'
p425
tp426
Rp427
g2
(g6
S'.92\x88\xb5\x17:?'
p428
tp429
Rp430
tp431
sS'<entirely>'
p432
(I39
g2
(g6
S'\xb6h0\xe6^\x1a:?'
p433
tp434
Rp435
g2
(g6
S'.92\x88\xb5\x17:?'
p436
tp437
Rp438
tp439
sS'<deeply>'
p440
(I66
g2
(g6
S'\xb6h0\xe6^\x1a:?'
p441
tp442
Rp443
g2
(g6
S'.92\x88\xb5\x17:?'
p444
tp445
Rp446
tp447
sS'<almost>'
p448
(I38
g2
(g6
S'\xb6h0\xe6^\x1a:?'
p449
tp450
Rp451
g2
(g6
S'.92\x88\xb5\x17:?'
p452
tp453
Rp454
tp455
sS'<just>'
p456
(I8
g2
(g6
S'\xb6h0\xe6^\x1a:?'
p457
tp458
Rp459
g2
(g6
S'.92\x88\xb5\x17:?'
p460
tp461
Rp462
tp463
sS'<environmentally>'
p464
(I42
g2
(g6
S'\xb6h0\xe6^\x1a:?'
p465
tp466
Rp467
g2
(g6
S'.92\x88\xb5\x17:?'
p468
tp469
Rp470
tp471
sS'<kinda>'
p472
(I70
g2
(g6
S'\xb6h0\xe6^\x1a:?'
p473
tp474
Rp475
g2
(g6
S'.92\x88\xb5\x17:?'
p476
tp477
Rp478
tp479
sS'<kind of>'
p480
(I32
g2
(g6
S'\xb6h0\xe6^\x1a:?'
p481
tp482
Rp483
g2
(g6
S'.92\x88\xb5\x17:?'
p484
tp485
Rp486
tp487
sS'<this>'
p488
(I65
g2
(g6
S'\xb6h0\xe6^\x1a:?'
p489
tp490
Rp491
g2
(g6
S'.92\x88\xb5\x17:?'
p492
tp493
Rp494
tp495
sS'<equally>'
p496
(I91
g2
(g6
S'\xb6h0\xe6^\x1a:?'
p497
tp498
Rp499
g2
(g6
S'.92\x88\xb5\x17:?'
p500
tp501
Rp502
tp503
sS'<little>'
p504
(I60
g2
(g6
S'\xb6h0\xe6^\x1a:?'
p505
tp506
Rp507
g2
(g6
S'.92\x88\xb5\x17:?'
p508
tp509
Rp510
tp511
sS'<economically>'
p512
(I43
g2
(g6
S'\xb6h0\xe6^\x1a:?'
p513
tp514
Rp515
g2
(g6
S'.92\x88\xb5\x17:?'
p516
tp517
Rp518
tp519
sS'<cost>'
p520
(I99
g2
(g6
S'\xb6h0\xe6^\x1a:?'
p521
tp522
Rp523
g2
(g6
S'.92\x88\xb5\x17:?'
p524
tp525
Rp526
tp527
sS'<pretty>'
p528
(I7
g2
(g6
S'\xb6h0\xe6^\x1a:?'
p529
tp530
Rp531
g2
(g6
S'.92\x88\xb5\x17:?'
p532
tp533
Rp534
tp535
sS'<fairly>'
p536
(I40
g2
(g6
S'\xb6h0\xe6^\x1a:?'
p537
tp538
Rp539
g2
(g6
S'.92\x88\xb5\x17:?'
p540
tp541
Rp542
tp543
sS'<previously>'
p544
(I62
g2
(g6
S'\xb6h0\xe6^\x1a:?'
p545
tp546
Rp547
g2
(g6
S'.92\x88\xb5\x17:?'
p548
tp549
Rp550
tp551
sS'<no>'
p552
(I87
g2
(g6
S'\xb6h0\xe6^\x1a:?'
p553
tp554
Rp555
g2
(g6
S'.92\x88\xb5\x17:?'
p556
tp557
Rp558
tp559
sS'<as>'
p560
(I12
g2
(g6
S'\xb6h0\xe6^\x1a:?'
p561
tp562
Rp563
g2
(g6
S'.92\x88\xb5\x17:?'
p564
tp565
Rp566
tp567
sS'<perfectly>'
p568
(I20
g2
(g6
S'\xb6h0\xe6^\x1a:?'
p569
tp570
Rp571
g2
(g6
S'.92\x88\xb5\x17:?'
p572
tp573
Rp574
tp575
sS'<extraordinarily>'
p576
(I97
g2
(g6
S'\xb6h0\xe6^\x1a:?'
p577
tp578
Rp579
g2
(g6
S'.92\x88\xb5\x17:?'
p580
tp581
Rp582
tp583
sS'<less>'
p584
(I27
g2
(g6
S'\xb6h0\xe6^\x1a:?'
p585
tp586
Rp587
g2
(g6
S'.92\x88\xb5\x17:?'
p588
tp589
Rp590
tp591
sS'<single>'
p592
(I98
g2
(g6
S'\xb6h0\xe6^\x1a:?'
p593
tp594
Rp595
g2
(g6
S'.92\x88\xb5\x17:?'
p596
tp597
Rp598
tp599
sS'<abundantly>'
p600
(I93
g2
(g6
S'\xb6h0\xe6^\x1a:?'
p601
tp602
Rp603
g2
(g6
S'.92\x88\xb5\x17:?'
p604
tp605
Rp606
tp607
sS'<that>'
p608
(I21
g2
(g6
S'\xb6h0\xe6^\x1a:?'
p609
tp610
Rp611
g2
(g6
S'.92\x88\xb5\x17:?'
p612
tp613
Rp614
tp615
sS'<worried about>'
p616
(I69
g2
(g6
S'\xb6h0\xe6^\x1a:?'
p617
tp618
Rp619
g2
(g6
S'.92\x88\xb5\x17:?'
p620
tp621
Rp622
tp623
sS'<increasingly>'
p624
(I57
g2
(g6
S'\xb6h0\xe6^\x1a:?'
p625
tp626
Rp627
g2
(g6
S'.92\x88\xb5\x17:?'
p628
tp629
Rp630
tp631
sS'<real>'
p632
(I24
g2
(g6
S'\xb6h0\xe6^\x1a:?'
p633
tp634
Rp635
g2
(g6
S'.92\x88\xb5\x17:?'
p636
tp637
Rp638
tp639
sS'<least>'
p640
(I96
g2
(g6
S'\xb6h0\xe6^\x1a:?'
p641
tp642
Rp643
g2
(g6
S'.92\x88\xb5\x17:?'
p644
tp645
Rp646
tp647
sS'<easily>'
p648
(I73
g2
(g6
S'\xb6h0\xe6^\x1a:?'
p649
tp650
Rp651
g2
(g6
S'.92\x88\xb5\x17:?'
p652
tp653
Rp654
tp655
sS'<really>'
p656
(I4
g2
(g6
S'\xb6h0\xe6^\x1a:?'
p657
tp658
Rp659
g2
(g6
S'.92\x88\xb5\x17:?'
p660
tp661
Rp662
tp663
sS'<rather>'
p664
(I13
g2
(g6
S'\xb6h0\xe6^\x1a:?'
p665
tp666
Rp667
g2
(g6
S'.92\x88\xb5\x17:?'
p668
tp669
Rp670
tp671
sS'<far>'
p672
(I45
g2
(g6
S'\xb6h0\xe6^\x1a:?'
p673
tp674
Rp675
g2
(g6
S'.92\x88\xb5\x17:?'
p676
tp677
Rp678
tp679
sS'<completely>'
p680
(I15
g2
(g6
S'\xb6h0\xe6^\x1a:?'
p681
tp682
Rp683
g2
(g6
S'.92\x88\xb5\x17:?'
p684
tp685
Rp686
tp687
sS'<publicly>'
p688
(I59
g2
(g6
S'\xb6h0\xe6^\x1a:?'
p689
tp690
Rp691
g2
(g6
S'.92\x88\xb5\x17:?'
p692
tp693
Rp694
tp695
sS'<sufficiently>'
p696
(I67
g2
(g6
S'\xb6h0\xe6^\x1a:?'
p697
tp698
Rp699
g2
(g6
S'.92\x88\xb5\x17:?'
p700
tp701
Rp702
tp703
sS'<exceptionally>'
p704
(I81
g2
(g6
S'\xb6h0\xe6^\x1a:?'
p705
tp706
Rp707
g2
(g6
S'.92\x88\xb5\x17:?'
p708
tp709
Rp710
tp711
sS'<even>'
p712
(I29
g2
(g6
S'\xb6h0\xe6^\x1a:?'
p713
tp714
Rp715
g2
(g6
S'.92\x88\xb5\x17:?'
p716
tp717
Rp718
tp719
sS'<highly>'
p720
(I16
g2
(g6
S'\xb6h0\xe6^\x1a:?'
p721
tp722
Rp723
g2
(g6
S'.92\x88\xb5\x17:?'
p724
tp725
Rp726
tp727
sS'<terribly>'
p728
(I84
g2
(g6
S'\xb6h0\xe6^\x1a:?'
p729
tp730
Rp731
g2
(g6
S'.92\x88\xb5\x17:?'
p732
tp733
Rp734
tp735
sS'<particularly>'
p736
(I23
g2
(g6
S'\xb6h0\xe6^\x1a:?'
p737
tp738
Rp739
g2
(g6
S'.92\x88\xb5\x17:?'
p740
tp741
Rp742
tp743
sS'<too>'
p744
(I19
g2
(g6
S'\xb6h0\xe6^\x1a:?'
p745
tp746
Rp747
g2
(g6
S'.92\x88\xb5\x17:?'
p748
tp749
Rp750
tp751
sS'<currently>'
p752
(I46
g2
(g6
S'\xb6h0\xe6^\x1a:?'
p753
tp754
Rp755
g2
(g6
S'.92\x88\xb5\x17:?'
p756
tp757
Rp758
tp759
sS'<great ,>'
p760
(I83
g2
(g6
S'\xb6h0\xe6^\x1a:?'
p761
tp762
Rp763
g2
(g6
S'.92\x88\xb5\x17:?'
p764
tp765
Rp766
tp767
sS'<awfully>'
p768
(I79
g2
(g6
S'\xb6h0\xe6^\x1a:?'
p769
tp770
Rp771
g2
(g6
S'.92\x88\xb5\x17:?'
p772
tp773
Rp774
tp775
sS'<commonly>'
p776
(I61
g2
(g6
S'\xb6h0\xe6^\x1a:?'
p777
tp778
Rp779
g2
(g6
S'.92\x88\xb5\x17:?'
p780
tp781
Rp782
tp783
sS'<either>'
p784
(I89
g2
(g6
S'\xb6h0\xe6^\x1a:?'
p785
tp786
Rp787
g2
(g6
S'.92\x88\xb5\x17:?'
p788
tp789
Rp790
tp791
sS'<beautiful ,>'
p792
(I54
g2
(g6
S'\xb6h0\xe6^\x1a:?'
p793
tp794
Rp795
g2
(g6
S'.92\x88\xb5\x17:?'
p796
tp797
Rp798
tp799
sS'<legally>'
p800
(I58
g2
(g6
S'\xb6h0\xe6^\x1a:?'
p801
tp802
Rp803
g2
(g6
S'.92\x88\xb5\x17:?'
p804
tp805
Rp806
tp807
s.