(dp0
S'<wonderful ,>'
p1
I180
sS'<large>'
p2
I200
sS'<friendly>'
p3
I264
sS'<personally>'
p4
I288
sS'<hardly>'
p5
I121
sS'<closely>'
p6
I76
sS'<immensely>'
p7
I375
sS'<culturally>'
p8
I199
sS'<critically>'
p9
I128
sS'<clean ,>'
p10
I272
sS'<afraid of>'
p11
I109
sS'<often>'
p12
I158
sS'<scared>'
p13
I194
sS'<scientifically>'
p14
I316
sS'<satisfactory>'
p15
I398
sS'<glaringly>'
p16
I263
sS'<twice as>'
p17
I355
sS'<surprisingly>'
p18
I254
sS'<brutally>'
p19
I304
sS'<south>'
p20
I233
sS'<presently>'
p21
I303
sS'<undoubtedly>'
p22
I354
sS'<professionally>'
p23
I315
sS'<adversely>'
p24
I232
sS'<all too>'
p25
I339
sS'<something>'
p26
I104
sS'<regularly>'
p27
I189
sS'<perfectly>'
p28
I19
sS'<firmly>'
p29
I241
sS'<only>'
p30
I20
sS'<grossly>'
p31
I363
sS'<the>'
p32
I93
sS'<specially>'
p33
I148
sS'<exactly>'
p34
I117
sS'<honest with>'
p35
I82
sS'<hugely>'
p36
I319
sS'<most>'
p37
I3
sS'<once>'
p38
I353
sS'<constantly>'
p39
I170
sS'<nothing>'
p40
I181
sS'<surely>'
p41
I234
sS'<long>'
p42
I74
sS'<ever>'
p43
I53
sS'<any>'
p44
I37
sS'<also>'
p45
I244
sS'<smaller>'
p46
I302
sS'<especially>'
p47
I81
sS'<okay with>'
p48
I301
sS'<rock>'
p49
I374
sS'<continuously>'
p50
I338
sS'<thus>'
p51
I396
sS'<incredibly>'
p52
I70
sS'<entirely>'
p53
I41
sS'<above>'
p54
I89
sS'<kinda>'
p55
I86
sS'<maximum>'
p56
I373
sS'<lower>'
p57
I372
sS'<universally>'
p58
I226
sS'<tremendously>'
p59
I253
sS'<alarmingly>'
p60
I116
sS'<economically>'
p61
I42
sS'<fairly>'
p62
I44
sS'<previously>'
p63
I60
sS'<indeed>'
p64
I361
sS'<reasonably>'
p65
I54
sS'<structurally>'
p66
I352
sS'<manifestly>'
p67
I215
sS'<even more>'
p68
I157
sS'<less>'
p69
I23
sS'<primarily>'
p70
I351
sS'<worried about>'
p71
I64
sS'<goddamn>'
p72
I243
sS'<increasingly>'
p73
I55
sS'<painfully>'
p74
I370
sS'<fastest>'
p75
I395
sS'<quick>'
p76
I186
sS'<bit>'
p77
I271
sS'<rather>'
p78
I14
sS'<where>'
p79
I92
sS'<some>'
p80
I270
sS'<nevertheless>'
p81
I262
sS'<reasonable>'
p82
I300
sS'<sufficiently>'
p83
I65
sS'<exceptionally>'
p84
I72
sS'<even>'
p85
I31
sS'<east>'
p86
I225
sS'<less than>'
p87
I224
sS'<be>'
p88
I314
sS'<altogether>'
p89
I369
sS'<purely>'
p90
I287
sS'<a few>'
p91
I394
sS'<currently>'
p92
I45
sS'<sadly>'
p93
I368
sS'<practically>'
p94
I127
sS'<all that>'
p95
I169
sS'<otherwise>'
p96
I49
sS'<now>'
p97
I137
sS'<crucially>'
p98
I152
sS'<a great>'
p99
I223
sS'<guys>'
p100
I261
sS"<fuckin '>"
p101
I269
sS'<all>'
p102
I10
sS'<a little>'
p103
I28
sS'<available for>'
p104
I136
sS'<naturally>'
p105
I165
sS'<current>'
p106
I334
sS'<historically>'
p107
I393
sS'<adequately>'
p108
I367
sS'<so fucking>'
p109
I188
sS'<financially>'
p110
I87
sS'<wicked>'
p111
I286
sS'<member>'
p112
I350
sS'<more>'
p113
I6
sS'<distinctly>'
p114
I337
sS'<somewhat>'
p115
I32
sS'<poorly>'
p116
I222
sS'<just>'
p117
I8
sS'<badly>'
p118
I366
sS'<totally>'
p119
I15
sS'<clearly>'
p120
I27
sS'<any more>'
p121
I313
sS'<newly>'
p122
I48
sS'<sweet ,>'
p123
I392
sS'<patently>'
p124
I83
sS'<inherently>'
p125
I312
sS'<utterly>'
p126
I126
sS'<permanently>'
p127
I349
sS'<sure this is>'
p128
I336
sS'<fair>'
p129
I99
sS'<truly>'
p130
I33
sS'<sufficient>'
p131
I365
sS'<yet>'
p132
I108
sS'<awful>'
p133
I391
sS'<immediately>'
p134
I154
sS'<mutually>'
p135
I35
sS'<almost>'
p136
I36
sS'<possible>'
p137
I164
sS'<broadly>'
p138
I69
sS'<fantastic ,>'
p139
I299
sS'<prohibitively>'
p140
I268
sS'<crystal>'
p141
I176
sS'<vitally>'
p142
I80
sS'<nonetheless>'
p143
I285
sS'<right ,>'
p144
I105
sS'<cool with>'
p145
I390
sS'<worst>'
p146
I252
sS'<longer>'
p147
I221
sS'<deeply>'
p148
I66
sS'<long ,>'
p149
I335
sS'<then>'
p150
I284
sS'<so nice to>'
p151
I323
sS'<visually>'
p152
I298
sS'<overly>'
p153
I153
sS'<geographically>'
p154
I179
sS'<kind of>'
p155
I34
sS'<equally>'
p156
I91
sS'<cost>'
p157
I98
sS'<north>'
p158
I206
sS'<this>'
p159
I73
sS'<several>'
p160
I220
sS'<virtually>'
p161
I132
sS'<glad to see>'
p162
I322
sS'<warm>'
p163
I348
sS'<socially>'
p164
I143
sS'<extraordinarily>'
p165
I94
sS'<two feet>'
p166
I295
sS'<person>'
p167
I321
sS'<actively>'
p168
I175
sS'<plain>'
p169
I219
sS'<first>'
p170
I242
sS'<easily>'
p171
I67
sS'<two>'
p172
I260
sS'<wholly>'
p173
I198
sS'<open to the>'
p174
I259
sS'<cold in>'
p175
I347
sS'<internally>'
p176
I205
sS'<fine ,>'
p177
I145
sS'<duly>'
p178
I178
sS'<exceedingly>'
p179
I346
sS'<commercially>'
p180
I125
sS'<strongest>'
p181
I297
sS'<terribly>'
p182
I97
sS'<ecologically>'
p183
I130
sS'<too>'
p184
I22
sS'<heavily>'
p185
I240
sS'<disgusting ,>'
p186
I239
sS'<higher>'
p187
I174
sS'<very well>'
p188
I214
sS'<downright>'
p189
I356
sS'<wide>'
p190
I213
sS'<so much>'
p191
I245
sS'<still>'
p192
I56
sS'<damned>'
p193
I362
sS'<rarely>'
p194
I122
sS'<generally>'
p195
I43
sS'<strongly>'
p196
I177
sS'<a bit>'
p197
I63
sS'<many>'
p198
I163
sS'<kind>'
p199
I389
sS'<mentally>'
p200
I119
sS'<too fucking>'
p201
I345
sS'<way>'
p202
I320
sS'<officially>'
p203
I193
sS'<over>'
p204
I388
sS'<mighty>'
p205
I168
sS'<therefore>'
p206
I29
sS'<already>'
p207
I61
sS'<readily>'
p208
I46
sS'<fucking>'
p209
I68
sS'<emotionally>'
p210
I251
sS'<fully>'
p211
I30
sS'<quite>'
p212
I5
sS'<gonna be all>'
p213
I296
sS'<unsustainably>'
p214
I364
sS'<essentially>'
p215
I344
sS'<gonna be>'
p216
I310
sS'<wherever>'
p217
I309
sS'<dead>'
p218
I162
sS'<physically>'
p219
I102
sS'<best>'
p220
I115
sS'<mostly>'
p221
I397
sS'<extremely>'
p222
I11
sS'<relatively>'
p223
I18
sS'<simply>'
p224
I114
sS'<is weaker than>'
p225
I0
sS'<lot>'
p226
I159
sS'<bad ,>'
p227
I267
sS'<good ,>'
p228
I283
sS'<all the more>'
p229
I197
sS'<single>'
p230
I111
sS'<greatest>'
p231
I133
sS'<largely>'
p232
I250
sS'<just as>'
p233
I282
sS'<better ,>'
p234
I343
sS'<other>'
p235
I161
sS'<completely>'
p236
I16
sS'<absolutely>'
p237
I9
sS'<how>'
p238
I85
sS'<anywhere>'
p239
I231
sS'<recently>'
p240
I124
sS'<marginally>'
p241
I333
sS'<severely>'
p242
I281
sS'<half>'
p243
I167
sS'<nice>'
p244
I135
sS'<disproportionately>'
p245
I230
sS'<environmentally>'
p246
I39
sS'<suitably>'
p247
I280
sS'<damn>'
p248
I217
sS'<right>'
p249
I103
sS'<strong>'
p250
I192
sS'<widest>'
p251
I196
sS'<deliberately>'
p252
I387
sS'<tough>'
p253
I258
sS'<little>'
p254
I59
sS'<old>'
p255
I386
sS'<fullest>'
p256
I308
sS'<whole>'
p257
I318
sS'<excessively>'
p258
I191
sS'<hard>'
p259
I166
sS'<formally>'
p260
I279
sS'<so very>'
p261
I113
sS'<as>'
p262
I12
sS'<better>'
p263
I147
sS'<insanely>'
p264
I266
sS'<morally>'
p265
I278
sS'<jointly>'
p266
I265
sS'<considerably>'
p267
I216
sS'<fundamentally>'
p268
I185
sS'<earliest>'
p269
I385
sS'<effective ,>'
p270
I277
sS'<abundantly>'
p271
I96
sS'<that>'
p272
I21
sS'<somewhere>'
p273
I184
sS'<years>'
p274
I317
sS'<nice ,>'
p275
I325
sS'<operationally>'
p276
I249
sS'<ready to go>'
p277
I237
sS'<simple>'
p278
I156
sS'<broadest>'
p279
I187
sS'<self>'
p280
I134
sS'<statistically>'
p281
I324
sS'<safer and more>'
p282
I384
sS'<second>'
p283
I173
sS'<frequently>'
p284
I107
sS'<different from each>'
p285
I360
sS'<publicly>'
p286
I52
sS'<basically>'
p287
I332
sS'<responsible>'
p288
I211
sS'<highly>'
p289
I17
sS'<good>'
p290
I129
sS'<nearly>'
p291
I160
sS'<seriously>'
p292
I204
sS'<desperately>'
p293
I294
sS'<shortest>'
p294
I331
sS'<such>'
p295
I151
sS'<scared of>'
p296
I342
sS'<temporarily>'
p297
I330
sS'<great>'
p298
I210
sS'<great ,>'
p299
I88
sS'<awfully>'
p300
I100
sS'<either>'
p301
I101
sS'<slightly>'
p302
I123
sS'<perfect ,>'
p303
I293
sS'<fast>'
p304
I203
sS'<carefully>'
p305
I218
sS'<important>'
p306
I238
sS'<away>'
p307
I383
sS'<just so>'
p308
I40
sS'<about>'
p309
I75
sS'<technically>'
p310
I209
sS'<medically>'
p311
I208
sS'<ready to>'
p312
I57
sS'<sounds>'
p313
I236
sS'<comparatively>'
p314
I212
sS'<as simple as>'
p315
I248
sS'<plainly>'
p316
I307
sS'<a lot>'
p317
I95
sS'<aii>'
p318
I359
sS'<very>'
p319
I1
sS'<solid>'
p320
I341
sS'<strictly>'
p321
I142
sS'<anything>'
p322
I306
sS'<west>'
p323
I382
sS'<more widely>'
p324
I381
sS'<close to being>'
p325
I202
sS'<specifically>'
p326
I195
sS'<greater>'
p327
I150
sS'<appropriately>'
p328
I235
sS'<one>'
p329
I172
sS'<definitely>'
p330
I276
sS'<sort of>'
p331
I358
sS'<and>'
p332
I182
sS'<allegedly>'
p333
I275
sS'<much>'
p334
I25
sS'<lowest>'
p335
I274
sS'<properly>'
p336
I79
sS'<easy>'
p337
I138
sS'<far>'
p338
I47
sS'<close>'
p339
I131
sS'<openly>'
p340
I291
sS'<crazy>'
p341
I110
sS'<eastern>'
p342
I380
sS'<unacceptably>'
p343
I112
sS'<perhaps>'
p344
I305
sS'<bloody>'
p345
I141
sS'<open to>'
p346
I84
sS'<so>'
p347
I2
sS'<significantly>'
p348
I118
sS'<gonna>'
p349
I183
sS'<bad>'
p350
I257
sS'<at all>'
p351
I229
sS'<merely>'
p352
I292
sS'<sorry ,>'
p353
I71
sS'<enormously>'
p354
I90
sS'<the least bit>'
p355
I379
sS'<widely>'
p356
I38
sS'<well>'
p357
I13
sS'<politically>'
p358
I201
sS'<as beautiful as>'
p359
I228
sS'<hereby>'
p360
I155
sS'<perry ,>'
p361
I371
sS'<potentially>'
p362
I58
sS'<nice to>'
p363
I144
sS'<further>'
p364
I149
sS'<largest>'
p365
I357
sS'<hiv>'
p366
I311
sS'<much more>'
p367
I140
sS'<obviously>'
p368
I399
sS'<pretty>'
p369
I7
sS'<moderately>'
p370
I329
sS'<no>'
p371
I78
sS'<directly>'
p372
I146
sS'<excellent ,>'
p373
I227
sS'<nathan ,>'
p374
I328
sS'<glamorous>'
p375
I340
sS'<intensely>'
p376
I247
sS'<precisely>'
p377
I273
sS'<internationally>'
p378
I139
sS'<big>'
p379
I327
sS'<happy to see>'
p380
I378
sS'<highest>'
p381
I207
sS'<real>'
p382
I26
sS'<least>'
p383
I77
sS'<really>'
p384
I4
sS'<here>'
p385
I120
sS'<so sure about>'
p386
I377
sS'<remarkably>'
p387
I190
sS'<warm in>'
p388
I376
sS'<particularly>'
p389
I24
sS'<freely>'
p390
I246
sS'<high>'
p391
I171
sS'<commonly>'
p392
I51
sS'<urgently>'
p393
I106
sS'<big ,>'
p394
I290
sS'<beautiful ,>'
p395
I62
sS'<legally>'
p396
I50
sS'<substantially>'
p397
I256
sS'<materially>'
p398
I326
sS'<usually>'
p399
I289
sS'<user>'
p400
I255
s.