(dp0
I0
(lp1
(S'large'
p2
S'larger'
p3
tp4
asI2
(lp5
(S'easy'
p6
S'easier'
p7
tp8
asI6
(lp9
(S'close'
p10
S'closer'
p11
tp12
asI7
(lp13
(S'bright'
p14
S'brighter'
p15
tp16
asI10
(lp17
(S'cool'
p18
S'cooler'
p19
tp20
asI11
(lp21
(S'slow'
p22
S'slower'
p23
tp24
asI12
(lp25
(S'good'
p26
S'great'
p27
tp28
asI13
(lp29
(S'long'
p30
S'longer'
p31
tp32
asI15
(lp33
(S'hot'
p34
S'hotter'
p35
tp36
asI21
(lp37
(S'pretty'
p38
S'prettier'
p39
tp40
asI22
(lp41
(S'rich'
p42
S'richer'
p43
tp44
asI23
(lp45
(S'happy'
p46
S'happier'
p47
tp48
asI26
(lp49
(S'safe'
p50
S'safer'
p51
tp52
asI32
(lp53
(S'heavy'
p54
S'heavier'
p55
tp56
asI34
(lp57
(S'weak'
p58
S'weaker'
p59
tp60
asI35
(lp61
(S'far'
p62
S'further'
p63
tp64
asI36
(lp65
(S'strange'
p66
S'stranger'
p67
tp68
asI37
(lp69
(S'far'
p70
S'farther'
p71
tp72
asI40
(lp73
(S'old'
p74
S'older'
p75
tp76
asI41
(lp77
(S'simple'
p78
S'simpler'
p79
tp80
asI44
(lp81
(S'few'
p82
S'fewer'
p83
tp84
asI47
(lp85
(S'low'
p86
S'lower'
p87
tp88
asI48
(lp89
(S'nice'
p90
S'nicer'
p91
tp92
asI50
(lp93
(S'cold'
p94
S'colder'
p95
tp96
asI51
(lp97
(S'rare'
p98
S'rarer'
p99
tp100
asI55
(lp101
(S'much'
p102
S'more'
p103
tp104
asI57
(lp105
(S'fast'
p106
S'faster'
p107
tp108
asI58
(lp109
(S'deep'
p110
S'deeper'
p111
tp112
asI65
(lp113
(S'little'
p114
S'less'
p115
tp116
asI66
(lp117
(S'tough'
p118
S'tougher'
p119
tp120
asI67
(lp121
(S'quiet'
p122
S'quieter'
p123
tp124
asI69
(lp125
(S'healthy'
p126
S'healthier'
p127
tp128
asI70
(lp129
(S'wide'
p130
S'wider'
p131
tp132
asI73
(lp133
(S'busy'
p134
S'busier'
p135
tp136
asI77
(lp137
(S'short'
p138
S'shorter'
p139
tp140
asI78
(lp141
(S'hard'
p142
S'harder'
p143
tp144
asI82
(lp145
(S'high'
p146
S'higher'
p147
tp148
asI83
(lp149
(S'bad'
p150
S'worse'
p151
tp152
asI85
(lp153
(S'thin'
p154
S'thinner'
p155
tp156
asI87
(lp157
(S'quick'
p158
S'quicker'
p159
tp160
asI88
(lp161
(S'tall'
p162
S'taller'
p163
tp164
asI90
(lp165
(S'true'
p166
S'truer'
p167
tp168
asI92
(lp169
(S'big'
p170
S'bigger'
p171
tp172
asI94
(lp173
(S'clear'
p174
S'clearer'
p175
tp176
asI96
(lp177
(S'young'
p178
S'younger'
p179
tp180
asI98
(lp181
(S'smart'
p182
S'smarter'
p183
tp184
asI103
(lp185
(S'warm'
p186
S'warmer'
p187
tp188
asI107
(lp189
(S'poor'
p190
S'poorer'
p191
tp192
asI111
(lp193
(S'great'
p194
S'greater'
p195
tp196
asI115
(lp197
(S'strong'
p198
S'stronger'
p199
tp200
asI118
(lp201
(S'cheap'
p202
S'cheaper'
p203
tp204
asI120
(lp205
(S'good'
p206
S'better'
p207
tp208
asI125
(lp209
(S'small'
p210
S'smaller'
p211
tp212
asI131
(lp213
(S'loud'
p214
S'louder'
p215
tp216
asI169
(lp217
(S'younger'
p218
S'youngest'
p219
tp220
asI182
(lp221
(S'great'
p222
S'greatest'
p223
tp224
asI196
(lp225
(S'much'
p226
S'most'
p227
tp228
asI208
(lp229
(S'good'
p230
S'excellent'
p231
tp232
asI212
(lp233
(S'many'
p234
S'most'
p235
tp236
asI216
(lp237
(S'bad'
p238
S'worst'
p239
tp240
asI218
(lp241
(S'good'
p242
S'best'
p243
tp244
asI222
(lp245
(S'fast'
p246
S'fastest'
p247
tp248
asI230
(lp249
(S'high'
p250
S'highest'
p251
tp252
asI235
(lp253
(S'strong'
p254
S'strongest'
p255
tp256
asI238
(lp257
(S'little'
p258
S'less'
p259
tp260
asI241
(lp261
(S'bright'
p262
S'brighter'
p263
tp264
asI242
(lp265
(S'heavy'
p266
S'heavier'
p267
tp268
asI244
(lp269
(S'small'
p270
S'smaller'
p271
tp272
asI246
(lp273
(S'smart'
p274
S'smarter'
p275
tp276
asI247
(lp277
(S'cheap'
p278
S'cheaper'
p279
tp280
asI248
(lp281
(S'big'
p282
S'bigger'
p283
tp284
asI249
(lp285
(S'warm'
p286
S'warmer'
p287
tp288
asI250
(lp289
(S'far'
p290
S'further'
p291
tp292
asI251
(lp293
(S'close'
p294
S'closer'
p295
tp296
asI253
(lp297
(S'poor'
p298
S'poorer'
p299
tp300
asI254
(lp301
(S'rare'
p302
S'rarer'
p303
tp304
asI255
(lp305
(S'safe'
p306
S'safer'
p307
tp308
asI256
(lp309
(S'simple'
p310
S'simpler'
p311
tp312
asI257
(lp313
(S'large'
p314
S'larger'
p315
tp316
asI258
(lp317
(S'great'
p318
S'greatest'
p319
tp320
a(g318
S'greater'
p321
tp322
asI261
(lp323
(S'quick'
p324
S'quicker'
p325
tp326
asI262
(lp327
(S'wide'
p328
S'wider'
p329
tp330
asI264
(lp331
(S'deep'
p332
S'deeper'
p333
tp334
asI265
(lp335
(S'young'
p336
S'younger'
p337
tp338
a(g337
S'youngest'
p339
tp340
asI268
(lp341
(S'long'
p342
S'longer'
p343
tp344
asI270
(lp345
(S'hard'
p346
S'harder'
p347
tp348
asI271
(lp349
(S'rich'
p350
S'richer'
p351
tp352
asI274
(lp353
(S'weak'
p354
S'weaker'
p355
tp356
asI276
(lp357
(S'short'
p358
S'shorter'
p359
tp360
asI277
(lp361
(S'high'
p362
S'highest'
p363
tp364
a(g362
S'higher'
p365
tp366
asI279
(lp367
(S'clear'
p368
S'clearer'
p369
tp370
asI280
(lp371
(S'low'
p372
S'lower'
p373
tp374
asI281
(lp375
(S'happy'
p376
S'happier'
p377
tp378
asI282
(lp379
(S'fast'
p380
S'fastest'
p381
tp382
a(g380
S'faster'
p383
tp384
asI283
(lp385
(S'old'
p386
S'older'
p387
tp388
asI284
(lp389
(S'strong'
p390
S'strongest'
p391
tp392
a(g390
S'stronger'
p393
tp394
as.