(dp0
I0
(lp1
(S'small'
p2
S'minute'
p3
tp4
a(g2
S'miniscule'
p5
tp6
asI1
(lp7
(S'upset'
p8
S'angry'
p9
tp10
a(g9
S'enraged'
p11
tp12
a(g8
g11
tp13
asI2
(lp14
(S'positive'
p15
S'terrific'
p16
tp17
asI3
(lp18
(S'valuable'
p19
S'immeasurable'
p20
tp21
asI4
(lp22
(S'useful'
p23
S'valuable'
p24
tp25
a(g23
S'worthwhile'
p26
tp27
a(g26
g24
tp28
asI5
(lp29
(S'functioning'
p30
S'efficient'
p31
tp32
asI6
(lp33
(S'low'
p34
S'scarce'
p35
tp36
a(S'limited'
p37
g35
tp38
asI7
(lp39
(S'cute'
p40
S'pretty'
p41
tp42
a(g40
S'lovely'
p43
tp44
a(g40
S'lovelier'
p45
tp46
a(g41
g43
tp47
a(g41
S'breathtaking'
p48
tp49
a(g41
g45
tp50
a(g43
g48
tp51
a(g43
g45
tp52
asI8
(lp53
(S'costly'
p54
S'expensive'
p55
tp56
a(g55
S'exorbitant'
p57
tp58
a(g54
g57
tp59
asI9
(lp60
(S'lousy'
p61
S'horrible'
p62
tp63
a(g61
S'miserable'
p64
tp65
a(g64
g62
tp66
asI10
(lp67
(S'fine'
p68
S'good'
p69
tp70
a(S'adequate'
p71
g69
tp72
asI11
(lp73
(S'bad'
p74
S'ludicrous'
p75
tp76
asI12
(lp77
(S'relevant'
p78
S'necessary'
p79
tp80
a(S'useful'
p81
g78
tp82
a(g81
g79
tp83
asI13
(lp84
(S'satisfactory'
p85
S'excellent'
p86
tp87
a(S'fine'
p88
g86
tp89
asI14
(lp90
(S'uncomfortable'
p91
S'embarrassing'
p92
tp93
asI15
(lp94
(S'big'
p95
S'substantial'
p96
tp97
a(g95
S'tremendous'
p98
tp99
a(g95
S'staggering'
p100
tp101
a(g96
g98
tp102
a(g96
g100
tp103
asI16
(lp104
(S'clear'
p105
S'accurate'
p106
tp107
a(g105
S'precise'
p108
tp109
a(g105
S'exact'
p110
tp111
a(g106
g108
tp112
a(g106
g110
tp113
a(g108
g110
tp114
asI17
(lp115
(S'happy'
p116
S'excited'
p117
tp118
a(S'pleased'
p119
g116
tp120
a(g116
S'overwhelmed'
p121
tp122
a(g116
S'delighted'
p123
tp124
a(g119
g117
tp125
a(g117
g121
tp126
a(g117
g123
tp127
a(g119
g123
tp128
asI18
(lp129
(S'horrific'
p130
S'horrendous'
p131
tp132
a(S'bad'
p133
g131
tp134
asI19
(lp135
(S'qualified'
p136
S'excellent'
p137
tp138
a(g136
S'outstanding'
p139
tp140
a(g137
g139
tp141
asI20
(lp142
(S'high'
p143
S'higher'
p144
tp145
asI21
(lp146
(S'fine'
p147
S'spectacular'
p148
tp149
a(g147
S'remarkable'
p150
tp151
asI22
(lp152
(S'appropriate'
p153
S'perfect'
p154
tp155
a(S'fine'
p156
g153
tp157
a(S'okay'
p158
g153
tp159
a(g156
g154
tp160
a(g158
g154
tp161
a(S'faultless'
p162
g154
tp163
a(S'a-okay'
p164
g154
tp165
a(g158
g156
tp166
a(g156
g162
tp167
a(g164
g158
tp168
asI23
(lp169
(S'critical'
p170
S'life-threatening'
p171
tp172
a(S'graver'
p173
g170
tp174
asI24
(lp175
(S'odd'
p176
S'bizarre'
p177
tp178
asI25
(lp179
(S'unfortunate'
p180
S'reprehensible'
p181
tp182
asI27
(lp183
(S'pleased'
p184
S'delighted'
p185
tp186
asI29
(lp187
(S'efficient'
p188
S'optimum'
p189
tp190
asI30
(lp191
(S'satisfactory'
p192
S'appropriate'
p193
tp194
a(g193
S'excellent'
p195
tp196
a(S'fine'
p197
g193
tp198
a(g192
g195
tp199
a(g197
g195
tp200
asI31
(lp201
(S'clear'
p202
S'prominent'
p203
tp204
asI33
(lp205
(S'capable'
p206
S'qualified'
p207
tp208
a(g207
S'skilled'
p209
tp210
a(g207
S'proficient'
p211
tp212
a(g206
g209
tp213
a(g206
g211
tp214
a(g211
g209
tp215
asI34
(lp216
(S'okay'
p217
S'marvelous'
p218
tp219
a(g217
S'incredible'
p220
tp221
a(g217
S'awesome'
p222
tp223
a(g217
S'terrific'
p224
tp225
a(g220
g218
tp226
a(g222
g218
tp227
a(g224
g218
tp228
a(g222
g220
tp229
a(g224
g220
tp230
a(g224
g222
tp231
asI36
(lp232
(S'satisfied'
p233
S'content'
p234
tp235
a(g233
S'pleased'
p236
tp237
asI37
(lp238
(S'fine'
p239
S'good'
p240
tp241
a(S'fitting'
p242
g240
tp243
a(S'adequate'
p244
g240
tp245
a(g242
g239
tp246
asI38
(lp247
(S'poor'
p248
S'indigent'
p249
tp250
a(g248
S'bankrupt'
p251
tp252
asI39
(lp253
(S'pretty'
p254
S'spectacular'
p255
tp256
a(g254
S'marvellous'
p257
tp258
a(g254
S'breathtaking'
p259
tp260
asI40
(lp261
(S'considerable'
p262
S'abundant'
p263
tp264
asI41
(lp265
(S'fine'
p266
S'remarkable'
p267
tp268
a(g266
S'impressive'
p269
tp270
a(g267
g269
tp271
asI42
(lp272
(S'fine'
p273
S'upstanding'
p274
tp275
a(g273
S'admirable'
p276
tp277
asI43
(lp278
(S'bad'
p279
S'distressing'
p280
tp281
asI44
(lp282
(S'much'
p283
S'huge'
p284
tp285
a(g283
S'excessive'
p286
tp287
asI45
(lp288
(S'scary'
p289
S'terrifying'
p290
tp291
a(S'frightening'
p292
g289
tp293
a(g292
g290
tp294
asI46
(lp295
(S'rigorous'
p296
S'stringent'
p297
tp298
a(S'tough'
p299
g297
tp300
a(S'tougher'
p301
g297
tp302
a(g296
S'severe'
p303
tp304
a(g299
g303
tp305
a(g301
g303
tp306
a(g299
g296
tp307
a(g301
g296
tp308
a(g299
g301
tp309
asI47
(lp310
(S'low'
p311
S'scarce'
p312
tp313
a(S'limited'
p314
g312
tp315
asI48
(lp316
(S'good'
p317
S'remarkable'
p318
tp319
a(g317
S'perfect'
p320
tp321
a(g317
S'exceptional'
p322
tp323
a(g317
S'better'
p324
tp325
a(g318
g322
tp326
asI49
(lp327
(S'little'
p328
S'least'
p329
tp330
a(S'few'
p331
g329
tp332
asI50
(lp333
(S'unhappy'
p334
S'sad'
p335
tp336
a(g335
S'miserable'
p337
tp338
a(g334
g337
tp339
asI51
(lp340
(S'competent'
p341
S'impressive'
p342
tp343
asI52
(lp344
(S'relevant'
p345
S'crucial'
p346
tp347
asI53
(lp348
(S'effective'
p349
S'potent'
p350
tp351
asI54
(lp352
(S'general'
p353
S'broader'
p354
tp355
a(g354
S'diverse'
p356
tp357
a(S'wide-ranging'
p358
g356
tp359
a(S'broad'
p360
g354
tp361
a(g360
g358
tp362
a(g354
g358
tp363
asI55
(lp364
(S'expensive'
p365
S'excessive'
p366
tp367
a(S'costly'
p368
g365
tp369
a(g365
S'exorbitant'
p370
tp371
a(g368
g370
tp372
asI56
(lp373
(S'big'
p374
S'substantial'
p375
tp376
a(g374
S'major'
p377
tp378
a(g374
S'tremendous'
p379
tp380
a(g374
S'staggering'
p381
tp382
a(g377
g375
tp383
a(g375
g379
tp384
a(g375
g381
tp385
a(g377
g379
tp386
asI57
(lp387
(S'sizeable'
p388
S'major'
p389
tp390
a(S'huge'
p391
g389
tp392
a(g389
S'overwhelming'
p393
tp394
a(g389
S'immense'
p395
tp396
a(g389
S'formidable'
p397
tp398
a(g389
S'tremendous'
p399
tp400
a(g389
S'colossal'
p401
tp402
a(g388
g399
tp403
a(g391
g393
tp404
a(g391
g395
tp405
a(g391
g397
tp406
a(g391
g399
tp407
a(g399
g393
tp408
a(g397
g399
tp409
asI58
(lp410
(S'well'
p411
S'perfect'
p412
tp413
a(S'fine'
p414
g411
tp415
a(g411
S'awesome'
p416
tp417
a(g411
S'terrific'
p418
tp419
a(g414
g412
tp420
a(g418
g412
tp421
a(g414
g416
tp422
a(g414
g418
tp423
a(g418
g416
tp424
asI59
(lp425
(S'little'
p426
S'feeble'
p427
tp428
asI60
(lp429
(S'poor'
p430
S'unsatisfactory'
p431
tp432
a(g430
S'incorrect'
p433
tp434
a(S'improper'
p435
g430
tp436
asI61
(lp437
(S'unusual'
p438
S'rare'
p439
tp440
asI62
(lp441
(S'sizeable'
p442
S'big'
p443
tp444
a(g443
S'enormous'
p445
tp446
a(g443
S'huge'
p447
tp448
a(g443
S'tremendous'
p449
tp450
a(g443
S'immense'
p451
tp452
a(g442
g445
tp453
a(g442
g449
tp454
a(g447
g445
tp455
a(g449
g445
tp456
a(g451
g445
tp457
a(g447
g449
tp458
a(g447
g451
tp459
asI63
(lp460
(S'weak'
p461
S'vulnerable'
p462
tp463
a(S'shaky'
p464
g462
tp465
a(g461
g464
tp466
asI64
(lp467
(S'few'
p468
S'limited'
p469
tp470
a(g468
S'scant'
p471
tp472
a(g468
S'meagre'
p473
tp474
asI65
(lp475
(S'small'
p476
S'minute'
p477
tp478
a(g476
S'miniscule'
p479
tp480
asI66
(lp481
(S'general'
p482
S'universal'
p483
tp484
a(g482
S'global'
p485
tp486
a(S'commonplace'
p487
g482
tp488
asI67
(lp489
(S'awful'
p490
S'dreadful'
p491
tp492
asI68
(lp493
(S'low'
p494
S'inadequate'
p495
tp496
a(g494
S'unacceptable'
p497
tp498
a(g494
S'scarce'
p499
tp500
asI69
(lp501
(S'little'
p502
S'tiny'
p503
tp504
asI70
(lp505
(S'tenacious'
p506
S'tough'
p507
tp508
a(S'hardworking'
p509
g507
tp510
asI71
(lp511
(S'cute'
p512
S'gorgeous'
p513
tp514
asI72
(lp515
(S'known'
p516
S'noteworthy'
p517
tp518
a(g516
S'celebrated'
p519
tp520
asI74
(lp521
(S'big'
p522
S'extensive'
p523
tp524
a(g522
S'vast'
p525
tp526
a(g525
g523
tp527
asI75
(lp528
(S'hard'
p529
S'problematic'
p530
tp531
asI76
(lp532
(S'annoying'
p533
S'obnoxious'
p534
tp535
asI77
(lp536
(S'sad'
p537
S'terrible'
p538
tp539
a(g537
S'miserable'
p540
tp541
a(g540
g538
tp542
asI78
(lp543
(S'fair'
p544
S'beautiful'
p545
tp546
a(S'fairer'
p547
g545
tp548
a(g544
S'fairest'
p549
tp550
a(g544
g547
tp551
as.