(dp0
I0
(lp1
(S'small'
p2
S'minute'
p3
tp4
a(g2
S'miniscule'
p5
tp6
asI1
(lp7
(S'upset'
p8
S'angry'
p9
tp10
a(g8
S'enraged'
p11
tp12
a(g9
g11
tp13
asI2
(lp14
(S'positive'
p15
S'terrific'
p16
tp17
asI3
(lp18
(S'valuable'
p19
S'immeasurable'
p20
tp21
asI4
(lp22
(S'useful'
p23
S'valuable'
p24
tp25
a(g23
S'worthwhile'
p26
tp27
a(g26
g24
tp28
asI5
(lp29
(S'functioning'
p30
S'efficient'
p31
tp32
asI6
(lp33
(S'low'
p34
S'scarce'
p35
tp36
a(S'limited'
p37
g35
tp38
asI7
(lp39
(S'cute'
p40
S'pretty'
p41
tp42
a(g40
S'lovely'
p43
tp44
a(g40
S'lovelier'
p45
tp46
a(g41
g43
tp47
a(g41
S'breathtaking'
p48
tp49
a(g41
g45
tp50
a(g43
g48
tp51
a(g43
g45
tp52
asI8
(lp53
(S'costly'
p54
S'expensive'
p55
tp56
a(g55
S'exorbitant'
p57
tp58
a(g54
g57
tp59
asI9
(lp60
(S'lousy'
p61
S'horrible'
p62
tp63
a(g61
S'miserable'
p64
tp65
a(g64
g62
tp66
asI10
(lp67
(S'fine'
p68
S'good'
p69
tp70
a(S'adequate'
p71
g69
tp72
asI11
(lp73
(S'bad'
p74
S'ludicrous'
p75
tp76
asI12
(lp77
(S'useful'
p78
S'necessary'
p79
tp80
a(g78
S'relevant'
p81
tp82
a(g81
g79
tp83
asI13
(lp84
(S'satisfactory'
p85
S'excellent'
p86
tp87
a(S'fine'
p88
g86
tp89
asI14
(lp90
(S'uncomfortable'
p91
S'embarrassing'
p92
tp93
asI15
(lp94
(S'big'
p95
S'substantial'
p96
tp97
a(g95
S'tremendous'
p98
tp99
a(g95
S'staggering'
p100
tp101
a(g96
g98
tp102
a(g96
g100
tp103
asI16
(lp104
(S'clear'
p105
S'precise'
p106
tp107
a(g105
S'accurate'
p108
tp109
a(g105
S'exact'
p110
tp111
a(g108
g106
tp112
a(g106
g110
tp113
a(g108
g110
tp114
asI17
(lp115
(S'happy'
p116
S'excited'
p117
tp118
a(S'pleased'
p119
g116
tp120
a(g116
S'overwhelmed'
p121
tp122
a(g116
S'delighted'
p123
tp124
a(g119
g117
tp125
a(g117
g121
tp126
a(g117
g123
tp127
a(g119
g123
tp128
asI18
(lp129
(S'horrific'
p130
S'horrendous'
p131
tp132
a(S'bad'
p133
g131
tp134
asI19
(lp135
(S'qualified'
p136
S'excellent'
p137
tp138
a(g136
S'outstanding'
p139
tp140
a(g137
g139
tp141
asI20
(lp142
(S'high'
p143
S'higher'
p144
tp145
asI21
(lp146
(S'fine'
p147
S'spectacular'
p148
tp149
a(g147
S'remarkable'
p150
tp151
asI22
(lp152
(S'fine'
p153
S'appropriate'
p154
tp155
a(S'okay'
p156
g154
tp157
a(g154
S'perfect'
p158
tp159
a(g156
g153
tp160
a(g153
g158
tp161
a(g153
S'faultless'
p162
tp163
a(g156
g158
tp164
a(S'a-okay'
p165
g156
tp166
a(g162
g158
tp167
a(g165
g158
tp168
asI23
(lp169
(S'critical'
p170
S'life-threatening'
p171
tp172
a(S'graver'
p173
g170
tp174
asI24
(lp175
(S'odd'
p176
S'bizarre'
p177
tp178
asI25
(lp179
(S'unfortunate'
p180
S'reprehensible'
p181
tp182
asI27
(lp183
(S'pleased'
p184
S'delighted'
p185
tp186
asI29
(lp187
(S'efficient'
p188
S'optimum'
p189
tp190
asI30
(lp191
(S'satisfactory'
p192
S'appropriate'
p193
tp194
a(g193
S'excellent'
p195
tp196
a(S'fine'
p197
g193
tp198
a(g192
g195
tp199
a(g197
g195
tp200
asI31
(lp201
(S'clear'
p202
S'prominent'
p203
tp204
asI33
(lp205
(S'capable'
p206
S'qualified'
p207
tp208
a(g207
S'skilled'
p209
tp210
a(g207
S'proficient'
p211
tp212
a(g206
g209
tp213
a(g206
g211
tp214
a(g211
g209
tp215
asI34
(lp216
(S'okay'
p217
S'awesome'
p218
tp219
a(g217
S'marvelous'
p220
tp221
a(g217
S'incredible'
p222
tp223
a(g217
S'terrific'
p224
tp225
a(g220
g218
tp226
a(g222
g218
tp227
a(g224
g218
tp228
a(g222
g220
tp229
a(g224
g220
tp230
a(g224
g222
tp231
asI36
(lp232
(S'content'
p233
S'pleased'
p234
tp235
a(S'satisfied'
p236
g234
tp237
a(g236
g233
tp238
asI37
(lp239
(S'fine'
p240
S'good'
p241
tp242
a(S'fitting'
p243
g240
tp244
a(S'adequate'
p245
g241
tp246
a(g243
g241
tp247
asI38
(lp248
(S'poor'
p249
S'indigent'
p250
tp251
a(g249
S'bankrupt'
p252
tp253
asI39
(lp254
(S'pretty'
p255
S'marvellous'
p256
tp257
a(g255
S'breathtaking'
p258
tp259
a(g255
S'spectacular'
p260
tp261
asI40
(lp262
(S'considerable'
p263
S'abundant'
p264
tp265
asI41
(lp266
(S'fine'
p267
S'remarkable'
p268
tp269
a(g267
S'impressive'
p270
tp271
a(g268
g270
tp272
asI42
(lp273
(S'fine'
p274
S'upstanding'
p275
tp276
a(g274
S'admirable'
p277
tp278
asI43
(lp279
(S'bad'
p280
S'distressing'
p281
tp282
asI44
(lp283
(S'much'
p284
S'huge'
p285
tp286
a(g284
S'excessive'
p287
tp288
asI45
(lp289
(S'frightening'
p290
S'scary'
p291
tp292
a(g291
S'terrifying'
p293
tp294
a(g290
g293
tp295
asI46
(lp296
(S'rigorous'
p297
S'stringent'
p298
tp299
a(S'tough'
p300
g298
tp301
a(S'tougher'
p302
g298
tp303
a(g297
S'severe'
p304
tp305
a(g300
g304
tp306
a(g302
g304
tp307
a(g300
g297
tp308
a(g302
g297
tp309
a(g300
g302
tp310
asI47
(lp311
(S'low'
p312
S'scarce'
p313
tp314
a(S'limited'
p315
g313
tp316
asI48
(lp317
(S'good'
p318
S'remarkable'
p319
tp320
a(g318
S'exceptional'
p321
tp322
a(g318
S'better'
p323
tp324
a(g318
S'perfect'
p325
tp326
a(g319
g321
tp327
a(g323
g325
tp328
asI49
(lp329
(S'little'
p330
S'least'
p331
tp332
a(S'few'
p333
g331
tp334
asI50
(lp335
(S'unhappy'
p336
S'sad'
p337
tp338
a(g337
S'miserable'
p339
tp340
a(g336
g339
tp341
asI51
(lp342
(S'competent'
p343
S'impressive'
p344
tp345
asI52
(lp346
(S'relevant'
p347
S'crucial'
p348
tp349
asI53
(lp350
(S'effective'
p351
S'potent'
p352
tp353
asI54
(lp354
(S'general'
p355
S'broader'
p356
tp357
a(g356
S'diverse'
p358
tp359
a(S'wide-ranging'
p360
g358
tp361
a(S'broad'
p362
g356
tp363
a(g362
g360
tp364
a(g356
g360
tp365
asI55
(lp366
(S'expensive'
p367
S'excessive'
p368
tp369
a(S'costly'
p370
g367
tp371
a(g367
S'exorbitant'
p372
tp373
a(g370
g372
tp374
asI56
(lp375
(S'big'
p376
S'substantial'
p377
tp378
a(g376
S'major'
p379
tp380
a(g376
S'tremendous'
p381
tp382
a(g376
S'staggering'
p383
tp384
a(g379
g377
tp385
a(g377
g381
tp386
a(g377
g383
tp387
a(g379
g381
tp388
asI57
(lp389
(S'sizeable'
p390
S'major'
p391
tp392
a(S'huge'
p393
g391
tp394
a(g391
S'immense'
p395
tp396
a(g391
S'formidable'
p397
tp398
a(g391
S'overwhelming'
p399
tp400
a(g391
S'tremendous'
p401
tp402
a(g391
S'colossal'
p403
tp404
a(g390
g393
tp405
a(g390
g401
tp406
a(g393
g395
tp407
a(g393
g397
tp408
a(g393
g399
tp409
a(g393
g401
tp410
a(g393
g403
tp411
a(g397
g401
tp412
a(g401
g399
tp413
asI58
(lp414
(S'well'
p415
S'fine'
p416
tp417
a(g416
S'awesome'
p418
tp419
a(g416
S'perfect'
p420
tp421
a(g416
S'terrific'
p422
tp423
a(g415
g418
tp424
a(g415
g420
tp425
a(g415
g422
tp426
a(g418
g420
tp427
a(g422
g418
tp428
a(g422
g420
tp429
asI59
(lp430
(S'little'
p431
S'feeble'
p432
tp433
asI60
(lp434
(S'poor'
p435
S'unsatisfactory'
p436
tp437
a(g435
S'incorrect'
p438
tp439
a(S'improper'
p440
g435
tp441
asI61
(lp442
(S'unusual'
p443
S'rare'
p444
tp445
asI62
(lp446
(S'sizeable'
p447
S'big'
p448
tp449
a(g448
S'enormous'
p450
tp451
a(g448
S'huge'
p452
tp453
a(g448
S'immense'
p454
tp455
a(g448
S'tremendous'
p456
tp457
a(g447
g450
tp458
a(g447
g452
tp459
a(g447
g456
tp460
a(g452
g450
tp461
a(g454
g450
tp462
a(g456
g450
tp463
a(g452
g454
tp464
a(g452
g456
tp465
asI63
(lp466
(S'weak'
p467
S'vulnerable'
p468
tp469
a(S'shaky'
p470
g468
tp471
a(g467
g470
tp472
asI64
(lp473
(S'few'
p474
S'limited'
p475
tp476
a(g474
S'scant'
p477
tp478
a(g474
S'meagre'
p479
tp480
asI65
(lp481
(S'small'
p482
S'minute'
p483
tp484
a(g482
S'miniscule'
p485
tp486
asI66
(lp487
(S'general'
p488
S'universal'
p489
tp490
a(g488
S'global'
p491
tp492
a(S'commonplace'
p493
g488
tp494
asI67
(lp495
(S'awful'
p496
S'dreadful'
p497
tp498
asI68
(lp499
(S'low'
p500
S'inadequate'
p501
tp502
a(g500
S'unacceptable'
p503
tp504
a(g500
S'scarce'
p505
tp506
asI69
(lp507
(S'little'
p508
S'tiny'
p509
tp510
asI70
(lp511
(S'tenacious'
p512
S'tough'
p513
tp514
a(S'hardworking'
p515
g513
tp516
asI71
(lp517
(S'cute'
p518
S'gorgeous'
p519
tp520
asI72
(lp521
(S'known'
p522
S'noteworthy'
p523
tp524
a(g522
S'celebrated'
p525
tp526
asI74
(lp527
(S'big'
p528
S'extensive'
p529
tp530
a(g528
S'vast'
p531
tp532
a(g531
g529
tp533
asI75
(lp534
(S'hard'
p535
S'problematic'
p536
tp537
asI76
(lp538
(S'annoying'
p539
S'obnoxious'
p540
tp541
asI77
(lp542
(S'sad'
p543
S'terrible'
p544
tp545
a(g543
S'miserable'
p546
tp547
a(g546
g544
tp548
asI78
(lp549
(S'fair'
p550
S'beautiful'
p551
tp552
a(S'fairer'
p553
g551
tp554
a(g550
S'fairest'
p555
tp556
a(g550
g553
tp557
as.