(dp0
I1
(lp1
(S'known'
p2
S'famous'
p3
tp4
asI2
(lp5
(S'gloomy'
p6
S'dark'
p7
tp8
asI3
(lp9
(S'close'
p10
S'near'
p11
tp12
asI4
(lp13
(S'near'
p14
S'nearby'
p15
tp16
a(g14
S'close'
p17
tp18
asI6
(lp19
(S'real'
p20
S'serious'
p21
tp22
a(g20
S'grave'
p23
tp24
a(g21
g23
tp25
asI7
(lp26
(S'interesting'
p27
S'fascinating'
p28
tp29
a(g27
S'intriguing'
p30
tp31
a(g27
S'exciting'
p32
tp33
a(g30
g28
tp34
a(g32
g28
tp35
a(g30
g32
tp36
a(S'amusing'
p37
g32
tp38
a(S'entertaining'
p39
g37
tp40
asI8
(lp41
(S'far'
p42
S'removed'
p43
tp44
a(S'farther'
p45
S'further'
p46
tp47
a(g42
g45
tp48
asI9
(lp49
(S'okay'
p50
S'right'
p51
tp52
a(S'alright'
p53
g51
tp54
a(S'acceptable'
p55
g51
tp56
a(g53
g50
tp57
asI13
(lp58
(S'crazy'
p59
S'insane'
p60
tp61
asI14
(lp62
(S'good'
p63
S'real'
p64
tp65
a(g64
S'authentic'
p66
tp67
asI15
(lp68
(S'clean'
p69
S'spotless'
p70
tp71
asI16
(lp72
(S'realistic'
p73
S'feasible'
p74
tp75
a(g74
S'practical'
p76
tp77
a(S'possible'
p78
g74
tp79
asI17
(lp80
(S'sick'
p81
S'ill'
p82
tp83
asI18
(lp84
(S'rare'
p85
S'exceptional'
p86
tp87
a(S'unusual'
p88
g85
tp89
a(S'uncommon'
p90
g85
tp91
a(g85
S'extraordinary'
p92
tp93
a(g88
g86
tp94
a(g90
g86
tp95
a(g92
g86
tp96
a(g90
g88
tp97
asI19
(lp98
(S'impractical'
p99
S'impossible'
p100
tp101
asI21
(lp102
(S'concerned'
p103
S'preoccupied'
p104
tp105
asI22
(lp106
(S'interesting'
p107
S'exciting'
p108
tp109
asI25
(lp110
(S'strong'
p111
S'intense'
p112
tp113
asI26
(lp114
(S'desperate'
p115
S'hopeless'
p116
tp117
asI27
(lp118
(S'unfortunate'
p119
S'disastrous'
p120
tp121
asI29
(lp122
(S'funny'
p123
S'weird'
p124
tp125
a(g123
S'unusual'
p126
tp127
a(S'strange'
p128
g124
tp129
a(g126
g124
tp130
a(g124
S'eerie'
p131
tp132
a(g128
g126
tp133
a(g128
g131
tp134
a(g126
g131
tp135
asI30
(lp136
(S'reasonable'
p137
S'sound'
p138
tp139
asI31
(lp140
(S'affordable'
p141
S'cheap'
p142
tp143
asI32
(lp144
(S'available'
p145
S'accessible'
p146
tp147
asI33
(lp148
(S'cold'
p149
S'frozen'
p150
tp151
a(S'cool'
p152
g149
tp153
a(S'chilly'
p154
g149
tp155
a(g154
g152
tp156
asI34
(lp157
(S'content'
p158
S'happy'
p159
tp160
a(S'satisfied'
p161
g159
tp162
a(S'pleased'
p163
g159
tp164
a(g161
g158
tp165
a(g161
g163
tp166
asI35
(lp167
(S'misleading'
p168
S'deceptive'
p169
tp170
a(S'fraudulent'
p171
S'false'
p172
tp173
asI36
(lp174
(S'necessary'
p175
S'required'
p176
tp177
a(S'needed'
p178
g175
tp179
a(g175
S'essential'
p180
tp181
a(g175
S'indispensable'
p182
tp183
a(g178
g180
tp184
a(g178
g182
tp185
a(g180
g182
tp186
asI37
(lp187
(S'many'
p188
S'numerous'
p189
tp190
asI38
(lp191
(S'quiet'
p192
S'silent'
p193
tp194
asI39
(lp195
(S'wrong'
p196
S'sinful'
p197
tp198
a(g196
S'immoral'
p199
tp200
a(g196
S'evil'
p201
tp202
asI40
(lp203
(S'slim'
p204
S'thin'
p205
tp206
a(g205
S'skinny'
p207
tp208
asI43
(lp209
(S'simple'
p210
S'painless'
p211
tp212
a(S'easy'
p213
g210
tp214
a(S'smooth'
p215
g213
tp216
asI45
(lp217
(S'equal'
p218
S'same'
p219
tp220
asI46
(lp221
(S'general'
p222
S'universal'
p223
tp224
a(S'widespread'
p225
g222
tp226
a(g225
S'broad'
p227
tp228
asI47
(lp229
(S'bad'
p230
S'worst'
p231
tp232
a(S'mediocre'
p233
g230
tp234
asI48
(lp235
(S'pretty'
p236
S'beautiful'
p237
tp238
a(S'lovely'
p239
g237
tp240
a(S'handsome'
p241
g237
tp242
a(S'attractive'
p243
g237
tp244
a(S'gorgeous'
p245
g237
tp246
a(g239
g236
tp247
a(g241
g236
tp248
a(g243
g236
tp249
a(g245
g236
tp250
a(g241
g239
tp251
a(g245
g239
tp252
a(g241
g243
tp253
a(g245
g241
tp254
a(g245
g243
tp255
asI50
(lp256
(S'quiet'
p257
S'silent'
p258
tp259
asI51
(lp260
(S'chilly'
p261
S'cool'
p262
tp263
asI52
(lp264
(S'large'
p265
S'huge'
p266
tp267
a(S'sizeable'
p268
g265
tp269
a(g265
S'colossal'
p270
tp271
a(S'big'
p272
g266
tp273
a(g268
g272
tp274
a(g272
g270
tp275
asI54
(lp276
(S'scary'
p277
S'terrifying'
p278
tp279
a(S'frightening'
p280
g277
tp281
a(S'creepy'
p282
g277
tp283
a(g280
g278
tp284
a(g282
g278
tp285
a(g282
g280
tp286
asI55
(lp287
(S'some'
p288
S'few'
p289
tp290
a(g289
S'fewer'
p291
tp292
asI57
(lp293
(S'outdated'
p294
S'obsolete'
p295
tp296
asI58
(lp297
(S'necessary'
p298
S'vital'
p299
tp300
a(g298
S'indispensable'
p301
tp302
a(g298
S'critical'
p303
tp304
a(g299
g301
tp305
a(g299
g303
tp306
asI59
(lp307
(S'attractive'
p308
S'beautiful'
p309
tp310
a(g308
S'seductive'
p311
tp312
asI60
(lp313
(S'closed'
p314
S'sealed'
p315
tp316
asI61
(lp317
(S'stunning'
p318
S'astonishing'
p319
tp320
asI63
(lp321
(S'attractive'
p322
S'sexy'
p323
tp324
a(g322
S'seductive'
p325
tp326
asI65
(lp327
(S'intelligent'
p328
S'smart'
p329
tp330
a(S'bright'
p331
g329
tp332
a(S'clever'
p333
g329
tp334
a(g329
S'brilliant'
p335
tp336
a(g331
g328
tp337
a(g333
g328
tp338
a(g328
g335
tp339
a(g333
g331
tp340
a(g331
g335
tp341
a(g333
g335
tp342
asI68
(lp343
(S'high'
p344
S'higher'
p345
tp346
asI70
(lp347
(S'small'
p348
S'smaller'
p349
tp350
a(g348
S'tiny'
p351
tp352
a(g348
S'minute'
p353
tp354
a(g348
S'minuscule'
p355
tp356
a(g349
g351
tp357
a(g353
g351
tp358
a(g355
g351
tp359
a(g353
g355
tp360
asI71
(lp361
(S'infeasible'
p362
S'impossible'
p363
tp364
a(S'impractical'
p365
g363
tp366
a(S'impracticable'
p367
g363
tp368
asI72
(lp369
(S'mature'
p370
S'ripe'
p371
tp372
asI73
(lp373
(S'overweight'
p374
S'fat'
p375
tp376
a(S'chubby'
p377
g375
tp378
asI74
(lp379
(S'uncomfortable'
p380
S'painful'
p381
tp382
a(g380
S'uneasy'
p383
tp384
asI75
(lp385
(S'friendly'
p386
S'warm'
p387
tp388
a(S'cordial'
p389
g387
tp390
asI76
(lp391
(S'cold'
p392
S'frozen'
p393
tp394
a(S'cool'
p395
g392
tp396
asI79
(lp397
(S'general'
p398
S'universal'
p399
tp400
a(S'complete'
p401
S'comprehensive'
p402
tp403
a(S'extensive'
p404
g401
tp405
asI80
(lp406
(S'conscious'
p407
S'aware'
p408
tp409
a(S'awake'
p410
g408
tp411
asI81
(lp412
(S'interested'
p413
S'concerned'
p414
tp415
asI83
(lp416
(S'hard'
p417
S'painful'
p418
tp419
asI84
(lp420
(S'content'
p421
S'happy'
p422
tp423
asI85
(lp424
(S'cool'
p425
S'calm'
p426
tp427
asI86
(lp428
(S'risky'
p429
S'dangerous'
p430
tp431
as.