(dp0
I0
(lp1
(S'first'
p2
S'second'
p3
tp4
a(g3
S'third'
p5
tp6
a(g5
S'fourth'
p7
tp8
a(g5
S'fifth'
p9
tp10
a(g7
g9
tp11
a(g9
S'sixth'
p12
tp13
a(g12
S'seventh'
p14
tp15
a(g14
S'eighth'
p16
tp17
asI1
(lp18
(S'known'
p19
S'famous'
p20
tp21
a(g20
S'legendary'
p22
tp23
asI2
(lp24
(S'dim'
p25
S'dark'
p26
tp27
a(g25
S'gloomy'
p28
tp29
a(g28
g26
tp30
a(g26
S'black'
p31
tp32
asI3
(lp33
(S'close'
p34
S'near'
p35
tp36
a(g34
S'intimate'
p37
tp38
asI4
(lp39
(S'nearby'
p40
S'close'
p41
tp42
a(S'near'
p43
g40
tp44
a(g43
g41
tp45
a(g41
S'adjacent'
p46
tp47
a(g43
g46
tp48
asI5
(lp49
(S'wide'
p50
S'good'
p51
tp52
a(S'sufficient'
p53
g51
tp54
a(g51
S'full'
p55
tp56
asI6
(lp57
(S'real'
p58
S'serious'
p59
tp60
a(g58
S'grave'
p61
tp62
a(S'solemn'
p63
g59
tp64
a(g59
g61
tp65
asI7
(lp66
(S'interesting'
p67
S'fascinating'
p68
tp69
a(g67
S'entertaining'
p70
tp71
a(g67
S'intriguing'
p72
tp73
a(g67
S'amusing'
p74
tp75
a(g67
S'exciting'
p76
tp77
a(g72
g68
tp78
a(g76
g68
tp79
a(g74
g70
tp80
a(g70
g76
tp81
a(g72
g76
tp82
a(g74
g76
tp83
asI8
(lp84
(S'far'
p85
S'removed'
p86
tp87
a(g85
S'further'
p88
tp89
a(g85
S'farther'
p90
tp91
a(g90
g88
tp92
asI9
(lp93
(S'acceptable'
p94
S'right'
p95
tp96
a(S'alright'
p97
S'okay'
p98
tp99
a(g98
g95
tp100
a(g97
g95
tp101
asI10
(lp102
(S'cracked'
p103
S'broken'
p104
tp105
a(g104
S'crushed'
p106
tp107
asI11
(lp108
(S'full'
p109
S'stuffed'
p110
tp111
a(g109
S'overloaded'
p112
tp113
a(g109
S'overflowing'
p114
tp115
asI12
(lp116
(S'zesty'
p117
S'spicy'
p118
tp119
a(g117
S'hot'
p120
tp121
a(g120
g118
tp122
a(S'flavorful'
p123
g120
tp124
asI13
(lp125
(S'unstable'
p126
S'crazy'
p127
tp128
a(g127
S'insane'
p129
tp130
asI14
(lp131
(S'good'
p132
S'real'
p133
tp134
a(g132
S'authentic'
p135
tp136
a(g133
g135
tp137
asI15
(lp138
(S'clean'
p139
S'spotless'
p140
tp141
a(g139
S'immaculate'
p142
tp143
asI16
(lp144
(S'realistic'
p145
S'feasible'
p146
tp147
a(S'possible'
p148
g145
tp149
a(g146
S'practical'
p150
tp151
a(g148
g150
tp152
a(g148
g146
tp153
asI17
(lp154
(S'impaired'
p155
S'disabled'
p156
tp157
a(S'sick'
p158
S'ill'
p159
tp160
a(g159
g156
tp161
asI18
(lp162
(S'rare'
p163
S'exceptional'
p164
tp165
a(g163
S'extraordinary'
p166
tp167
a(S'unusual'
p168
g163
tp169
a(S'uncommon'
p170
g163
tp171
a(g166
g164
tp172
a(g168
g164
tp173
a(g170
g164
tp174
a(g170
g168
tp175
asI19
(lp176
(S'unrealistic'
p177
S'impossible'
p178
tp179
a(S'impractical'
p180
g178
tp181
asI20
(lp182
(S'transnational'
p183
S'global'
p184
tp185
a(S'international'
p186
g184
tp187
asI21
(lp188
(S'concerned'
p189
S'preoccupied'
p190
tp191
a(g189
S'obsessed'
p192
tp193
a(g190
g192
tp194
asI22
(lp195
(S'interesting'
p196
S'moving'
p197
tp198
a(g196
S'exciting'
p199
tp200
a(g199
S'thrilling'
p201
tp202
asI23
(lp203
(S'subdued'
p204
S'quiet'
p205
tp206
asI24
(lp207
(S'sweet'
p208
S'syrupy'
p209
tp210
a(g208
S'sugary'
p211
tp212
asI25
(lp213
(S'strong'
p214
S'intense'
p215
tp216
a(g214
S'overwhelming'
p217
tp218
a(g214
S'violent'
p219
tp220
a(g215
g217
tp221
a(g215
g219
tp222
asI26
(lp223
(S'desperate'
p224
S'hopeless'
p225
tp226
a(S'bleak'
p227
g225
tp228
asI27
(lp229
(S'unfortunate'
p230
S'disastrous'
p231
tp232
a(g230
S'fatal'
p233
tp234
a(g231
g233
tp235
asI28
(lp236
(S'negligent'
p237
S'reckless'
p238
tp239
a(S'careless'
p240
g238
tp241
asI29
(lp242
(S'strange'
p243
S'weird'
p244
tp245
a(S'funny'
p246
g243
tp247
a(g243
S'unusual'
p248
tp249
a(g243
S'eerie'
p250
tp251
a(g246
g244
tp252
a(g248
g244
tp253
a(g244
g250
tp254
a(g246
g248
tp255
a(g248
g250
tp256
asI30
(lp257
(S'valid'
p258
S'sound'
p259
tp260
a(S'reasonable'
p261
g259
tp262
asI31
(lp263
(S'inexpensive'
p264
S'cheap'
p265
tp266
a(S'affordable'
p267
g265
tp268
asI32
(lp269
(S'accessible'
p270
S'visible'
p271
tp272
a(S'available'
p273
g270
tp274
asI33
(lp275
(S'refrigerated'
p276
S'frozen'
p277
tp278
a(S'chilly'
p279
S'cool'
p280
tp281
a(g280
S'cold'
p282
tp283
a(g280
S'frigid'
p284
tp285
a(g280
g277
tp286
a(g279
g282
tp287
a(g282
S'icy'
p288
tp289
a(g282
g284
tp290
a(g282
g277
tp291
asI34
(lp292
(S'pleased'
p293
S'happy'
p294
tp295
a(S'content'
p296
g294
tp297
a(S'satisfied'
p298
g294
tp299
a(g296
g293
tp300
a(g298
g293
tp301
a(g298
g296
tp302
asI35
(lp303
(S'misleading'
p304
S'false'
p305
tp306
a(g304
S'fraudulent'
p307
tp308
a(g304
S'deceptive'
p309
tp310
a(g307
g305
tp311
asI36
(lp312
(S'needed'
p313
S'required'
p314
tp315
a(g313
S'necessary'
p316
tp317
a(g313
S'essential'
p318
tp319
a(g313
S'indispensable'
p320
tp321
a(g316
g314
tp322
a(g318
g314
tp323
a(g316
g318
tp324
a(g316
g320
tp325
a(g318
g320
tp326
asI37
(lp327
(S'some'
p328
S'many'
p329
tp330
a(g329
S'numerous'
p331
tp332
asI38
(lp333
(S'quiet'
p334
S'silent'
p335
tp336
a(g334
S'inaudible'
p337
tp338
a(g334
S'imperceptible'
p339
tp340
asI39
(lp341
(S'wrong'
p342
S'sinful'
p343
tp344
a(g342
S'immoral'
p345
tp346
a(g342
S'evil'
p347
tp348
a(g345
g347
tp349
asI40
(lp350
(S'slim'
p351
S'thin'
p352
tp353
a(g352
S'gaunt'
p354
tp355
a(g352
S'emaciated'
p356
tp357
a(g352
S'skinny'
p358
tp359
a(g352
S'skeletal'
p360
tp361
a(g351
g358
tp362
a(S'lean'
p363
g358
tp364
asI41
(lp365
(S'statewide'
p366
S'nationwide'
p367
tp368
a(g367
S'worldwide'
p369
tp370
asI42
(lp371
(S'warm'
p372
S'stifling'
p373
tp374
a(g372
S'overheated'
p375
tp376
a(g372
S'sultry'
p377
tp378
a(g372
S'hot'
p379
tp380
asI43
(lp381
(S'easy'
p382
S'simple'
p383
tp384
a(g383
S'painless'
p385
tp386
a(g382
g385
tp387
a(S'smooth'
p388
g382
tp389
a(g382
S'effortless'
p390
tp391
a(g388
g390
tp392
asI44
(lp393
(S'plain'
p394
S'unattractive'
p395
tp396
a(g394
S'ugly'
p397
tp398
asI45
(lp399
(S'like'
p400
S'same'
p401
tp402
a(S'equal'
p403
g401
tp404
asI46
(lp405
(S'widespread'
p406
S'general'
p407
tp408
a(g407
S'universal'
p409
tp410
a(g406
S'broad'
p411
tp412
a(g411
g409
tp413
a(g406
g409
tp414
asI47
(lp415
(S'cheap'
p416
S'bad'
p417
tp418
a(S'mediocre'
p419
g417
tp420
a(g417
S'worst'
p421
tp422
asI48
(lp423
(S'attractive'
p424
S'pretty'
p425
tp426
a(S'beautiful'
p427
g425
tp428
a(S'lovely'
p429
g425
tp430
a(S'handsome'
p431
g425
tp432
a(S'gorgeous'
p433
g425
tp434
a(g427
g424
tp435
a(g431
g424
tp436
a(g433
g424
tp437
a(g429
g427
tp438
a(g431
g427
tp439
a(g433
g427
tp440
a(g431
g429
tp441
a(g433
g429
tp442
a(g433
g431
tp443
asI49
(lp444
(S'thick'
p445
S'impenetrable'
p446
tp447
a(S'dense'
p448
g446
tp449
asI50
(lp450
(S'soft'
p451
S'inaudible'
p452
tp453
a(S'quiet'
p454
S'silent'
p455
tp456
a(g454
g452
tp457
asI51
(lp458
(S'unfriendly'
p459
S'hostile'
p460
tp461
a(S'cool'
p462
g460
tp463
a(S'chilly'
p464
g462
tp465
asI52
(lp466
(S'sizeable'
p467
S'large'
p468
tp469
a(g468
S'huge'
p470
tp471
a(g468
S'colossal'
p472
tp473
a(g467
S'big'
p474
tp475
a(g474
g470
tp476
a(g474
g472
tp477
a(g467
g470
tp478
a(g470
g472
tp479
asI53
(lp480
(S'dual'
p481
S'triple'
p482
tp483
a(S'doubled'
p484
g482
tp485
a(S'double'
p486
S'treble'
p487
tp488
a(g486
g482
tp489
a(g486
S'quadruple'
p490
tp491
a(g487
g490
tp492
a(g482
g490
tp493
asI54
(lp494
(S'scary'
p495
S'sinister'
p496
tp497
a(S'frightening'
p498
g495
tp499
a(g495
S'terrifying'
p500
tp501
a(S'creepy'
p502
g495
tp503
a(g498
g500
tp504
a(g502
g498
tp505
a(g502
g500
tp506
asI55
(lp507
(S'some'
p508
S'few'
p509
tp510
a(g509
S'fewer'
p511
tp512
asI56
(lp513
(S'overlooked'
p514
S'forgotten'
p515
tp516
a(S'ignored'
p517
g514
tp518
a(S'neglected'
p519
g515
tp520
a(g519
g517
tp521
asI57
(lp522
(S'old'
p523
S'obsolete'
p524
tp525
a(g523
S'outdated'
p526
tp527
a(g526
g524
tp528
asI58
(lp529
(S'necessary'
p530
S'vital'
p531
tp532
a(g530
S'indispensable'
p533
tp534
a(g530
S'critical'
p535
tp536
a(g531
g533
tp537
a(g531
g535
tp538
asI59
(lp539
(S'attractive'
p540
S'seductive'
p541
tp542
a(g540
S'beautiful'
p543
tp544
a(g543
S'mesmerizing'
p545
tp546
asI60
(lp547
(S'closed'
p548
S'shut'
p549
tp550
a(g548
S'sealed'
p551
tp552
asI61
(lp553
(S'unexpected'
p554
S'astonishing'
p555
tp556
a(g554
S'stunning'
p557
tp558
a(g557
g555
tp559
asI62
(lp560
(S'indecent'
p561
S'profane'
p562
tp563
a(g561
S'obscene'
p564
tp565
asI63
(lp566
(S'attractive'
p567
S'sexy'
p568
tp569
a(g567
S'seductive'
p570
tp571
asI64
(lp572
(S'humbled'
p573
S'humiliated'
p574
tp575
a(g574
S'crushed'
p576
tp577
asI65
(lp578
(S'intelligent'
p579
S'smart'
p580
tp581
a(S'clever'
p582
g580
tp583
a(g580
S'brilliant'
p584
tp585
a(S'bright'
p586
g580
tp587
a(g582
g579
tp588
a(g579
g584
tp589
a(g586
g579
tp590
a(g582
g584
tp591
a(g586
g582
tp592
a(g586
g584
tp593
asI66
(lp594
(S'violent'
p595
S'murderous'
p596
tp597
a(g595
S'homicidal'
p598
tp599
asI67
(lp600
(S'personal'
p601
S'private'
p602
tp603
a(g602
S'secret'
p604
tp605
asI68
(lp606
(S'higher'
p607
S'soaring'
p608
tp609
a(S'high'
p610
g607
tp611
asI69
(lp612
(S'harmful'
p613
S'toxic'
p614
tp615
a(g613
S'deadly'
p616
tp617
a(g614
g616
tp618
asI70
(lp619
(S'small'
p620
S'smaller'
p621
tp622
a(g620
S'tiny'
p623
tp624
a(g620
S'micro'
p625
tp626
a(g620
S'minute'
p627
tp628
a(g620
S'minuscule'
p629
tp630
a(g620
S'microscopic'
p631
tp632
a(g621
S'midget'
p633
tp634
a(g621
g623
tp635
a(g627
g623
tp636
a(g629
g623
tp637
a(g623
g631
tp638
a(g627
g629
tp639
asI71
(lp640
(S'unrealistic'
p641
S'impossible'
p642
tp643
a(S'infeasible'
p644
g642
tp645
a(S'impractical'
p646
g642
tp647
a(S'impracticable'
p648
g642
tp649
asI72
(lp650
(S'mature'
p651
S'ripe'
p652
tp653
a(g651
S'overripe'
p654
tp655
a(g652
g654
tp656
asI73
(lp657
(S'chubby'
p658
S'fat'
p659
tp660
a(S'overweight'
p661
g659
tp662
a(g659
S'obese'
p663
tp664
a(g661
g663
tp665
asI74
(lp666
(S'uncomfortable'
p667
S'uneasy'
p668
tp669
a(g667
S'painful'
p670
tp671
a(g668
g670
tp672
asI75
(lp673
(S'cordial'
p674
S'warm'
p675
tp676
a(S'friendly'
p677
g675
tp678
a(g675
S'intimate'
p679
tp680
a(g677
g674
tp681
a(g677
g679
tp682
asI76
(lp683
(S'cool'
p684
S'cold'
p685
tp686
a(g684
S'frigid'
p687
tp688
a(g684
S'frozen'
p689
tp690
a(g685
S'icy'
p691
tp692
a(g685
g687
tp693
a(g685
g689
tp694
asI77
(lp695
(S'disappointed'
p696
S'frustrated'
p697
tp698
a(g696
S'defeated'
p699
tp700
asI78
(lp701
(S'tight'
p702
S'snug'
p703
tp704
a(S'close'
p705
g702
tp706
asI79
(lp707
(S'extensive'
p708
S'comprehensive'
p709
tp710
a(g708
S'universal'
p711
tp712
a(g708
S'complete'
p713
tp714
a(g713
g709
tp715
a(S'general'
p716
g711
tp717
asI80
(lp718
(S'alive'
p719
S'awake'
p720
tp721
a(g720
S'conscious'
p722
tp723
a(g720
S'aware'
p724
tp725
a(g719
g722
tp726
a(g719
g724
tp727
a(g724
g722
tp728
asI81
(lp729
(S'interested'
p730
S'concerned'
p731
tp732
a(g730
S'involved'
p733
tp734
a(g731
g733
tp735
asI82
(lp736
(S'negative'
p737
S'hostile'
p738
tp739
a(S'critical'
p740
g738
tp741
asI83
(lp742
(S'hard'
p743
S'painful'
p744
tp745
a(g743
S'hopeless'
p746
tp747
asI84
(lp748
(S'happy'
p749
S'content'
p750
tp751
a(g749
S'euphoric'
p752
tp753
asI85
(lp754
(S'calm'
p755
S'cool'
p756
tp757
a(g755
S'serene'
p758
tp759
asI86
(lp760
(S'unreliable'
p761
S'dangerous'
p762
tp763
a(g762
S'risky'
p764
tp765
a(g762
S'suicidal'
p766
tp767
as.