(dp0
I0
(lp1
(S'large'
p2
S'larger'
p3
tp4
asI2
(lp5
(S'easy'
p6
S'easier'
p7
tp8
asI3
(lp9
(S'pure'
p10
S'purer'
p11
tp12
asI6
(lp13
(S'close'
p14
S'closer'
p15
tp16
asI7
(lp17
(S'bright'
p18
S'brighter'
p19
tp20
asI9
(lp21
(S'many'
p22
S'more'
p23
tp24
asI10
(lp25
(S'cool'
p26
S'cooler'
p27
tp28
asI11
(lp29
(S'slow'
p30
S'slower'
p31
tp32
asI12
(lp33
(S'good'
p34
S'great'
p35
tp36
asI13
(lp37
(S'long'
p38
S'longer'
p39
tp40
asI14
(lp41
(S'light'
p42
S'lighter'
p43
tp44
asI15
(lp45
(S'hot'
p46
S'hotter'
p47
tp48
asI17
(lp49
(S'some'
p50
S'more'
p51
tp52
asI18
(lp53
(S'less'
p54
S'lesser'
p55
tp56
asI20
(lp57
(S'stupid'
p58
S'stupider'
p59
tp60
asI21
(lp61
(S'pretty'
p62
S'prettier'
p63
tp64
asI22
(lp65
(S'rich'
p66
S'richer'
p67
tp68
asI23
(lp69
(S'happy'
p70
S'happier'
p71
tp72
asI25
(lp73
(S'narrow'
p74
S'narrower'
p75
tp76
asI26
(lp77
(S'safe'
p78
S'safer'
p79
tp80
asI29
(lp81
(S'lovely'
p82
S'lovelier'
p83
tp84
asI30
(lp85
(S'subtle'
p86
S'subtler'
p87
tp88
asI32
(lp89
(S'heavy'
p90
S'heavier'
p91
tp92
asI34
(lp93
(S'weak'
p94
S'weaker'
p95
tp96
asI35
(lp97
(S'far'
p98
S'further'
p99
tp100
asI36
(lp101
(S'strange'
p102
S'stranger'
p103
tp104
asI37
(lp105
(S'far'
p106
S'farther'
p107
tp108
asI38
(lp109
(S'lucky'
p110
S'luckier'
p111
tp112
asI40
(lp113
(S'old'
p114
S'older'
p115
tp116
asI41
(lp117
(S'simple'
p118
S'simpler'
p119
tp120
asI44
(lp121
(S'few'
p122
S'fewer'
p123
tp124
asI47
(lp125
(S'low'
p126
S'lower'
p127
tp128
asI48
(lp129
(S'nice'
p130
S'nicer'
p131
tp132
asI49
(lp133
(S'sure'
p134
S'surer'
p135
tp136
asI50
(lp137
(S'cold'
p138
S'colder'
p139
tp140
asI51
(lp141
(S'rare'
p142
S'rarer'
p143
tp144
asI53
(lp145
(S'proud'
p146
S'prouder'
p147
tp148
asI55
(lp149
(S'much'
p150
S'more'
p151
tp152
asI56
(lp153
(S'noble'
p154
S'nobler'
p155
tp156
asI57
(lp157
(S'fast'
p158
S'faster'
p159
tp160
asI58
(lp161
(S'deep'
p162
S'deeper'
p163
tp164
asI60
(lp165
(S'weird'
p166
S'weirder'
p167
tp168
asI61
(lp169
(S'wise'
p170
S'wiser'
p171
tp172
asI62
(lp173
(S'sound'
p174
S'sounder'
p175
tp176
asI65
(lp177
(S'little'
p178
S'less'
p179
tp180
asI66
(lp181
(S'tough'
p182
S'tougher'
p183
tp184
asI67
(lp185
(S'quiet'
p186
S'quieter'
p187
tp188
asI68
(lp189
(S'broad'
p190
S'broader'
p191
tp192
asI69
(lp193
(S'healthy'
p194
S'healthier'
p195
tp196
asI70
(lp197
(S'wide'
p198
S'wider'
p199
tp200
asI73
(lp201
(S'busy'
p202
S'busier'
p203
tp204
asI77
(lp205
(S'short'
p206
S'shorter'
p207
tp208
asI78
(lp209
(S'hard'
p210
S'harder'
p211
tp212
asI79
(lp213
(S'grim'
p214
S'grimmer'
p215
tp216
asI81
(lp217
(S'late'
p218
S'later'
p219
tp220
asI82
(lp221
(S'high'
p222
S'higher'
p223
tp224
asI83
(lp225
(S'bad'
p226
S'worse'
p227
tp228
asI85
(lp229
(S'thin'
p230
S'thinner'
p231
tp232
asI87
(lp233
(S'quick'
p234
S'quicker'
p235
tp236
asI88
(lp237
(S'tall'
p238
S'taller'
p239
tp240
asI89
(lp241
(S'dead'
p242
S'deader'
p243
tp244
asI90
(lp245
(S'true'
p246
S'truer'
p247
tp248
asI92
(lp249
(S'big'
p250
S'bigger'
p251
tp252
asI93
(lp253
(S'strict'
p254
S'stricter'
p255
tp256
asI94
(lp257
(S'clear'
p258
S'clearer'
p259
tp260
asI96
(lp261
(S'young'
p262
S'younger'
p263
tp264
asI98
(lp265
(S'smart'
p266
S'smarter'
p267
tp268
asI99
(lp269
(S'green'
p270
S'greener'
p271
tp272
asI101
(lp273
(S'dense'
p274
S'denser'
p275
tp276
asI102
(lp277
(S'fair'
p278
S'fairer'
p279
tp280
asI103
(lp281
(S'warm'
p282
S'warmer'
p283
tp284
asI106
(lp285
(S'dark'
p286
S'darker'
p287
tp288
asI107
(lp289
(S'poor'
p290
S'poorer'
p291
tp292
asI111
(lp293
(S'great'
p294
S'greater'
p295
tp296
asI113
(lp297
(S'early'
p298
S'earlier'
p299
tp300
asI115
(lp301
(S'strong'
p302
S'stronger'
p303
tp304
asI118
(lp305
(S'cheap'
p306
S'cheaper'
p307
tp308
asI119
(lp309
(S'well'
p310
S'better'
p311
tp312
asI120
(lp313
(S'good'
p314
S'better'
p315
tp316
asI123
(lp317
(S'firm'
p318
S'firmer'
p319
tp320
asI125
(lp321
(S'small'
p322
S'smaller'
p323
tp324
asI126
(lp325
(S'fat'
p326
S'fatter'
p327
tp328
asI127
(lp329
(S'free'
p330
S'freer'
p331
tp332
asI128
(lp333
(S'dry'
p334
S'drier'
p335
tp336
asI129
(lp337
(S'cute'
p338
S'cuter'
p339
tp340
asI131
(lp341
(S'loud'
p342
S'louder'
p343
tp344
asI132
(lp345
(S'longer'
p346
S'longest'
p347
tp348
asI133
(lp349
(S'harder'
p350
S'hardest'
p351
tp352
asI134
(lp353
(S'broader'
p354
S'broadest'
p355
tp356
asI135
(lp357
(S'deeper'
p358
S'deepest'
p359
tp360
asI137
(lp361
(S'lower'
p362
S'lowest'
p363
tp364
asI139
(lp365
(S'smaller'
p366
S'smallest'
p367
tp368
asI143
(lp369
(S'greater'
p370
S'greatest'
p371
tp372
asI144
(lp373
(S'closer'
p374
S'closest'
p375
tp376
asI148
(lp377
(S'wider'
p378
S'widest'
p379
tp380
asI152
(lp381
(S'stronger'
p382
S'strongest'
p383
tp384
asI156
(lp385
(S'later'
p386
S'latest'
p387
tp388
asI158
(lp389
(S'simpler'
p390
S'simplest'
p391
tp392
asI159
(lp393
(S'easier'
p394
S'easiest'
p395
tp396
asI160
(lp397
(S'less'
p398
S'least'
p399
tp400
asI161
(lp401
(S'higher'
p402
S'highest'
p403
tp404
asI162
(lp405
(S'clearer'
p406
S'clearest'
p407
tp408
asI164
(lp409
(S'quicker'
p410
S'quickest'
p411
tp412
asI165
(lp413
(S'poorer'
p414
S'poorest'
p415
tp416
asI167
(lp417
(S'bigger'
p418
S'biggest'
p419
tp420
asI168
(lp421
(S'safer'
p422
S'safest'
p423
tp424
asI169
(lp425
(S'younger'
p426
S'youngest'
p427
tp428
asI174
(lp429
(S'faster'
p430
S'fastest'
p431
tp432
asI179
(lp433
(S'clear'
p434
S'clearest'
p435
tp436
asI180
(lp437
(S'long'
p438
S'longest'
p439
tp440
asI181
(lp441
(S'fair'
p442
S'fairest'
p443
tp444
asI182
(lp445
(S'great'
p446
S'greatest'
p447
tp448
asI184
(lp449
(S'small'
p450
S'smallest'
p451
tp452
asI187
(lp453
(S'wide'
p454
S'widest'
p455
tp456
asI189
(lp457
(S'free'
p458
S'freest'
p459
tp460
asI191
(lp461
(S'little'
p462
S'least'
p463
tp464
asI192
(lp465
(S'short'
p466
S'shortest'
p467
tp468
asI193
(lp469
(S'grave'
p470
S'gravest'
p471
tp472
asI196
(lp473
(S'much'
p474
S'most'
p475
tp476
asI197
(lp477
(S'close'
p478
S'closest'
p479
tp480
asI198
(lp481
(S'dark'
p482
S'darkest'
p483
tp484
asI199
(lp485
(S'weak'
p486
S'weakest'
p487
tp488
asI200
(lp489
(S'broad'
p490
S'broadest'
p491
tp492
asI201
(lp493
(S'easy'
p494
S'easiest'
p495
tp496
asI205
(lp497
(S'big'
p498
S'biggest'
p499
tp500
asI206
(lp501
(S'new'
p502
S'newest'
p503
tp504
asI208
(lp505
(S'good'
p506
S'excellent'
p507
tp508
asI210
(lp509
(S'poor'
p510
S'poorest'
p511
tp512
asI211
(lp513
(S'cruel'
p514
S'cruellest'
p515
tp516
asI212
(lp517
(S'many'
p518
S'most'
p519
tp520
asI216
(lp521
(S'bad'
p522
S'worst'
p523
tp524
asI217
(lp525
(S'strict'
p526
S'strictest'
p527
tp528
asI218
(lp529
(S'good'
p530
S'best'
p531
tp532
asI220
(lp533
(S'rich'
p534
S'richest'
p535
tp536
asI221
(lp537
(S'rare'
p538
S'rarest'
p539
tp540
asI222
(lp541
(S'fast'
p542
S'fastest'
p543
tp544
asI223
(lp545
(S'low'
p546
S'lowest'
p547
tp548
asI224
(lp549
(S'simple'
p550
S'simplest'
p551
tp552
asI226
(lp553
(S'happy'
p554
S'happiest'
p555
tp556
asI229
(lp557
(S'early'
p558
S'earliest'
p559
tp560
asI230
(lp561
(S'high'
p562
S'highest'
p563
tp564
asI233
(lp565
(S'warm'
p566
S'warmest'
p567
tp568
asI234
(lp569
(S'young'
p570
S'youngest'
p571
tp572
asI235
(lp573
(S'strong'
p574
S'strongest'
p575
tp576
asI238
(lp577
(S'little'
p578
S'less'
p579
tp580
a(g578
S'least'
p581
tp582
a(g579
g581
tp583
asI239
(lp584
(S'broad'
p585
S'broader'
p586
tp587
a(g585
S'broadest'
p588
tp589
a(g586
g588
tp590
asI240
(lp591
(S'grave'
p592
S'gravest'
p593
tp594
asI241
(lp595
(S'bright'
p596
S'brighter'
p597
tp598
asI242
(lp599
(S'heavy'
p600
S'heavier'
p601
tp602
asI243
(lp603
(S'easier'
p604
S'easiest'
p605
tp606
asI244
(lp607
(S'small'
p608
S'smaller'
p609
tp610
a(g608
S'smallest'
p611
tp612
a(g609
g611
tp613
asI246
(lp614
(S'smart'
p615
S'smarter'
p616
tp617
asI247
(lp618
(S'cheap'
p619
S'cheaper'
p620
tp621
asI248
(lp622
(S'big'
p623
S'bigger'
p624
tp625
a(g623
S'biggest'
p626
tp627
a(g624
g626
tp628
asI249
(lp629
(S'warm'
p630
S'warmest'
p631
tp632
a(g630
S'warmer'
p633
tp634
asI250
(lp635
(S'far'
p636
S'further'
p637
tp638
asI251
(lp639
(S'close'
p640
S'closer'
p641
tp642
a(g640
S'closest'
p643
tp644
a(g641
g643
tp645
asI252
(lp646
(S'free'
p647
S'freest'
p648
tp649
a(g647
S'freer'
p650
tp651
asI253
(lp652
(S'poor'
p653
S'poorest'
p654
tp655
a(g653
S'poorer'
p656
tp657
a(g656
g654
tp658
asI254
(lp659
(S'rare'
p660
S'rarest'
p661
tp662
a(g660
S'rarer'
p663
tp664
asI255
(lp665
(S'safe'
p666
S'safer'
p667
tp668
a(g667
S'safest'
p669
tp670
asI256
(lp671
(S'simple'
p672
S'simpler'
p673
tp674
a(g672
S'simplest'
p675
tp676
a(g673
g675
tp677
asI257
(lp678
(S'large'
p679
S'larger'
p680
tp681
asI258
(lp682
(S'great'
p683
S'greater'
p684
tp685
a(g683
S'greatest'
p686
tp687
a(g684
g686
tp688
asI259
(lp689
(S'later'
p690
S'latest'
p691
tp692
a(S'late'
p693
g690
tp694
asI260
(lp695
(S'dark'
p696
S'darkest'
p697
tp698
a(g696
S'darker'
p699
tp700
asI261
(lp701
(S'quick'
p702
S'quicker'
p703
tp704
a(g703
S'quickest'
p705
tp706
asI262
(lp707
(S'wide'
p708
S'wider'
p709
tp710
a(g708
S'widest'
p711
tp712
a(g709
g711
tp713
asI264
(lp714
(S'deep'
p715
S'deeper'
p716
tp717
a(g716
S'deepest'
p718
tp719
asI265
(lp720
(S'young'
p721
S'younger'
p722
tp723
a(g721
S'youngest'
p724
tp725
a(g722
g724
tp726
asI267
(lp727
(S'new'
p728
S'newest'
p729
tp730
asI268
(lp731
(S'long'
p732
S'longer'
p733
tp734
a(g732
S'longest'
p735
tp736
a(g733
g735
tp737
asI270
(lp738
(S'hard'
p739
S'harder'
p740
tp741
a(g740
S'hardest'
p742
tp743
asI271
(lp744
(S'rich'
p745
S'richest'
p746
tp747
a(g745
S'richer'
p748
tp749
asI272
(lp750
(S'strict'
p751
S'strictest'
p752
tp753
a(g751
S'stricter'
p754
tp755
asI274
(lp756
(S'weak'
p757
S'weakest'
p758
tp759
a(g757
S'weaker'
p760
tp761
asI275
(lp762
(S'fair'
p763
S'fairest'
p764
tp765
a(g763
S'fairer'
p766
tp767
asI276
(lp768
(S'short'
p769
S'shortest'
p770
tp771
a(g769
S'shorter'
p772
tp773
asI277
(lp774
(S'high'
p775
S'higher'
p776
tp777
a(g775
S'highest'
p778
tp779
a(g776
g778
tp780
asI278
(lp781
(S'early'
p782
S'earliest'
p783
tp784
a(g782
S'earlier'
p785
tp786
asI279
(lp787
(S'clear'
p788
S'clearer'
p789
tp790
a(g788
S'clearest'
p791
tp792
a(g789
g791
tp793
asI280
(lp794
(S'low'
p795
S'lower'
p796
tp797
a(g795
S'lowest'
p798
tp799
a(g796
g798
tp800
asI281
(lp801
(S'happy'
p802
S'happiest'
p803
tp804
a(g802
S'happier'
p805
tp806
asI282
(lp807
(S'fast'
p808
S'faster'
p809
tp810
a(g808
S'fastest'
p811
tp812
a(g809
g811
tp813
asI283
(lp814
(S'old'
p815
S'older'
p816
tp817
asI284
(lp818
(S'strong'
p819
S'stronger'
p820
tp821
a(g819
S'strongest'
p822
tp823
a(g820
g822
tp824
as.