(dp0
I0
(lp1
(S'small'
p2
S'minute'
p3
tp4
asI1
(lp5
(S'upset'
p6
S'angry'
p7
tp8
asI4
(lp9
(S'useful'
p10
S'valuable'
p11
tp12
asI10
(lp13
(S'fine'
p14
S'good'
p15
tp16
a(S'adequate'
p17
g15
tp18
asI12
(lp19
(S'useful'
p20
S'necessary'
p21
tp22
a(g20
S'relevant'
p23
tp24
a(g23
g21
tp25
asI16
(lp26
(S'accurate'
p27
S'precise'
p28
tp29
asI20
(lp30
(S'high'
p31
S'higher'
p32
tp33
asI21
(lp34
(S'fine'
p35
S'spectacular'
p36
tp37
asI22
(lp38
(S'okay'
p39
S'perfect'
p40
tp41
asI24
(lp42
(S'odd'
p43
S'bizarre'
p44
tp45
asI33
(lp46
(S'qualified'
p47
S'skilled'
p48
tp49
asI36
(lp50
(S'satisfied'
p51
S'pleased'
p52
tp53
a(S'content'
p54
g52
tp55
asI37
(lp56
(S'fine'
p57
S'good'
p58
tp59
a(S'adequate'
p60
g58
tp61
asI39
(lp62
(S'pretty'
p63
S'spectacular'
p64
tp65
asI45
(lp66
(S'frightening'
p67
S'scary'
p68
tp69
a(g67
S'terrifying'
p70
tp71
asI46
(lp72
(S'tough'
p73
S'tougher'
p74
tp75
asI48
(lp76
(S'good'
p77
S'exceptional'
p78
tp79
a(g77
S'better'
p80
tp81
a(g77
S'perfect'
p82
tp83
a(g77
S'remarkable'
p84
tp85
a(g80
g82
tp86
asI57
(lp87
(S'sizeable'
p88
S'huge'
p89
tp90
a(g89
S'overwhelming'
p91
tp92
a(g89
S'colossal'
p93
tp94
asI58
(lp95
(S'well'
p96
S'perfect'
p97
tp98
a(S'awesome'
p99
g97
tp100
asI61
(lp101
(S'unusual'
p102
S'rare'
p103
tp104
asI62
(lp105
(S'sizeable'
p106
S'huge'
p107
tp108
a(S'big'
p109
g107
tp110
asI65
(lp111
(S'small'
p112
S'minute'
p113
tp114
asI66
(lp115
(S'general'
p116
S'universal'
p117
tp118
as.