(dp0
I0
(lp1
(S'first'
p2
S'second'
p3
tp4
a(g3
S'third'
p5
tp6
a(g5
S'fourth'
p7
tp8
a(g5
S'fifth'
p9
tp10
a(g7
g9
tp11
a(g9
S'sixth'
p12
tp13
a(g12
S'seventh'
p14
tp15
a(g14
S'eighth'
p16
tp17
asI1
(lp18
(S'known'
p19
S'famous'
p20
tp21
a(g20
S'legendary'
p22
tp23
asI2
(lp24
(S'dim'
p25
S'gloomy'
p26
tp27
a(g25
S'dark'
p28
tp29
a(g28
S'black'
p30
tp31
asI3
(lp32
(S'close'
p33
S'intimate'
p34
tp35
asI4
(lp36
(S'nearby'
p37
S'close'
p38
tp39
a(S'near'
p40
S'adjacent'
p41
tp42
a(g38
g41
tp43
asI5
(lp44
(S'wide'
p45
S'good'
p46
tp47
a(S'sufficient'
p48
g46
tp49
a(g46
S'full'
p50
tp51
asI6
(lp52
(S'real'
p53
S'serious'
p54
tp55
a(S'solemn'
p56
g54
tp57
a(g54
S'grave'
p58
tp59
asI7
(lp60
(S'interesting'
p61
S'intriguing'
p62
tp63
a(g61
S'entertaining'
p64
tp65
a(g61
S'fascinating'
p66
tp67
a(g61
S'amusing'
p68
tp69
a(g61
S'exciting'
p70
tp71
a(g68
g64
tp72
a(g64
g70
tp73
asI8
(lp74
(S'far'
p75
S'further'
p76
tp77
a(g75
S'farther'
p78
tp79
asI9
(lp80
(S'alright'
p81
S'right'
p82
tp83
a(S'acceptable'
p84
g82
tp85
a(S'okay'
p86
g82
tp87
asI10
(lp88
(S'cracked'
p89
S'broken'
p90
tp91
a(g90
S'crushed'
p92
tp93
asI11
(lp94
(S'full'
p95
S'stuffed'
p96
tp97
a(g95
S'overloaded'
p98
tp99
a(g95
S'overflowing'
p100
tp101
asI12
(lp102
(S'zesty'
p103
S'spicy'
p104
tp105
a(g103
S'hot'
p106
tp107
a(g106
g104
tp108
a(S'flavorful'
p109
g106
tp110
asI13
(lp111
(S'unstable'
p112
S'crazy'
p113
tp114
a(g113
S'insane'
p115
tp116
asI14
(lp117
(S'good'
p118
S'real'
p119
tp120
a(g118
S'authentic'
p121
tp122
asI15
(lp123
(S'clean'
p124
S'spotless'
p125
tp126
a(g124
S'immaculate'
p127
tp128
asI16
(lp129
(S'feasible'
p130
S'practical'
p131
tp132
a(S'possible'
p133
g131
tp134
a(g133
g130
tp135
a(g133
S'realistic'
p136
tp137
asI17
(lp138
(S'impaired'
p139
S'disabled'
p140
tp141
a(S'sick'
p142
S'ill'
p143
tp144
a(g143
g140
tp145
asI18
(lp146
(S'uncommon'
p147
S'unusual'
p148
tp149
a(g148
S'rare'
p150
tp151
a(g147
g150
tp152
a(g150
S'exceptional'
p153
tp154
a(S'extraordinary'
p155
g153
tp156
asI19
(lp157
(S'unrealistic'
p158
S'impossible'
p159
tp160
a(S'impractical'
p161
g159
tp162
asI20
(lp163
(S'transnational'
p164
S'global'
p165
tp166
a(S'international'
p167
g165
tp168
asI21
(lp169
(S'concerned'
p170
S'preoccupied'
p171
tp172
a(g170
S'obsessed'
p173
tp174
a(g171
g173
tp175
asI22
(lp176
(S'interesting'
p177
S'moving'
p178
tp179
a(g177
S'exciting'
p180
tp181
a(g180
S'thrilling'
p182
tp183
asI23
(lp184
(S'subdued'
p185
S'quiet'
p186
tp187
asI24
(lp188
(S'sweet'
p189
S'syrupy'
p190
tp191
a(g189
S'sugary'
p192
tp193
asI25
(lp194
(S'strong'
p195
S'violent'
p196
tp197
a(g195
S'overwhelming'
p198
tp199
a(S'intense'
p200
g196
tp201
a(g200
g198
tp202
asI26
(lp203
(S'desperate'
p204
S'hopeless'
p205
tp206
a(S'bleak'
p207
g205
tp208
asI27
(lp209
(S'unfortunate'
p210
S'fatal'
p211
tp212
a(S'disastrous'
p213
g211
tp214
asI28
(lp215
(S'negligent'
p216
S'reckless'
p217
tp218
a(S'careless'
p219
g217
tp220
asI29
(lp221
(S'strange'
p222
S'weird'
p223
tp224
a(g222
S'unusual'
p225
tp226
a(S'funny'
p227
g222
tp228
a(g222
S'eerie'
p229
tp230
a(g227
g223
tp231
asI30
(lp232
(S'valid'
p233
S'sound'
p234
tp235
a(S'reasonable'
p236
g234
tp237
asI31
(lp238
(S'inexpensive'
p239
S'cheap'
p240
tp241
a(S'affordable'
p242
g240
tp243
asI32
(lp244
(S'accessible'
p245
S'visible'
p246
tp247
a(S'available'
p248
g245
tp249
asI33
(lp250
(S'refrigerated'
p251
S'frozen'
p252
tp253
a(S'chilly'
p254
S'cool'
p255
tp256
a(g255
S'cold'
p257
tp258
a(g255
g252
tp259
a(g255
S'frigid'
p260
tp261
a(g254
g257
tp262
a(g257
S'icy'
p263
tp264
a(g257
g252
tp265
a(g257
g260
tp266
asI34
(lp267
(S'content'
p268
S'pleased'
p269
tp270
a(S'satisfied'
p271
g269
tp272
a(g268
S'happy'
p273
tp274
a(g271
g273
tp275
asI35
(lp276
(S'misleading'
p277
S'fraudulent'
p278
tp279
a(g277
S'false'
p280
tp281
a(g277
S'deceptive'
p282
tp283
asI36
(lp284
(S'needed'
p285
S'required'
p286
tp287
a(g285
S'necessary'
p288
tp289
a(g288
g286
tp290
a(S'essential'
p291
g286
tp292
a(g288
S'indispensable'
p293
tp294
a(g288
g291
tp295
asI37
(lp296
(S'some'
p297
S'many'
p298
tp299
asI38
(lp300
(S'quiet'
p301
S'silent'
p302
tp303
a(g301
S'inaudible'
p304
tp305
a(g301
S'imperceptible'
p306
tp307
asI39
(lp308
(S'wrong'
p309
S'sinful'
p310
tp311
a(g309
S'immoral'
p312
tp313
a(g309
S'evil'
p314
tp315
a(g312
g314
tp316
asI40
(lp317
(S'thin'
p318
S'skeletal'
p319
tp320
a(g318
S'skinny'
p321
tp322
a(g318
S'gaunt'
p323
tp324
a(g318
S'emaciated'
p325
tp326
a(S'slim'
p327
g321
tp328
a(S'lean'
p329
g321
tp330
asI41
(lp331
(S'statewide'
p332
S'nationwide'
p333
tp334
a(g333
S'worldwide'
p335
tp336
asI42
(lp337
(S'warm'
p338
S'stifling'
p339
tp340
a(g338
S'overheated'
p341
tp342
a(g338
S'sultry'
p343
tp344
a(g338
S'hot'
p345
tp346
asI43
(lp347
(S'smooth'
p348
S'effortless'
p349
tp350
a(S'easy'
p351
S'simple'
p352
tp353
a(g352
S'painless'
p354
tp355
a(g351
g349
tp356
a(g351
g354
tp357
asI44
(lp358
(S'plain'
p359
S'unattractive'
p360
tp361
a(g359
S'ugly'
p362
tp363
asI45
(lp364
(S'like'
p365
S'same'
p366
tp367
a(S'equal'
p368
g366
tp369
asI46
(lp370
(S'widespread'
p371
S'universal'
p372
tp373
a(S'general'
p374
g372
tp375
a(S'broad'
p376
g372
tp377
asI47
(lp378
(S'cheap'
p379
S'bad'
p380
tp381
a(S'mediocre'
p382
g380
tp383
a(g380
S'worst'
p384
tp385
asI48
(lp386
(S'handsome'
p387
S'pretty'
p388
tp389
a(S'gorgeous'
p390
g388
tp391
a(S'beautiful'
p392
g388
tp393
a(g392
S'attractive'
p394
tp395
a(g390
S'lovely'
p396
tp397
asI49
(lp398
(S'thick'
p399
S'impenetrable'
p400
tp401
a(S'dense'
p402
g400
tp403
asI50
(lp404
(S'soft'
p405
S'inaudible'
p406
tp407
a(S'quiet'
p408
S'silent'
p409
tp410
a(g408
g406
tp411
asI51
(lp412
(S'unfriendly'
p413
S'hostile'
p414
tp415
a(S'cool'
p416
g414
tp417
a(S'chilly'
p418
g416
tp419
asI52
(lp420
(S'sizeable'
p421
S'huge'
p422
tp423
a(S'large'
p424
g422
tp425
a(S'big'
p426
g422
tp427
a(g422
S'colossal'
p428
tp429
asI53
(lp430
(S'dual'
p431
S'triple'
p432
tp433
a(S'doubled'
p434
g432
tp435
a(S'double'
p436
S'treble'
p437
tp438
a(g436
g432
tp439
a(g436
S'quadruple'
p440
tp441
a(g437
g440
tp442
a(g432
g440
tp443
asI54
(lp444
(S'creepy'
p445
S'scary'
p446
tp447
a(S'frightening'
p448
g446
tp449
a(g446
S'sinister'
p450
tp451
a(g448
S'terrifying'
p452
tp453
asI55
(lp454
(S'few'
p455
S'fewer'
p456
tp457
asI56
(lp458
(S'overlooked'
p459
S'forgotten'
p460
tp461
a(S'ignored'
p462
g459
tp463
a(S'neglected'
p464
g460
tp465
a(g464
g462
tp466
asI57
(lp467
(S'old'
p468
S'outdated'
p469
tp470
a(g468
S'obsolete'
p471
tp472
asI58
(lp473
(S'necessary'
p474
S'vital'
p475
tp476
a(g474
S'indispensable'
p477
tp478
a(g474
S'critical'
p479
tp480
asI59
(lp481
(S'attractive'
p482
S'seductive'
p483
tp484
a(g482
S'beautiful'
p485
tp486
a(g485
S'mesmerizing'
p487
tp488
asI60
(lp489
(S'closed'
p490
S'shut'
p491
tp492
a(g490
S'sealed'
p493
tp494
asI61
(lp495
(S'unexpected'
p496
S'stunning'
p497
tp498
a(g496
S'astonishing'
p499
tp500
asI62
(lp501
(S'indecent'
p502
S'profane'
p503
tp504
a(g502
S'obscene'
p505
tp506
asI63
(lp507
(S'attractive'
p508
S'sexy'
p509
tp510
a(g508
S'seductive'
p511
tp512
asI64
(lp513
(S'humbled'
p514
S'humiliated'
p515
tp516
a(g515
S'crushed'
p517
tp518
asI65
(lp519
(S'smart'
p520
S'brilliant'
p521
tp522
a(S'intelligent'
p523
g521
tp524
a(S'bright'
p525
S'clever'
p526
tp527
a(g526
g521
tp528
asI66
(lp529
(S'violent'
p530
S'murderous'
p531
tp532
a(g530
S'homicidal'
p533
tp534
asI67
(lp535
(S'personal'
p536
S'private'
p537
tp538
a(g537
S'secret'
p539
tp540
asI68
(lp541
(S'higher'
p542
S'soaring'
p543
tp544
a(S'high'
p545
g542
tp546
asI69
(lp547
(S'harmful'
p548
S'toxic'
p549
tp550
a(g548
S'deadly'
p551
tp552
a(g549
g551
tp553
asI70
(lp554
(S'small'
p555
S'tiny'
p556
tp557
a(g555
S'microscopic'
p558
tp559
a(g555
S'minuscule'
p560
tp561
a(g555
S'minute'
p562
tp563
a(g555
S'smaller'
p564
tp565
a(g555
S'micro'
p566
tp567
a(g556
g558
tp568
a(g564
S'midget'
p569
tp570
asI71
(lp571
(S'infeasible'
p572
S'impossible'
p573
tp574
a(S'impractical'
p575
g573
tp576
a(S'unrealistic'
p577
g573
tp578
a(S'impracticable'
p579
g573
tp580
asI72
(lp581
(S'ripe'
p582
S'overripe'
p583
tp584
a(S'mature'
p585
g583
tp586
asI73
(lp587
(S'overweight'
p588
S'obese'
p589
tp590
a(S'chubby'
p591
S'fat'
p592
tp593
a(g592
g589
tp594
asI74
(lp595
(S'uneasy'
p596
S'painful'
p597
tp598
a(S'uncomfortable'
p599
g597
tp600
asI75
(lp601
(S'warm'
p602
S'intimate'
p603
tp604
a(S'friendly'
p605
S'cordial'
p606
tp607
a(g605
g603
tp608
asI76
(lp609
(S'cool'
p610
S'cold'
p611
tp612
a(g610
S'frozen'
p613
tp614
a(g610
S'frigid'
p615
tp616
a(g611
S'icy'
p617
tp618
a(g611
g613
tp619
a(g611
g615
tp620
asI77
(lp621
(S'disappointed'
p622
S'frustrated'
p623
tp624
a(g622
S'defeated'
p625
tp626
asI78
(lp627
(S'tight'
p628
S'snug'
p629
tp630
a(S'close'
p631
g628
tp632
asI79
(lp633
(S'extensive'
p634
S'universal'
p635
tp636
a(g634
S'comprehensive'
p637
tp638
a(g634
S'complete'
p639
tp640
a(S'general'
p641
g635
tp642
a(g639
g637
tp643
asI80
(lp644
(S'alive'
p645
S'awake'
p646
tp647
a(g646
S'conscious'
p648
tp649
a(g646
S'aware'
p650
tp651
a(g645
g648
tp652
a(g645
g650
tp653
a(g650
g648
tp654
asI81
(lp655
(S'interested'
p656
S'involved'
p657
tp658
a(S'concerned'
p659
g657
tp660
asI82
(lp661
(S'negative'
p662
S'hostile'
p663
tp664
a(S'critical'
p665
g663
tp666
asI83
(lp667
(S'hard'
p668
S'painful'
p669
tp670
a(g668
S'hopeless'
p671
tp672
asI84
(lp673
(S'happy'
p674
S'content'
p675
tp676
a(g674
S'euphoric'
p677
tp678
asI85
(lp679
(S'calm'
p680
S'cool'
p681
tp682
a(g680
S'serene'
p683
tp684
asI86
(lp685
(S'unreliable'
p686
S'dangerous'
p687
tp688
a(g687
S'risky'
p689
tp690
a(g687
S'suicidal'
p691
tp692
as.