(dp0
I0
(lp1
(S'large'
p2
S'larger'
p3
tp4
asI2
(lp5
(S'easy'
p6
S'easier'
p7
tp8
asI3
(lp9
(S'pure'
p10
S'purer'
p11
tp12
asI6
(lp13
(S'close'
p14
S'closer'
p15
tp16
asI7
(lp17
(S'bright'
p18
S'brighter'
p19
tp20
asI9
(lp21
(S'many'
p22
S'more'
p23
tp24
asI10
(lp25
(S'cool'
p26
S'cooler'
p27
tp28
asI11
(lp29
(S'slow'
p30
S'slower'
p31
tp32
asI12
(lp33
(S'good'
p34
S'great'
p35
tp36
asI13
(lp37
(S'long'
p38
S'longer'
p39
tp40
asI14
(lp41
(S'light'
p42
S'lighter'
p43
tp44
asI15
(lp45
(S'hot'
p46
S'hotter'
p47
tp48
asI17
(lp49
(S'some'
p50
S'more'
p51
tp52
asI18
(lp53
(S'less'
p54
S'lesser'
p55
tp56
asI20
(lp57
(S'stupid'
p58
S'stupider'
p59
tp60
asI21
(lp61
(S'pretty'
p62
S'prettier'
p63
tp64
asI22
(lp65
(S'rich'
p66
S'richer'
p67
tp68
asI23
(lp69
(S'happy'
p70
S'happier'
p71
tp72
asI25
(lp73
(S'narrow'
p74
S'narrower'
p75
tp76
asI26
(lp77
(S'safe'
p78
S'safer'
p79
tp80
asI29
(lp81
(S'lovely'
p82
S'lovelier'
p83
tp84
asI30
(lp85
(S'subtle'
p86
S'subtler'
p87
tp88
asI32
(lp89
(S'heavy'
p90
S'heavier'
p91
tp92
asI34
(lp93
(S'weak'
p94
S'weaker'
p95
tp96
asI36
(lp97
(S'strange'
p98
S'stranger'
p99
tp100
asI37
(lp101
(S'far'
p102
S'farther'
p103
tp104
asI38
(lp105
(S'lucky'
p106
S'luckier'
p107
tp108
asI40
(lp109
(S'old'
p110
S'older'
p111
tp112
asI41
(lp113
(S'simple'
p114
S'simpler'
p115
tp116
asI44
(lp117
(S'few'
p118
S'fewer'
p119
tp120
asI47
(lp121
(S'low'
p122
S'lower'
p123
tp124
asI48
(lp125
(S'nice'
p126
S'nicer'
p127
tp128
asI49
(lp129
(S'sure'
p130
S'surer'
p131
tp132
asI50
(lp133
(S'cold'
p134
S'colder'
p135
tp136
asI51
(lp137
(S'rare'
p138
S'rarer'
p139
tp140
asI53
(lp141
(S'proud'
p142
S'prouder'
p143
tp144
asI55
(lp145
(S'much'
p146
S'more'
p147
tp148
asI56
(lp149
(S'noble'
p150
S'nobler'
p151
tp152
asI57
(lp153
(S'fast'
p154
S'faster'
p155
tp156
asI58
(lp157
(S'deep'
p158
S'deeper'
p159
tp160
asI60
(lp161
(S'weird'
p162
S'weirder'
p163
tp164
asI61
(lp165
(S'wise'
p166
S'wiser'
p167
tp168
asI62
(lp169
(S'sound'
p170
S'sounder'
p171
tp172
asI65
(lp173
(S'little'
p174
S'less'
p175
tp176
asI66
(lp177
(S'tough'
p178
S'tougher'
p179
tp180
asI67
(lp181
(S'quiet'
p182
S'quieter'
p183
tp184
asI68
(lp185
(S'broad'
p186
S'broader'
p187
tp188
asI69
(lp189
(S'healthy'
p190
S'healthier'
p191
tp192
asI70
(lp193
(S'wide'
p194
S'wider'
p195
tp196
asI73
(lp197
(S'busy'
p198
S'busier'
p199
tp200
asI77
(lp201
(S'short'
p202
S'shorter'
p203
tp204
asI78
(lp205
(S'hard'
p206
S'harder'
p207
tp208
asI79
(lp209
(S'grim'
p210
S'grimmer'
p211
tp212
asI81
(lp213
(S'late'
p214
S'later'
p215
tp216
asI82
(lp217
(S'high'
p218
S'higher'
p219
tp220
asI83
(lp221
(S'bad'
p222
S'worse'
p223
tp224
asI85
(lp225
(S'thin'
p226
S'thinner'
p227
tp228
asI87
(lp229
(S'quick'
p230
S'quicker'
p231
tp232
asI88
(lp233
(S'tall'
p234
S'taller'
p235
tp236
asI89
(lp237
(S'dead'
p238
S'deader'
p239
tp240
asI90
(lp241
(S'true'
p242
S'truer'
p243
tp244
asI92
(lp245
(S'big'
p246
S'bigger'
p247
tp248
asI93
(lp249
(S'strict'
p250
S'stricter'
p251
tp252
asI94
(lp253
(S'clear'
p254
S'clearer'
p255
tp256
asI96
(lp257
(S'young'
p258
S'younger'
p259
tp260
asI98
(lp261
(S'smart'
p262
S'smarter'
p263
tp264
asI99
(lp265
(S'green'
p266
S'greener'
p267
tp268
asI101
(lp269
(S'dense'
p270
S'denser'
p271
tp272
asI102
(lp273
(S'fair'
p274
S'fairer'
p275
tp276
asI103
(lp277
(S'warm'
p278
S'warmer'
p279
tp280
asI106
(lp281
(S'dark'
p282
S'darker'
p283
tp284
asI107
(lp285
(S'poor'
p286
S'poorer'
p287
tp288
asI111
(lp289
(S'great'
p290
S'greater'
p291
tp292
asI113
(lp293
(S'early'
p294
S'earlier'
p295
tp296
asI115
(lp297
(S'strong'
p298
S'stronger'
p299
tp300
asI118
(lp301
(S'cheap'
p302
S'cheaper'
p303
tp304
asI119
(lp305
(S'well'
p306
S'better'
p307
tp308
asI120
(lp309
(S'good'
p310
S'better'
p311
tp312
asI123
(lp313
(S'firm'
p314
S'firmer'
p315
tp316
asI125
(lp317
(S'small'
p318
S'smaller'
p319
tp320
asI126
(lp321
(S'fat'
p322
S'fatter'
p323
tp324
asI127
(lp325
(S'free'
p326
S'freer'
p327
tp328
asI128
(lp329
(S'dry'
p330
S'drier'
p331
tp332
asI129
(lp333
(S'cute'
p334
S'cuter'
p335
tp336
asI131
(lp337
(S'loud'
p338
S'louder'
p339
tp340
asI132
(lp341
(S'longer'
p342
S'longest'
p343
tp344
asI133
(lp345
(S'harder'
p346
S'hardest'
p347
tp348
asI134
(lp349
(S'broader'
p350
S'broadest'
p351
tp352
asI135
(lp353
(S'deeper'
p354
S'deepest'
p355
tp356
asI137
(lp357
(S'lower'
p358
S'lowest'
p359
tp360
asI139
(lp361
(S'smaller'
p362
S'smallest'
p363
tp364
asI143
(lp365
(S'greater'
p366
S'greatest'
p367
tp368
asI144
(lp369
(S'closer'
p370
S'closest'
p371
tp372
asI148
(lp373
(S'wider'
p374
S'widest'
p375
tp376
asI152
(lp377
(S'stronger'
p378
S'strongest'
p379
tp380
asI156
(lp381
(S'later'
p382
S'latest'
p383
tp384
asI158
(lp385
(S'simpler'
p386
S'simplest'
p387
tp388
asI159
(lp389
(S'easier'
p390
S'easiest'
p391
tp392
asI160
(lp393
(S'less'
p394
S'least'
p395
tp396
asI161
(lp397
(S'higher'
p398
S'highest'
p399
tp400
asI162
(lp401
(S'clearer'
p402
S'clearest'
p403
tp404
asI164
(lp405
(S'quicker'
p406
S'quickest'
p407
tp408
asI165
(lp409
(S'poorer'
p410
S'poorest'
p411
tp412
asI167
(lp413
(S'bigger'
p414
S'biggest'
p415
tp416
asI168
(lp417
(S'safer'
p418
S'safest'
p419
tp420
asI169
(lp421
(S'younger'
p422
S'youngest'
p423
tp424
asI174
(lp425
(S'faster'
p426
S'fastest'
p427
tp428
asI179
(lp429
(S'clear'
p430
S'clearest'
p431
tp432
asI180
(lp433
(S'long'
p434
S'longest'
p435
tp436
asI181
(lp437
(S'fair'
p438
S'fairest'
p439
tp440
asI182
(lp441
(S'great'
p442
S'greatest'
p443
tp444
asI184
(lp445
(S'small'
p446
S'smallest'
p447
tp448
asI187
(lp449
(S'wide'
p450
S'widest'
p451
tp452
asI189
(lp453
(S'free'
p454
S'freest'
p455
tp456
asI191
(lp457
(S'little'
p458
S'least'
p459
tp460
asI192
(lp461
(S'short'
p462
S'shortest'
p463
tp464
asI193
(lp465
(S'grave'
p466
S'gravest'
p467
tp468
asI196
(lp469
(S'much'
p470
S'most'
p471
tp472
asI197
(lp473
(S'close'
p474
S'closest'
p475
tp476
asI198
(lp477
(S'dark'
p478
S'darkest'
p479
tp480
asI199
(lp481
(S'weak'
p482
S'weakest'
p483
tp484
asI200
(lp485
(S'broad'
p486
S'broadest'
p487
tp488
asI201
(lp489
(S'easy'
p490
S'easiest'
p491
tp492
asI205
(lp493
(S'big'
p494
S'biggest'
p495
tp496
asI206
(lp497
(S'new'
p498
S'newest'
p499
tp500
asI208
(lp501
(S'good'
p502
S'excellent'
p503
tp504
asI210
(lp505
(S'poor'
p506
S'poorest'
p507
tp508
asI211
(lp509
(S'cruel'
p510
S'cruellest'
p511
tp512
asI212
(lp513
(S'many'
p514
S'most'
p515
tp516
asI216
(lp517
(S'bad'
p518
S'worst'
p519
tp520
asI217
(lp521
(S'strict'
p522
S'strictest'
p523
tp524
asI218
(lp525
(S'good'
p526
S'best'
p527
tp528
asI220
(lp529
(S'rich'
p530
S'richest'
p531
tp532
asI221
(lp533
(S'rare'
p534
S'rarest'
p535
tp536
asI222
(lp537
(S'fast'
p538
S'fastest'
p539
tp540
asI223
(lp541
(S'low'
p542
S'lowest'
p543
tp544
asI224
(lp545
(S'simple'
p546
S'simplest'
p547
tp548
asI226
(lp549
(S'happy'
p550
S'happiest'
p551
tp552
asI229
(lp553
(S'early'
p554
S'earliest'
p555
tp556
asI230
(lp557
(S'high'
p558
S'highest'
p559
tp560
asI233
(lp561
(S'warm'
p562
S'warmest'
p563
tp564
asI234
(lp565
(S'young'
p566
S'youngest'
p567
tp568
asI235
(lp569
(S'strong'
p570
S'strongest'
p571
tp572
asI238
(lp573
(S'little'
p574
S'less'
p575
tp576
a(g574
S'least'
p577
tp578
a(g575
g577
tp579
asI239
(lp580
(S'broad'
p581
S'broader'
p582
tp583
a(g581
S'broadest'
p584
tp585
a(g582
g584
tp586
asI240
(lp587
(S'grave'
p588
S'gravest'
p589
tp590
asI241
(lp591
(S'bright'
p592
S'brighter'
p593
tp594
asI242
(lp595
(S'heavy'
p596
S'heavier'
p597
tp598
asI243
(lp599
(S'easier'
p600
S'easiest'
p601
tp602
asI244
(lp603
(S'small'
p604
S'smaller'
p605
tp606
a(g604
S'smallest'
p607
tp608
a(g605
g607
tp609
asI246
(lp610
(S'smart'
p611
S'smarter'
p612
tp613
asI247
(lp614
(S'cheap'
p615
S'cheaper'
p616
tp617
asI248
(lp618
(S'big'
p619
S'bigger'
p620
tp621
a(g619
S'biggest'
p622
tp623
a(g620
g622
tp624
asI249
(lp625
(S'warm'
p626
S'warmest'
p627
tp628
a(g626
S'warmer'
p629
tp630
asI251
(lp631
(S'close'
p632
S'closer'
p633
tp634
a(g632
S'closest'
p635
tp636
a(g633
g635
tp637
asI252
(lp638
(S'free'
p639
S'freest'
p640
tp641
a(g639
S'freer'
p642
tp643
asI253
(lp644
(S'poor'
p645
S'poorest'
p646
tp647
a(g645
S'poorer'
p648
tp649
a(g648
g646
tp650
asI254
(lp651
(S'rare'
p652
S'rarest'
p653
tp654
a(g652
S'rarer'
p655
tp656
asI255
(lp657
(S'safe'
p658
S'safer'
p659
tp660
a(g659
S'safest'
p661
tp662
asI256
(lp663
(S'simple'
p664
S'simpler'
p665
tp666
a(g664
S'simplest'
p667
tp668
a(g665
g667
tp669
asI257
(lp670
(S'large'
p671
S'larger'
p672
tp673
asI258
(lp674
(S'great'
p675
S'greater'
p676
tp677
a(g675
S'greatest'
p678
tp679
a(g676
g678
tp680
asI259
(lp681
(S'later'
p682
S'latest'
p683
tp684
a(S'late'
p685
g682
tp686
asI260
(lp687
(S'dark'
p688
S'darkest'
p689
tp690
a(g688
S'darker'
p691
tp692
asI261
(lp693
(S'quick'
p694
S'quicker'
p695
tp696
a(g695
S'quickest'
p697
tp698
asI262
(lp699
(S'wide'
p700
S'wider'
p701
tp702
a(g700
S'widest'
p703
tp704
a(g701
g703
tp705
asI264
(lp706
(S'deep'
p707
S'deeper'
p708
tp709
a(g708
S'deepest'
p710
tp711
asI265
(lp712
(S'young'
p713
S'younger'
p714
tp715
a(g713
S'youngest'
p716
tp717
a(g714
g716
tp718
asI267
(lp719
(S'new'
p720
S'newest'
p721
tp722
asI268
(lp723
(S'long'
p724
S'longer'
p725
tp726
a(g724
S'longest'
p727
tp728
a(g725
g727
tp729
asI270
(lp730
(S'hard'
p731
S'harder'
p732
tp733
a(g732
S'hardest'
p734
tp735
asI271
(lp736
(S'rich'
p737
S'richest'
p738
tp739
a(g737
S'richer'
p740
tp741
asI272
(lp742
(S'strict'
p743
S'strictest'
p744
tp745
a(g743
S'stricter'
p746
tp747
asI274
(lp748
(S'weak'
p749
S'weakest'
p750
tp751
a(g749
S'weaker'
p752
tp753
asI275
(lp754
(S'fair'
p755
S'fairest'
p756
tp757
a(g755
S'fairer'
p758
tp759
asI276
(lp760
(S'short'
p761
S'shortest'
p762
tp763
a(g761
S'shorter'
p764
tp765
asI277
(lp766
(S'high'
p767
S'higher'
p768
tp769
a(g767
S'highest'
p770
tp771
a(g768
g770
tp772
asI278
(lp773
(S'early'
p774
S'earliest'
p775
tp776
a(g774
S'earlier'
p777
tp778
asI279
(lp779
(S'clear'
p780
S'clearer'
p781
tp782
a(g780
S'clearest'
p783
tp784
a(g781
g783
tp785
asI280
(lp786
(S'low'
p787
S'lower'
p788
tp789
a(g787
S'lowest'
p790
tp791
a(g788
g790
tp792
asI281
(lp793
(S'happy'
p794
S'happiest'
p795
tp796
a(g794
S'happier'
p797
tp798
asI282
(lp799
(S'fast'
p800
S'faster'
p801
tp802
a(g800
S'fastest'
p803
tp804
a(g801
g803
tp805
asI283
(lp806
(S'old'
p807
S'older'
p808
tp809
asI284
(lp810
(S'strong'
p811
S'stronger'
p812
tp813
a(g811
S'strongest'
p814
tp815
a(g812
g814
tp816
as.