(dp0
S'tau'
p1
F0.6233034995599994
sS'|tau|'
p2
F0.691994457265197
sS'pairwise'
p3
F0.7508483853311435
sS'ranking'
p4
(dp5
I0
(dp6
g1
F1.0
sS'gold'
p7
(lp8
(lp9
S'first'
p10
aa(lp11
S'second'
p12
aa(lp13
S'third'
p14
aa(lp15
S'fourth'
p16
aa(lp17
S'fifth'
p18
aa(lp19
S'sixth'
p20
aa(lp21
S'seventh'
p22
aa(lp23
S'eighth'
p24
aasS'raw'
p25
(dp26
S'prob*'
p27
cnumpy.core.multiarray
scalar
p28
(cnumpy
dtype
p29
(S'f8'
p30
I0
I1
tp31
Rp32
(I3
S'<'
p33
NNNI-1
I-1
I0
tp34
bS'\x80\xb1L\xb6}\xbb\xf0>'
p35
tp36
Rp37
sS'link-probs'
p38
(lp39
(g10
g12
F0.7263216738540169
tp40
a(g10
g14
F0.3713336212481319
tp41
a(g10
g16
F0.4573350253986637
tp42
a(g10
g18
F0.6514758178142649
tp43
a(g10
g20
F0.46594838655531884
tp44
a(g10
g22
F0.6502463564181854
tp45
a(g10
g24
F0.6500832986303035
tp46
a(g12
g14
F0.9913218833552363
tp47
a(g12
g16
F0.6177204365523213
tp48
a(g12
g18
F0.6650518168871057
tp49
a(g12
g20
F0.6221059475777849
tp50
a(g12
g22
F0.6649150706138854
tp51
a(g12
g24
F0.6648968633651916
tp52
a(g14
g16
F0.991927430093209
tp53
a(g14
g18
F0.99
tp54
a(g14
g20
F0.6123326212687992
tp55
a(g14
g22
F0.6644591239107711
tp56
a(g14
g24
F0.6644362091309662
tp57
a(g16
g18
F0.9995450409463148
tp58
a(g16
g20
F0.5090887117227364
tp59
a(g16
g22
F0.6567404538388738
tp60
a(g16
g24
F0.6566398437241042
tp61
a(g18
g20
F0.9878048780487805
tp62
a(g18
g22
F0.4931956353426212
tp63
a(g18
g24
F0.4923309438823675
tp64
a(g20
g22
F0.99375
tp65
a(g20
g24
F0.6555218701201854
tp66
a(g22
g24
F0.9888888888888889
tp67
assg3
F1.0
sS'algo'
p68
(lp69
(lp70
g10
aa(lp71
g12
aa(lp72
g14
aa(lp73
g16
aa(lp74
g18
aa(lp75
g20
aa(lp76
g22
aa(lp77
g24
aasg2
F1.0
ssI1
(dp78
g1
F1.0
sg7
(lp79
(lp80
S'known'
p81
aa(lp82
S'famous'
p83
aa(lp84
S'legendary'
p85
aasg25
(dp86
g27
g28
(g32
S'\x87\x06\xd0N\xdc\xa8\xe4?'
p87
tp88
Rp89
sg38
(lp90
(g81
g83
F0.9911504424778761
tp91
a(g81
g85
F0.6583813206440458
tp92
a(g83
g85
F0.9893617021276596
tp93
assg3
F1.0
sg68
(lp94
(lp95
g81
aa(lp96
g83
aa(lp97
g85
aasg2
F1.0
ssI2
(dp98
g1
F0.6666666666666666
sg7
(lp99
(lp100
S'dim'
p101
aa(lp102
S'gloomy'
p103
aa(lp104
S'dark'
p105
aa(lp106
S'black'
p107
aasg25
(dp108
g27
g28
(g32
S'\xc3\xb8\x14\xa2*\xda\xce?'
p109
tp110
Rp111
sg38
(lp112
(g101
g105
F0.9965034965034965
tp113
a(g101
g103
F0.9973262032085561
tp114
a(g101
g107
F0.654991584521511
tp115
a(g105
g103
F0.6666666666666666
tp116
a(g105
g107
F0.9999178779666584
tp117
a(g103
g107
F0.5554583514227563
tp118
assg3
F0.8333333333333334
sg68
(lp119
(lp120
g101
aa(lp121
g105
aa(lp122
g103
aa(lp123
g107
aasg2
F0.6666666666666666
ssI3
(dp124
g1
F1.0
sg7
(lp125
(lp126
S'close'
p127
aa(lp128
S'near'
p129
aa(lp130
S'intimate'
p131
aasg25
(dp132
g27
g28
(g32
S'\x94g\xe2\x9e\xc8z\xe2?'
p133
tp134
Rp135
sg38
(lp136
(g127
g129
F0.875
tp137
a(g127
g131
F0.996
tp138
a(g129
g131
F0.6626371101570677
tp139
assg3
F1.0
sg68
(lp140
(lp141
g127
aa(lp142
g129
aa(lp143
g131
aasg2
F1.0
ssI4
(dp144
g1
F0.5477225575051661
sg7
(lp145
(lp146
S'nearby'
p147
aS'near'
p148
aa(lp149
S'close'
p150
aa(lp151
S'adjacent'
p152
aasg25
(dp153
g27
g28
(g32
S'\xa8\x05\xa9L5J\xd8?'
p154
tp155
Rp156
sg38
(lp157
(g147
g150
F0.9938271604938271
tp158
a(g147
g148
F0.6666666666666666
tp159
a(g147
g152
F0.6565412194606358
tp160
a(g150
g148
F0.875
tp161
a(g150
g152
F0.9984423676012462
tp162
a(g148
g152
F0.9986945169712794
tp163
assg3
F0.6666666666666666
sg68
(lp164
(lp165
g147
aa(lp166
g150
aa(lp167
g148
aa(lp168
g152
aasg2
F0.5477225575051661
ssI5
(dp169
g1
F-0.5477225575051661
sg7
(lp170
(lp171
S'sufficient'
p172
aa(lp173
S'good'
p174
aS'wide'
p175
aa(lp176
S'full'
p177
aasg25
(dp178
g27
g28
(g32
S'\x94\x17,\xf8\x90\xb4\xc3?'
p179
tp180
Rp181
sg38
(lp182
(g174
g177
F0.9903846153846154
tp183
a(g174
g175
F0.9926470588235294
tp184
a(g174
g172
F0.9988479262672811
tp185
a(g177
g175
F0.5177212267160946
tp186
a(g177
g172
F0.5584198752996411
tp187
a(g175
g172
F0.542274198965137
tp188
assg3
F0.16666666666666666
sg68
(lp189
(lp190
g174
aa(lp191
g177
aa(lp192
g175
aa(lp193
g172
aasg2
F0.5477225575051661
ssI6
(dp194
g1
F0.3333333333333333
sg7
(lp195
(lp196
S'real'
p197
aa(lp198
S'solemn'
p199
aa(lp200
S'serious'
p201
aa(lp202
S'grave'
p203
aasg25
(dp204
g27
g28
(g32
S'\xb6\xd5l\xd7^\xf3\xd1?'
p205
tp206
Rp207
sg38
(lp208
(g197
g201
F0.995249406175772
tp209
a(g197
g203
F0.6666666666666666
tp210
a(g197
g199
F0.6641432135032633
tp211
a(g201
g203
F0.963963963963964
tp212
a(g201
g199
F0.9985795454545454
tp213
a(g203
g199
F0.6612333022929403
tp214
assg3
F0.6666666666666666
sg68
(lp215
(lp216
g197
aa(lp217
g201
aa(lp218
g203
aa(lp219
g199
aasg2
F0.3333333333333333
ssI7
(dp220
g1
F0.5012804118276031
sg7
(lp221
(lp222
S'interesting'
p223
aa(lp224
S'intriguing'
p225
aa(lp226
S'amusing'
p227
aS'entertaining'
p228
aa(lp229
S'fascinating'
p230
aS'exciting'
p231
aasg25
(dp232
g27
g28
(g32
S'\xfc\xa3\xbfn*R\x86?'
p233
tp234
Rp235
sg38
(lp236
(g223
g228
F0.9991087344028521
tp237
a(g223
g230
F0.9987429289754871
tp238
a(g223
g225
F0.9829059829059829
tp239
a(g223
g227
F0.9986702127659575
tp240
a(g223
g231
F0.8792982456140351
tp241
a(g228
g230
F0.6317178394612002
tp242
a(g228
g225
F0.6484234195208187
tp243
a(g228
g227
F0.967391304347826
tp244
a(g228
g231
F0.9947916666666666
tp245
a(g230
g225
F0.6
tp246
a(g230
g227
F0.5656962726727697
tp247
a(g230
g231
F0.4166666666666667
tp248
a(g225
g227
F0.5107274521343602
tp249
a(g225
g231
F0.6666666666666666
tp250
a(g227
g231
F0.6666666666666666
tp251
assg3
F0.6666666666666666
sg68
(lp252
(lp253
g223
aa(lp254
g228
aa(lp255
g230
aa(lp256
g225
aa(lp257
g227
aa(lp258
g231
aasg2
F0.5012804118276031
ssI8
(dp259
g1
F-0.18257418583505536
sg7
(lp260
(lp261
S'far'
p262
aa(lp263
S'further'
p264
aS'farther'
p265
aa(lp266
S'removed'
p267
aasg25
(dp268
g27
g28
(g32
S'\xc2/\xc3\xd3\x16\x1d\xc6?'
p269
tp270
Rp271
sg38
(lp272
(g267
g262
F0.6666666666666666
tp273
a(g267
g264
F0.6260802683255535
tp274
a(g267
g265
F0.6260802683255535
tp275
a(g262
g264
F0.996031746031746
tp276
a(g262
g265
F0.9956331877729258
tp277
a(g264
g265
F0.6666666666666666
tp278
assg3
F0.3333333333333333
sg68
(lp279
(lp280
g267
aa(lp281
g262
aa(lp282
g264
aa(lp283
g265
aasg2
F0.18257418583505536
ssI9
(dp284
g1
F0.23570226039551587
sg7
(lp285
(lp286
S'acceptable'
p287
aS'okay'
p288
aS'alright'
p289
aa(lp290
S'right'
p291
aasg25
(dp292
g27
g28
(g32
S'q\xa4\xf6IW\xb8\x9f?'
p293
tp294
Rp295
sg38
(lp296
(g289
g287
F0.6195872206708848
tp297
a(g289
g291
F0.9967814612166077
tp298
a(g289
g288
F0.1111111111111111
tp299
a(g287
g291
F0.9858490566037735
tp300
a(g287
g288
F0.4606514126284063
tp301
a(g291
g288
F0.9940119760479041
tp302
assg3
F0.3333333333333333
sg68
(lp303
(lp304
g289
aa(lp305
g287
aa(lp306
g291
aa(lp307
g288
aasg2
F0.23570226039551587
ssI10
(dp308
g1
F1.0
sg7
(lp309
(lp310
S'cracked'
p311
aa(lp312
S'broken'
p313
aa(lp314
S'crushed'
p315
aasg25
(dp316
g27
g28
(g32
S'\xa1\x0e\xd9;9\xe5\xe4?'
p317
tp318
Rp319
sg38
(lp320
(g311
g313
F0.9989130434782608
tp321
a(g311
g315
F0.656704332655307
tp322
a(g313
g315
F0.9954128440366973
tp323
assg3
F1.0
sg68
(lp324
(lp325
g311
aa(lp326
g313
aa(lp327
g315
aasg2
F1.0
ssI11
(dp328
g1
F1.0
sg7
(lp329
(lp330
S'full'
p331
aa(lp332
S'stuffed'
p333
aa(lp334
S'overloaded'
p335
aa(lp336
S'overflowing'
p337
aasg25
(dp338
g27
g28
(g32
S'\xa8\xeb\x08\xfd\xf5\xca\xbf?'
p339
tp340
Rp341
sg38
(lp342
(g331
g333
F0.9990138067061144
tp343
a(g331
g335
F0.9990892531876139
tp344
a(g331
g337
F0.9954128440366973
tp345
a(g333
g335
F0.5
tp346
a(g333
g337
F0.5
tp347
a(g335
g337
F0.5
tp348
assg3
F1.0
sg68
(lp349
(lp350
g331
aa(lp351
g333
aa(lp352
g335
aa(lp353
g337
aasg2
F1.0
ssI12
(dp354
g1
F0.9128709291752769
sg7
(lp355
(lp356
S'flavorful'
p357
aa(lp358
S'zesty'
p359
aa(lp360
S'hot'
p361
aS'spicy'
p362
aasg25
(dp363
g27
g28
(g32
S'j\xe0\xe7%\xbb9\xd0?'
p364
tp365
Rp366
sg38
(lp367
(g357
g359
F0.5008663189182744
tp368
a(g357
g362
F0.5086554732617626
tp369
a(g357
g361
F0.9984472049689441
tp370
a(g359
g362
F0.9984802431610942
tp371
a(g359
g361
F0.9987341772151899
tp372
a(g362
g361
F0.9994438264738599
tp373
assg3
F0.8333333333333334
sg68
(lp374
(lp375
g357
aa(lp376
g359
aa(lp377
g362
aa(lp378
g361
aasg2
F0.9128709291752769
ssI13
(dp379
g1
F1.0
sg7
(lp380
(lp381
S'unstable'
p382
aa(lp383
S'crazy'
p384
aa(lp385
S'insane'
p386
aasg25
(dp387
g27
g28
(g32
S'.\x0e\xc6\x13\xfb\xa8\xe4?'
p388
tp389
Rp390
sg38
(lp391
(g382
g384
F0.9948453608247423
tp392
a(g382
g386
F0.6504350648977645
tp393
a(g384
g386
F0.997751798561151
tp394
assg3
F1.0
sg68
(lp395
(lp396
g382
aa(lp397
g384
aa(lp398
g386
aasg2
F1.0
ssI14
(dp399
g1
F1.0
sg7
(lp400
(lp401
S'good'
p402
aa(lp403
S'real'
p404
aa(lp405
S'authentic'
p406
aasg25
(dp407
g27
g28
(g32
S'\xbcz\xcc\xf5>3\xe5?'
p408
tp409
Rp410
sg38
(lp411
(g402
g404
F0.996742671009772
tp412
a(g402
g406
F0.9970059880239521
tp413
a(g404
g406
F0.6666666666666666
tp414
assg3
F1.0
sg68
(lp415
(lp416
g402
aa(lp417
g404
aa(lp418
g406
aasg2
F1.0
ssI15
(dp419
g1
F0.8164965809277261
sg7
(lp420
(lp421
S'clean'
p422
aa(lp423
S'spotless'
p424
aS'immaculate'
p425
aasg25
(dp426
g27
g28
(g32
S'oo\xc1\xfdk\xca\xdf?'
p427
tp428
Rp429
sg38
(lp430
(g422
g424
F0.99812382739212
tp431
a(g422
g425
F0.9953271028037384
tp432
a(g424
g425
F0.5
tp433
assg3
F0.6666666666666666
sg68
(lp434
(lp435
g422
aa(lp436
g424
aa(lp437
g425
aasg2
F0.8164965809277261
ssI16
(dp438
g1
F-0.3333333333333333
sg7
(lp439
(lp440
S'possible'
p441
aa(lp442
S'realistic'
p443
aa(lp444
S'feasible'
p445
aa(lp446
S'practical'
p447
aasg25
(dp448
g27
g28
(g32
S'\xc6N]^\xb1\x9b\xad?'
p449
tp450
Rp451
sg38
(lp452
(g443
g447
F0.6325308652645978
tp453
a(g443
g445
F0.6666666666666666
tp454
a(g443
g441
F0.4468599033816425
tp455
a(g447
g445
F0.9904306220095693
tp456
a(g447
g441
F0.5087303566974308
tp457
a(g445
g441
F0.6090712742980562
tp458
assg3
F0.3333333333333333
sg68
(lp459
(lp460
g443
aa(lp461
g447
aa(lp462
g445
aa(lp463
g441
aasg2
F0.3333333333333333
ssI17
(dp464
g1
F0.9128709291752769
sg7
(lp465
(lp466
S'sick'
p467
aS'ill'
p468
aa(lp469
S'impaired'
p470
aa(lp471
S'disabled'
p472
aasg25
(dp473
g27
g28
(g32
S'\xbd\xcc|r\x8e\xf0\xc2?'
p474
tp475
Rp476
sg38
(lp477
(g468
g467
F0.9800796812749004
tp478
a(g468
g470
F0.5433930481975912
tp479
a(g468
g472
F0.9888888888888889
tp480
a(g467
g470
F0.5494820218989892
tp481
a(g467
g472
F0.5144879529699771
tp482
a(g470
g472
F0.9938271604938271
tp483
assg3
F0.8333333333333334
sg68
(lp484
(lp485
g468
aa(lp486
g467
aa(lp487
g470
aa(lp488
g472
aasg2
F0.9128709291752769
ssI18
(dp489
g1
F0.6
sg7
(lp490
(lp491
S'uncommon'
p492
aa(lp493
S'unusual'
p494
aa(lp495
S'rare'
p496
aa(lp497
S'extraordinary'
p498
aa(lp499
S'exceptional'
p500
aasg25
(dp501
g27
g28
(g32
S'"\xaa\x96>\n\x95\x87?'
p502
tp503
Rp504
sg38
(lp505
(g494
g492
F0.9947089947089947
tp506
a(g494
g496
F0.6196319018404908
tp507
a(g494
g500
F0.4
tp508
a(g494
g498
F0.41841690456434644
tp509
a(g492
g496
F0.9426939377188134
tp510
a(g492
g500
F0.3333333333333333
tp511
a(g492
g498
F0.5485856264956476
tp512
a(g496
g500
F0.9941520467836257
tp513
a(g496
g498
F0.6666666666666666
tp514
a(g500
g498
F0.9770114942528736
tp515
assg3
F0.8
sg68
(lp516
(lp517
g494
aa(lp518
g492
aa(lp519
g496
aa(lp520
g500
aa(lp521
g498
aasg2
F0.6
ssI19
(dp522
g1
F1.0
sg7
(lp523
(lp524
S'impractical'
p525
aa(lp526
S'unrealistic'
p527
aa(lp528
S'impossible'
p529
aasg25
(dp530
g27
g28
(g32
S'\xdd \xa8\xbf-\x97\xe1?'
p531
tp532
Rp533
sg38
(lp534
(g525
g527
F0.5519648452008569
tp535
a(g525
g529
F0.9985747734907869
tp536
a(g527
g529
F0.9973262032085561
tp537
assg3
F1.0
sg68
(lp538
(lp539
g525
aa(lp540
g527
aa(lp541
g529
aasg2
F1.0
ssI20
(dp542
g1
F0.3333333333333333
sg7
(lp543
(lp544
S'transnational'
p545
aa(lp546
S'international'
p547
aa(lp548
S'global'
p549
aasg25
(dp550
g27
g28
(g32
S'\xc8Iuk\xce\xb5\xe1?'
p551
tp552
Rp553
sg38
(lp554
(g547
g545
F0.5562610603765066
tp555
a(g547
g549
F0.9998841251448436
tp556
a(g545
g549
F0.995049504950495
tp557
assg3
F0.6666666666666666
sg68
(lp558
(lp559
g547
aa(lp560
g545
aa(lp561
g549
aasg2
F0.3333333333333333
ssI21
(dp562
g1
F1.0
sg7
(lp563
(lp564
S'concerned'
p565
aa(lp566
S'preoccupied'
p567
aa(lp568
S'obsessed'
p569
aasg25
(dp570
g27
g28
(g32
S'p\xd9jv\xaa\x1a\xef?'
p571
tp572
Rp573
sg38
(lp574
(g565
g567
F0.9944903581267218
tp575
a(g565
g569
F0.9883720930232558
tp576
a(g567
g569
F0.9888888888888889
tp577
assg3
F1.0
sg68
(lp578
(lp579
g565
aa(lp580
g567
aa(lp581
g569
aasg2
F1.0
ssI22
(dp582
g1
F1.0
sg7
(lp583
(lp584
S'interesting'
p585
aa(lp586
S'moving'
p587
aa(lp588
S'exciting'
p589
aa(lp590
S'thrilling'
p591
aasg25
(dp592
g27
g28
(g32
S'\x98\xdd^\xda\xf9\x15\xcf?'
p593
tp594
Rp595
sg38
(lp596
(g585
g587
F0.9932432432432432
tp597
a(g585
g589
F0.8792982456140351
tp598
a(g585
g591
F0.6569211433065733
tp599
a(g587
g589
F0.6511503011741838
tp600
a(g587
g591
F0.6573836227766191
tp601
a(g589
g591
F0.9888888888888889
tp602
assg3
F1.0
sg68
(lp603
(lp604
g585
aa(lp605
g587
aa(lp606
g589
aa(lp607
g591
aasg2
F1.0
ssI23
(dp608
g1
F0.3333333333333333
sg7
(lp609
(lp610
S'low'
p611
aa(lp612
S'subdued'
p613
aa(lp614
S'quiet'
p615
aasg25
(dp616
g27
g28
(g32
S'I_<\xf2\x8a`\xd4?'
p617
tp618
Rp619
sg38
(lp620
(g611
g615
F0.5612397340461316
tp621
a(g611
g613
F0.5706991591361663
tp622
a(g615
g613
F0.9940476190476191
tp623
assg3
F0.6666666666666666
sg68
(lp624
(lp625
g611
aa(lp626
g615
aa(lp627
g613
aasg2
F0.3333333333333333
ssI24
(dp628
g1
F0.3333333333333333
sg7
(lp629
(lp630
S'sweet'
p631
aa(lp632
S'sugary'
p633
aa(lp634
S'syrupy'
p635
aasg25
(dp636
g27
g28
(g32
S'\x1f\rj\x0c\xce\xc6\xdf?'
p637
tp638
Rp639
sg38
(lp640
(g631
g635
F0.9973544973544973
tp641
a(g631
g633
F0.9956521739130435
tp642
a(g635
g633
F0.5
tp643
assg3
F0.6666666666666666
sg68
(lp644
(lp645
g631
aa(lp646
g635
aa(lp647
g633
aasg2
F0.3333333333333333
ssI25
(dp648
g1
F0.8
sg7
(lp649
(lp650
S'strong'
p651
aa(lp652
S'intense'
p653
aa(lp654
S'terrible'
p655
aa(lp656
S'overwhelming'
p657
aa(lp658
S'violent'
p659
aasg25
(dp660
g27
g28
(g32
S'_\xb8\xc0Q\xd6\xe8\xaf?'
p661
tp662
Rp663
sg38
(lp664
(g651
g653
F0.8333333333333334
tp665
a(g651
g657
F0.9993622448979592
tp666
a(g651
g655
F0.655553947364893
tp667
a(g651
g659
F0.9974489795918368
tp668
a(g653
g657
F0.9895833333333334
tp669
a(g653
g655
F0.6512415531214808
tp670
a(g653
g659
F0.9923076923076923
tp671
a(g657
g655
F0.5471386752620443
tp672
a(g657
g659
F0.591712782605036
tp673
a(g655
g659
F0.5527901489936845
tp674
assg3
F0.9
sg68
(lp675
(lp676
g651
aa(lp677
g653
aa(lp678
g657
aa(lp679
g655
aa(lp680
g659
aasg2
F0.8
ssI26
(dp681
g1
F0.8164965809277261
sg7
(lp682
(lp683
S'bleak'
p684
aS'desperate'
p685
aa(lp686
S'hopeless'
p687
aasg25
(dp688
g27
g28
(g32
S'\x02\xe3\xf8\xabL\xd5\xe4?'
p689
tp690
Rp691
sg38
(lp692
(g684
g685
F0.6593044836849258
tp693
a(g684
g687
F0.9951456310679612
tp694
a(g685
g687
F0.9922779922779923
tp695
assg3
F0.6666666666666666
sg68
(lp696
(lp697
g684
aa(lp698
g685
aa(lp699
g687
aasg2
F0.8164965809277261
ssI27
(dp700
g1
F1.0
sg7
(lp701
(lp702
S'unfortunate'
p703
aa(lp704
S'disastrous'
p705
aa(lp706
S'fatal'
p707
aasg25
(dp708
g27
g28
(g32
S'\xd7P^Cy\r\xe5?'
p709
tp710
Rp711
sg38
(lp712
(g703
g705
F0.6666666666666666
tp713
a(g703
g707
F0.995575221238938
tp714
a(g705
g707
F0.9912280701754386
tp715
assg3
F1.0
sg68
(lp716
(lp717
g703
aa(lp718
g705
aa(lp719
g707
aasg2
F1.0
ssI28
(dp720
g1
F1.0
sg7
(lp721
(lp722
S'negligent'
p723
aa(lp724
S'careless'
p725
aa(lp726
S'reckless'
p727
aasg25
(dp728
g27
g28
(g32
S'R\x8f\x1c\xcd\xa9}\xdf?'
p729
tp730
Rp731
sg38
(lp732
(g723
g725
F0.5
tp733
a(g723
g727
F0.9926470588235294
tp734
a(g725
g727
F0.9913793103448276
tp735
assg3
F1.0
sg68
(lp736
(lp737
g723
aa(lp738
g725
aa(lp739
g727
aasg2
F1.0
ssI29
(dp740
g1
F0.5270462766947299
sg7
(lp741
(lp742
S'strange'
p743
aS'funny'
p744
aa(lp745
S'unusual'
p746
aa(lp747
S'weird'
p748
aa(lp749
S'eerie'
p750
aasg25
(dp751
g27
g28
(g32
S'\x83\xea\xa3SS\x93\xc5?'
p752
tp753
Rp754
sg38
(lp755
(g743
g748
F0.9944071588366891
tp756
a(g743
g744
F0.9790940766550522
tp757
a(g743
g746
F0.9991334488734835
tp758
a(g743
g750
F0.9930555555555556
tp759
a(g748
g744
F0.9808429118773946
tp760
a(g748
g746
F0.6
tp761
a(g748
g750
F0.8
tp762
a(g744
g746
F0.75
tp763
a(g744
g750
F0.6588730912784658
tp764
a(g746
g750
F0.75
tp765
assg3
F0.7
sg68
(lp766
(lp767
g743
aa(lp768
g748
aa(lp769
g744
aa(lp770
g746
aa(lp771
g750
aasg2
F0.5270462766947299
ssI30
(dp772
g1
F-0.3333333333333333
sg7
(lp773
(lp774
S'reasonable'
p775
aa(lp776
S'valid'
p777
aa(lp778
S'sound'
p779
aasg25
(dp780
g27
g28
(g32
S'\xcb\xd0\xe7\x1d^\xce\xdf?'
p781
tp782
Rp783
sg38
(lp784
(g777
g779
F0.996551724137931
tp785
a(g777
g775
F0.5171603143472151
tp786
a(g779
g775
F0.9642857142857143
tp787
assg3
F0.3333333333333333
sg68
(lp788
(lp789
g777
aa(lp790
g779
aa(lp791
g775
aasg2
F0.3333333333333333
ssI31
(dp792
g1
F1.0
sg7
(lp793
(lp794
S'affordable'
p795
aa(lp796
S'inexpensive'
p797
aa(lp798
S'cheap'
p799
aasg25
(dp800
g27
g28
(g32
S'a\xb1\xdcR\xd4\x9b\xe0?'
p801
tp802
Rp803
sg38
(lp804
(g795
g797
F0.5224180006085103
tp805
a(g795
g799
F0.9947916666666666
tp806
a(g797
g799
F0.9987012987012988
tp807
assg3
F1.0
sg68
(lp808
(lp809
g795
aa(lp810
g797
aa(lp811
g799
aasg2
F1.0
ssI32
(dp812
g1
F0.3333333333333333
sg7
(lp813
(lp814
S'available'
p815
aa(lp816
S'accessible'
p817
aa(lp818
S'visible'
p819
aasg25
(dp820
g27
g28
(g32
S'\x7f\x13v\x9cZ\xf5\xdb?'
p821
tp822
Rp823
sg38
(lp824
(g815
g819
F0.629179500664404
tp825
a(g815
g817
F0.9977452085682075
tp826
a(g819
g817
F0.6958863858961802
tp827
assg3
F0.6666666666666666
sg68
(lp828
(lp829
g815
aa(lp830
g819
aa(lp831
g817
aasg2
F0.3333333333333333
ssI33
(dp832
g1
F0.4763305116224668
sg7
(lp833
(lp834
S'cool'
p835
aS'refrigerated'
p836
aS'chilly'
p837
aa(lp838
S'cold'
p839
aa(lp840
S'frigid'
p841
aa(lp842
S'icy'
p843
aS'frozen'
p844
aasg25
(dp845
g27
g28
(g32
S'\xef\x12*4)\xe8H?'
p846
tp847
Rp848
sg38
(lp849
(g835
g839
F0.9948108108108108
tp850
a(g835
g836
F0.5502114728758665
tp851
a(g835
g837
F0.9970674486803519
tp852
a(g835
g844
F0.9993446920052425
tp853
a(g835
g843
F0.6611785282453982
tp854
a(g835
g841
F0.9947368421052631
tp855
a(g839
g836
F0.5729662520472187
tp856
a(g839
g837
F0.43601190476190477
tp857
a(g839
g844
F0.9995519713261649
tp858
a(g839
g843
F0.9977578475336323
tp859
a(g839
g841
F0.9938271604938271
tp860
a(g836
g837
F0.6033310264799208
tp861
a(g836
g844
F0.9990974729241877
tp862
a(g836
g843
F0.6565890155749806
tp863
a(g836
g841
F0.657556868040967
tp864
a(g837
g844
F0.6245882263617127
tp865
a(g837
g843
F0.6275634755155146
tp866
a(g837
g841
F0.6310114530007274
tp867
a(g844
g843
F0.5069538670219229
tp868
a(g844
g841
F0.5155755910251011
tp869
a(g843
g841
F0.5086554732617626
tp870
assg3
F0.6190476190476191
sg68
(lp871
(lp872
g835
aa(lp873
g839
aa(lp874
g836
aa(lp875
g837
aa(lp876
g844
aa(lp877
g843
aa(lp878
g841
aasg2
F0.4763305116224668
ssI34
(dp879
g1
F-0.8164965809277261
sg7
(lp880
(lp881
S'content'
p882
aS'satisfied'
p883
aa(lp884
S'pleased'
p885
aS'happy'
p886
aasg25
(dp887
g27
g28
(g32
S'TG\xcf\n\x0cb\xcb?'
p888
tp889
Rp890
sg38
(lp891
(g886
g885
F0.6875
tp892
a(g886
g882
F0.4938132733408324
tp893
a(g886
g883
F0.9609261939218524
tp894
a(g885
g882
F0.9878048780487805
tp895
a(g885
g883
F0.9957850368809273
tp896
a(g882
g883
F0.6666666666666666
tp897
assg3
F0.0
sg68
(lp898
(lp899
g886
aa(lp900
g885
aa(lp901
g882
aa(lp902
g883
aasg2
F0.8164965809277261
ssI35
(dp903
g1
F0.18257418583505536
sg7
(lp904
(lp905
S'misleading'
p906
aa(lp907
S'deceptive'
p908
aS'fraudulent'
p909
aa(lp910
S'false'
p911
aasg25
(dp912
g27
g28
(g32
S'\x03\xcbL\xfeS\xe0\xcb?'
p913
tp914
Rp915
sg38
(lp916
(g906
g911
F0.999597423510467
tp917
a(g906
g909
F0.9979757085020243
tp918
a(g906
g908
F0.9992395437262357
tp919
a(g911
g909
F0.75
tp920
a(g911
g908
F0.5247112086964759
tp921
a(g909
g908
F0.5551732831544774
tp922
assg3
F0.5
sg68
(lp923
(lp924
g906
aa(lp925
g911
aa(lp926
g909
aa(lp927
g908
aasg2
F0.18257418583505536
ssI36
(dp928
g1
F0.7378647873726218
sg7
(lp929
(lp930
S'needed'
p931
aa(lp932
S'necessary'
p933
aa(lp934
S'required'
p935
aS'essential'
p936
aa(lp937
S'indispensable'
p938
aasg25
(dp939
g27
g28
(g32
S'\xfe\x8d\xa3\xfa\xa9\xac\xcc?'
p940
tp941
Rp942
sg38
(lp943
(g931
g935
F0.9963768115942029
tp944
a(g931
g933
F0.9523809523809523
tp945
a(g931
g936
F0.8333333333333334
tp946
a(g931
g938
F0.8571428571428571
tp947
a(g935
g933
F0.9825242718446602
tp948
a(g935
g936
F0.9973821989528796
tp949
a(g935
g938
F0.6498732371726056
tp950
a(g933
g936
F0.9119266055045872
tp951
a(g933
g938
F0.9959183673469387
tp952
a(g936
g938
F0.5714285714285714
tp953
assg3
F0.8
sg68
(lp954
(lp955
g931
aa(lp956
g935
aa(lp957
g933
aa(lp958
g936
aa(lp959
g938
aasg2
F0.7378647873726218
ssI37
(dp960
g1
F1.0
sg7
(lp961
(lp962
S'some'
p963
aa(lp964
S'many'
p965
aa(lp966
S'numerous'
p967
aa(lp968
S'galore'
p969
aasg25
(dp970
g27
g28
(g32
S'\xf4B\xec#\xd7S\xb1?'
p971
tp972
Rp973
sg38
(lp974
(g963
g965
F0.9693728952398288
tp975
a(g963
g967
F0.5042534080309221
tp976
a(g963
g969
F0.5547656280556722
tp977
a(g965
g967
F0.75
tp978
a(g965
g969
F0.6040621626418871
tp979
a(g967
g969
F0.5509393906352701
tp980
assg3
F1.0
sg68
(lp981
(lp982
g963
aa(lp983
g965
aa(lp984
g967
aa(lp985
g969
aasg2
F1.0
ssI38
(dp986
g1
F0.9128709291752769
sg7
(lp987
(lp988
S'quiet'
p989
aa(lp990
S'inaudible'
p991
aS'imperceptible'
p992
aa(lp993
S'silent'
p994
aasg25
(dp995
g27
g28
(g32
S'o<\xfc\xb3\xd9q\xc0?'
p996
tp997
Rp998
sg38
(lp999
(g989
g991
F0.996
tp1000
a(g989
g992
F0.9969879518072289
tp1001
a(g989
g994
F0.9991909385113269
tp1002
a(g991
g992
F0.5
tp1003
a(g991
g994
F0.5088906767958463
tp1004
a(g992
g994
F0.5088906767958464
tp1005
assg3
F0.8333333333333334
sg68
(lp1006
(lp1007
g989
aa(lp1008
g991
aa(lp1009
g992
aa(lp1010
g994
aasg2
F0.9128709291752769
ssI39
(dp1011
g1
F0.6666666666666666
sg7
(lp1012
(lp1013
S'wrong'
p1014
aa(lp1015
S'immoral'
p1016
aa(lp1017
S'sinful'
p1018
aa(lp1019
S'evil'
p1020
aasg25
(dp1021
g27
g28
(g32
S'\xb21\xdaP]\x16\xd5?'
p1022
tp1023
Rp1024
sg38
(lp1025
(g1014
g1016
F0.9894736842105263
tp1026
a(g1014
g1020
F0.9971098265895953
tp1027
a(g1014
g1018
F0.9965753424657534
tp1028
a(g1016
g1020
F0.9897959183673469
tp1029
a(g1016
g1018
F0.6491085330085329
tp1030
a(g1020
g1018
F0.5215811744142429
tp1031
assg3
F0.8333333333333334
sg68
(lp1032
(lp1033
g1014
aa(lp1034
g1016
aa(lp1035
g1020
aa(lp1036
g1018
aasg2
F0.6666666666666666
ssI40
(dp1037
g1
F0.42857142857142855
sg7
(lp1038
(lp1039
S'lean'
p1040
aa(lp1041
S'slim'
p1042
aa(lp1043
S'thin'
p1044
aa(lp1045
S'skinny'
p1046
aa(lp1047
S'gaunt'
p1048
aa(lp1049
S'emaciated'
p1050
aa(lp1051
S'skeletal'
p1052
aasg25
(dp1053
g27
g28
(g32
S'X\xf2\xfc\x86\xf9~1?'
p1054
tp1055
Rp1056
sg38
(lp1057
(g1044
g1042
F0.6666666666666666
tp1058
a(g1044
g1040
F0.5132857233389257
tp1059
a(g1044
g1046
F0.9985569985569985
tp1060
a(g1044
g1052
F0.993421052631579
tp1061
a(g1044
g1050
F0.9968553459119497
tp1062
a(g1044
g1048
F0.9970059880239521
tp1063
a(g1042
g1040
F0.581656592089084
tp1064
a(g1042
g1046
F0.9983922829581994
tp1065
a(g1042
g1052
F0.6631103419032398
tp1066
a(g1042
g1050
F0.6631103419032398
tp1067
a(g1042
g1048
F0.6631103419032398
tp1068
a(g1040
g1046
F0.9942528735632183
tp1069
a(g1040
g1052
F0.6564869188270569
tp1070
a(g1040
g1050
F0.6564869188270569
tp1071
a(g1040
g1048
F0.6564869188270569
tp1072
a(g1046
g1052
F0.5103264713806149
tp1073
a(g1046
g1050
F0.5103264713806149
tp1074
a(g1046
g1048
F0.510326471380615
tp1075
a(g1052
g1050
F0.5
tp1076
a(g1052
g1048
F0.5
tp1077
a(g1050
g1048
F0.5
tp1078
assg3
F0.7142857142857143
sg68
(lp1079
(lp1080
g1044
aa(lp1081
g1042
aa(lp1082
g1040
aa(lp1083
g1046
aa(lp1084
g1052
aa(lp1085
g1050
aa(lp1086
g1048
aasg2
F0.42857142857142855
ssI41
(dp1087
g1
F1.0
sg7
(lp1088
(lp1089
S'statewide'
p1090
aa(lp1091
S'nationwide'
p1092
aa(lp1093
S'worldwide'
p1094
aasg25
(dp1095
g27
g28
(g32
S'\t\x9d\xe7\x1aY\xc7\xe4?'
p1096
tp1097
Rp1098
sg38
(lp1099
(g1090
g1092
F0.9893617021276596
tp1100
a(g1090
g1094
F0.6565890155749806
tp1101
a(g1092
g1094
F0.9995850622406639
tp1102
assg3
F1.0
sg68
(lp1103
(lp1104
g1090
aa(lp1105
g1092
aa(lp1106
g1094
aasg2
F1.0
ssI42
(dp1107
g1
F0.5270462766947299
sg7
(lp1108
(lp1109
S'warm'
p1110
aa(lp1111
S'hot'
p1112
aa(lp1113
S'overheated'
p1114
aa(lp1115
S'stifling'
p1116
aS'sultry'
p1117
aasg25
(dp1118
g27
g28
(g32
S'\x96\xd8>x\xf2l\x95?'
p1119
tp1120
Rp1121
sg38
(lp1122
(g1110
g1112
F0.9741672331747111
tp1123
a(g1110
g1117
F0.9962406015037594
tp1124
a(g1110
g1116
F0.9953271028037384
tp1125
a(g1110
g1114
F0.9987080103359173
tp1126
a(g1112
g1117
F0.5577507093272599
tp1127
a(g1112
g1116
F0.5577507093272599
tp1128
a(g1112
g1114
F0.5577507093272599
tp1129
a(g1117
g1116
F0.5
tp1130
a(g1117
g1114
F0.5
tp1131
a(g1116
g1114
F0.5
tp1132
assg3
F0.7
sg68
(lp1133
(lp1134
g1110
aa(lp1135
g1112
aa(lp1136
g1117
aa(lp1137
g1116
aa(lp1138
g1114
aasg2
F0.5270462766947299
ssI43
(dp1139
g1
F0.8366600265340756
sg7
(lp1140
(lp1141
S'easy'
p1142
aS'simple'
p1143
aS'smooth'
p1144
aa(lp1145
S'painless'
p1146
aa(lp1147
S'effortless'
p1148
aasg25
(dp1149
g27
g28
(g32
S'\x06=\xa0Xa_\xb3?'
p1150
tp1151
Rp1152
sg38
(lp1153
(g1143
g1142
F0.9993862134088763
tp1154
a(g1143
g1144
F0.431586818167984
tp1155
a(g1143
g1146
F0.9906542056074766
tp1156
a(g1143
g1148
F0.6617099885290733
tp1157
a(g1142
g1144
F0.8
tp1158
a(g1142
g1146
F0.9965753424657534
tp1159
a(g1142
g1148
F0.9968944099378882
tp1160
a(g1144
g1146
F0.664315481771776
tp1161
a(g1144
g1148
F0.9941860465116279
tp1162
a(g1146
g1148
F0.5098763311886664
tp1163
assg3
F0.7
sg68
(lp1164
(lp1165
g1143
aa(lp1166
g1142
aa(lp1167
g1144
aa(lp1168
g1146
aa(lp1169
g1148
aasg2
F0.8366600265340756
ssI44
(dp1170
g1
F0.3333333333333333
sg7
(lp1171
(lp1172
S'plain'
p1173
aa(lp1174
S'unattractive'
p1175
aa(lp1176
S'ugly'
p1177
aasg25
(dp1178
g27
g28
(g32
S'\xcd\x02\x81\xc7=x\xe2?'
p1179
tp1180
Rp1181
sg38
(lp1182
(g1173
g1177
F0.9983974358974359
tp1183
a(g1173
g1175
F0.995049504950495
tp1184
a(g1177
g1175
F0.5809804864653626
tp1185
assg3
F0.6666666666666666
sg68
(lp1186
(lp1187
g1173
aa(lp1188
g1177
aa(lp1189
g1175
aasg2
F0.3333333333333333
ssI45
(dp1190
g1
F0.3333333333333333
sg7
(lp1191
(lp1192
S'like'
p1193
aa(lp1194
S'equal'
p1195
aa(lp1196
S'same'
p1197
aasg25
(dp1198
g27
g28
(g32
S'\xcd\xf5]\xe3\x10\xba\xdd?'
p1199
tp1200
Rp1201
sg38
(lp1202
(g1195
g1193
F0.6401023833012989
tp1203
a(g1195
g1197
F0.7264791464597479
tp1204
a(g1193
g1197
F0.9988399071925754
tp1205
assg3
F0.6666666666666666
sg68
(lp1206
(lp1207
g1195
aa(lp1208
g1193
aa(lp1209
g1197
aasg2
F0.3333333333333333
ssI46
(dp1210
g1
F0.18257418583505536
sg7
(lp1211
(lp1212
S'broad'
p1213
aS'widespread'
p1214
aa(lp1215
S'general'
p1216
aa(lp1217
S'universal'
p1218
aasg25
(dp1219
g27
g28
(g32
S'\n\xb6b\x16\x08\xff\xc9?'
p1220
tp1221
Rp1222
sg38
(lp1223
(g1216
g1213
F0.5355815219990312
tp1224
a(g1216
g1214
F0.6
tp1225
a(g1216
g1218
F0.9516493447808405
tp1226
a(g1213
g1214
F0.6666666666666666
tp1227
a(g1213
g1218
F0.9964788732394366
tp1228
a(g1214
g1218
F0.9996996996996997
tp1229
assg3
F0.5
sg68
(lp1230
(lp1231
g1216
aa(lp1232
g1213
aa(lp1233
g1214
aa(lp1234
g1218
aasg2
F0.18257418583505536
ssI47
(dp1235
g1
F0.5477225575051661
sg7
(lp1236
(lp1237
S'cheap'
p1238
aS'mediocre'
p1239
aa(lp1240
S'bad'
p1241
aa(lp1242
S'worst'
p1243
aasg25
(dp1244
g27
g28
(g32
S'\x1a\xbb\x03L\xd1n\xb0?'
p1245
tp1246
Rp1247
sg38
(lp1248
(g1238
g1241
F0.9940476190476191
tp1249
a(g1238
g1239
F0.46970129192809945
tp1250
a(g1238
g1243
F0.48572887983788043
tp1251
a(g1241
g1239
F0.5531273549359458
tp1252
a(g1241
g1243
F0.9911504424778761
tp1253
a(g1239
g1243
F0.516281022773412
tp1254
assg3
F0.6666666666666666
sg68
(lp1255
(lp1256
g1238
aa(lp1257
g1241
aa(lp1258
g1239
aa(lp1259
g1243
aasg2
F0.5477225575051661
ssI48
(dp1260
g1
F-0.7745966692414834
sg7
(lp1261
(lp1262
S'handsome'
p1263
aS'lovely'
p1264
aS'gorgeous'
p1265
aa(lp1266
S'beautiful'
p1267
aS'pretty'
p1268
aS'attractive'
p1269
aasg25
(dp1270
g27
g28
(g32
S'\xbf0\x94\xb7mY\x82?'
p1271
tp1272
Rp1273
sg38
(lp1274
(g1268
g1269
F0.75
tp1275
a(g1268
g1267
F0.9069200779727096
tp1276
a(g1268
g1264
F0.6666666666666666
tp1277
a(g1268
g1263
F0.956989247311828
tp1278
a(g1268
g1265
F0.9838709677419355
tp1279
a(g1269
g1267
F0.9914821124361158
tp1280
a(g1269
g1264
F0.5895117025034944
tp1281
a(g1269
g1263
F0.42857142857142855
tp1282
a(g1269
g1265
F0.6666666666666666
tp1283
a(g1267
g1264
F0.6666666666666666
tp1284
a(g1267
g1263
F0.7058823529411765
tp1285
a(g1267
g1265
F0.7333333333333333
tp1286
a(g1264
g1263
F0.5555555555555556
tp1287
a(g1264
g1265
F0.9831460674157303
tp1288
a(g1263
g1265
F0.6666666666666666
tp1289
assg3
F0.0
sg68
(lp1290
(lp1291
g1268
aa(lp1292
g1269
aa(lp1293
g1267
aa(lp1294
g1264
aa(lp1295
g1263
aa(lp1296
g1265
aasg2
F0.7745966692414834
ssI49
(dp1297
g1
F1.0
sg7
(lp1298
(lp1299
S'thick'
p1300
aa(lp1301
S'dense'
p1302
aa(lp1303
S'impenetrable'
p1304
aasg25
(dp1305
g27
g28
(g32
S'\xd3\x86\x9fx\xbac\xe0?'
p1306
tp1307
Rp1308
sg38
(lp1309
(g1300
g1302
F0.5156275258577555
tp1310
a(g1300
g1304
F0.995
tp1311
a(g1302
g1304
F0.9982935153583617
tp1312
assg3
F1.0
sg68
(lp1313
(lp1314
g1300
aa(lp1315
g1302
aa(lp1316
g1304
aasg2
F1.0
ssI50
(dp1317
g1
F1.0
sg7
(lp1318
(lp1319
S'soft'
p1320
aa(lp1321
S'quiet'
p1322
aa(lp1323
S'inaudible'
p1324
aa(lp1325
S'silent'
p1326
aasg25
(dp1327
g27
g28
(g32
S'\x89G\x1a>\xb5\n\xc7?'
p1328
tp1329
Rp1330
sg38
(lp1331
(g1320
g1322
F0.5387194119261803
tp1332
a(g1320
g1324
F0.9971910112359551
tp1333
a(g1320
g1326
F0.6616581432530798
tp1334
a(g1322
g1324
F0.996
tp1335
a(g1322
g1326
F0.9991909385113269
tp1336
a(g1324
g1326
F0.5088906767958463
tp1337
assg3
F1.0
sg68
(lp1338
(lp1339
g1320
aa(lp1340
g1322
aa(lp1341
g1324
aa(lp1342
g1326
aasg2
F1.0
ssI51
(dp1343
g1
F0.5477225575051661
sg7
(lp1344
(lp1345
S'cool'
p1346
aS'chilly'
p1347
aa(lp1348
S'unfriendly'
p1349
aa(lp1350
S'hostile'
p1351
aasg25
(dp1352
g27
g28
(g32
S'\xc7\xd3\xec\x1c\xf7\x19\xca?'
p1353
tp1354
Rp1355
sg38
(lp1356
(g1346
g1349
F0.5579601168599342
tp1357
a(g1346
g1347
F0.9970674486803519
tp1358
a(g1346
g1351
F0.9935897435897436
tp1359
a(g1349
g1347
F0.5978252970853609
tp1360
a(g1349
g1351
F0.996268656716418
tp1361
a(g1347
g1351
F0.6193964757171945
tp1362
assg3
F0.6666666666666666
sg68
(lp1363
(lp1364
g1346
aa(lp1365
g1349
aa(lp1366
g1347
aa(lp1367
g1351
aasg2
F0.5477225575051661
ssI52
(dp1368
g1
F0.5270462766947299
sg7
(lp1369
(lp1370
S'sizeable'
p1371
aa(lp1372
S'big'
p1373
aS'large'
p1374
aa(lp1375
S'huge'
p1376
aa(lp1377
S'colossal'
p1378
aasg25
(dp1379
g27
g28
(g32
S'J\xc6\xe9\x1d\x97s\xb6?'
p1380
tp1381
Rp1382
sg38
(lp1383
(g1374
g1373
F0.5715928875642234
tp1384
a(g1374
g1371
F0.6666666666666666
tp1385
a(g1374
g1376
F0.9987915407854985
tp1386
a(g1374
g1378
F0.8
tp1387
a(g1373
g1371
F0.6666666666666666
tp1388
a(g1373
g1376
F0.9991629464285714
tp1389
a(g1373
g1378
F0.6666666666666666
tp1390
a(g1371
g1376
F0.9942528735632183
tp1391
a(g1371
g1378
F0.6561421863489124
tp1392
a(g1376
g1378
F0.9942528735632183
tp1393
assg3
F0.7
sg68
(lp1394
(lp1395
g1374
aa(lp1396
g1373
aa(lp1397
g1371
aa(lp1398
g1376
aa(lp1399
g1378
aasg2
F0.5270462766947299
ssI53
(dp1400
g1
F0.8563488385776753
sg7
(lp1401
(lp1402
S'dual'
p1403
aS'double'
p1404
aS'doubled'
p1405
aa(lp1406
S'triple'
p1407
aS'treble'
p1408
aa(lp1409
S'quadruple'
p1410
aasg25
(dp1411
g27
g28
(g32
S'\xd4M\xe4\x83KU\x8a?'
p1412
tp1413
Rp1414
sg38
(lp1415
(g1404
g1403
F0.5434024797717222
tp1416
a(g1404
g1405
F0.6601027476634824
tp1417
a(g1404
g1407
F0.9999852350578786
tp1418
a(g1404
g1408
F0.9995458673932789
tp1419
a(g1404
g1410
F0.9999017102417928
tp1420
a(g1403
g1405
F0.655633315263371
tp1421
a(g1403
g1407
F0.9978070175438597
tp1422
a(g1403
g1408
F0.655633315263371
tp1423
a(g1403
g1410
F0.6553624744964305
tp1424
a(g1405
g1407
F0.9957627118644068
tp1425
a(g1405
g1408
F0.5
tp1426
a(g1405
g1410
F0.4979091343017645
tp1427
a(g1407
g1408
F0.5189210623798957
tp1428
a(g1407
g1410
F0.9999442710655372
tp1429
a(g1408
g1410
F0.9919354838709677
tp1430
assg3
F0.7333333333333333
sg68
(lp1431
(lp1432
g1404
aa(lp1433
g1403
aa(lp1434
g1405
aa(lp1435
g1407
aa(lp1436
g1408
aa(lp1437
g1410
aasg2
F0.8563488385776753
ssI54
(dp1438
g1
F0.9486832980505138
sg7
(lp1439
(lp1440
S'creepy'
p1441
aa(lp1442
S'scary'
p1443
aS'frightening'
p1444
aa(lp1445
S'terrifying'
p1446
aa(lp1447
S'sinister'
p1448
aasg25
(dp1449
g27
g28
(g32
S'q\xeeL\x07\x9e\\\x81?'
p1450
tp1451
Rp1452
sg38
(lp1453
(g1441
g1443
F0.9639175257731959
tp1454
a(g1441
g1444
F0.25
tp1455
a(g1441
g1446
F0.25
tp1456
a(g1441
g1448
F0.6647753612507664
tp1457
a(g1443
g1444
F0.984375
tp1458
a(g1443
g1446
F0.625
tp1459
a(g1443
g1448
F0.9974619289340102
tp1460
a(g1444
g1446
F0.9845559845559846
tp1461
a(g1444
g1448
F0.6638981054956222
tp1462
a(g1446
g1448
F0.5277045987693901
tp1463
assg3
F0.9
sg68
(lp1464
(lp1465
g1441
aa(lp1466
g1443
aa(lp1467
g1444
aa(lp1468
g1446
aa(lp1469
g1448
aasg2
F0.9486832980505138
ssI55
(dp1470
g1
F0.3333333333333333
sg7
(lp1471
(lp1472
S'some'
p1473
aa(lp1474
S'few'
p1475
aa(lp1476
S'fewer'
p1477
aasg25
(dp1478
g27
g28
(g32
S'\xdd\xe5g(\x04\xa4\xd4?'
p1479
tp1480
Rp1481
sg38
(lp1482
(g1475
g1473
F0.5052083333333334
tp1483
a(g1475
g1477
F0.9848484848484849
tp1484
a(g1473
g1477
F0.6481929122631984
tp1485
assg3
F0.6666666666666666
sg68
(lp1486
(lp1487
g1475
aa(lp1488
g1473
aa(lp1489
g1477
aasg2
F0.3333333333333333
ssI56
(dp1490
g1
F0.18257418583505536
sg7
(lp1491
(lp1492
S'neglected'
p1493
aa(lp1494
S'ignored'
p1495
aS'overlooked'
p1496
aa(lp1497
S'forgotten'
p1498
aasg25
(dp1499
g27
g28
(g32
S'\xde\xd6\xab\xbb\x89\xc8\xd4?'
p1500
tp1501
Rp1502
sg38
(lp1503
(g1496
g1493
F0.5
tp1504
a(g1496
g1498
F0.9971910112359551
tp1505
a(g1496
g1495
F0.9975124378109452
tp1506
a(g1493
g1498
F0.9978165938864629
tp1507
a(g1493
g1495
F0.9920634920634921
tp1508
a(g1498
g1495
F0.6595971078947498
tp1509
assg3
F0.5
sg68
(lp1510
(lp1511
g1496
aa(lp1512
g1493
aa(lp1513
g1498
aa(lp1514
g1495
aasg2
F0.18257418583505536
ssI57
(dp1515
g1
F0.8164965809277261
sg7
(lp1516
(lp1517
S'old'
p1518
aa(lp1519
S'obsolete'
p1520
aS'outdated'
p1521
aasg25
(dp1522
g27
g28
(g32
S'\xc9\x1b\x89\x8c\xee\x14\xe5?'
p1523
tp1524
Rp1525
sg38
(lp1526
(g1518
g1520
F0.9901960784313726
tp1527
a(g1518
g1521
F0.9979919678714859
tp1528
a(g1520
g1521
F0.6666666666666666
tp1529
assg3
F0.6666666666666666
sg68
(lp1530
(lp1531
g1518
aa(lp1532
g1520
aa(lp1533
g1521
aasg2
F0.8164965809277261
ssI58
(dp1534
g1
F0.6666666666666666
sg7
(lp1535
(lp1536
S'necessary'
p1537
aa(lp1538
S'vital'
p1539
aa(lp1540
S'indispensable'
p1541
aa(lp1542
S'critical'
p1543
aasg25
(dp1544
g27
g28
(g32
S'\x18#\x1e6\x10\x02\xc9?'
p1545
tp1546
Rp1547
sg38
(lp1548
(g1537
g1539
F0.9957356076759062
tp1549
a(g1537
g1543
F0.9887640449438202
tp1550
a(g1537
g1541
F0.9959183673469387
tp1551
a(g1539
g1543
F0.5333333333333333
tp1552
a(g1539
g1541
F0.5714285714285714
tp1553
a(g1543
g1541
F0.653806006471823
tp1554
assg3
F0.8333333333333334
sg68
(lp1555
(lp1556
g1537
aa(lp1557
g1539
aa(lp1558
g1543
aa(lp1559
g1541
aasg2
F0.6666666666666666
ssI59
(dp1560
g1
F0.9128709291752769
sg7
(lp1561
(lp1562
S'attractive'
p1563
aa(lp1564
S'beautiful'
p1565
aa(lp1566
S'mesmerizing'
p1567
aS'seductive'
p1568
aasg25
(dp1569
g27
g28
(g32
S'U\x17@\xf8\xc9\xf9\xcb?'
p1570
tp1571
Rp1572
sg38
(lp1573
(g1563
g1565
F0.9914821124361158
tp1574
a(g1563
g1567
F0.6644301668322313
tp1575
a(g1563
g1568
F0.9908256880733946
tp1576
a(g1565
g1567
F0.9951456310679612
tp1577
a(g1565
g1568
F0.6614998308261072
tp1578
a(g1567
g1568
F0.5086554732617626
tp1579
assg3
F0.8333333333333334
sg68
(lp1580
(lp1581
g1563
aa(lp1582
g1565
aa(lp1583
g1567
aa(lp1584
g1568
aasg2
F0.9128709291752769
ssI60
(dp1585
g1
F1.0
sg7
(lp1586
(lp1587
S'closed'
p1588
aa(lp1589
S'shut'
p1590
aa(lp1591
S'sealed'
p1592
aasg25
(dp1593
g27
g28
(g32
S'-x\xf4O#\xdb\xdf?'
p1594
tp1595
Rp1596
sg38
(lp1597
(g1588
g1590
F0.9963503649635036
tp1598
a(g1588
g1592
F0.9991467576791809
tp1599
a(g1590
g1592
F0.5
tp1600
assg3
F1.0
sg68
(lp1601
(lp1602
g1588
aa(lp1603
g1590
aa(lp1604
g1592
aasg2
F1.0
ssI61
(dp1605
g1
F0.8164965809277261
sg7
(lp1606
(lp1607
S'unexpected'
p1608
aa(lp1609
S'astonishing'
p1610
aS'stunning'
p1611
aasg25
(dp1612
g27
g28
(g32
S'H\x83K[v6\xe5?'
p1613
tp1614
Rp1615
sg38
(lp1616
(g1608
g1610
F0.9987277353689568
tp1617
a(g1608
g1611
F0.9956140350877193
tp1618
a(g1610
g1611
F0.6666666666666666
tp1619
assg3
F0.6666666666666666
sg68
(lp1620
(lp1621
g1608
aa(lp1622
g1610
aa(lp1623
g1611
aasg2
F0.8164965809277261
ssI62
(dp1624
g1
F0.3333333333333333
sg7
(lp1625
(lp1626
S'indecent'
p1627
aa(lp1628
S'profane'
p1629
aa(lp1630
S'obscene'
p1631
aasg25
(dp1632
g27
g28
(g32
S'\xdb>\xa1\xe2\x17:\xe0?'
p1633
tp1634
Rp1635
sg38
(lp1636
(g1627
g1631
F0.9998327199732352
tp1637
a(g1627
g1629
F0.9938271604938271
tp1638
a(g1631
g1629
F0.5103264713806149
tp1639
assg3
F0.6666666666666666
sg68
(lp1640
(lp1641
g1627
aa(lp1642
g1631
aa(lp1643
g1629
aasg2
F0.3333333333333333
ssI63
(dp1644
g1
F1.0
sg7
(lp1645
(lp1646
S'attractive'
p1647
aa(lp1648
S'sexy'
p1649
aa(lp1650
S'seductive'
p1651
aasg25
(dp1652
g27
g28
(g32
S'x\xdb\xc7\xdf1\r\xe4?'
p1653
tp1654
Rp1655
sg38
(lp1656
(g1647
g1649
F0.956140350877193
tp1657
a(g1647
g1651
F0.9908256880733946
tp1658
a(g1649
g1651
F0.6614224012354553
tp1659
assg3
F1.0
sg68
(lp1660
(lp1661
g1647
aa(lp1662
g1649
aa(lp1663
g1651
aasg2
F1.0
ssI64
(dp1664
g1
F0.3333333333333333
sg7
(lp1665
(lp1666
S'humbled'
p1667
aa(lp1668
S'humiliated'
p1669
aa(lp1670
S'crushed'
p1671
aasg25
(dp1672
g27
g28
(g32
S'\xd5o\xcfl\x17\xce\xe4?'
p1673
tp1674
Rp1675
sg38
(lp1676
(g1667
g1671
F0.655633315263371
tp1677
a(g1667
g1669
F0.9969512195121951
tp1678
a(g1671
g1669
F0.9946808510638298
tp1679
assg3
F0.6666666666666666
sg68
(lp1680
(lp1681
g1667
aa(lp1682
g1671
aa(lp1683
g1669
aasg2
F0.3333333333333333
ssI65
(dp1684
g1
F0.31622776601683794
sg7
(lp1685
(lp1686
S'bright'
p1687
aS'intelligent'
p1688
aS'smart'
p1689
aS'clever'
p1690
aa(lp1691
S'brilliant'
p1692
aasg25
(dp1693
g27
g28
(g32
S'4\x121\x02\x1f\xb3\xaa?'
p1694
tp1695
Rp1696
sg38
(lp1697
(g1689
g1688
F0.5454545454545454
tp1698
a(g1689
g1690
F0.6
tp1699
a(g1689
g1692
F0.9849246231155779
tp1700
a(g1689
g1687
F0.6666666666666666
tp1701
a(g1688
g1690
F0.6666666666666666
tp1702
a(g1688
g1692
F0.9912280701754386
tp1703
a(g1688
g1687
F0.6
tp1704
a(g1690
g1692
F0.989010989010989
tp1705
a(g1690
g1687
F0.9901477832512315
tp1706
a(g1692
g1687
F0.625
tp1707
assg3
F0.3
sg68
(lp1708
(lp1709
g1689
aa(lp1710
g1688
aa(lp1711
g1690
aa(lp1712
g1692
aa(lp1713
g1687
aasg2
F0.31622776601683794
ssI66
(dp1714
g1
F0.8164965809277261
sg7
(lp1715
(lp1716
S'violent'
p1717
aa(lp1718
S'homicidal'
p1719
aS'murderous'
p1720
aasg25
(dp1721
g27
g28
(g32
S'\xb7\x90|\x10\xe4R\xdf?'
p1722
tp1723
Rp1724
sg38
(lp1725
(g1717
g1720
F0.9903846153846154
tp1726
a(g1717
g1719
F0.9883720930232558
tp1727
a(g1720
g1719
F0.5
tp1728
assg3
F0.6666666666666666
sg68
(lp1729
(lp1730
g1717
aa(lp1731
g1720
aa(lp1732
g1719
aasg2
F0.8164965809277261
ssI67
(dp1733
g1
F1.0
sg7
(lp1734
(lp1735
S'personal'
p1736
aa(lp1737
S'private'
p1738
aa(lp1739
S'secret'
p1740
aasg25
(dp1741
g27
g28
(g32
S'S\xe9\x0bh\xec\xb4\xe0?'
p1742
tp1743
Rp1744
sg38
(lp1745
(g1736
g1738
F0.9992223950233281
tp1746
a(g1736
g1740
F0.525227234260202
tp1747
a(g1738
g1740
F0.9947916666666666
tp1748
assg3
F1.0
sg68
(lp1749
(lp1750
g1736
aa(lp1751
g1738
aa(lp1752
g1740
aasg2
F1.0
ssI68
(dp1753
g1
F0.3333333333333333
sg7
(lp1754
(lp1755
S'high'
p1756
aa(lp1757
S'higher'
p1758
aa(lp1759
S'soaring'
p1760
aasg25
(dp1761
g27
g28
(g32
S'\x97\xc7\x05\xccFM\xe0?'
p1762
tp1763
Rp1764
sg38
(lp1765
(g1756
g1760
F0.5307512088576297
tp1766
a(g1756
g1758
F0.9617273843634875
tp1767
a(g1760
g1758
F0.9980314960629921
tp1768
assg3
F0.6666666666666666
sg68
(lp1769
(lp1770
g1756
aa(lp1771
g1760
aa(lp1772
g1758
aasg2
F0.3333333333333333
ssI69
(dp1773
g1
F1.0
sg7
(lp1774
(lp1775
S'harmful'
p1776
aa(lp1777
S'toxic'
p1778
aa(lp1779
S'deadly'
p1780
aasg25
(dp1781
g27
g28
(g32
S'\xa4\xc3\x88mN\xa1\xef?'
p1782
tp1783
Rp1784
sg38
(lp1785
(g1776
g1778
F0.9947916666666666
tp1786
a(g1776
g1780
F0.9995655951346655
tp1787
a(g1778
g1780
F0.9940476190476191
tp1788
assg3
F1.0
sg68
(lp1789
(lp1790
g1776
aa(lp1791
g1778
aa(lp1792
g1780
aasg2
F1.0
ssI70
(dp1793
g1
F0.8153742483272113
sg7
(lp1794
(lp1795
S'small'
p1796
aa(lp1797
S'smaller'
p1798
aa(lp1799
S'midget'
p1800
aa(lp1801
S'minute'
p1802
aa(lp1803
S'tiny'
p1804
aS'minuscule'
p1805
aa(lp1806
S'micro'
p1807
aS'microscopic'
p1808
aasg25
(dp1809
g27
g28
(g32
S'\x9e\xe1\x17\xae\x86\x17\x01?'
p1810
tp1811
Rp1812
sg38
(lp1813
(g1796
g1800
F0.5782528228972722
tp1814
a(g1796
g1798
F0.9990314769975787
tp1815
a(g1796
g1804
F0.9993053143452588
tp1816
a(g1796
g1802
F0.9988249118683902
tp1817
a(g1796
g1805
F0.9960159362549801
tp1818
a(g1796
g1807
F0.9948453608247423
tp1819
a(g1796
g1808
F0.9971751412429378
tp1820
a(g1800
g1798
F0.9967532467532467
tp1821
a(g1800
g1804
F0.4480808457572015
tp1822
a(g1800
g1802
F0.6523220304215949
tp1823
a(g1800
g1805
F0.639108665873139
tp1824
a(g1800
g1807
F0.6565890155749806
tp1825
a(g1800
g1808
F0.657556868040967
tp1826
a(g1798
g1804
F0.6666666666666666
tp1827
a(g1798
g1802
F0.5509543144307818
tp1828
a(g1798
g1805
F0.49470392402501107
tp1829
a(g1798
g1807
F0.5768878236215637
tp1830
a(g1798
g1808
F0.5835418009088534
tp1831
a(g1804
g1802
F0.6666666666666666
tp1832
a(g1804
g1805
F0.8
tp1833
a(g1804
g1807
F0.6612992762031923
tp1834
a(g1804
g1808
F0.9984472049689441
tp1835
a(g1802
g1805
F0.6666666666666666
tp1836
a(g1802
g1807
F0.5301917397315411
tp1837
a(g1802
g1808
F0.5384851578420123
tp1838
a(g1805
g1807
F0.580996544106754
tp1839
a(g1805
g1808
F0.5874450543243336
tp1840
a(g1807
g1808
F0.5086554732617626
tp1841
assg3
F0.8571428571428571
sg68
(lp1842
(lp1843
g1796
aa(lp1844
g1800
aa(lp1845
g1798
aa(lp1846
g1804
aa(lp1847
g1802
aa(lp1848
g1805
aa(lp1849
g1807
aa(lp1850
g1808
aasg2
F0.8153742483272113
ssI71
(dp1851
g1
F0.7378647873726218
sg7
(lp1852
(lp1853
S'impractical'
p1854
aS'impracticable'
p1855
aa(lp1856
S'unrealistic'
p1857
aa(lp1858
S'infeasible'
p1859
aa(lp1860
S'impossible'
p1861
aasg25
(dp1862
g27
g28
(g32
S'\xdf\x02_\xc5\xe3\xf3\x9c?'
p1863
tp1864
Rp1865
sg38
(lp1866
(g1854
g1857
F0.5519648452008569
tp1867
a(g1854
g1855
F0.5783024037187596
tp1868
a(g1854
g1859
F0.614509506277113
tp1869
a(g1854
g1861
F0.9985747734907869
tp1870
a(g1857
g1855
F0.5308576848394176
tp1871
a(g1857
g1859
F0.5795953223442184
tp1872
a(g1857
g1861
F0.9973262032085561
tp1873
a(g1855
g1859
F0.5534650483797612
tp1874
a(g1855
g1861
F0.9778761061946902
tp1875
a(g1859
g1861
F0.8691588785046729
tp1876
assg3
F0.8
sg68
(lp1877
(lp1878
g1854
aa(lp1879
g1857
aa(lp1880
g1855
aa(lp1881
g1859
aa(lp1882
g1861
aasg2
F0.7378647873726218
ssI72
(dp1883
g1
F1.0
sg7
(lp1884
(lp1885
S'mature'
p1886
aa(lp1887
S'ripe'
p1888
aa(lp1889
S'overripe'
p1890
aasg25
(dp1891
g27
g28
(g32
S'\xa46\xdd\xfe\xd2!\xe3?'
p1892
tp1893
Rp1894
sg38
(lp1895
(g1886
g1888
F0.6
tp1896
a(g1886
g1890
F0.9983922829581994
tp1897
a(g1888
g1890
F0.9980694980694981
tp1898
assg3
F1.0
sg68
(lp1899
(lp1900
g1886
aa(lp1901
g1888
aa(lp1902
g1890
aasg2
F1.0
ssI73
(dp1903
g1
F0.3333333333333333
sg7
(lp1904
(lp1905
S'overweight'
p1906
aa(lp1907
S'chubby'
p1908
aa(lp1909
S'fat'
p1910
aa(lp1911
S'obese'
p1912
aasg25
(dp1913
g27
g28
(g32
S'W\xca\xbd\x13l\xaf\xd0?'
p1914
tp1915
Rp1916
sg38
(lp1917
(g1908
g1910
F0.9963702359346642
tp1918
a(g1908
g1906
F0.5015788582957467
tp1919
a(g1908
g1912
F0.6603518815764063
tp1920
a(g1910
g1906
F0.8
tp1921
a(g1910
g1912
F0.9972826086956522
tp1922
a(g1906
g1912
F0.9901681176823777
tp1923
assg3
F0.6666666666666666
sg68
(lp1924
(lp1925
g1908
aa(lp1926
g1910
aa(lp1927
g1906
aa(lp1928
g1912
aasg2
F0.3333333333333333
ssI74
(dp1929
g1
F1.0
sg7
(lp1930
(lp1931
S'uncomfortable'
p1932
aa(lp1933
S'uneasy'
p1934
aa(lp1935
S'painful'
p1936
aasg25
(dp1937
g27
g28
(g32
S'\xa7/\xfbf\xb3\x1f\xe5?'
p1938
tp1939
Rp1940
sg38
(lp1941
(g1932
g1934
F0.6666666666666666
tp1942
a(g1932
g1936
F0.9997929820929511
tp1943
a(g1934
g1936
F0.9903846153846154
tp1944
assg3
F1.0
sg68
(lp1945
(lp1946
g1932
aa(lp1947
g1934
aa(lp1948
g1936
aasg2
F1.0
ssI75
(dp1949
g1
F0.18257418583505536
sg7
(lp1950
(lp1951
S'friendly'
p1952
aS'cordial'
p1953
aa(lp1954
S'warm'
p1955
aa(lp1956
S'intimate'
p1957
aasg25
(dp1958
g27
g28
(g32
S'\xbd\xdb\x96\x97\x86\x81\xd2?'
p1959
tp1960
Rp1961
sg38
(lp1962
(g1955
g1953
F0.6666666666666666
tp1963
a(g1955
g1952
F0.6666666666666666
tp1964
a(g1955
g1957
F0.9976851851851852
tp1965
a(g1953
g1952
F0.9977777777777778
tp1966
a(g1953
g1957
F0.6553624744964305
tp1967
a(g1952
g1957
F0.9972527472527473
tp1968
assg3
F0.5
sg68
(lp1969
(lp1970
g1955
aa(lp1971
g1953
aa(lp1972
g1952
aa(lp1973
g1957
aasg2
F0.18257418583505536
ssI76
(dp1974
g1
F0.5270462766947299
sg7
(lp1975
(lp1976
S'cool'
p1977
aa(lp1978
S'cold'
p1979
aa(lp1980
S'frigid'
p1981
aa(lp1982
S'icy'
p1983
aS'frozen'
p1984
aasg25
(dp1985
g27
g28
(g32
S'{\xab\x85\xcc\x9e\x0e\xb6?'
p1986
tp1987
Rp1988
sg38
(lp1989
(g1977
g1979
F0.9948108108108108
tp1990
a(g1977
g1984
F0.9993446920052425
tp1991
a(g1977
g1983
F0.6611785282453982
tp1992
a(g1977
g1981
F0.9947368421052631
tp1993
a(g1979
g1984
F0.9995519713261649
tp1994
a(g1979
g1983
F0.9977578475336323
tp1995
a(g1979
g1981
F0.9938271604938271
tp1996
a(g1984
g1983
F0.5069538670219229
tp1997
a(g1984
g1981
F0.5155755910251011
tp1998
a(g1983
g1981
F0.5086554732617626
tp1999
assg3
F0.7
sg68
(lp2000
(lp2001
g1977
aa(lp2002
g1979
aa(lp2003
g1984
aa(lp2004
g1983
aa(lp2005
g1981
aasg2
F0.5270462766947299
ssI77
(dp2006
g1
F0.3333333333333333
sg7
(lp2007
(lp2008
S'disappointed'
p2009
aa(lp2010
S'frustrated'
p2011
aa(lp2012
S'defeated'
p2013
aasg25
(dp2014
g27
g28
(g32
S'\x84J>:\xc9*\xe0?'
p2015
tp2016
Rp2017
sg38
(lp2018
(g2009
g2013
F0.9992435703479576
tp2019
a(g2009
g2011
F0.9959349593495935
tp2020
a(g2013
g2011
F0.5076690561176326
tp2021
assg3
F0.6666666666666666
sg68
(lp2022
(lp2023
g2009
aa(lp2024
g2013
aa(lp2025
g2011
aasg2
F0.3333333333333333
ssI78
(dp2026
g1
F0.3333333333333333
sg7
(lp2027
(lp2028
S'close'
p2029
aa(lp2030
S'tight'
p2031
aa(lp2032
S'snug'
p2033
aasg25
(dp2034
g27
g28
(g32
S'\xa8t,\xec\x89G\xe2?'
p2035
tp2036
Rp2037
sg38
(lp2038
(g2029
g2033
F0.5732618429079371
tp2039
a(g2029
g2031
F0.9965034965034965
tp2040
a(g2033
g2031
F0.9999568109181999
tp2041
assg3
F0.6666666666666666
sg68
(lp2042
(lp2043
g2029
aa(lp2044
g2033
aa(lp2045
g2031
aasg2
F0.3333333333333333
ssI79
(dp2046
g1
F0.9486832980505138
sg7
(lp2047
(lp2048
S'general'
p2049
aa(lp2050
S'extensive'
p2051
aa(lp2052
S'complete'
p2053
aS'comprehensive'
p2054
aa(lp2055
S'universal'
p2056
aasg25
(dp2057
g27
g28
(g32
S'hAt\xd6\x16v\xab?'
p2058
tp2059
Rp2060
sg38
(lp2061
(g2049
g2051
F0.5323339610722981
tp2062
a(g2049
g2054
F0.5058698314906094
tp2063
a(g2049
g2053
F0.5226226320258118
tp2064
a(g2049
g2056
F0.9516493447808405
tp2065
a(g2051
g2054
F0.9827586206896551
tp2066
a(g2051
g2053
F0.9981220657276996
tp2067
a(g2051
g2056
F0.99
tp2068
a(g2054
g2053
F0.9927536231884058
tp2069
a(g2054
g2056
F0.6466009631252527
tp2070
a(g2053
g2056
F0.6424202898257806
tp2071
assg3
F0.9
sg68
(lp2072
(lp2073
g2049
aa(lp2074
g2051
aa(lp2075
g2054
aa(lp2076
g2053
aa(lp2077
g2056
aasg2
F0.9486832980505138
ssI80
(dp2078
g1
F0.5477225575051661
sg7
(lp2079
(lp2080
S'alive'
p2081
aa(lp2082
S'awake'
p2083
aa(lp2084
S'aware'
p2085
aS'conscious'
p2086
aasg25
(dp2087
g27
g28
(g32
S'\xcf\xdaX\xaa\x05q\xe3?'
p2088
tp2089
Rp2090
sg38
(lp2091
(g2083
g2081
F0.9974747474747475
tp2092
a(g2083
g2086
F0.9959677419354839
tp2093
a(g2083
g2085
F0.9983779399837794
tp2094
a(g2081
g2086
F0.6966019417475728
tp2095
a(g2081
g2085
F0.9977973568281938
tp2096
a(g2086
g2085
F0.8812729498164015
tp2097
assg3
F0.6666666666666666
sg68
(lp2098
(lp2099
g2083
aa(lp2100
g2081
aa(lp2101
g2086
aa(lp2102
g2085
aasg2
F0.5477225575051661
ssI81
(dp2103
g1
F1.0
sg7
(lp2104
(lp2105
S'interested'
p2106
aa(lp2107
S'concerned'
p2108
aa(lp2109
S'involved'
p2110
aasg25
(dp2111
g27
g28
(g32
S"&'\xe4p?\x08\xdb?"
p2112
tp2113
Rp2114
sg38
(lp2115
(g2106
g2108
F0.6
tp2116
a(g2106
g2110
F0.705574912891986
tp2117
a(g2108
g2110
F0.997716894977169
tp2118
assg3
F1.0
sg68
(lp2119
(lp2120
g2106
aa(lp2121
g2108
aa(lp2122
g2110
aasg2
F1.0
ssI82
(dp2123
g1
F1.0
sg7
(lp2124
(lp2125
S'critical'
p2126
aa(lp2127
S'negative'
p2128
aa(lp2129
S'hostile'
p2130
aasg25
(dp2131
g27
g28
(g32
S'#\xbd\xd7\xe7\xf5#\xe1?'
p2132
tp2133
Rp2134
sg38
(lp2135
(g2126
g2128
F0.5374364945116715
tp2136
a(g2126
g2130
F0.9979838709677419
tp2137
a(g2128
g2130
F0.9986702127659575
tp2138
assg3
F1.0
sg68
(lp2139
(lp2140
g2126
aa(lp2141
g2128
aa(lp2142
g2130
aasg2
F1.0
ssI83
(dp2143
g1
F1.0
sg7
(lp2144
(lp2145
S'hard'
p2146
aa(lp2147
S'painful'
p2148
aa(lp2149
S'hopeless'
p2150
aasg25
(dp2151
g27
g28
(g32
S'\x04\x9e\xaf\x08\x96\x0b\xe1?'
p2152
tp2153
Rp2154
sg38
(lp2155
(g2146
g2148
F0.9924812030075187
tp2156
a(g2146
g2150
F0.9982332155477032
tp2157
a(g2148
g2150
F0.5376495617978817
tp2158
assg3
F1.0
sg68
(lp2159
(lp2160
g2146
aa(lp2161
g2148
aa(lp2162
g2150
aasg2
F1.0
ssI84
(dp2163
g1
F0.8164965809277261
sg7
(lp2164
(lp2165
S'happy'
p2166
aS'content'
p2167
aa(lp2168
S'euphoric'
p2169
aasg25
(dp2170
g27
g28
(g32
S'a\xa2a#@\x93\xd4?'
p2171
tp2172
Rp2173
sg38
(lp2174
(g2167
g2166
F0.5061867266591676
tp2175
a(g2167
g2169
F0.6425882939768462
tp2176
a(g2166
g2169
F0.9883720930232558
tp2177
assg3
F0.6666666666666666
sg68
(lp2178
(lp2179
g2167
aa(lp2180
g2166
aa(lp2181
g2169
aasg2
F0.8164965809277261
ssI85
(dp2182
g1
F0.8164965809277261
sg7
(lp2183
(lp2184
S'calm'
p2185
aS'cool'
p2186
aa(lp2187
S'serene'
p2188
aasg25
(dp2189
g27
g28
(g32
S'D\x16-\xba\xcc\xc4\xe4?'
p2190
tp2191
Rp2192
sg38
(lp2193
(g2186
g2185
F0.9827586206896551
tp2194
a(g2186
g2188
F0.6617123616873709
tp2195
a(g2185
g2188
F0.9980314960629921
tp2196
assg3
F0.6666666666666666
sg68
(lp2197
(lp2198
g2186
aa(lp2199
g2185
aa(lp2200
g2188
aasg2
F0.8164965809277261
ssI86
(dp2201
g1
F0.9128709291752769
sg7
(lp2202
(lp2203
S'unreliable'
p2204
aa(lp2205
S'dangerous'
p2206
aS'risky'
p2207
aa(lp2208
S'suicidal'
p2209
aasg25
(dp2210
g27
g28
(g32
S'L\x8b*\x02\x86\xea\xcd?'
p2211
tp2212
Rp2213
sg38
(lp2214
(g2204
g2207
F0.5546911497057295
tp2215
a(g2204
g2206
F0.9935064935064936
tp2216
a(g2204
g2209
F0.6630582629468019
tp2217
a(g2207
g2206
F0.9707602339181286
tp2218
a(g2207
g2209
F0.659608066745203
tp2219
a(g2206
g2209
F0.9989035087719298
tp2220
assg3
F0.8333333333333334
sg68
(lp2221
(lp2222
g2204
aa(lp2223
g2207
aa(lp2224
g2206
aa(lp2225
g2209
aasg2
F0.9128709291752769
sss.